
./mandelbrot.elf:     file format elf32-littleriscv
./mandelbrot.elf
architecture: riscv:rv32, flags 0x00000112:
EXEC_P, HAS_SYMS, D_PAGED
start address 0x00010394

Program Header:
0x70000003 off    0x00002711 vaddr 0x00000000 paddr 0x00000000 align 2**0
         filesz 0x00000025 memsz 0x00000000 flags r--
    LOAD off    0x00000000 vaddr 0x00010000 paddr 0x00010000 align 2**12
         filesz 0x000021c5 memsz 0x000021c5 flags r-x
    LOAD off    0x000021c8 vaddr 0x000131c8 paddr 0x000131c8 align 2**12
         filesz 0x0000051c memsz 0x0000053c flags rw-

Sections:
Idx Name          Size      VMA       LMA       File off  Algn
  0 .text         00001fb8  00010094  00010094  00000094  2**2
                  CONTENTS, ALLOC, LOAD, READONLY, CODE
  1 .rodata       00000179  0001204c  0001204c  0000204c  2**2
                  CONTENTS, ALLOC, LOAD, READONLY, DATA
  2 .eh_frame     00000070  000131c8  000131c8  000021c8  2**2
                  CONTENTS, ALLOC, LOAD, DATA
  3 .init_array   00000008  00013238  00013238  00002238  2**2
                  CONTENTS, ALLOC, LOAD, DATA
  4 .fini_array   00000004  00013240  00013240  00002240  2**2
                  CONTENTS, ALLOC, LOAD, DATA
  5 .data         00000438  00013248  00013248  00002248  2**3
                  CONTENTS, ALLOC, LOAD, DATA
  6 .got          00000018  00013680  00013680  00002680  2**2
                  CONTENTS, ALLOC, LOAD, DATA
  7 .sdata        0000004c  00013698  00013698  00002698  2**2
                  CONTENTS, ALLOC, LOAD, DATA
  8 .bss          00000020  000136e4  000136e4  000026e4  2**2
                  ALLOC
  9 .comment      0000002d  00000000  00000000  000026e4  2**0
                  CONTENTS, READONLY
 10 .riscv.attributes 00000025  00000000  00000000  00002711  2**0
                  CONTENTS, READONLY
 11 .debug_aranges 00000198  00000000  00000000  00002736  2**0
                  CONTENTS, READONLY, DEBUGGING, OCTETS
 12 .debug_info   000021b8  00000000  00000000  000028ce  2**0
                  CONTENTS, READONLY, DEBUGGING, OCTETS
 13 .debug_abbrev 00001068  00000000  00000000  00004a86  2**0
                  CONTENTS, READONLY, DEBUGGING, OCTETS
 14 .debug_line   00003bc3  00000000  00000000  00005aee  2**0
                  CONTENTS, READONLY, DEBUGGING, OCTETS
 15 .debug_frame  00000208  00000000  00000000  000096b4  2**2
                  CONTENTS, READONLY, DEBUGGING, OCTETS
 16 .debug_str    000005f9  00000000  00000000  000098bc  2**0
                  CONTENTS, READONLY, DEBUGGING, OCTETS
 17 .debug_line_str 000003a5  00000000  00000000  00009eb5  2**0
                  CONTENTS, READONLY, DEBUGGING, OCTETS
 18 .debug_loclists 000031b2  00000000  00000000  0000a25a  2**0
                  CONTENTS, READONLY, DEBUGGING, OCTETS
 19 .debug_rnglists 000007e4  00000000  00000000  0000d40c  2**0
                  CONTENTS, READONLY, DEBUGGING, OCTETS
SYMBOL TABLE:
00010094 l    d  .text	00000000 .text
0001204c l    d  .rodata	00000000 .rodata
000131c8 l    d  .eh_frame	00000000 .eh_frame
00013238 l    d  .init_array	00000000 .init_array
00013240 l    d  .fini_array	00000000 .fini_array
00013248 l    d  .data	00000000 .data
00013680 l    d  .got	00000000 .got
00013698 l    d  .sdata	00000000 .sdata
000136e4 l    d  .bss	00000000 .bss
00000000 l    d  .comment	00000000 .comment
00000000 l    d  .riscv.attributes	00000000 .riscv.attributes
00000000 l    d  .debug_aranges	00000000 .debug_aranges
00000000 l    d  .debug_info	00000000 .debug_info
00000000 l    d  .debug_abbrev	00000000 .debug_abbrev
00000000 l    d  .debug_line	00000000 .debug_line
00000000 l    d  .debug_frame	00000000 .debug_frame
00000000 l    d  .debug_str	00000000 .debug_str
00000000 l    d  .debug_line_str	00000000 .debug_line_str
00000000 l    d  .debug_loclists	00000000 .debug_loclists
00000000 l    d  .debug_rnglists	00000000 .debug_rnglists
00000000 l    df *ABS*	00000000 exit.c
00000000 l    df *ABS*	00000000 mandelbrot.cpp
00013700 l     O .bss	00000004 _ZL3row
00000000 l    df *ABS*	00000000 __call_atexit.c
0001037c l     F .text	00000018 register_fini
00000000 l    df *ABS*	00000000 crt0.o
00000000 l    df *ABS*	00000000 crtstuff.c
000131c8 l     O .eh_frame	00000000 __EH_FRAME_BEGIN__
000103e0 l     F .text	00000000 __do_global_dtors_aux
000136e4 l     O .bss	00000001 completed.1
00013240 l     O .fini_array	00000000 __do_global_dtors_aux_fini_array_entry
00010424 l     F .text	00000000 frame_dummy
000136e8 l     O .bss	00000018 object.0
0001323c l     O .init_array	00000000 __frame_dummy_init_array_entry
00000000 l    df *ABS*	00000000 uart.c
00000000 l    df *ABS*	00000000 gpu.c
00000000 l    df *ABS*	00000000 addsf3.c
00000000 l    df *ABS*	00000000 divsf3.c
00000000 l    df *ABS*	00000000 lesf2.c
00000000 l    df *ABS*	00000000 mulsf3.c
00000000 l    df *ABS*	00000000 subsf3.c
00000000 l    df *ABS*	00000000 fixsfsi.c
00000000 l    df *ABS*	00000000 floatsisf.c
00000000 l    df *ABS*	00000000 libgcc2.c
00000000 l    df *ABS*	00000000 wf_log.c
00000000 l    df *ABS*	00000000 ef_log.c
00000000 l    df *ABS*	00000000 sf_nan.c
00000000 l    df *ABS*	00000000 eqsf2.c
00000000 l    df *ABS*	00000000 gesf2.c
00000000 l    df *ABS*	00000000 unordsf2.c
00000000 l    df *ABS*	00000000 errno.c
00000000 l    df *ABS*	00000000 init.c
00000000 l    df *ABS*	00000000 lib_a-memset.o
00000000 l    df *ABS*	00000000 atexit.c
00000000 l    df *ABS*	00000000 fini.c
00000000 l    df *ABS*	00000000 __atexit.c
00000000 l    df *ABS*	00000000 sys_exit.c
00000000 l    df *ABS*	00000000 libgcc2.c
00000000 l    df *ABS*	00000000 core.c
00000000 l    df *ABS*	00000000 leds.c
00000000 l    df *ABS*	00000000 crtstuff.c
00013234 l     O .eh_frame	00000000 __FRAME_END__
00000000 l    df *ABS*	00000000 impure.c
00013258 l     O .data	00000428 impure_data
00000000 l    df *ABS*	00000000 libgcc2.c
00013244 l       .fini_array	00000000 __fini_array_end
00013240 l       .fini_array	00000000 __fini_array_start
00013240 l       .init_array	00000000 __init_array_end
00013238 l       .init_array	00000000 __preinit_array_end
00013688 l     O .got	00000000 _GLOBAL_OFFSET_TABLE_
00013238 l       .init_array	00000000 __init_array_start
00013238 l       .init_array	00000000 __preinit_array_start
00013a48 g       *ABS*	00000000 __global_pointer$
00010904 g     F .text	00000330 .hidden __divsf3
00011500 g     F .text	00000070 .hidden __fixsfsi
00011c74 g     F .text	00000008 __errno
000116d0 g     F .text	0000009c logf
00011044 g     F .text	000004bc .hidden __subsf3
00013698 g       .sdata	00000000 __SDATA_BEGIN__
0001176c g     F .text	0000036c __ieee754_logf
00013250 g     O .data	00000004 GPUFIFO
00010c34 g     F .text	000000dc .hidden __lesf2
00011ae0 g     F .text	00000074 .hidden __nesf2
000136dc g     O .sdata	00000004 _global_impure_ptr
00011c7c g     F .text	0000009c __libc_init_array
00011f28 g     F .text	0000005c __libc_fini_array
00011b54 g     F .text	000000dc .hidden __gtsf2
00011684 g     F .text	0000004c .hidden __clzsi2
00011df4 g     F .text	00000120 __call_exitprocs
00010394 g     F .text	0000004c _start
00011570 g     F .text	00000114 .hidden __floatsisf
00011f84 g     F .text	00000098 __register_exitproc
00011ae0 g     F .text	00000074 .hidden __eqsf2
00013704 g       .bss	00000000 __BSS_END__
000136e4 g       .bss	00000000 __bss_start
00011d18 g     F .text	000000dc memset
000100c4 g     F .text	000002b8 main
0001324c g     O .data	00000004 VRAMBYTES
00010444 g     F .text	0000002c _Z9UARTWritePKc
00010c34 g     F .text	000000dc .hidden __ltsf2
00010d10 g     F .text	00000334 .hidden __mulsf3
000120c4 g     O .rodata	00000100 .hidden __clz_tab
00011f14 g     F .text	00000014 atexit
00011b54 g     F .text	000000dc .hidden __gesf2
00013248 g     O .data	00000004 IO_UARTTX
00011ad8 g     F .text	00000008 nanf
000136e0 g     O .sdata	00000004 _impure_ptr
00013248 g       .data	00000000 __DATA_BEGIN__
000136e4 g       .sdata	00000000 _edata
00013704 g       .bss	00000000 _end
00011c30 g     F .text	00000044 .hidden __unordsf2
00010094 g     F .text	00000030 exit
0001201c g     F .text	00000030 _exit
00010470 g     F .text	00000024 _Z9GPUSetPalhm
00010494 g     F .text	00000470 .hidden __addsf3



Disassembly of section .text:

00010094 <exit>:
   10094:	ff010113          	addi	sp,sp,-16
   10098:	00000593          	li	a1,0
   1009c:	00812423          	sw	s0,8(sp)
   100a0:	00112623          	sw	ra,12(sp)
   100a4:	00050413          	mv	s0,a0
   100a8:	54d010ef          	jal	ra,11df4 <__call_exitprocs>
   100ac:	c941a503          	lw	a0,-876(gp) # 136dc <_global_impure_ptr>
   100b0:	03c52783          	lw	a5,60(a0)
   100b4:	00078463          	beqz	a5,100bc <exit+0x28>
   100b8:	000780e7          	jalr	a5
   100bc:	00040513          	mv	a0,s0
   100c0:	75d010ef          	jal	ra,1201c <_exit>

000100c4 <main>:
   100c4:	fa010113          	addi	sp,sp,-96
   100c8:	04812c23          	sw	s0,88(sp)
   100cc:	04912a23          	sw	s1,84(sp)
   100d0:	01000437          	lui	s0,0x1000
   100d4:	ffff04b7          	lui	s1,0xffff0
   100d8:	04112e23          	sw	ra,92(sp)
   100dc:	05212823          	sw	s2,80(sp)
   100e0:	05312623          	sw	s3,76(sp)
   100e4:	05412423          	sw	s4,72(sp)
   100e8:	05512223          	sw	s5,68(sp)
   100ec:	05612023          	sw	s6,64(sp)
   100f0:	03712e23          	sw	s7,60(sp)
   100f4:	03812c23          	sw	s8,56(sp)
   100f8:	03912a23          	sw	s9,52(sp)
   100fc:	03a12823          	sw	s10,48(sp)
   10100:	03b12623          	sw	s11,44(sp)
   10104:	fff40413          	addi	s0,s0,-1 # ffffff <__global_pointer$+0xfec5b7>
   10108:	eff48493          	addi	s1,s1,-257 # fffefeff <__global_pointer$+0xfffdc4b7>
   1010c:	fff44513          	not	a0,s0
   10110:	00040593          	mv	a1,s0
   10114:	0ff57513          	zext.b	a0,a0
   10118:	00940433          	add	s0,s0,s1
   1011c:	354000ef          	jal	ra,10470 <_Z9GPUSetPalhm>
   10120:	fe9416e3          	bne	s0,s1,1010c <main+0x48>
   10124:	00002517          	auipc	a0,0x2
   10128:	f2850513          	addi	a0,a0,-216 # 1204c <_exit+0x30>
   1012c:	318000ef          	jal	ra,10444 <_Z9UARTWritePKc>
   10130:	cb818793          	addi	a5,gp,-840 # 13700 <_ZL3row>
   10134:	0007ab03          	lw	s6,0(a5)
   10138:	00002797          	auipc	a5,0x2
   1013c:	f3c7a783          	lw	a5,-196(a5) # 12074 <_exit+0x58>
   10140:	00f12a23          	sw	a5,20(sp)
   10144:	00002a97          	auipc	s5,0x2
   10148:	f34aaa83          	lw	s5,-204(s5) # 12078 <_exit+0x5c>
   1014c:	00003b97          	auipc	s7,0x3
   10150:	544bab83          	lw	s7,1348(s7) # 13690 <_GLOBAL_OFFSET_TABLE_+0x8>
   10154:	00100c13          	li	s8,1
   10158:	14000a13          	li	s4,320
   1015c:	00002797          	auipc	a5,0x2
   10160:	f0c78793          	addi	a5,a5,-244 # 12068 <_exit+0x4c>
   10164:	0007a583          	lw	a1,0(a5)
   10168:	01412503          	lw	a0,20(sp)
   1016c:	002b1993          	slli	s3,s6,0x2
   10170:	016989b3          	add	s3,s3,s6
   10174:	39d000ef          	jal	ra,10d10 <__mulsf3>
   10178:	00002797          	auipc	a5,0x2
   1017c:	ef478793          	addi	a5,a5,-268 # 1206c <_exit+0x50>
   10180:	00050593          	mv	a1,a0
   10184:	0007a503          	lw	a0,0(a5)
   10188:	00699993          	slli	s3,s3,0x6
   1018c:	00000413          	li	s0,0
   10190:	6b5000ef          	jal	ra,11044 <__subsf3>
   10194:	36c010ef          	jal	ra,11500 <__fixsfsi>
   10198:	00002797          	auipc	a5,0x2
   1019c:	ec478793          	addi	a5,a5,-316 # 1205c <_exit+0x40>
   101a0:	0007a583          	lw	a1,0(a5)
   101a4:	00050913          	mv	s2,a0
   101a8:	000a8513          	mv	a0,s5
   101ac:	365000ef          	jal	ra,10d10 <__mulsf3>
   101b0:	00050c93          	mv	s9,a0
   101b4:	000b0513          	mv	a0,s6
   101b8:	01912423          	sw	s9,8(sp)
   101bc:	3b4010ef          	jal	ra,11570 <__floatsisf>
   101c0:	00002797          	auipc	a5,0x2
   101c4:	ea078793          	addi	a5,a5,-352 # 12060 <_exit+0x44>
   101c8:	0007a583          	lw	a1,0(a5)
   101cc:	679000ef          	jal	ra,11044 <__subsf3>
   101d0:	000c8593          	mv	a1,s9
   101d4:	33d000ef          	jal	ra,10d10 <__mulsf3>
   101d8:	00002797          	auipc	a5,0x2
   101dc:	ea478793          	addi	a5,a5,-348 # 1207c <_exit+0x60>
   101e0:	0007a583          	lw	a1,0(a5)
   101e4:	2b0000ef          	jal	ra,10494 <__addsf3>
   101e8:	00050d93          	mv	s11,a0
   101ec:	00090513          	mv	a0,s2
   101f0:	01b12823          	sw	s11,16(sp)
   101f4:	37c010ef          	jal	ra,11570 <__floatsisf>
   101f8:	00a12623          	sw	a0,12(sp)
   101fc:	01512c23          	sw	s5,24(sp)
   10200:	01612e23          	sw	s6,28(sp)
   10204:	00040513          	mv	a0,s0
   10208:	368010ef          	jal	ra,11570 <__floatsisf>
   1020c:	00002797          	auipc	a5,0x2
   10210:	e4c78793          	addi	a5,a5,-436 # 12058 <_exit+0x3c>
   10214:	0007a583          	lw	a1,0(a5)
   10218:	62d000ef          	jal	ra,11044 <__subsf3>
   1021c:	00812583          	lw	a1,8(sp)
   10220:	2f1000ef          	jal	ra,10d10 <__mulsf3>
   10224:	00002797          	auipc	a5,0x2
   10228:	e5c78793          	addi	a5,a5,-420 # 12080 <_exit+0x64>
   1022c:	0007a583          	lw	a1,0(a5)
   10230:	615000ef          	jal	ra,11044 <__subsf3>
   10234:	00050c93          	mv	s9,a0
   10238:	13205e63          	blez	s2,10374 <main+0x2b0>
   1023c:	00000d93          	li	s11,0
   10240:	00000a93          	li	s5,0
   10244:	000d8493          	mv	s1,s11
   10248:	000d8d13          	mv	s10,s11
   1024c:	000d8b13          	mv	s6,s11
   10250:	0080006f          	j	10258 <main+0x194>
   10254:	07590e63          	beq	s2,s5,102d0 <main+0x20c>
   10258:	000d0593          	mv	a1,s10
   1025c:	000b0513          	mv	a0,s6
   10260:	2b1000ef          	jal	ra,10d10 <__mulsf3>
   10264:	00050593          	mv	a1,a0
   10268:	22c000ef          	jal	ra,10494 <__addsf3>
   1026c:	00050593          	mv	a1,a0
   10270:	01012503          	lw	a0,16(sp)
   10274:	001a8a93          	addi	s5,s5,1
   10278:	21c000ef          	jal	ra,10494 <__addsf3>
   1027c:	00050d13          	mv	s10,a0
   10280:	00048593          	mv	a1,s1
   10284:	000c8513          	mv	a0,s9
   10288:	20c000ef          	jal	ra,10494 <__addsf3>
   1028c:	000d8593          	mv	a1,s11
   10290:	5b5000ef          	jal	ra,11044 <__subsf3>
   10294:	00050593          	mv	a1,a0
   10298:	00050b13          	mv	s6,a0
   1029c:	275000ef          	jal	ra,10d10 <__mulsf3>
   102a0:	00050493          	mv	s1,a0
   102a4:	000d0593          	mv	a1,s10
   102a8:	000d0513          	mv	a0,s10
   102ac:	265000ef          	jal	ra,10d10 <__mulsf3>
   102b0:	00048593          	mv	a1,s1
   102b4:	00050d93          	mv	s11,a0
   102b8:	1dc000ef          	jal	ra,10494 <__addsf3>
   102bc:	00002797          	auipc	a5,0x2
   102c0:	da878793          	addi	a5,a5,-600 # 12064 <_exit+0x48>
   102c4:	0007a583          	lw	a1,0(a5)
   102c8:	16d000ef          	jal	ra,10c34 <__lesf2>
   102cc:	f80544e3          	bltz	a0,10254 <main+0x190>
   102d0:	00000513          	li	a0,0
   102d4:	038a8c63          	beq	s5,s8,1030c <main+0x248>
   102d8:	00002797          	auipc	a5,0x2
   102dc:	d9878793          	addi	a5,a5,-616 # 12070 <_exit+0x54>
   102e0:	0007a503          	lw	a0,0(a5)
   102e4:	00c12583          	lw	a1,12(sp)
   102e8:	61c000ef          	jal	ra,10904 <__divsf3>
   102ec:	00050493          	mv	s1,a0
   102f0:	000a8513          	mv	a0,s5
   102f4:	27c010ef          	jal	ra,11570 <__floatsisf>
   102f8:	00050593          	mv	a1,a0
   102fc:	00048513          	mv	a0,s1
   10300:	211000ef          	jal	ra,10d10 <__mulsf3>
   10304:	1fc010ef          	jal	ra,11500 <__fixsfsi>
   10308:	0ff57513          	zext.b	a0,a0
   1030c:	000ba783          	lw	a5,0(s7)
   10310:	00898733          	add	a4,s3,s0
   10314:	00140413          	addi	s0,s0,1
   10318:	00e787b3          	add	a5,a5,a4
   1031c:	00a78023          	sb	a0,0(a5)
   10320:	ef4412e3          	bne	s0,s4,10204 <main+0x140>
   10324:	01c12b03          	lw	s6,28(sp)
   10328:	0f000713          	li	a4,240
   1032c:	01812a83          	lw	s5,24(sp)
   10330:	001b0793          	addi	a5,s6,1
   10334:	02e7e7b3          	rem	a5,a5,a4
   10338:	cb818713          	addi	a4,gp,-840 # 13700 <_ZL3row>
   1033c:	00f72023          	sw	a5,0(a4)
   10340:	fc000073          	.4byte	0xfc000073
   10344:	00072b03          	lw	s6,0(a4)
   10348:	0ef00793          	li	a5,239
   1034c:	e0fb18e3          	bne	s6,a5,1015c <main+0x98>
   10350:	00002797          	auipc	a5,0x2
   10354:	d3478793          	addi	a5,a5,-716 # 12084 <_exit+0x68>
   10358:	0007a583          	lw	a1,0(a5)
   1035c:	000a8513          	mv	a0,s5
   10360:	134000ef          	jal	ra,10494 <__addsf3>
   10364:	00050a93          	mv	s5,a0
   10368:	368010ef          	jal	ra,116d0 <logf>
   1036c:	00a12a23          	sw	a0,20(sp)
   10370:	dedff06f          	j	1015c <main+0x98>
   10374:	00000513          	li	a0,0
   10378:	f95ff06f          	j	1030c <main+0x248>

0001037c <register_fini>:
   1037c:	00000793          	li	a5,0
   10380:	00078863          	beqz	a5,10390 <register_fini+0x14>
   10384:	00012537          	lui	a0,0x12
   10388:	f2850513          	addi	a0,a0,-216 # 11f28 <__libc_fini_array>
   1038c:	3890106f          	j	11f14 <atexit>
   10390:	00008067          	ret

00010394 <_start>:
   10394:	00003197          	auipc	gp,0x3
   10398:	6b418193          	addi	gp,gp,1716 # 13a48 <__global_pointer$>
   1039c:	c9c18513          	addi	a0,gp,-868 # 136e4 <completed.1>
   103a0:	cbc18613          	addi	a2,gp,-836 # 13704 <__BSS_END__>
   103a4:	40a60633          	sub	a2,a2,a0
   103a8:	00000593          	li	a1,0
   103ac:	16d010ef          	jal	ra,11d18 <memset>
   103b0:	00002517          	auipc	a0,0x2
   103b4:	b6450513          	addi	a0,a0,-1180 # 11f14 <atexit>
   103b8:	00050863          	beqz	a0,103c8 <_start+0x34>
   103bc:	00002517          	auipc	a0,0x2
   103c0:	b6c50513          	addi	a0,a0,-1172 # 11f28 <__libc_fini_array>
   103c4:	351010ef          	jal	ra,11f14 <atexit>
   103c8:	0b5010ef          	jal	ra,11c7c <__libc_init_array>
   103cc:	00012503          	lw	a0,0(sp)
   103d0:	00410593          	addi	a1,sp,4
   103d4:	00000613          	li	a2,0
   103d8:	cedff0ef          	jal	ra,100c4 <main>
   103dc:	cb9ff06f          	j	10094 <exit>

000103e0 <__do_global_dtors_aux>:
   103e0:	ff010113          	addi	sp,sp,-16
   103e4:	00812423          	sw	s0,8(sp)
   103e8:	c9c1c783          	lbu	a5,-868(gp) # 136e4 <completed.1>
   103ec:	00112623          	sw	ra,12(sp)
   103f0:	02079263          	bnez	a5,10414 <__do_global_dtors_aux+0x34>
   103f4:	00000793          	li	a5,0
   103f8:	00078a63          	beqz	a5,1040c <__do_global_dtors_aux+0x2c>
   103fc:	00013537          	lui	a0,0x13
   10400:	1c850513          	addi	a0,a0,456 # 131c8 <__EH_FRAME_BEGIN__>
   10404:	00000097          	auipc	ra,0x0
   10408:	000000e7          	jalr	zero # 0 <exit-0x10094>
   1040c:	00100793          	li	a5,1
   10410:	c8f18e23          	sb	a5,-868(gp) # 136e4 <completed.1>
   10414:	00c12083          	lw	ra,12(sp)
   10418:	00812403          	lw	s0,8(sp)
   1041c:	01010113          	addi	sp,sp,16
   10420:	00008067          	ret

00010424 <frame_dummy>:
   10424:	00000793          	li	a5,0
   10428:	00078c63          	beqz	a5,10440 <frame_dummy+0x1c>
   1042c:	00013537          	lui	a0,0x13
   10430:	ca018593          	addi	a1,gp,-864 # 136e8 <object.0>
   10434:	1c850513          	addi	a0,a0,456 # 131c8 <__EH_FRAME_BEGIN__>
   10438:	00000317          	auipc	t1,0x0
   1043c:	00000067          	jr	zero # 0 <exit-0x10094>
   10440:	00008067          	ret

00010444 <_Z9UARTWritePKc>:
   10444:	00054783          	lbu	a5,0(a0)
   10448:	02078263          	beqz	a5,1046c <_Z9UARTWritePKc+0x28>
   1044c:	00003717          	auipc	a4,0x3
   10450:	24872703          	lw	a4,584(a4) # 13694 <_GLOBAL_OFFSET_TABLE_+0xc>
   10454:	00072703          	lw	a4,0(a4)
   10458:	00150513          	addi	a0,a0,1
   1045c:	00f72023          	sw	a5,0(a4)
   10460:	00054783          	lbu	a5,0(a0)
   10464:	00150513          	addi	a0,a0,1
   10468:	fe079ae3          	bnez	a5,1045c <_Z9UARTWritePKc+0x18>
   1046c:	00008067          	ret

00010470 <_Z9GPUSetPalhm>:
   10470:	00003797          	auipc	a5,0x3
   10474:	21c7a783          	lw	a5,540(a5) # 1368c <_GLOBAL_OFFSET_TABLE_+0x4>
   10478:	0007a783          	lw	a5,0(a5)
   1047c:	01851513          	slli	a0,a0,0x18
   10480:	00100713          	li	a4,1
   10484:	00e7a023          	sw	a4,0(a5)
   10488:	00b56533          	or	a0,a0,a1
   1048c:	00a7a023          	sw	a0,0(a5)
   10490:	00008067          	ret

00010494 <__addsf3>:
#include "soft-fp.h"
#include "single.h"

SFtype
__addsf3 (SFtype a, SFtype b)
{
   10494:	ff010113          	addi	sp,sp,-16
  FP_DECL_S (B);
  FP_DECL_S (R);
  SFtype r;

  FP_INIT_ROUNDMODE;
  FP_UNPACK_SEMIRAW_S (A, a);
   10498:	00800737          	lui	a4,0x800
   1049c:	fff70713          	addi	a4,a4,-1 # 7fffff <__global_pointer$+0x7ec5b7>
  FP_UNPACK_SEMIRAW_S (B, b);
   104a0:	0175d613          	srli	a2,a1,0x17
{
   104a4:	00812423          	sw	s0,8(sp)
  FP_UNPACK_SEMIRAW_S (A, a);
   104a8:	01755413          	srli	s0,a0,0x17
   104ac:	00a777b3          	and	a5,a4,a0
{
   104b0:	01212023          	sw	s2,0(sp)
  FP_UNPACK_SEMIRAW_S (B, b);
   104b4:	00b77733          	and	a4,a4,a1
  FP_UNPACK_SEMIRAW_S (A, a);
   104b8:	0ff47413          	zext.b	s0,s0
  FP_UNPACK_SEMIRAW_S (B, b);
   104bc:	0ff67613          	zext.b	a2,a2
{
   104c0:	00112623          	sw	ra,12(sp)
   104c4:	00912223          	sw	s1,4(sp)
  FP_UNPACK_SEMIRAW_S (A, a);
   104c8:	01f55913          	srli	s2,a0,0x1f
  FP_UNPACK_SEMIRAW_S (B, b);
   104cc:	01f5d593          	srli	a1,a1,0x1f
  FP_UNPACK_SEMIRAW_S (A, a);
   104d0:	00379793          	slli	a5,a5,0x3
  FP_UNPACK_SEMIRAW_S (B, b);
   104d4:	00371713          	slli	a4,a4,0x3
  FP_ADD_S (R, A, B);
   104d8:	40c406b3          	sub	a3,s0,a2
   104dc:	20b91863          	bne	s2,a1,106ec <__addsf3+0x258>
   104e0:	12d05863          	blez	a3,10610 <__addsf3+0x17c>
   104e4:	02061e63          	bnez	a2,10520 <__addsf3+0x8c>
   104e8:	1e070e63          	beqz	a4,106e4 <__addsf3+0x250>
   104ec:	fff68613          	addi	a2,a3,-1
   104f0:	02061063          	bnez	a2,10510 <__addsf3+0x7c>
   104f4:	00e787b3          	add	a5,a5,a4
   104f8:	04000737          	lui	a4,0x4000
   104fc:	00e7f733          	and	a4,a5,a4
   10500:	00200413          	li	s0,2
   10504:	0e071863          	bnez	a4,105f4 <__addsf3+0x160>
   10508:	00100413          	li	s0,1
   1050c:	0340006f          	j	10540 <__addsf3+0xac>
   10510:	0ff00593          	li	a1,255
   10514:	02b69063          	bne	a3,a1,10534 <__addsf3+0xa0>
   10518:	0ff00413          	li	s0,255
   1051c:	0240006f          	j	10540 <__addsf3+0xac>
   10520:	0ff00613          	li	a2,255
   10524:	00c40e63          	beq	s0,a2,10540 <__addsf3+0xac>
   10528:	04000637          	lui	a2,0x4000
   1052c:	00c76733          	or	a4,a4,a2
   10530:	00068613          	mv	a2,a3
   10534:	01b00693          	li	a3,27
   10538:	08c6d263          	bge	a3,a2,105bc <__addsf3+0x128>
   1053c:	00178793          	addi	a5,a5,1
  FP_PACK_SEMIRAW_S (r, R);
   10540:	0077f713          	andi	a4,a5,7
   10544:	00070a63          	beqz	a4,10558 <__addsf3+0xc4>
   10548:	00f7f713          	andi	a4,a5,15
   1054c:	00400693          	li	a3,4
   10550:	00d70463          	beq	a4,a3,10558 <__addsf3+0xc4>
   10554:	00478793          	addi	a5,a5,4
   10558:	04000737          	lui	a4,0x4000
   1055c:	00e7f733          	and	a4,a5,a4
   10560:	38070063          	beqz	a4,108e0 <__addsf3+0x44c>
   10564:	00140413          	addi	s0,s0,1
   10568:	0ff00713          	li	a4,255
   1056c:	00000493          	li	s1,0
   10570:	00e40a63          	beq	s0,a4,10584 <__addsf3+0xf0>
   10574:	0037d493          	srli	s1,a5,0x3
   10578:	1f8007b7          	lui	a5,0x1f800
   1057c:	fff78793          	addi	a5,a5,-1 # 1f7fffff <__global_pointer$+0x1f7ec5b7>
   10580:	00f4f4b3          	and	s1,s1,a5
   10584:	01741413          	slli	s0,s0,0x17
   10588:	7f8007b7          	lui	a5,0x7f800
   1058c:	00949493          	slli	s1,s1,0x9
   10590:	0094d493          	srli	s1,s1,0x9
   10594:	00f47433          	and	s0,s0,a5
   10598:	00946433          	or	s0,s0,s1
   1059c:	01f91513          	slli	a0,s2,0x1f
  FP_HANDLE_EXCEPTIONS;

  return r;
}
   105a0:	00c12083          	lw	ra,12(sp)
   105a4:	00a46533          	or	a0,s0,a0
   105a8:	00812403          	lw	s0,8(sp)
   105ac:	00412483          	lw	s1,4(sp)
   105b0:	00012903          	lw	s2,0(sp)
   105b4:	01010113          	addi	sp,sp,16
   105b8:	00008067          	ret
  FP_ADD_S (R, A, B);
   105bc:	02000693          	li	a3,32
   105c0:	40c686b3          	sub	a3,a3,a2
   105c4:	00c755b3          	srl	a1,a4,a2
   105c8:	00d71733          	sll	a4,a4,a3
   105cc:	00e03733          	snez	a4,a4
   105d0:	00e5e733          	or	a4,a1,a4
   105d4:	00e787b3          	add	a5,a5,a4
   105d8:	04000737          	lui	a4,0x4000
   105dc:	00e7f733          	and	a4,a5,a4
   105e0:	f60700e3          	beqz	a4,10540 <__addsf3+0xac>
   105e4:	00140413          	addi	s0,s0,1
   105e8:	0ff00713          	li	a4,255
  FP_PACK_SEMIRAW_S (r, R);
   105ec:	00000493          	li	s1,0
  FP_ADD_S (R, A, B);
   105f0:	f8e40ae3          	beq	s0,a4,10584 <__addsf3+0xf0>
   105f4:	7e000737          	lui	a4,0x7e000
   105f8:	0017f693          	andi	a3,a5,1
   105fc:	fff70713          	addi	a4,a4,-1 # 7dffffff <__global_pointer$+0x7dfec5b7>
   10600:	0017d793          	srli	a5,a5,0x1
   10604:	00e7f7b3          	and	a5,a5,a4
   10608:	00d7e7b3          	or	a5,a5,a3
   1060c:	f35ff06f          	j	10540 <__addsf3+0xac>
   10610:	06068a63          	beqz	a3,10684 <__addsf3+0x1f0>
   10614:	408606b3          	sub	a3,a2,s0
   10618:	02041063          	bnez	s0,10638 <__addsf3+0x1a4>
   1061c:	2a078263          	beqz	a5,108c0 <__addsf3+0x42c>
   10620:	fff68593          	addi	a1,a3,-1
   10624:	ec0588e3          	beqz	a1,104f4 <__addsf3+0x60>
   10628:	0ff00513          	li	a0,255
   1062c:	02a69063          	bne	a3,a0,1064c <__addsf3+0x1b8>
  FP_UNPACK_SEMIRAW_S (B, b);
   10630:	00070793          	mv	a5,a4
   10634:	ee5ff06f          	j	10518 <__addsf3+0x84>
  FP_ADD_S (R, A, B);
   10638:	0ff00593          	li	a1,255
   1063c:	feb60ae3          	beq	a2,a1,10630 <__addsf3+0x19c>
   10640:	040005b7          	lui	a1,0x4000
   10644:	00b7e7b3          	or	a5,a5,a1
   10648:	00068593          	mv	a1,a3
   1064c:	01b00693          	li	a3,27
   10650:	00b6d863          	bge	a3,a1,10660 <__addsf3+0x1cc>
   10654:	00170793          	addi	a5,a4,1
  FP_UNPACK_SEMIRAW_S (B, b);
   10658:	00060413          	mv	s0,a2
   1065c:	ee5ff06f          	j	10540 <__addsf3+0xac>
  FP_ADD_S (R, A, B);
   10660:	02000693          	li	a3,32
   10664:	40b686b3          	sub	a3,a3,a1
   10668:	00b7d533          	srl	a0,a5,a1
   1066c:	00d797b3          	sll	a5,a5,a3
   10670:	00f037b3          	snez	a5,a5
   10674:	00f567b3          	or	a5,a0,a5
   10678:	00e787b3          	add	a5,a5,a4
  FP_UNPACK_SEMIRAW_S (B, b);
   1067c:	00060413          	mv	s0,a2
   10680:	f59ff06f          	j	105d8 <__addsf3+0x144>
  FP_ADD_S (R, A, B);
   10684:	00140693          	addi	a3,s0,1
   10688:	0fe6f613          	andi	a2,a3,254
   1068c:	04061463          	bnez	a2,106d4 <__addsf3+0x240>
   10690:	02041663          	bnez	s0,106bc <__addsf3+0x228>
   10694:	22078a63          	beqz	a5,108c8 <__addsf3+0x434>
   10698:	ea0704e3          	beqz	a4,10540 <__addsf3+0xac>
   1069c:	00e787b3          	add	a5,a5,a4
   106a0:	04000737          	lui	a4,0x4000
   106a4:	00e7f733          	and	a4,a5,a4
   106a8:	e8070ce3          	beqz	a4,10540 <__addsf3+0xac>
   106ac:	fc000737          	lui	a4,0xfc000
   106b0:	fff70713          	addi	a4,a4,-1 # fbffffff <__global_pointer$+0xfbfec5b7>
   106b4:	00e7f7b3          	and	a5,a5,a4
   106b8:	e51ff06f          	j	10508 <__addsf3+0x74>
   106bc:	f6078ae3          	beqz	a5,10630 <__addsf3+0x19c>
   106c0:	e4070ce3          	beqz	a4,10518 <__addsf3+0x84>
  FP_PACK_SEMIRAW_S (r, R);
   106c4:	00000913          	li	s2,0
   106c8:	0ff00413          	li	s0,255
   106cc:	004004b7          	lui	s1,0x400
   106d0:	eb5ff06f          	j	10584 <__addsf3+0xf0>
  FP_ADD_S (R, A, B);
   106d4:	0ff00613          	li	a2,255
   106d8:	22c68063          	beq	a3,a2,108f8 <__addsf3+0x464>
   106dc:	00e78733          	add	a4,a5,a4
   106e0:	00175793          	srli	a5,a4,0x1
  FP_UNPACK_SEMIRAW_S (A, a);
   106e4:	00068413          	mv	s0,a3
   106e8:	e59ff06f          	j	10540 <__addsf3+0xac>
  FP_ADD_S (R, A, B);
   106ec:	08d05063          	blez	a3,1076c <__addsf3+0x2d8>
   106f0:	06061263          	bnez	a2,10754 <__addsf3+0x2c0>
   106f4:	fe0708e3          	beqz	a4,106e4 <__addsf3+0x250>
   106f8:	fff68613          	addi	a2,a3,-1
   106fc:	00061863          	bnez	a2,1070c <__addsf3+0x278>
   10700:	40e787b3          	sub	a5,a5,a4
  FP_UNPACK_SEMIRAW_S (B, b);
   10704:	00100413          	li	s0,1
  FP_ADD_S (R, A, B);
   10708:	0340006f          	j	1073c <__addsf3+0x2a8>
   1070c:	0ff00593          	li	a1,255
   10710:	e0b684e3          	beq	a3,a1,10518 <__addsf3+0x84>
   10714:	01b00593          	li	a1,27
   10718:	00100693          	li	a3,1
   1071c:	00c5ce63          	blt	a1,a2,10738 <__addsf3+0x2a4>
   10720:	02000693          	li	a3,32
   10724:	40c686b3          	sub	a3,a3,a2
   10728:	00c755b3          	srl	a1,a4,a2
   1072c:	00d71733          	sll	a4,a4,a3
   10730:	00e03733          	snez	a4,a4
   10734:	00e5e6b3          	or	a3,a1,a4
   10738:	40d787b3          	sub	a5,a5,a3
   1073c:	040004b7          	lui	s1,0x4000
   10740:	0097f733          	and	a4,a5,s1
   10744:	de070ee3          	beqz	a4,10540 <__addsf3+0xac>
   10748:	fff48493          	addi	s1,s1,-1 # 3ffffff <__global_pointer$+0x3fec5b7>
   1074c:	0097f4b3          	and	s1,a5,s1
   10750:	1140006f          	j	10864 <__addsf3+0x3d0>
   10754:	0ff00613          	li	a2,255
   10758:	dec404e3          	beq	s0,a2,10540 <__addsf3+0xac>
   1075c:	04000637          	lui	a2,0x4000
   10760:	00c76733          	or	a4,a4,a2
   10764:	00068613          	mv	a2,a3
   10768:	fadff06f          	j	10714 <__addsf3+0x280>
   1076c:	08068063          	beqz	a3,107ec <__addsf3+0x358>
   10770:	408606b3          	sub	a3,a2,s0
   10774:	02041863          	bnez	s0,107a4 <__addsf3+0x310>
   10778:	14078c63          	beqz	a5,108d0 <__addsf3+0x43c>
   1077c:	fff68513          	addi	a0,a3,-1
   10780:	00051863          	bnez	a0,10790 <__addsf3+0x2fc>
   10784:	40f707b3          	sub	a5,a4,a5
   10788:	00058913          	mv	s2,a1
   1078c:	f79ff06f          	j	10704 <__addsf3+0x270>
   10790:	0ff00813          	li	a6,255
   10794:	03069263          	bne	a3,a6,107b8 <__addsf3+0x324>
  FP_UNPACK_SEMIRAW_S (B, b);
   10798:	00070793          	mv	a5,a4
  FP_ADD_S (R, A, B);
   1079c:	0ff00413          	li	s0,255
   107a0:	1380006f          	j	108d8 <__addsf3+0x444>
   107a4:	0ff00513          	li	a0,255
   107a8:	fea608e3          	beq	a2,a0,10798 <__addsf3+0x304>
   107ac:	04000537          	lui	a0,0x4000
   107b0:	00a7e7b3          	or	a5,a5,a0
   107b4:	00068513          	mv	a0,a3
   107b8:	01b00813          	li	a6,27
   107bc:	00100693          	li	a3,1
   107c0:	00a84e63          	blt	a6,a0,107dc <__addsf3+0x348>
   107c4:	02000693          	li	a3,32
   107c8:	40a686b3          	sub	a3,a3,a0
   107cc:	00a7d833          	srl	a6,a5,a0
   107d0:	00d797b3          	sll	a5,a5,a3
   107d4:	00f037b3          	snez	a5,a5
   107d8:	00f866b3          	or	a3,a6,a5
   107dc:	40d707b3          	sub	a5,a4,a3
  FP_UNPACK_SEMIRAW_S (B, b);
   107e0:	00060413          	mv	s0,a2
   107e4:	00058913          	mv	s2,a1
   107e8:	f55ff06f          	j	1073c <__addsf3+0x2a8>
  FP_ADD_S (R, A, B);
   107ec:	00140693          	addi	a3,s0,1
   107f0:	0fe6f693          	andi	a3,a3,254
   107f4:	04069c63          	bnez	a3,1084c <__addsf3+0x3b8>
   107f8:	04041063          	bnez	s0,10838 <__addsf3+0x3a4>
   107fc:	00079a63          	bnez	a5,10810 <__addsf3+0x37c>
   10800:	00070793          	mv	a5,a4
   10804:	0c071a63          	bnez	a4,108d8 <__addsf3+0x444>
  FP_PACK_SEMIRAW_S (r, R);
   10808:	00000493          	li	s1,0
   1080c:	0240006f          	j	10830 <__addsf3+0x39c>
  FP_ADD_S (R, A, B);
   10810:	d20708e3          	beqz	a4,10540 <__addsf3+0xac>
   10814:	40e784b3          	sub	s1,a5,a4
   10818:	040006b7          	lui	a3,0x4000
   1081c:	00d4f6b3          	and	a3,s1,a3
   10820:	40f707b3          	sub	a5,a4,a5
   10824:	0a069a63          	bnez	a3,108d8 <__addsf3+0x444>
   10828:	00048793          	mv	a5,s1
   1082c:	d0049ae3          	bnez	s1,10540 <__addsf3+0xac>
   10830:	00000913          	li	s2,0
   10834:	d51ff06f          	j	10584 <__addsf3+0xf0>
   10838:	e80794e3          	bnez	a5,106c0 <__addsf3+0x22c>
   1083c:	e80704e3          	beqz	a4,106c4 <__addsf3+0x230>
   10840:	00070793          	mv	a5,a4
   10844:	00058913          	mv	s2,a1
   10848:	cd1ff06f          	j	10518 <__addsf3+0x84>
   1084c:	40e784b3          	sub	s1,a5,a4
   10850:	040006b7          	lui	a3,0x4000
   10854:	00d4f6b3          	and	a3,s1,a3
   10858:	04068463          	beqz	a3,108a0 <__addsf3+0x40c>
   1085c:	40f704b3          	sub	s1,a4,a5
   10860:	00058913          	mv	s2,a1
   10864:	00048513          	mv	a0,s1
   10868:	61d000ef          	jal	ra,11684 <__clzsi2>
   1086c:	ffb50513          	addi	a0,a0,-5 # 3fffffb <__global_pointer$+0x3fec5b3>
   10870:	00a494b3          	sll	s1,s1,a0
   10874:	02854c63          	blt	a0,s0,108ac <__addsf3+0x418>
   10878:	40850533          	sub	a0,a0,s0
   1087c:	00150513          	addi	a0,a0,1
   10880:	02000713          	li	a4,32
   10884:	40a70733          	sub	a4,a4,a0
   10888:	00a4d7b3          	srl	a5,s1,a0
   1088c:	00e494b3          	sll	s1,s1,a4
   10890:	009034b3          	snez	s1,s1
   10894:	0097e7b3          	or	a5,a5,s1
   10898:	00000413          	li	s0,0
   1089c:	ca5ff06f          	j	10540 <__addsf3+0xac>
   108a0:	fc0492e3          	bnez	s1,10864 <__addsf3+0x3d0>
   108a4:	00000413          	li	s0,0
   108a8:	f89ff06f          	j	10830 <__addsf3+0x39c>
   108ac:	fc0007b7          	lui	a5,0xfc000
   108b0:	fff78793          	addi	a5,a5,-1 # fbffffff <__global_pointer$+0xfbfec5b7>
   108b4:	40a40433          	sub	s0,s0,a0
   108b8:	00f4f7b3          	and	a5,s1,a5
   108bc:	c85ff06f          	j	10540 <__addsf3+0xac>
  FP_UNPACK_SEMIRAW_S (B, b);
   108c0:	00070793          	mv	a5,a4
   108c4:	e21ff06f          	j	106e4 <__addsf3+0x250>
   108c8:	00070793          	mv	a5,a4
   108cc:	c75ff06f          	j	10540 <__addsf3+0xac>
   108d0:	00070793          	mv	a5,a4
   108d4:	00068413          	mv	s0,a3
   108d8:	00058913          	mv	s2,a1
   108dc:	c65ff06f          	j	10540 <__addsf3+0xac>
  FP_PACK_SEMIRAW_S (r, R);
   108e0:	0037d493          	srli	s1,a5,0x3
   108e4:	0ff00793          	li	a5,255
   108e8:	c8f41ee3          	bne	s0,a5,10584 <__addsf3+0xf0>
   108ec:	c8048ce3          	beqz	s1,10584 <__addsf3+0xf0>
   108f0:	004004b7          	lui	s1,0x400
   108f4:	f3dff06f          	j	10830 <__addsf3+0x39c>
   108f8:	0ff00413          	li	s0,255
   108fc:	00000493          	li	s1,0
   10900:	c85ff06f          	j	10584 <__addsf3+0xf0>

00010904 <__divsf3>:
#include "soft-fp.h"
#include "single.h"

SFtype
__divsf3 (SFtype a, SFtype b)
{
   10904:	fe010113          	addi	sp,sp,-32
   10908:	00912a23          	sw	s1,20(sp)
   1090c:	01755493          	srli	s1,a0,0x17
   10910:	01212823          	sw	s2,16(sp)
   10914:	01312623          	sw	s3,12(sp)
   10918:	01412423          	sw	s4,8(sp)
  FP_DECL_S (B);
  FP_DECL_S (R);
  SFtype r;

  FP_INIT_ROUNDMODE;
  FP_UNPACK_S (A, a);
   1091c:	00951713          	slli	a4,a0,0x9
{
   10920:	00112e23          	sw	ra,28(sp)
   10924:	00812c23          	sw	s0,24(sp)
   10928:	01512223          	sw	s5,4(sp)
   1092c:	0ff4f493          	zext.b	s1,s1
   10930:	00058a13          	mv	s4,a1
  FP_UNPACK_S (A, a);
   10934:	00975993          	srli	s3,a4,0x9
   10938:	01f55913          	srli	s2,a0,0x1f
   1093c:	08048463          	beqz	s1,109c4 <__divsf3+0xc0>
   10940:	0ff00793          	li	a5,255
   10944:	0af48063          	beq	s1,a5,109e4 <__divsf3+0xe0>
   10948:	00399713          	slli	a4,s3,0x3
   1094c:	040007b7          	lui	a5,0x4000
   10950:	00f769b3          	or	s3,a4,a5
   10954:	f8148493          	addi	s1,s1,-127 # 3fff81 <__global_pointer$+0x3ec539>
   10958:	00000a93          	li	s5,0
  FP_UNPACK_S (B, b);
   1095c:	017a5793          	srli	a5,s4,0x17
   10960:	009a1413          	slli	s0,s4,0x9
   10964:	0ff7f793          	zext.b	a5,a5
   10968:	00945413          	srli	s0,s0,0x9
   1096c:	01fa5a13          	srli	s4,s4,0x1f
   10970:	08078a63          	beqz	a5,10a04 <__divsf3+0x100>
   10974:	0ff00713          	li	a4,255
   10978:	0ae78663          	beq	a5,a4,10a24 <__divsf3+0x120>
   1097c:	00341413          	slli	s0,s0,0x3
   10980:	04000737          	lui	a4,0x4000
   10984:	00e46433          	or	s0,s0,a4
   10988:	f8178793          	addi	a5,a5,-127 # 3ffff81 <__global_pointer$+0x3fec539>
   1098c:	00000693          	li	a3,0
  FP_DIV_S (R, A, B);
   10990:	40f484b3          	sub	s1,s1,a5
   10994:	002a9793          	slli	a5,s5,0x2
   10998:	00d7e7b3          	or	a5,a5,a3
   1099c:	fff78793          	addi	a5,a5,-1
   109a0:	00e00713          	li	a4,14
   109a4:	01494633          	xor	a2,s2,s4
   109a8:	0cf76663          	bltu	a4,a5,10a74 <__divsf3+0x170>
   109ac:	00012737          	lui	a4,0x12
   109b0:	00279793          	slli	a5,a5,0x2
   109b4:	08870713          	addi	a4,a4,136 # 12088 <_exit+0x6c>
   109b8:	00e787b3          	add	a5,a5,a4
   109bc:	0007a783          	lw	a5,0(a5)
   109c0:	00078067          	jr	a5
  FP_UNPACK_S (A, a);
   109c4:	02098a63          	beqz	s3,109f8 <__divsf3+0xf4>
   109c8:	00098513          	mv	a0,s3
   109cc:	4b9000ef          	jal	ra,11684 <__clzsi2>
   109d0:	ffb50793          	addi	a5,a0,-5
   109d4:	f8a00493          	li	s1,-118
   109d8:	00f999b3          	sll	s3,s3,a5
   109dc:	40a484b3          	sub	s1,s1,a0
   109e0:	f79ff06f          	j	10958 <__divsf3+0x54>
   109e4:	0ff00493          	li	s1,255
   109e8:	00300a93          	li	s5,3
   109ec:	f60998e3          	bnez	s3,1095c <__divsf3+0x58>
   109f0:	00200a93          	li	s5,2
   109f4:	f69ff06f          	j	1095c <__divsf3+0x58>
   109f8:	00000493          	li	s1,0
   109fc:	00100a93          	li	s5,1
   10a00:	f5dff06f          	j	1095c <__divsf3+0x58>
  FP_UNPACK_S (B, b);
   10a04:	02040a63          	beqz	s0,10a38 <__divsf3+0x134>
   10a08:	00040513          	mv	a0,s0
   10a0c:	479000ef          	jal	ra,11684 <__clzsi2>
   10a10:	ffb50793          	addi	a5,a0,-5
   10a14:	00f41433          	sll	s0,s0,a5
   10a18:	f8a00793          	li	a5,-118
   10a1c:	40a787b3          	sub	a5,a5,a0
   10a20:	f6dff06f          	j	1098c <__divsf3+0x88>
   10a24:	0ff00793          	li	a5,255
   10a28:	00300693          	li	a3,3
   10a2c:	f60412e3          	bnez	s0,10990 <__divsf3+0x8c>
   10a30:	00200693          	li	a3,2
   10a34:	f5dff06f          	j	10990 <__divsf3+0x8c>
   10a38:	00000793          	li	a5,0
   10a3c:	00100693          	li	a3,1
   10a40:	f51ff06f          	j	10990 <__divsf3+0x8c>
  FP_UNPACK_S (A, a);
   10a44:	00090613          	mv	a2,s2
   10a48:	00098413          	mv	s0,s3
  FP_DIV_S (R, A, B);
   10a4c:	000a8693          	mv	a3,s5
  FP_PACK_S (r, R);
   10a50:	00200793          	li	a5,2
   10a54:	1cf68a63          	beq	a3,a5,10c28 <__divsf3+0x324>
   10a58:	00300793          	li	a5,3
   10a5c:	1af68e63          	beq	a3,a5,10c18 <__divsf3+0x314>
   10a60:	00100793          	li	a5,1
   10a64:	0af69c63          	bne	a3,a5,10b1c <__divsf3+0x218>
   10a68:	00000793          	li	a5,0
   10a6c:	00000713          	li	a4,0
   10a70:	0f40006f          	j	10b64 <__divsf3+0x260>
  FP_DIV_S (R, A, B);
   10a74:	00541593          	slli	a1,s0,0x5
   10a78:	1289f463          	bgeu	s3,s0,10ba0 <__divsf3+0x29c>
   10a7c:	fff48493          	addi	s1,s1,-1
   10a80:	00000793          	li	a5,0
   10a84:	0105d513          	srli	a0,a1,0x10
   10a88:	02a9d8b3          	divu	a7,s3,a0
   10a8c:	000106b7          	lui	a3,0x10
   10a90:	fff68693          	addi	a3,a3,-1 # ffff <exit-0x95>
   10a94:	00d5f6b3          	and	a3,a1,a3
   10a98:	0107d793          	srli	a5,a5,0x10
   10a9c:	02a9f733          	remu	a4,s3,a0
   10aa0:	00088413          	mv	s0,a7
   10aa4:	03168833          	mul	a6,a3,a7
   10aa8:	01071713          	slli	a4,a4,0x10
   10aac:	00e7e7b3          	or	a5,a5,a4
   10ab0:	0107fe63          	bgeu	a5,a6,10acc <__divsf3+0x1c8>
   10ab4:	00f587b3          	add	a5,a1,a5
   10ab8:	fff88413          	addi	s0,a7,-1
   10abc:	00b7e863          	bltu	a5,a1,10acc <__divsf3+0x1c8>
   10ac0:	0107f663          	bgeu	a5,a6,10acc <__divsf3+0x1c8>
   10ac4:	ffe88413          	addi	s0,a7,-2
   10ac8:	00b787b3          	add	a5,a5,a1
   10acc:	410787b3          	sub	a5,a5,a6
   10ad0:	02a7d833          	divu	a6,a5,a0
   10ad4:	02a7f7b3          	remu	a5,a5,a0
   10ad8:	03068733          	mul	a4,a3,a6
   10adc:	01079793          	slli	a5,a5,0x10
   10ae0:	00080693          	mv	a3,a6
   10ae4:	02e7f263          	bgeu	a5,a4,10b08 <__divsf3+0x204>
   10ae8:	00b78533          	add	a0,a5,a1
   10aec:	00f538b3          	sltu	a7,a0,a5
   10af0:	fff80693          	addi	a3,a6,-1
   10af4:	00050793          	mv	a5,a0
   10af8:	00089863          	bnez	a7,10b08 <__divsf3+0x204>
   10afc:	00e57663          	bgeu	a0,a4,10b08 <__divsf3+0x204>
   10b00:	ffe80693          	addi	a3,a6,-2
   10b04:	00b507b3          	add	a5,a0,a1
   10b08:	01041413          	slli	s0,s0,0x10
   10b0c:	40e787b3          	sub	a5,a5,a4
   10b10:	00d46433          	or	s0,s0,a3
   10b14:	00f037b3          	snez	a5,a5
   10b18:	00f46433          	or	s0,s0,a5
  FP_PACK_S (r, R);
   10b1c:	07f48713          	addi	a4,s1,127
   10b20:	08e05a63          	blez	a4,10bb4 <__divsf3+0x2b0>
   10b24:	00747793          	andi	a5,s0,7
   10b28:	00078a63          	beqz	a5,10b3c <__divsf3+0x238>
   10b2c:	00f47793          	andi	a5,s0,15
   10b30:	00400693          	li	a3,4
   10b34:	00d78463          	beq	a5,a3,10b3c <__divsf3+0x238>
   10b38:	00440413          	addi	s0,s0,4
   10b3c:	080007b7          	lui	a5,0x8000
   10b40:	00f477b3          	and	a5,s0,a5
   10b44:	00078a63          	beqz	a5,10b58 <__divsf3+0x254>
   10b48:	f80007b7          	lui	a5,0xf8000
   10b4c:	fff78793          	addi	a5,a5,-1 # f7ffffff <__global_pointer$+0xf7fec5b7>
   10b50:	00f47433          	and	s0,s0,a5
   10b54:	08048713          	addi	a4,s1,128
   10b58:	0fe00793          	li	a5,254
   10b5c:	0ce7c663          	blt	a5,a4,10c28 <__divsf3+0x324>
   10b60:	00345793          	srli	a5,s0,0x3
  FP_HANDLE_EXCEPTIONS;

  return r;
}
   10b64:	01c12083          	lw	ra,28(sp)
   10b68:	01812403          	lw	s0,24(sp)
  FP_PACK_S (r, R);
   10b6c:	00979793          	slli	a5,a5,0x9
   10b70:	01771713          	slli	a4,a4,0x17
   10b74:	0097d793          	srli	a5,a5,0x9
   10b78:	00f76733          	or	a4,a4,a5
   10b7c:	01f61513          	slli	a0,a2,0x1f
}
   10b80:	01412483          	lw	s1,20(sp)
   10b84:	01012903          	lw	s2,16(sp)
   10b88:	00c12983          	lw	s3,12(sp)
   10b8c:	00812a03          	lw	s4,8(sp)
   10b90:	00412a83          	lw	s5,4(sp)
   10b94:	00a76533          	or	a0,a4,a0
   10b98:	02010113          	addi	sp,sp,32
   10b9c:	00008067          	ret
  FP_DIV_S (R, A, B);
   10ba0:	01f99793          	slli	a5,s3,0x1f
   10ba4:	0019d993          	srli	s3,s3,0x1
   10ba8:	eddff06f          	j	10a84 <__divsf3+0x180>
  FP_UNPACK_S (B, b);
   10bac:	000a0613          	mv	a2,s4
  FP_DIV_S (R, A, B);
   10bb0:	ea1ff06f          	j	10a50 <__divsf3+0x14c>
  FP_PACK_S (r, R);
   10bb4:	00100693          	li	a3,1
   10bb8:	00070c63          	beqz	a4,10bd0 <__divsf3+0x2cc>
   10bbc:	40e686b3          	sub	a3,a3,a4
   10bc0:	01b00593          	li	a1,27
   10bc4:	00000793          	li	a5,0
   10bc8:	00000713          	li	a4,0
   10bcc:	f8d5cce3          	blt	a1,a3,10b64 <__divsf3+0x260>
   10bd0:	09e48493          	addi	s1,s1,158
   10bd4:	00d456b3          	srl	a3,s0,a3
   10bd8:	00941433          	sll	s0,s0,s1
   10bdc:	00803433          	snez	s0,s0
   10be0:	0086e7b3          	or	a5,a3,s0
   10be4:	0077f713          	andi	a4,a5,7
   10be8:	00070a63          	beqz	a4,10bfc <__divsf3+0x2f8>
   10bec:	00f7f713          	andi	a4,a5,15
   10bf0:	00400693          	li	a3,4
   10bf4:	00d70463          	beq	a4,a3,10bfc <__divsf3+0x2f8>
   10bf8:	00478793          	addi	a5,a5,4
   10bfc:	04000737          	lui	a4,0x4000
   10c00:	00e7f733          	and	a4,a5,a4
   10c04:	0037d793          	srli	a5,a5,0x3
   10c08:	f4070ee3          	beqz	a4,10b64 <__divsf3+0x260>
   10c0c:	00000793          	li	a5,0
   10c10:	00100713          	li	a4,1
   10c14:	f51ff06f          	j	10b64 <__divsf3+0x260>
   10c18:	004007b7          	lui	a5,0x400
   10c1c:	0ff00713          	li	a4,255
   10c20:	00000613          	li	a2,0
   10c24:	f41ff06f          	j	10b64 <__divsf3+0x260>
   10c28:	00000793          	li	a5,0
   10c2c:	0ff00713          	li	a4,255
   10c30:	f35ff06f          	j	10b64 <__divsf3+0x260>

00010c34 <__lesf2>:
  FP_DECL_S (A);
  FP_DECL_S (B);
  CMPtype r;

  FP_INIT_EXCEPTIONS;
  FP_UNPACK_RAW_S (A, a);
   10c34:	00800737          	lui	a4,0x800
   10c38:	fff70713          	addi	a4,a4,-1 # 7fffff <__global_pointer$+0x7ec5b7>
   10c3c:	01755693          	srli	a3,a0,0x17
   10c40:	00a77633          	and	a2,a4,a0
   10c44:	01f55793          	srli	a5,a0,0x1f
   10c48:	0ff6f693          	zext.b	a3,a3
  FP_UNPACK_RAW_S (B, b);
   10c4c:	0175d513          	srli	a0,a1,0x17
  FP_CMP_S (r, A, B, 2, 2);
   10c50:	0ff00813          	li	a6,255
  FP_UNPACK_RAW_S (B, b);
   10c54:	00b77733          	and	a4,a4,a1
   10c58:	0ff57513          	zext.b	a0,a0
   10c5c:	01f5d593          	srli	a1,a1,0x1f
  FP_CMP_S (r, A, B, 2, 2);
   10c60:	03069863          	bne	a3,a6,10c90 <__lesf2+0x5c>
   10c64:	08061e63          	bnez	a2,10d00 <__lesf2+0xcc>
   10c68:	00d50a63          	beq	a0,a3,10c7c <__lesf2+0x48>
   10c6c:	00100513          	li	a0,1
   10c70:	06078c63          	beqz	a5,10ce8 <__lesf2+0xb4>
   10c74:	fff00513          	li	a0,-1
   10c78:	00008067          	ret
   10c7c:	00200513          	li	a0,2
   10c80:	06071463          	bnez	a4,10ce8 <__lesf2+0xb4>
   10c84:	feb794e3          	bne	a5,a1,10c6c <__lesf2+0x38>
   10c88:	00000513          	li	a0,0
   10c8c:	00008067          	ret
   10c90:	03051463          	bne	a0,a6,10cb8 <__lesf2+0x84>
   10c94:	00200513          	li	a0,2
   10c98:	04071863          	bnez	a4,10ce8 <__lesf2+0xb4>
   10c9c:	00069463          	bnez	a3,10ca4 <__lesf2+0x70>
   10ca0:	04060863          	beqz	a2,10cf0 <__lesf2+0xbc>
   10ca4:	fcb794e3          	bne	a5,a1,10c6c <__lesf2+0x38>
   10ca8:	fff00513          	li	a0,-1
   10cac:	02078e63          	beqz	a5,10ce8 <__lesf2+0xb4>
   10cb0:	00078513          	mv	a0,a5
   10cb4:	00008067          	ret
   10cb8:	02068263          	beqz	a3,10cdc <__lesf2+0xa8>
   10cbc:	fa0508e3          	beqz	a0,10c6c <__lesf2+0x38>
   10cc0:	fab796e3          	bne	a5,a1,10c6c <__lesf2+0x38>
   10cc4:	fad544e3          	blt	a0,a3,10c6c <__lesf2+0x38>
   10cc8:	fea6c0e3          	blt	a3,a0,10ca8 <__lesf2+0x74>
   10ccc:	fac760e3          	bltu	a4,a2,10c6c <__lesf2+0x38>
   10cd0:	00000513          	li	a0,0
   10cd4:	00e67a63          	bgeu	a2,a4,10ce8 <__lesf2+0xb4>
   10cd8:	fd1ff06f          	j	10ca8 <__lesf2+0x74>
   10cdc:	fc0512e3          	bnez	a0,10ca0 <__lesf2+0x6c>
   10ce0:	00071663          	bnez	a4,10cec <__lesf2+0xb8>
   10ce4:	f80614e3          	bnez	a2,10c6c <__lesf2+0x38>
  FP_HANDLE_EXCEPTIONS;

  return r;
}
   10ce8:	00008067          	ret
  FP_CMP_S (r, A, B, 2, 2);
   10cec:	00061e63          	bnez	a2,10d08 <__lesf2+0xd4>
   10cf0:	fff00513          	li	a0,-1
   10cf4:	fe058ae3          	beqz	a1,10ce8 <__lesf2+0xb4>
   10cf8:	00058513          	mv	a0,a1
   10cfc:	00008067          	ret
   10d00:	00200513          	li	a0,2
   10d04:	00008067          	ret
   10d08:	fcb782e3          	beq	a5,a1,10ccc <__lesf2+0x98>
   10d0c:	f61ff06f          	j	10c6c <__lesf2+0x38>

00010d10 <__mulsf3>:
#include "soft-fp.h"
#include "single.h"

SFtype
__mulsf3 (SFtype a, SFtype b)
{
   10d10:	fe010113          	addi	sp,sp,-32
   10d14:	01212823          	sw	s2,16(sp)
   10d18:	01755913          	srli	s2,a0,0x17
   10d1c:	00912a23          	sw	s1,20(sp)
   10d20:	01312623          	sw	s3,12(sp)
   10d24:	01512223          	sw	s5,4(sp)
  FP_DECL_S (B);
  FP_DECL_S (R);
  SFtype r;

  FP_INIT_ROUNDMODE;
  FP_UNPACK_S (A, a);
   10d28:	00951493          	slli	s1,a0,0x9
{
   10d2c:	00112e23          	sw	ra,28(sp)
   10d30:	00812c23          	sw	s0,24(sp)
   10d34:	01412423          	sw	s4,8(sp)
   10d38:	0ff97913          	zext.b	s2,s2
   10d3c:	00058a93          	mv	s5,a1
  FP_UNPACK_S (A, a);
   10d40:	0094d493          	srli	s1,s1,0x9
   10d44:	01f55993          	srli	s3,a0,0x1f
   10d48:	18090663          	beqz	s2,10ed4 <__mulsf3+0x1c4>
   10d4c:	0ff00793          	li	a5,255
   10d50:	1af90263          	beq	s2,a5,10ef4 <__mulsf3+0x1e4>
   10d54:	00349493          	slli	s1,s1,0x3
   10d58:	040007b7          	lui	a5,0x4000
   10d5c:	00f4e4b3          	or	s1,s1,a5
   10d60:	f8190913          	addi	s2,s2,-127
   10d64:	00000a13          	li	s4,0
  FP_UNPACK_S (B, b);
   10d68:	017ad793          	srli	a5,s5,0x17
   10d6c:	009a9413          	slli	s0,s5,0x9
   10d70:	0ff7f793          	zext.b	a5,a5
   10d74:	00945413          	srli	s0,s0,0x9
   10d78:	01fada93          	srli	s5,s5,0x1f
   10d7c:	18078c63          	beqz	a5,10f14 <__mulsf3+0x204>
   10d80:	0ff00713          	li	a4,255
   10d84:	1ae78863          	beq	a5,a4,10f34 <__mulsf3+0x224>
   10d88:	00341413          	slli	s0,s0,0x3
   10d8c:	04000737          	lui	a4,0x4000
   10d90:	00e46433          	or	s0,s0,a4
   10d94:	f8178793          	addi	a5,a5,-127 # 3ffff81 <__global_pointer$+0x3fec539>
   10d98:	00000713          	li	a4,0
  FP_MUL_S (R, A, B);
   10d9c:	00f90933          	add	s2,s2,a5
   10da0:	002a1793          	slli	a5,s4,0x2
   10da4:	00e7e7b3          	or	a5,a5,a4
   10da8:	00a00693          	li	a3,10
   10dac:	0159c533          	xor	a0,s3,s5
   10db0:	00190613          	addi	a2,s2,1
   10db4:	1ef6c463          	blt	a3,a5,10f9c <__mulsf3+0x28c>
   10db8:	00200693          	li	a3,2
   10dbc:	18f6cc63          	blt	a3,a5,10f54 <__mulsf3+0x244>
   10dc0:	fff78793          	addi	a5,a5,-1
   10dc4:	00100693          	li	a3,1
   10dc8:	1af6f863          	bgeu	a3,a5,10f78 <__mulsf3+0x268>
   10dcc:	000108b7          	lui	a7,0x10
   10dd0:	fff88813          	addi	a6,a7,-1 # ffff <exit-0x95>
   10dd4:	0104d713          	srli	a4,s1,0x10
   10dd8:	01045793          	srli	a5,s0,0x10
   10ddc:	010476b3          	and	a3,s0,a6
   10de0:	0104f4b3          	and	s1,s1,a6
   10de4:	029685b3          	mul	a1,a3,s1
   10de8:	02d706b3          	mul	a3,a4,a3
   10dec:	0105d413          	srli	s0,a1,0x10
   10df0:	02f70733          	mul	a4,a4,a5
   10df4:	029787b3          	mul	a5,a5,s1
   10df8:	00d787b3          	add	a5,a5,a3
   10dfc:	00f40433          	add	s0,s0,a5
   10e00:	00d47463          	bgeu	s0,a3,10e08 <__mulsf3+0xf8>
   10e04:	01170733          	add	a4,a4,a7
   10e08:	010477b3          	and	a5,s0,a6
   10e0c:	01079793          	slli	a5,a5,0x10
   10e10:	0105f5b3          	and	a1,a1,a6
   10e14:	00b787b3          	add	a5,a5,a1
   10e18:	00679693          	slli	a3,a5,0x6
   10e1c:	01045413          	srli	s0,s0,0x10
   10e20:	00d036b3          	snez	a3,a3
   10e24:	01a7d793          	srli	a5,a5,0x1a
   10e28:	00e40433          	add	s0,s0,a4
   10e2c:	00f6e7b3          	or	a5,a3,a5
   10e30:	00641413          	slli	s0,s0,0x6
   10e34:	00f46433          	or	s0,s0,a5
   10e38:	080007b7          	lui	a5,0x8000
   10e3c:	00f477b3          	and	a5,s0,a5
   10e40:	16078e63          	beqz	a5,10fbc <__mulsf3+0x2ac>
   10e44:	00145793          	srli	a5,s0,0x1
   10e48:	00147413          	andi	s0,s0,1
   10e4c:	0087e433          	or	s0,a5,s0
  FP_PACK_S (r, R);
   10e50:	07f60713          	addi	a4,a2,127 # 400007f <__global_pointer$+0x3fec637>
   10e54:	16e05863          	blez	a4,10fc4 <__mulsf3+0x2b4>
   10e58:	00747793          	andi	a5,s0,7
   10e5c:	00078a63          	beqz	a5,10e70 <__mulsf3+0x160>
   10e60:	00f47793          	andi	a5,s0,15
   10e64:	00400693          	li	a3,4
   10e68:	00d78463          	beq	a5,a3,10e70 <__mulsf3+0x160>
   10e6c:	00440413          	addi	s0,s0,4
   10e70:	080007b7          	lui	a5,0x8000
   10e74:	00f477b3          	and	a5,s0,a5
   10e78:	00078a63          	beqz	a5,10e8c <__mulsf3+0x17c>
   10e7c:	f80007b7          	lui	a5,0xf8000
   10e80:	fff78793          	addi	a5,a5,-1 # f7ffffff <__global_pointer$+0xf7fec5b7>
   10e84:	00f47433          	and	s0,s0,a5
   10e88:	08060713          	addi	a4,a2,128
   10e8c:	0fe00793          	li	a5,254
   10e90:	1ae7c463          	blt	a5,a4,11038 <__mulsf3+0x328>
   10e94:	00345793          	srli	a5,s0,0x3
  FP_HANDLE_EXCEPTIONS;

  return r;
}
   10e98:	01c12083          	lw	ra,28(sp)
   10e9c:	01812403          	lw	s0,24(sp)
  FP_PACK_S (r, R);
   10ea0:	00979793          	slli	a5,a5,0x9
   10ea4:	01771713          	slli	a4,a4,0x17
   10ea8:	0097d793          	srli	a5,a5,0x9
   10eac:	00f76733          	or	a4,a4,a5
   10eb0:	01f51513          	slli	a0,a0,0x1f
}
   10eb4:	01412483          	lw	s1,20(sp)
   10eb8:	01012903          	lw	s2,16(sp)
   10ebc:	00c12983          	lw	s3,12(sp)
   10ec0:	00812a03          	lw	s4,8(sp)
   10ec4:	00412a83          	lw	s5,4(sp)
   10ec8:	00a76533          	or	a0,a4,a0
   10ecc:	02010113          	addi	sp,sp,32
   10ed0:	00008067          	ret
  FP_UNPACK_S (A, a);
   10ed4:	02048a63          	beqz	s1,10f08 <__mulsf3+0x1f8>
   10ed8:	00048513          	mv	a0,s1
   10edc:	7a8000ef          	jal	ra,11684 <__clzsi2>
   10ee0:	ffb50793          	addi	a5,a0,-5
   10ee4:	f8a00913          	li	s2,-118
   10ee8:	00f494b3          	sll	s1,s1,a5
   10eec:	40a90933          	sub	s2,s2,a0
   10ef0:	e75ff06f          	j	10d64 <__mulsf3+0x54>
   10ef4:	0ff00913          	li	s2,255
   10ef8:	00300a13          	li	s4,3
   10efc:	e60496e3          	bnez	s1,10d68 <__mulsf3+0x58>
   10f00:	00200a13          	li	s4,2
   10f04:	e65ff06f          	j	10d68 <__mulsf3+0x58>
   10f08:	00000913          	li	s2,0
   10f0c:	00100a13          	li	s4,1
   10f10:	e59ff06f          	j	10d68 <__mulsf3+0x58>
  FP_UNPACK_S (B, b);
   10f14:	02040a63          	beqz	s0,10f48 <__mulsf3+0x238>
   10f18:	00040513          	mv	a0,s0
   10f1c:	768000ef          	jal	ra,11684 <__clzsi2>
   10f20:	ffb50793          	addi	a5,a0,-5
   10f24:	00f41433          	sll	s0,s0,a5
   10f28:	f8a00793          	li	a5,-118
   10f2c:	40a787b3          	sub	a5,a5,a0
   10f30:	e69ff06f          	j	10d98 <__mulsf3+0x88>
   10f34:	0ff00793          	li	a5,255
   10f38:	00300713          	li	a4,3
   10f3c:	e60410e3          	bnez	s0,10d9c <__mulsf3+0x8c>
   10f40:	00200713          	li	a4,2
   10f44:	e59ff06f          	j	10d9c <__mulsf3+0x8c>
   10f48:	00000793          	li	a5,0
   10f4c:	00100713          	li	a4,1
   10f50:	e4dff06f          	j	10d9c <__mulsf3+0x8c>
   10f54:	00100693          	li	a3,1
   10f58:	00f697b3          	sll	a5,a3,a5
  FP_MUL_S (R, A, B);
   10f5c:	5307f693          	andi	a3,a5,1328
   10f60:	04069863          	bnez	a3,10fb0 <__mulsf3+0x2a0>
   10f64:	2407f693          	andi	a3,a5,576
   10f68:	0c069063          	bnez	a3,11028 <__mulsf3+0x318>
   10f6c:	0887f793          	andi	a5,a5,136
   10f70:	e4078ee3          	beqz	a5,10dcc <__mulsf3+0xbc>
  FP_UNPACK_S (B, b);
   10f74:	000a8513          	mv	a0,s5
  FP_PACK_S (r, R);
   10f78:	00200793          	li	a5,2
   10f7c:	0af70e63          	beq	a4,a5,11038 <__mulsf3+0x328>
   10f80:	00300793          	li	a5,3
   10f84:	0af70263          	beq	a4,a5,11028 <__mulsf3+0x318>
   10f88:	00100793          	li	a5,1
   10f8c:	ecf712e3          	bne	a4,a5,10e50 <__mulsf3+0x140>
   10f90:	00000793          	li	a5,0
   10f94:	00000713          	li	a4,0
   10f98:	f01ff06f          	j	10e98 <__mulsf3+0x188>
  FP_MUL_S (R, A, B);
   10f9c:	00f00693          	li	a3,15
   10fa0:	08d78463          	beq	a5,a3,11028 <__mulsf3+0x318>
   10fa4:	00b00693          	li	a3,11
  FP_UNPACK_S (A, a);
   10fa8:	00098513          	mv	a0,s3
  FP_MUL_S (R, A, B);
   10fac:	fcd784e3          	beq	a5,a3,10f74 <__mulsf3+0x264>
   10fb0:	00048413          	mv	s0,s1
   10fb4:	000a0713          	mv	a4,s4
   10fb8:	fc1ff06f          	j	10f78 <__mulsf3+0x268>
   10fbc:	00090613          	mv	a2,s2
   10fc0:	e91ff06f          	j	10e50 <__mulsf3+0x140>
  FP_PACK_S (r, R);
   10fc4:	00100693          	li	a3,1
   10fc8:	00070c63          	beqz	a4,10fe0 <__mulsf3+0x2d0>
   10fcc:	40e686b3          	sub	a3,a3,a4
   10fd0:	01b00593          	li	a1,27
   10fd4:	00000793          	li	a5,0
   10fd8:	00000713          	li	a4,0
   10fdc:	ead5cee3          	blt	a1,a3,10e98 <__mulsf3+0x188>
   10fe0:	09e60613          	addi	a2,a2,158
   10fe4:	00d456b3          	srl	a3,s0,a3
   10fe8:	00c41433          	sll	s0,s0,a2
   10fec:	00803433          	snez	s0,s0
   10ff0:	0086e7b3          	or	a5,a3,s0
   10ff4:	0077f713          	andi	a4,a5,7
   10ff8:	00070a63          	beqz	a4,1100c <__mulsf3+0x2fc>
   10ffc:	00f7f713          	andi	a4,a5,15
   11000:	00400693          	li	a3,4
   11004:	00d70463          	beq	a4,a3,1100c <__mulsf3+0x2fc>
   11008:	00478793          	addi	a5,a5,4
   1100c:	04000737          	lui	a4,0x4000
   11010:	00e7f733          	and	a4,a5,a4
   11014:	0037d793          	srli	a5,a5,0x3
   11018:	e80700e3          	beqz	a4,10e98 <__mulsf3+0x188>
   1101c:	00000793          	li	a5,0
   11020:	00100713          	li	a4,1
   11024:	e75ff06f          	j	10e98 <__mulsf3+0x188>
   11028:	004007b7          	lui	a5,0x400
   1102c:	0ff00713          	li	a4,255
   11030:	00000513          	li	a0,0
   11034:	e65ff06f          	j	10e98 <__mulsf3+0x188>
   11038:	00000793          	li	a5,0
   1103c:	0ff00713          	li	a4,255
   11040:	e59ff06f          	j	10e98 <__mulsf3+0x188>

00011044 <__subsf3>:
  FP_DECL_S (B);
  FP_DECL_S (R);
  SFtype r;

  FP_INIT_ROUNDMODE;
  FP_UNPACK_SEMIRAW_S (A, a);
   11044:	00800737          	lui	a4,0x800
{
   11048:	ff010113          	addi	sp,sp,-16
  FP_UNPACK_SEMIRAW_S (A, a);
   1104c:	01755793          	srli	a5,a0,0x17
   11050:	fff70713          	addi	a4,a4,-1 # 7fffff <__global_pointer$+0x7ec5b7>
  FP_UNPACK_SEMIRAW_S (B, b);
   11054:	0175d613          	srli	a2,a1,0x17
{
   11058:	00912223          	sw	s1,4(sp)
   1105c:	01212023          	sw	s2,0(sp)
  FP_UNPACK_SEMIRAW_S (A, a);
   11060:	00a776b3          	and	a3,a4,a0
   11064:	0ff7f913          	zext.b	s2,a5
{
   11068:	00112623          	sw	ra,12(sp)
  FP_UNPACK_SEMIRAW_S (B, b);
   1106c:	00b777b3          	and	a5,a4,a1
{
   11070:	00812423          	sw	s0,8(sp)
  FP_UNPACK_SEMIRAW_S (B, b);
   11074:	0ff67613          	zext.b	a2,a2
  FP_SUB_S (R, A, B);
   11078:	0ff00813          	li	a6,255
  FP_UNPACK_SEMIRAW_S (A, a);
   1107c:	01f55493          	srli	s1,a0,0x1f
  FP_UNPACK_SEMIRAW_S (B, b);
   11080:	01f5d593          	srli	a1,a1,0x1f
  FP_UNPACK_SEMIRAW_S (A, a);
   11084:	00369513          	slli	a0,a3,0x3
  FP_UNPACK_SEMIRAW_S (B, b);
   11088:	00379793          	slli	a5,a5,0x3
  FP_SUB_S (R, A, B);
   1108c:	09061e63          	bne	a2,a6,11128 <__subsf3+0xe4>
   11090:	f0190713          	addi	a4,s2,-255
   11094:	00078e63          	beqz	a5,110b0 <__subsf3+0x6c>
  FP_UNPACK_SEMIRAW_S (B, b);
   11098:	00058693          	mv	a3,a1
  FP_SUB_S (R, A, B);
   1109c:	2ab49063          	bne	s1,a1,1133c <__subsf3+0x2f8>
   110a0:	1c070463          	beqz	a4,11268 <__subsf3+0x224>
   110a4:	0c091463          	bnez	s2,1116c <__subsf3+0x128>
   110a8:	0ff00913          	li	s2,255
   110ac:	1700006f          	j	1121c <__subsf3+0x1d8>
   110b0:	0015c693          	xori	a3,a1,1
   110b4:	28d49e63          	bne	s1,a3,11350 <__subsf3+0x30c>
   110b8:	1a070863          	beqz	a4,11268 <__subsf3+0x224>
   110bc:	fe0906e3          	beqz	s2,110a8 <__subsf3+0x64>
   110c0:	0ff00913          	li	s2,255
  FP_PACK_SEMIRAW_S (r, R);
   110c4:	04000737          	lui	a4,0x4000
   110c8:	00e7f733          	and	a4,a5,a4
   110cc:	40070463          	beqz	a4,114d4 <__subsf3+0x490>
   110d0:	00190913          	addi	s2,s2,1
   110d4:	0ff00713          	li	a4,255
   110d8:	00000413          	li	s0,0
   110dc:	00e90a63          	beq	s2,a4,110f0 <__subsf3+0xac>
   110e0:	0037d413          	srli	s0,a5,0x3
   110e4:	1f8007b7          	lui	a5,0x1f800
   110e8:	fff78793          	addi	a5,a5,-1 # 1f7fffff <__global_pointer$+0x1f7ec5b7>
   110ec:	00f47433          	and	s0,s0,a5
   110f0:	01791793          	slli	a5,s2,0x17
   110f4:	7f800737          	lui	a4,0x7f800
   110f8:	00941413          	slli	s0,s0,0x9
   110fc:	00945413          	srli	s0,s0,0x9
   11100:	00e7f7b3          	and	a5,a5,a4
  FP_HANDLE_EXCEPTIONS;

  return r;
}
   11104:	00c12083          	lw	ra,12(sp)
  FP_PACK_SEMIRAW_S (r, R);
   11108:	0087e7b3          	or	a5,a5,s0
}
   1110c:	00812403          	lw	s0,8(sp)
  FP_PACK_SEMIRAW_S (r, R);
   11110:	01f49513          	slli	a0,s1,0x1f
}
   11114:	00012903          	lw	s2,0(sp)
   11118:	00412483          	lw	s1,4(sp)
   1111c:	00a7e533          	or	a0,a5,a0
   11120:	01010113          	addi	sp,sp,16
   11124:	00008067          	ret
  FP_SUB_S (R, A, B);
   11128:	0015c693          	xori	a3,a1,1
   1112c:	40c90733          	sub	a4,s2,a2
   11130:	18d49a63          	bne	s1,a3,112c4 <__subsf3+0x280>
   11134:	0ce05663          	blez	a4,11200 <__subsf3+0x1bc>
   11138:	02061e63          	bnez	a2,11174 <__subsf3+0x130>
   1113c:	38078463          	beqz	a5,114c4 <__subsf3+0x480>
   11140:	fff70693          	addi	a3,a4,-1 # 7f7fffff <__global_pointer$+0x7f7ec5b7>
   11144:	02069063          	bnez	a3,11164 <__subsf3+0x120>
   11148:	00a787b3          	add	a5,a5,a0
   1114c:	04000737          	lui	a4,0x4000
   11150:	00e7f733          	and	a4,a5,a4
   11154:	00200913          	li	s2,2
   11158:	08071663          	bnez	a4,111e4 <__subsf3+0x1a0>
   1115c:	00100913          	li	s2,1
   11160:	0300006f          	j	11190 <__subsf3+0x14c>
   11164:	03071063          	bne	a4,a6,11184 <__subsf3+0x140>
   11168:	00050793          	mv	a5,a0
   1116c:	0ff00913          	li	s2,255
   11170:	0200006f          	j	11190 <__subsf3+0x14c>
   11174:	35090c63          	beq	s2,a6,114cc <__subsf3+0x488>
   11178:	040006b7          	lui	a3,0x4000
   1117c:	00d7e7b3          	or	a5,a5,a3
   11180:	00070693          	mv	a3,a4
   11184:	01b00713          	li	a4,27
   11188:	02d75263          	bge	a4,a3,111ac <__subsf3+0x168>
   1118c:	00150793          	addi	a5,a0,1
  FP_PACK_SEMIRAW_S (r, R);
   11190:	0077f713          	andi	a4,a5,7
   11194:	f20708e3          	beqz	a4,110c4 <__subsf3+0x80>
   11198:	00f7f713          	andi	a4,a5,15
   1119c:	00400693          	li	a3,4
   111a0:	f2d702e3          	beq	a4,a3,110c4 <__subsf3+0x80>
   111a4:	00478793          	addi	a5,a5,4
   111a8:	f1dff06f          	j	110c4 <__subsf3+0x80>
  FP_SUB_S (R, A, B);
   111ac:	02000713          	li	a4,32
   111b0:	40d70733          	sub	a4,a4,a3
   111b4:	00e79733          	sll	a4,a5,a4
   111b8:	00d7d633          	srl	a2,a5,a3
   111bc:	00e03733          	snez	a4,a4
   111c0:	00e667b3          	or	a5,a2,a4
   111c4:	00a787b3          	add	a5,a5,a0
   111c8:	04000737          	lui	a4,0x4000
   111cc:	00e7f733          	and	a4,a5,a4
   111d0:	fc0700e3          	beqz	a4,11190 <__subsf3+0x14c>
   111d4:	00190913          	addi	s2,s2,1
   111d8:	0ff00713          	li	a4,255
  FP_PACK_SEMIRAW_S (r, R);
   111dc:	00000413          	li	s0,0
  FP_SUB_S (R, A, B);
   111e0:	f0e908e3          	beq	s2,a4,110f0 <__subsf3+0xac>
   111e4:	7e000737          	lui	a4,0x7e000
   111e8:	0017f693          	andi	a3,a5,1
   111ec:	fff70713          	addi	a4,a4,-1 # 7dffffff <__global_pointer$+0x7dfec5b7>
   111f0:	0017d793          	srli	a5,a5,0x1
   111f4:	00e7f7b3          	and	a5,a5,a4
   111f8:	00d7e7b3          	or	a5,a5,a3
   111fc:	f95ff06f          	j	11190 <__subsf3+0x14c>
   11200:	06070463          	beqz	a4,11268 <__subsf3+0x224>
   11204:	412606b3          	sub	a3,a2,s2
   11208:	00090863          	beqz	s2,11218 <__subsf3+0x1d4>
   1120c:	04000737          	lui	a4,0x4000
   11210:	00e56533          	or	a0,a0,a4
   11214:	01c0006f          	j	11230 <__subsf3+0x1ec>
   11218:	00068913          	mv	s2,a3
   1121c:	f6050ae3          	beqz	a0,11190 <__subsf3+0x14c>
   11220:	fff90693          	addi	a3,s2,-1
   11224:	f20682e3          	beqz	a3,11148 <__subsf3+0x104>
   11228:	0ff00713          	li	a4,255
   1122c:	f6e902e3          	beq	s2,a4,11190 <__subsf3+0x14c>
   11230:	01b00713          	li	a4,27
   11234:	00d75863          	bge	a4,a3,11244 <__subsf3+0x200>
   11238:	00178793          	addi	a5,a5,1
  FP_UNPACK_SEMIRAW_S (B, b);
   1123c:	00060913          	mv	s2,a2
   11240:	f51ff06f          	j	11190 <__subsf3+0x14c>
  FP_SUB_S (R, A, B);
   11244:	02000713          	li	a4,32
   11248:	40d70733          	sub	a4,a4,a3
   1124c:	00e51733          	sll	a4,a0,a4
   11250:	00d555b3          	srl	a1,a0,a3
   11254:	00e03733          	snez	a4,a4
   11258:	00e5e733          	or	a4,a1,a4
   1125c:	00e787b3          	add	a5,a5,a4
  FP_UNPACK_SEMIRAW_S (B, b);
   11260:	00060913          	mv	s2,a2
   11264:	f65ff06f          	j	111c8 <__subsf3+0x184>
  FP_SUB_S (R, A, B);
   11268:	00190713          	addi	a4,s2,1
   1126c:	0fe77693          	andi	a3,a4,254
   11270:	02069e63          	bnez	a3,112ac <__subsf3+0x268>
   11274:	02091663          	bnez	s2,112a0 <__subsf3+0x25c>
   11278:	f0050ce3          	beqz	a0,11190 <__subsf3+0x14c>
   1127c:	24078863          	beqz	a5,114cc <__subsf3+0x488>
   11280:	00a787b3          	add	a5,a5,a0
   11284:	04000737          	lui	a4,0x4000
   11288:	00e7f733          	and	a4,a5,a4
   1128c:	f00702e3          	beqz	a4,11190 <__subsf3+0x14c>
   11290:	fc000737          	lui	a4,0xfc000
   11294:	fff70713          	addi	a4,a4,-1 # fbffffff <__global_pointer$+0xfbfec5b7>
   11298:	00e7f7b3          	and	a5,a5,a4
   1129c:	ec1ff06f          	j	1115c <__subsf3+0x118>
   112a0:	ec0506e3          	beqz	a0,1116c <__subsf3+0x128>
   112a4:	ec0782e3          	beqz	a5,11168 <__subsf3+0x124>
   112a8:	1980006f          	j	11440 <__subsf3+0x3fc>
   112ac:	0ff00693          	li	a3,255
   112b0:	22d70e63          	beq	a4,a3,114ec <__subsf3+0x4a8>
   112b4:	00f507b3          	add	a5,a0,a5
   112b8:	0017d793          	srli	a5,a5,0x1
  FP_UNPACK_SEMIRAW_S (A, a);
   112bc:	00070913          	mv	s2,a4
   112c0:	ed1ff06f          	j	11190 <__subsf3+0x14c>
  FP_SUB_S (R, A, B);
   112c4:	0ae05063          	blez	a4,11364 <__subsf3+0x320>
   112c8:	06061063          	bnez	a2,11328 <__subsf3+0x2e4>
   112cc:	1e078c63          	beqz	a5,114c4 <__subsf3+0x480>
   112d0:	fff70693          	addi	a3,a4,-1
   112d4:	00069863          	bnez	a3,112e4 <__subsf3+0x2a0>
   112d8:	40f507b3          	sub	a5,a0,a5
  FP_UNPACK_SEMIRAW_S (B, b);
   112dc:	00100913          	li	s2,1
  FP_SUB_S (R, A, B);
   112e0:	0300006f          	j	11310 <__subsf3+0x2cc>
   112e4:	e90702e3          	beq	a4,a6,11168 <__subsf3+0x124>
   112e8:	01b00613          	li	a2,27
   112ec:	00100713          	li	a4,1
   112f0:	00d64e63          	blt	a2,a3,1130c <__subsf3+0x2c8>
   112f4:	02000713          	li	a4,32
   112f8:	40d70733          	sub	a4,a4,a3
   112fc:	00e79733          	sll	a4,a5,a4
   11300:	00d7d633          	srl	a2,a5,a3
   11304:	00e03733          	snez	a4,a4
   11308:	00e66733          	or	a4,a2,a4
   1130c:	40e507b3          	sub	a5,a0,a4
   11310:	04000437          	lui	s0,0x4000
   11314:	0087f733          	and	a4,a5,s0
   11318:	e6070ce3          	beqz	a4,11190 <__subsf3+0x14c>
   1131c:	fff40413          	addi	s0,s0,-1 # 3ffffff <__global_pointer$+0x3fec5b7>
   11320:	0087f433          	and	s0,a5,s0
   11324:	1440006f          	j	11468 <__subsf3+0x424>
   11328:	1b090263          	beq	s2,a6,114cc <__subsf3+0x488>
   1132c:	040006b7          	lui	a3,0x4000
   11330:	00d7e7b3          	or	a5,a5,a3
   11334:	00070693          	mv	a3,a4
   11338:	fb1ff06f          	j	112e8 <__subsf3+0x2a4>
   1133c:	0a070663          	beqz	a4,113e8 <__subsf3+0x3a4>
   11340:	04090663          	beqz	s2,1138c <__subsf3+0x348>
   11344:	0ff00913          	li	s2,255
   11348:	00058493          	mv	s1,a1
   1134c:	e45ff06f          	j	11190 <__subsf3+0x14c>
   11350:	08070c63          	beqz	a4,113e8 <__subsf3+0x3a4>
   11354:	04090263          	beqz	s2,11398 <__subsf3+0x354>
   11358:	0ff00913          	li	s2,255
   1135c:	00068493          	mv	s1,a3
   11360:	d65ff06f          	j	110c4 <__subsf3+0x80>
   11364:	08070263          	beqz	a4,113e8 <__subsf3+0x3a4>
   11368:	412605b3          	sub	a1,a2,s2
   1136c:	06091663          	bnez	s2,113d8 <__subsf3+0x394>
   11370:	00068493          	mv	s1,a3
   11374:	00058913          	mv	s2,a1
   11378:	e0050ce3          	beqz	a0,11190 <__subsf3+0x14c>
   1137c:	fff90593          	addi	a1,s2,-1
   11380:	02059063          	bnez	a1,113a0 <__subsf3+0x35c>
   11384:	40a787b3          	sub	a5,a5,a0
   11388:	f55ff06f          	j	112dc <__subsf3+0x298>
   1138c:	00058493          	mv	s1,a1
   11390:	0ff00913          	li	s2,255
   11394:	fe5ff06f          	j	11378 <__subsf3+0x334>
   11398:	00068493          	mv	s1,a3
   1139c:	ff5ff06f          	j	11390 <__subsf3+0x34c>
   113a0:	0ff00713          	li	a4,255
   113a4:	dee906e3          	beq	s2,a4,11190 <__subsf3+0x14c>
   113a8:	01b00693          	li	a3,27
   113ac:	00100713          	li	a4,1
   113b0:	00b6ce63          	blt	a3,a1,113cc <__subsf3+0x388>
   113b4:	02000713          	li	a4,32
   113b8:	40b70733          	sub	a4,a4,a1
   113bc:	00e51733          	sll	a4,a0,a4
   113c0:	00b556b3          	srl	a3,a0,a1
   113c4:	00e03733          	snez	a4,a4
   113c8:	00e6e733          	or	a4,a3,a4
   113cc:	40e787b3          	sub	a5,a5,a4
  FP_UNPACK_SEMIRAW_S (B, b);
   113d0:	00060913          	mv	s2,a2
   113d4:	f3dff06f          	j	11310 <__subsf3+0x2cc>
  FP_SUB_S (R, A, B);
   113d8:	04000737          	lui	a4,0x4000
   113dc:	00e56533          	or	a0,a0,a4
   113e0:	00068493          	mv	s1,a3
   113e4:	fc5ff06f          	j	113a8 <__subsf3+0x364>
   113e8:	00190713          	addi	a4,s2,1
   113ec:	0fe77713          	andi	a4,a4,254
   113f0:	06071063          	bnez	a4,11450 <__subsf3+0x40c>
   113f4:	04091063          	bnez	s2,11434 <__subsf3+0x3f0>
   113f8:	00051863          	bnez	a0,11408 <__subsf3+0x3c4>
   113fc:	0e078e63          	beqz	a5,114f8 <__subsf3+0x4b4>
   11400:	00068493          	mv	s1,a3
   11404:	d8dff06f          	j	11190 <__subsf3+0x14c>
   11408:	0c078263          	beqz	a5,114cc <__subsf3+0x488>
   1140c:	40f50433          	sub	s0,a0,a5
   11410:	04000737          	lui	a4,0x4000
   11414:	00e47733          	and	a4,s0,a4
   11418:	00070663          	beqz	a4,11424 <__subsf3+0x3e0>
   1141c:	40a787b3          	sub	a5,a5,a0
   11420:	fe1ff06f          	j	11400 <__subsf3+0x3bc>
   11424:	00040793          	mv	a5,s0
   11428:	d60414e3          	bnez	s0,11190 <__subsf3+0x14c>
   1142c:	00000493          	li	s1,0
   11430:	cc1ff06f          	j	110f0 <__subsf3+0xac>
   11434:	e60518e3          	bnez	a0,112a4 <__subsf3+0x260>
   11438:	00068493          	mv	s1,a3
   1143c:	d20798e3          	bnez	a5,1116c <__subsf3+0x128>
  FP_PACK_SEMIRAW_S (r, R);
   11440:	00000493          	li	s1,0
   11444:	0ff00913          	li	s2,255
   11448:	00400437          	lui	s0,0x400
   1144c:	ca5ff06f          	j	110f0 <__subsf3+0xac>
  FP_SUB_S (R, A, B);
   11450:	40f50433          	sub	s0,a0,a5
   11454:	04000737          	lui	a4,0x4000
   11458:	00e47733          	and	a4,s0,a4
   1145c:	04070463          	beqz	a4,114a4 <__subsf3+0x460>
   11460:	40a78433          	sub	s0,a5,a0
   11464:	00068493          	mv	s1,a3
   11468:	00040513          	mv	a0,s0
   1146c:	218000ef          	jal	ra,11684 <__clzsi2>
   11470:	ffb50513          	addi	a0,a0,-5
   11474:	00a41433          	sll	s0,s0,a0
   11478:	03254c63          	blt	a0,s2,114b0 <__subsf3+0x46c>
   1147c:	41250533          	sub	a0,a0,s2
   11480:	00150513          	addi	a0,a0,1
   11484:	02000713          	li	a4,32
   11488:	40a70733          	sub	a4,a4,a0
   1148c:	00a457b3          	srl	a5,s0,a0
   11490:	00e41433          	sll	s0,s0,a4
   11494:	00803433          	snez	s0,s0
   11498:	0087e7b3          	or	a5,a5,s0
   1149c:	00000913          	li	s2,0
   114a0:	cf1ff06f          	j	11190 <__subsf3+0x14c>
   114a4:	fc0412e3          	bnez	s0,11468 <__subsf3+0x424>
   114a8:	00000913          	li	s2,0
   114ac:	f81ff06f          	j	1142c <__subsf3+0x3e8>
   114b0:	fc0007b7          	lui	a5,0xfc000
   114b4:	fff78793          	addi	a5,a5,-1 # fbffffff <__global_pointer$+0xfbfec5b7>
   114b8:	40a90933          	sub	s2,s2,a0
   114bc:	00f477b3          	and	a5,s0,a5
   114c0:	cd1ff06f          	j	11190 <__subsf3+0x14c>
  FP_UNPACK_SEMIRAW_S (A, a);
   114c4:	00050793          	mv	a5,a0
   114c8:	df5ff06f          	j	112bc <__subsf3+0x278>
   114cc:	00050793          	mv	a5,a0
   114d0:	cc1ff06f          	j	11190 <__subsf3+0x14c>
  FP_PACK_SEMIRAW_S (r, R);
   114d4:	0037d413          	srli	s0,a5,0x3
   114d8:	0ff00793          	li	a5,255
   114dc:	c0f91ae3          	bne	s2,a5,110f0 <__subsf3+0xac>
   114e0:	c00408e3          	beqz	s0,110f0 <__subsf3+0xac>
   114e4:	00400437          	lui	s0,0x400
   114e8:	f45ff06f          	j	1142c <__subsf3+0x3e8>
   114ec:	0ff00913          	li	s2,255
   114f0:	00000413          	li	s0,0
   114f4:	bfdff06f          	j	110f0 <__subsf3+0xac>
   114f8:	00000413          	li	s0,0
   114fc:	f31ff06f          	j	1142c <__subsf3+0x3e8>

00011500 <__fixsfsi>:
  FP_DECL_EX;
  FP_DECL_S (A);
  USItype r;

  FP_INIT_EXCEPTIONS;
  FP_UNPACK_RAW_S (A, a);
   11500:	00800637          	lui	a2,0x800
   11504:	01755713          	srli	a4,a0,0x17
   11508:	fff60793          	addi	a5,a2,-1 # 7fffff <__global_pointer$+0x7ec5b7>
   1150c:	0ff77713          	zext.b	a4,a4
  FP_TO_INT_S (r, A, SI_BITS, 1);
   11510:	07e00593          	li	a1,126
  FP_UNPACK_RAW_S (A, a);
   11514:	00a7f7b3          	and	a5,a5,a0
   11518:	01f55693          	srli	a3,a0,0x1f
  FP_TO_INT_S (r, A, SI_BITS, 1);
   1151c:	04e5d663          	bge	a1,a4,11568 <__fixsfsi+0x68>
   11520:	09d00593          	li	a1,157
   11524:	00e5da63          	bge	a1,a4,11538 <__fixsfsi+0x38>
   11528:	80000537          	lui	a0,0x80000
   1152c:	fff54513          	not	a0,a0
   11530:	00a68533          	add	a0,a3,a0
   11534:	00008067          	ret
   11538:	00c7e533          	or	a0,a5,a2
   1153c:	09500793          	li	a5,149
   11540:	00e7dc63          	bge	a5,a4,11558 <__fixsfsi+0x58>
   11544:	f6a70713          	addi	a4,a4,-150 # 3ffff6a <__global_pointer$+0x3fec522>
   11548:	00e51533          	sll	a0,a0,a4
   1154c:	02068063          	beqz	a3,1156c <__fixsfsi+0x6c>
   11550:	40a00533          	neg	a0,a0
   11554:	00008067          	ret
   11558:	09600793          	li	a5,150
   1155c:	40e787b3          	sub	a5,a5,a4
   11560:	00f55533          	srl	a0,a0,a5
   11564:	fe9ff06f          	j	1154c <__fixsfsi+0x4c>
   11568:	00000513          	li	a0,0
  FP_HANDLE_EXCEPTIONS;

  return r;
}
   1156c:	00008067          	ret

00011570 <__floatsisf>:
#include "soft-fp.h"
#include "single.h"

SFtype
__floatsisf (SItype i)
{
   11570:	ff010113          	addi	sp,sp,-16
   11574:	00112623          	sw	ra,12(sp)
   11578:	00812423          	sw	s0,8(sp)
   1157c:	00912223          	sw	s1,4(sp)
   11580:	00050793          	mv	a5,a0
  FP_DECL_EX;
  FP_DECL_S (A);
  SFtype a;

  FP_INIT_ROUNDMODE;
  FP_FROM_INT_S (A, i, SI_BITS, USItype);
   11584:	0e050663          	beqz	a0,11670 <__floatsisf+0x100>
   11588:	41f55713          	srai	a4,a0,0x1f
   1158c:	00a74433          	xor	s0,a4,a0
   11590:	40e40433          	sub	s0,s0,a4
   11594:	01f55493          	srli	s1,a0,0x1f
   11598:	00040513          	mv	a0,s0
   1159c:	0e8000ef          	jal	ra,11684 <__clzsi2>
   115a0:	09e00793          	li	a5,158
   115a4:	40a787b3          	sub	a5,a5,a0
   115a8:	09600713          	li	a4,150
   115ac:	04f74063          	blt	a4,a5,115ec <__floatsisf+0x7c>
   115b0:	00800713          	li	a4,8
   115b4:	0ce50463          	beq	a0,a4,1167c <__floatsisf+0x10c>
   115b8:	ff850513          	addi	a0,a0,-8 # 7ffffff8 <__global_pointer$+0x7ffec5b0>
   115bc:	00a41433          	sll	s0,s0,a0
  FP_PACK_RAW_S (a, A);
   115c0:	00941413          	slli	s0,s0,0x9
   115c4:	00945413          	srli	s0,s0,0x9
   115c8:	01779793          	slli	a5,a5,0x17
  FP_HANDLE_EXCEPTIONS;

  return a;
}
   115cc:	00c12083          	lw	ra,12(sp)
  FP_PACK_RAW_S (a, A);
   115d0:	0087e7b3          	or	a5,a5,s0
}
   115d4:	00812403          	lw	s0,8(sp)
  FP_PACK_RAW_S (a, A);
   115d8:	01f49513          	slli	a0,s1,0x1f
}
   115dc:	00a7e533          	or	a0,a5,a0
   115e0:	00412483          	lw	s1,4(sp)
   115e4:	01010113          	addi	sp,sp,16
   115e8:	00008067          	ret
  FP_FROM_INT_S (A, i, SI_BITS, USItype);
   115ec:	09900713          	li	a4,153
   115f0:	06f75663          	bge	a4,a5,1165c <__floatsisf+0xec>
   115f4:	00500713          	li	a4,5
   115f8:	40a70733          	sub	a4,a4,a0
   115fc:	01b50693          	addi	a3,a0,27
   11600:	00e45733          	srl	a4,s0,a4
   11604:	00d41433          	sll	s0,s0,a3
   11608:	00803433          	snez	s0,s0
   1160c:	00876433          	or	s0,a4,s0
   11610:	fc000737          	lui	a4,0xfc000
   11614:	fff70713          	addi	a4,a4,-1 # fbffffff <__global_pointer$+0xfbfec5b7>
   11618:	00747693          	andi	a3,s0,7
   1161c:	00e47733          	and	a4,s0,a4
   11620:	00068a63          	beqz	a3,11634 <__floatsisf+0xc4>
   11624:	00f47413          	andi	s0,s0,15
   11628:	00400693          	li	a3,4
   1162c:	00d40463          	beq	s0,a3,11634 <__floatsisf+0xc4>
   11630:	00470713          	addi	a4,a4,4
   11634:	040006b7          	lui	a3,0x4000
   11638:	00d776b3          	and	a3,a4,a3
   1163c:	00068c63          	beqz	a3,11654 <__floatsisf+0xe4>
   11640:	fc0007b7          	lui	a5,0xfc000
   11644:	fff78793          	addi	a5,a5,-1 # fbffffff <__global_pointer$+0xfbfec5b7>
   11648:	00f77733          	and	a4,a4,a5
   1164c:	09f00793          	li	a5,159
   11650:	40a787b3          	sub	a5,a5,a0
   11654:	00375413          	srli	s0,a4,0x3
   11658:	f69ff06f          	j	115c0 <__floatsisf+0x50>
   1165c:	00500693          	li	a3,5
   11660:	ffb50713          	addi	a4,a0,-5
   11664:	fad506e3          	beq	a0,a3,11610 <__floatsisf+0xa0>
   11668:	00e41433          	sll	s0,s0,a4
   1166c:	fa5ff06f          	j	11610 <__floatsisf+0xa0>
   11670:	00000493          	li	s1,0
   11674:	00000413          	li	s0,0
   11678:	f49ff06f          	j	115c0 <__floatsisf+0x50>
   1167c:	09600793          	li	a5,150
   11680:	f41ff06f          	j	115c0 <__floatsisf+0x50>

00011684 <__clzsi2>:
int
__clzSI2 (UWtype x)
{
  Wtype ret;

  count_leading_zeros (ret, x);
   11684:	000107b7          	lui	a5,0x10
   11688:	02f57a63          	bgeu	a0,a5,116bc <__clzsi2+0x38>
   1168c:	10053793          	sltiu	a5,a0,256
   11690:	0017c793          	xori	a5,a5,1
   11694:	00379793          	slli	a5,a5,0x3
   11698:	00012737          	lui	a4,0x12
   1169c:	02000693          	li	a3,32
   116a0:	40f686b3          	sub	a3,a3,a5
   116a4:	00f55533          	srl	a0,a0,a5
   116a8:	0c470793          	addi	a5,a4,196 # 120c4 <__clz_tab>
   116ac:	00a787b3          	add	a5,a5,a0
   116b0:	0007c503          	lbu	a0,0(a5) # 10000 <exit-0x94>

  return ret;
}
   116b4:	40a68533          	sub	a0,a3,a0
   116b8:	00008067          	ret
  count_leading_zeros (ret, x);
   116bc:	01000737          	lui	a4,0x1000
   116c0:	01000793          	li	a5,16
   116c4:	fce56ae3          	bltu	a0,a4,11698 <__clzsi2+0x14>
   116c8:	01800793          	li	a5,24
   116cc:	fcdff06f          	j	11698 <__clzsi2+0x14>

000116d0 <logf>:
   116d0:	ff010113          	addi	sp,sp,-16
   116d4:	00812423          	sw	s0,8(sp)
   116d8:	00912223          	sw	s1,4(sp)
   116dc:	00050413          	mv	s0,a0
   116e0:	00112623          	sw	ra,12(sp)
   116e4:	088000ef          	jal	ra,1176c <__ieee754_logf>
   116e8:	00050493          	mv	s1,a0
   116ec:	00040593          	mv	a1,s0
   116f0:	00040513          	mv	a0,s0
   116f4:	53c000ef          	jal	ra,11c30 <__unordsf2>
   116f8:	02051a63          	bnez	a0,1172c <logf+0x5c>
   116fc:	00000593          	li	a1,0
   11700:	00040513          	mv	a0,s0
   11704:	450000ef          	jal	ra,11b54 <__gesf2>
   11708:	02a04263          	bgtz	a0,1172c <logf+0x5c>
   1170c:	00000593          	li	a1,0
   11710:	00040513          	mv	a0,s0
   11714:	3cc000ef          	jal	ra,11ae0 <__eqsf2>
   11718:	02051663          	bnez	a0,11744 <logf+0x74>
   1171c:	558000ef          	jal	ra,11c74 <__errno>
   11720:	c501a483          	lw	s1,-944(gp) # 13698 <__SDATA_BEGIN__>
   11724:	02200793          	li	a5,34
   11728:	00f52023          	sw	a5,0(a0)
   1172c:	00c12083          	lw	ra,12(sp)
   11730:	00812403          	lw	s0,8(sp)
   11734:	00048513          	mv	a0,s1
   11738:	00412483          	lw	s1,4(sp)
   1173c:	01010113          	addi	sp,sp,16
   11740:	00008067          	ret
   11744:	530000ef          	jal	ra,11c74 <__errno>
   11748:	00812403          	lw	s0,8(sp)
   1174c:	00c12083          	lw	ra,12(sp)
   11750:	00412483          	lw	s1,4(sp)
   11754:	02100793          	li	a5,33
   11758:	00f52023          	sw	a5,0(a0)
   1175c:	00012537          	lui	a0,0x12
   11760:	1c450513          	addi	a0,a0,452 # 121c4 <__clz_tab+0x100>
   11764:	01010113          	addi	sp,sp,16
   11768:	3700006f          	j	11ad8 <nanf>

0001176c <__ieee754_logf>:
   1176c:	fd010113          	addi	sp,sp,-48
   11770:	02112623          	sw	ra,44(sp)
   11774:	02812423          	sw	s0,40(sp)
   11778:	02912223          	sw	s1,36(sp)
   1177c:	03212023          	sw	s2,32(sp)
   11780:	01312e23          	sw	s3,28(sp)
   11784:	01412c23          	sw	s4,24(sp)
   11788:	01512a23          	sw	s5,20(sp)
   1178c:	01612823          	sw	s6,16(sp)
   11790:	01712623          	sw	s7,12(sp)
   11794:	00151793          	slli	a5,a0,0x1
   11798:	0c078a63          	beqz	a5,1186c <__ieee754_logf+0x100>
   1179c:	00050593          	mv	a1,a0
   117a0:	00050793          	mv	a5,a0
   117a4:	10054063          	bltz	a0,118a4 <__ieee754_logf+0x138>
   117a8:	7f8006b7          	lui	a3,0x7f800
   117ac:	0ad55c63          	bge	a0,a3,11864 <__ieee754_logf+0xf8>
   117b0:	00800737          	lui	a4,0x800
   117b4:	00000693          	li	a3,0
   117b8:	00e55a63          	bge	a0,a4,117cc <__ieee754_logf+0x60>
   117bc:	c581a583          	lw	a1,-936(gp) # 136a0 <__SDATA_BEGIN__+0x8>
   117c0:	d50ff0ef          	jal	ra,10d10 <__mulsf3>
   117c4:	00050793          	mv	a5,a0
   117c8:	fe700693          	li	a3,-25
   117cc:	00800937          	lui	s2,0x800
   117d0:	fff90493          	addi	s1,s2,-1 # 7fffff <__global_pointer$+0x7ec5b7>
   117d4:	004b0737          	lui	a4,0x4b0
   117d8:	0097f4b3          	and	s1,a5,s1
   117dc:	b2070713          	addi	a4,a4,-1248 # 4afb20 <__global_pointer$+0x49c0d8>
   117e0:	00e48733          	add	a4,s1,a4
   117e4:	01277733          	and	a4,a4,s2
   117e8:	c5c1a583          	lw	a1,-932(gp) # 136a4 <__SDATA_BEGIN__+0xc>
   117ec:	4177d793          	srai	a5,a5,0x17
   117f0:	3f800537          	lui	a0,0x3f800
   117f4:	00a74533          	xor	a0,a4,a0
   117f8:	f8178793          	addi	a5,a5,-127
   117fc:	00d787b3          	add	a5,a5,a3
   11800:	41775713          	srai	a4,a4,0x17
   11804:	00956533          	or	a0,a0,s1
   11808:	00f70433          	add	s0,a4,a5
   1180c:	839ff0ef          	jal	ra,11044 <__subsf3>
   11810:	ff090913          	addi	s2,s2,-16
   11814:	00f48793          	addi	a5,s1,15
   11818:	0127f7b3          	and	a5,a5,s2
   1181c:	00050913          	mv	s2,a0
   11820:	08079a63          	bnez	a5,118b4 <__ieee754_logf+0x148>
   11824:	00000593          	li	a1,0
   11828:	2b8000ef          	jal	ra,11ae0 <__eqsf2>
   1182c:	1c051e63          	bnez	a0,11a08 <__ieee754_logf+0x29c>
   11830:	00000513          	li	a0,0
   11834:	04040263          	beqz	s0,11878 <__ieee754_logf+0x10c>
   11838:	00040513          	mv	a0,s0
   1183c:	d35ff0ef          	jal	ra,11570 <__floatsisf>
   11840:	c601a583          	lw	a1,-928(gp) # 136a8 <__SDATA_BEGIN__+0x10>
   11844:	00050493          	mv	s1,a0
   11848:	cc8ff0ef          	jal	ra,10d10 <__mulsf3>
   1184c:	c641a583          	lw	a1,-924(gp) # 136ac <__SDATA_BEGIN__+0x14>
   11850:	00050413          	mv	s0,a0
   11854:	00048513          	mv	a0,s1
   11858:	cb8ff0ef          	jal	ra,10d10 <__mulsf3>
   1185c:	00050593          	mv	a1,a0
   11860:	00040513          	mv	a0,s0
   11864:	c31fe0ef          	jal	ra,10494 <__addsf3>
   11868:	0100006f          	j	11878 <__ieee754_logf+0x10c>
   1186c:	c541a503          	lw	a0,-940(gp) # 1369c <__SDATA_BEGIN__+0x4>
   11870:	00000593          	li	a1,0
   11874:	890ff0ef          	jal	ra,10904 <__divsf3>
   11878:	02c12083          	lw	ra,44(sp)
   1187c:	02812403          	lw	s0,40(sp)
   11880:	02412483          	lw	s1,36(sp)
   11884:	02012903          	lw	s2,32(sp)
   11888:	01c12983          	lw	s3,28(sp)
   1188c:	01812a03          	lw	s4,24(sp)
   11890:	01412a83          	lw	s5,20(sp)
   11894:	01012b03          	lw	s6,16(sp)
   11898:	00c12b83          	lw	s7,12(sp)
   1189c:	03010113          	addi	sp,sp,48
   118a0:	00008067          	ret
   118a4:	fa0ff0ef          	jal	ra,11044 <__subsf3>
   118a8:	00000593          	li	a1,0
   118ac:	858ff0ef          	jal	ra,10904 <__divsf3>
   118b0:	fc9ff06f          	j	11878 <__ieee754_logf+0x10c>
   118b4:	c701a583          	lw	a1,-912(gp) # 136b8 <__SDATA_BEGIN__+0x20>
   118b8:	ffcf6a37          	lui	s4,0xffcf6
   118bc:	c30a0a13          	addi	s4,s4,-976 # ffcf5c30 <__global_pointer$+0xffce21e8>
   118c0:	bd5fe0ef          	jal	ra,10494 <__addsf3>
   118c4:	00050593          	mv	a1,a0
   118c8:	00090513          	mv	a0,s2
   118cc:	838ff0ef          	jal	ra,10904 <__divsf3>
   118d0:	00050a93          	mv	s5,a0
   118d4:	00040513          	mv	a0,s0
   118d8:	c99ff0ef          	jal	ra,11570 <__floatsisf>
   118dc:	000a8593          	mv	a1,s5
   118e0:	00050b13          	mv	s6,a0
   118e4:	000a8513          	mv	a0,s5
   118e8:	c28ff0ef          	jal	ra,10d10 <__mulsf3>
   118ec:	00050593          	mv	a1,a0
   118f0:	00050b93          	mv	s7,a0
   118f4:	c1cff0ef          	jal	ra,10d10 <__mulsf3>
   118f8:	c741a583          	lw	a1,-908(gp) # 136bc <__SDATA_BEGIN__+0x24>
   118fc:	00050993          	mv	s3,a0
   11900:	01448a33          	add	s4,s1,s4
   11904:	c0cff0ef          	jal	ra,10d10 <__mulsf3>
   11908:	c781a583          	lw	a1,-904(gp) # 136c0 <__SDATA_BEGIN__+0x28>
   1190c:	b89fe0ef          	jal	ra,10494 <__addsf3>
   11910:	00098593          	mv	a1,s3
   11914:	bfcff0ef          	jal	ra,10d10 <__mulsf3>
   11918:	c7c1a583          	lw	a1,-900(gp) # 136c4 <__SDATA_BEGIN__+0x2c>
   1191c:	b79fe0ef          	jal	ra,10494 <__addsf3>
   11920:	00098593          	mv	a1,s3
   11924:	becff0ef          	jal	ra,10d10 <__mulsf3>
   11928:	c801a583          	lw	a1,-896(gp) # 136c8 <__SDATA_BEGIN__+0x30>
   1192c:	b69fe0ef          	jal	ra,10494 <__addsf3>
   11930:	000b8593          	mv	a1,s7
   11934:	bdcff0ef          	jal	ra,10d10 <__mulsf3>
   11938:	c841a583          	lw	a1,-892(gp) # 136cc <__SDATA_BEGIN__+0x34>
   1193c:	00050b93          	mv	s7,a0
   11940:	00098513          	mv	a0,s3
   11944:	bccff0ef          	jal	ra,10d10 <__mulsf3>
   11948:	c881a583          	lw	a1,-888(gp) # 136d0 <__SDATA_BEGIN__+0x38>
   1194c:	b49fe0ef          	jal	ra,10494 <__addsf3>
   11950:	00098593          	mv	a1,s3
   11954:	bbcff0ef          	jal	ra,10d10 <__mulsf3>
   11958:	c8c1a583          	lw	a1,-884(gp) # 136d4 <__SDATA_BEGIN__+0x3c>
   1195c:	b39fe0ef          	jal	ra,10494 <__addsf3>
   11960:	00098593          	mv	a1,s3
   11964:	bacff0ef          	jal	ra,10d10 <__mulsf3>
   11968:	00050593          	mv	a1,a0
   1196c:	000b8513          	mv	a0,s7
   11970:	b25fe0ef          	jal	ra,10494 <__addsf3>
   11974:	0035c7b7          	lui	a5,0x35c
   11978:	28878793          	addi	a5,a5,648 # 35c288 <__global_pointer$+0x348840>
   1197c:	409787b3          	sub	a5,a5,s1
   11980:	0147e7b3          	or	a5,a5,s4
   11984:	00050493          	mv	s1,a0
   11988:	0ef05663          	blez	a5,11a74 <__ieee754_logf+0x308>
   1198c:	c6c1a583          	lw	a1,-916(gp) # 136b4 <__SDATA_BEGIN__+0x1c>
   11990:	00090513          	mv	a0,s2
   11994:	b7cff0ef          	jal	ra,10d10 <__mulsf3>
   11998:	00090593          	mv	a1,s2
   1199c:	b74ff0ef          	jal	ra,10d10 <__mulsf3>
   119a0:	00050593          	mv	a1,a0
   119a4:	00050993          	mv	s3,a0
   119a8:	00048513          	mv	a0,s1
   119ac:	ae9fe0ef          	jal	ra,10494 <__addsf3>
   119b0:	000a8593          	mv	a1,s5
   119b4:	b5cff0ef          	jal	ra,10d10 <__mulsf3>
   119b8:	00050493          	mv	s1,a0
   119bc:	0e040263          	beqz	s0,11aa0 <__ieee754_logf+0x334>
   119c0:	c601a583          	lw	a1,-928(gp) # 136a8 <__SDATA_BEGIN__+0x10>
   119c4:	000b0513          	mv	a0,s6
   119c8:	b48ff0ef          	jal	ra,10d10 <__mulsf3>
   119cc:	c641a583          	lw	a1,-924(gp) # 136ac <__SDATA_BEGIN__+0x14>
   119d0:	00050413          	mv	s0,a0
   119d4:	000b0513          	mv	a0,s6
   119d8:	b38ff0ef          	jal	ra,10d10 <__mulsf3>
   119dc:	00048593          	mv	a1,s1
   119e0:	ab5fe0ef          	jal	ra,10494 <__addsf3>
   119e4:	00050593          	mv	a1,a0
   119e8:	00098513          	mv	a0,s3
   119ec:	e58ff0ef          	jal	ra,11044 <__subsf3>
   119f0:	00090593          	mv	a1,s2
   119f4:	e50ff0ef          	jal	ra,11044 <__subsf3>
   119f8:	00050593          	mv	a1,a0
   119fc:	00040513          	mv	a0,s0
   11a00:	e44ff0ef          	jal	ra,11044 <__subsf3>
   11a04:	e75ff06f          	j	11878 <__ieee754_logf+0x10c>
   11a08:	c681a583          	lw	a1,-920(gp) # 136b0 <__SDATA_BEGIN__+0x18>
   11a0c:	00090513          	mv	a0,s2
   11a10:	b00ff0ef          	jal	ra,10d10 <__mulsf3>
   11a14:	00050593          	mv	a1,a0
   11a18:	c6c1a503          	lw	a0,-916(gp) # 136b4 <__SDATA_BEGIN__+0x1c>
   11a1c:	e28ff0ef          	jal	ra,11044 <__subsf3>
   11a20:	00050493          	mv	s1,a0
   11a24:	00090593          	mv	a1,s2
   11a28:	00090513          	mv	a0,s2
   11a2c:	ae4ff0ef          	jal	ra,10d10 <__mulsf3>
   11a30:	00050593          	mv	a1,a0
   11a34:	00048513          	mv	a0,s1
   11a38:	ad8ff0ef          	jal	ra,10d10 <__mulsf3>
   11a3c:	00050493          	mv	s1,a0
   11a40:	04040863          	beqz	s0,11a90 <__ieee754_logf+0x324>
   11a44:	00040513          	mv	a0,s0
   11a48:	b29ff0ef          	jal	ra,11570 <__floatsisf>
   11a4c:	c601a583          	lw	a1,-928(gp) # 136a8 <__SDATA_BEGIN__+0x10>
   11a50:	00050993          	mv	s3,a0
   11a54:	abcff0ef          	jal	ra,10d10 <__mulsf3>
   11a58:	c641a583          	lw	a1,-924(gp) # 136ac <__SDATA_BEGIN__+0x14>
   11a5c:	00050413          	mv	s0,a0
   11a60:	00098513          	mv	a0,s3
   11a64:	aacff0ef          	jal	ra,10d10 <__mulsf3>
   11a68:	00050593          	mv	a1,a0
   11a6c:	00048513          	mv	a0,s1
   11a70:	f7dff06f          	j	119ec <__ieee754_logf+0x280>
   11a74:	00050593          	mv	a1,a0
   11a78:	00090513          	mv	a0,s2
   11a7c:	dc8ff0ef          	jal	ra,11044 <__subsf3>
   11a80:	000a8593          	mv	a1,s5
   11a84:	a8cff0ef          	jal	ra,10d10 <__mulsf3>
   11a88:	00050493          	mv	s1,a0
   11a8c:	02041863          	bnez	s0,11abc <__ieee754_logf+0x350>
   11a90:	00048593          	mv	a1,s1
   11a94:	00090513          	mv	a0,s2
   11a98:	dacff0ef          	jal	ra,11044 <__subsf3>
   11a9c:	dddff06f          	j	11878 <__ieee754_logf+0x10c>
   11aa0:	00050593          	mv	a1,a0
   11aa4:	00098513          	mv	a0,s3
   11aa8:	d9cff0ef          	jal	ra,11044 <__subsf3>
   11aac:	00050593          	mv	a1,a0
   11ab0:	00090513          	mv	a0,s2
   11ab4:	d90ff0ef          	jal	ra,11044 <__subsf3>
   11ab8:	dc1ff06f          	j	11878 <__ieee754_logf+0x10c>
   11abc:	c601a583          	lw	a1,-928(gp) # 136a8 <__SDATA_BEGIN__+0x10>
   11ac0:	000b0513          	mv	a0,s6
   11ac4:	a4cff0ef          	jal	ra,10d10 <__mulsf3>
   11ac8:	00050413          	mv	s0,a0
   11acc:	c641a583          	lw	a1,-924(gp) # 136ac <__SDATA_BEGIN__+0x14>
   11ad0:	000b0513          	mv	a0,s6
   11ad4:	f91ff06f          	j	11a64 <__ieee754_logf+0x2f8>

00011ad8 <nanf>:
   11ad8:	c901a503          	lw	a0,-880(gp) # 136d8 <__SDATA_BEGIN__+0x40>
   11adc:	00008067          	ret

00011ae0 <__eqsf2>:
  FP_DECL_S (A);
  FP_DECL_S (B);
  CMPtype r;

  FP_INIT_EXCEPTIONS;
  FP_UNPACK_RAW_S (A, a);
   11ae0:	01755693          	srli	a3,a0,0x17
   11ae4:	00800737          	lui	a4,0x800
   11ae8:	fff70713          	addi	a4,a4,-1 # 7fffff <__global_pointer$+0x7ec5b7>
  FP_UNPACK_RAW_S (B, b);
   11aec:	0175d813          	srli	a6,a1,0x17
  FP_UNPACK_RAW_S (A, a);
   11af0:	0ff6f693          	zext.b	a3,a3
  FP_CMP_EQ_S (r, A, B, 1);
   11af4:	0ff00893          	li	a7,255
  FP_UNPACK_RAW_S (A, a);
   11af8:	00a77633          	and	a2,a4,a0
   11afc:	01f55793          	srli	a5,a0,0x1f
  FP_UNPACK_RAW_S (B, b);
   11b00:	00b77733          	and	a4,a4,a1
   11b04:	0ff87813          	zext.b	a6,a6
   11b08:	01f5d593          	srli	a1,a1,0x1f
  FP_CMP_EQ_S (r, A, B, 1);
   11b0c:	00100513          	li	a0,1
   11b10:	01168663          	beq	a3,a7,11b1c <__eqsf2+0x3c>
   11b14:	01181e63          	bne	a6,a7,11b30 <__eqsf2+0x50>
   11b18:	00008067          	ret
   11b1c:	02d81a63          	bne	a6,a3,11b50 <__eqsf2+0x70>
   11b20:	00e66633          	or	a2,a2,a4
   11b24:	02061663          	bnez	a2,11b50 <__eqsf2+0x70>
   11b28:	00b7c533          	xor	a0,a5,a1
   11b2c:	00008067          	ret
   11b30:	00100513          	li	a0,1
   11b34:	01069e63          	bne	a3,a6,11b50 <__eqsf2+0x70>
   11b38:	00e61c63          	bne	a2,a4,11b50 <__eqsf2+0x70>
   11b3c:	00b78863          	beq	a5,a1,11b4c <__eqsf2+0x6c>
   11b40:	00069863          	bnez	a3,11b50 <__eqsf2+0x70>
   11b44:	00c03533          	snez	a0,a2
   11b48:	00008067          	ret
   11b4c:	00000513          	li	a0,0
  FP_HANDLE_EXCEPTIONS;

  return r;
}
   11b50:	00008067          	ret

00011b54 <__gesf2>:
  FP_DECL_S (A);
  FP_DECL_S (B);
  CMPtype r;

  FP_INIT_EXCEPTIONS;
  FP_UNPACK_RAW_S (A, a);
   11b54:	00800737          	lui	a4,0x800
   11b58:	fff70713          	addi	a4,a4,-1 # 7fffff <__global_pointer$+0x7ec5b7>
   11b5c:	01755693          	srli	a3,a0,0x17
   11b60:	00a77633          	and	a2,a4,a0
   11b64:	01f55793          	srli	a5,a0,0x1f
   11b68:	0ff6f693          	zext.b	a3,a3
  FP_UNPACK_RAW_S (B, b);
   11b6c:	0175d513          	srli	a0,a1,0x17
  FP_CMP_S (r, A, B, -2, 2);
   11b70:	0ff00813          	li	a6,255
  FP_UNPACK_RAW_S (B, b);
   11b74:	00b77733          	and	a4,a4,a1
   11b78:	0ff57513          	zext.b	a0,a0
   11b7c:	01f5d593          	srli	a1,a1,0x1f
  FP_CMP_S (r, A, B, -2, 2);
   11b80:	03069863          	bne	a3,a6,11bb0 <__gesf2+0x5c>
   11b84:	08061e63          	bnez	a2,11c20 <__gesf2+0xcc>
   11b88:	00d50a63          	beq	a0,a3,11b9c <__gesf2+0x48>
   11b8c:	00100513          	li	a0,1
   11b90:	06078c63          	beqz	a5,11c08 <__gesf2+0xb4>
   11b94:	fff00513          	li	a0,-1
   11b98:	00008067          	ret
   11b9c:	ffe00513          	li	a0,-2
   11ba0:	06071463          	bnez	a4,11c08 <__gesf2+0xb4>
   11ba4:	feb794e3          	bne	a5,a1,11b8c <__gesf2+0x38>
   11ba8:	00000513          	li	a0,0
   11bac:	00008067          	ret
   11bb0:	03051463          	bne	a0,a6,11bd8 <__gesf2+0x84>
   11bb4:	ffe00513          	li	a0,-2
   11bb8:	04071863          	bnez	a4,11c08 <__gesf2+0xb4>
   11bbc:	00069463          	bnez	a3,11bc4 <__gesf2+0x70>
   11bc0:	04060863          	beqz	a2,11c10 <__gesf2+0xbc>
   11bc4:	fcb794e3          	bne	a5,a1,11b8c <__gesf2+0x38>
   11bc8:	fff00513          	li	a0,-1
   11bcc:	02078e63          	beqz	a5,11c08 <__gesf2+0xb4>
   11bd0:	00078513          	mv	a0,a5
   11bd4:	00008067          	ret
   11bd8:	02068263          	beqz	a3,11bfc <__gesf2+0xa8>
   11bdc:	fa0508e3          	beqz	a0,11b8c <__gesf2+0x38>
   11be0:	fab796e3          	bne	a5,a1,11b8c <__gesf2+0x38>
   11be4:	fad544e3          	blt	a0,a3,11b8c <__gesf2+0x38>
   11be8:	fea6c0e3          	blt	a3,a0,11bc8 <__gesf2+0x74>
   11bec:	fac760e3          	bltu	a4,a2,11b8c <__gesf2+0x38>
   11bf0:	00000513          	li	a0,0
   11bf4:	00e67a63          	bgeu	a2,a4,11c08 <__gesf2+0xb4>
   11bf8:	fd1ff06f          	j	11bc8 <__gesf2+0x74>
   11bfc:	fc0512e3          	bnez	a0,11bc0 <__gesf2+0x6c>
   11c00:	00071663          	bnez	a4,11c0c <__gesf2+0xb8>
   11c04:	f80614e3          	bnez	a2,11b8c <__gesf2+0x38>
  FP_HANDLE_EXCEPTIONS;

  return r;
}
   11c08:	00008067          	ret
  FP_CMP_S (r, A, B, -2, 2);
   11c0c:	00061e63          	bnez	a2,11c28 <__gesf2+0xd4>
   11c10:	fff00513          	li	a0,-1
   11c14:	fe058ae3          	beqz	a1,11c08 <__gesf2+0xb4>
   11c18:	00058513          	mv	a0,a1
   11c1c:	00008067          	ret
   11c20:	ffe00513          	li	a0,-2
   11c24:	00008067          	ret
   11c28:	fcb782e3          	beq	a5,a1,11bec <__gesf2+0x98>
   11c2c:	f61ff06f          	j	11b8c <__gesf2+0x38>

00011c30 <__unordsf2>:
  FP_DECL_S (A);
  FP_DECL_S (B);
  CMPtype r;

  FP_INIT_EXCEPTIONS;
  FP_UNPACK_RAW_S (A, a);
   11c30:	008007b7          	lui	a5,0x800
   11c34:	fff78793          	addi	a5,a5,-1 # 7fffff <__global_pointer$+0x7ec5b7>
   11c38:	00a7f733          	and	a4,a5,a0
  FP_UNPACK_RAW_S (B, b);
  FP_CMP_UNORD_S (r, A, B, 1);
   11c3c:	01755513          	srli	a0,a0,0x17
  FP_UNPACK_RAW_S (B, b);
   11c40:	00b7f7b3          	and	a5,a5,a1
  FP_CMP_UNORD_S (r, A, B, 1);
   11c44:	0ff57513          	zext.b	a0,a0
   11c48:	0175d593          	srli	a1,a1,0x17
   11c4c:	0ff00693          	li	a3,255
   11c50:	0ff5f593          	zext.b	a1,a1
   11c54:	00d51663          	bne	a0,a3,11c60 <__unordsf2+0x30>
   11c58:	00100513          	li	a0,1
   11c5c:	00071a63          	bnez	a4,11c70 <__unordsf2+0x40>
   11c60:	0ff00713          	li	a4,255
   11c64:	00000513          	li	a0,0
   11c68:	00e59463          	bne	a1,a4,11c70 <__unordsf2+0x40>
   11c6c:	00f03533          	snez	a0,a5
  FP_HANDLE_EXCEPTIONS;

  return r;
}
   11c70:	00008067          	ret

00011c74 <__errno>:
   11c74:	c981a503          	lw	a0,-872(gp) # 136e0 <_impure_ptr>
   11c78:	00008067          	ret

00011c7c <__libc_init_array>:
   11c7c:	ff010113          	addi	sp,sp,-16
   11c80:	00812423          	sw	s0,8(sp)
   11c84:	000137b7          	lui	a5,0x13
   11c88:	00013437          	lui	s0,0x13
   11c8c:	01212023          	sw	s2,0(sp)
   11c90:	23878793          	addi	a5,a5,568 # 13238 <__init_array_start>
   11c94:	23840713          	addi	a4,s0,568 # 13238 <__init_array_start>
   11c98:	00112623          	sw	ra,12(sp)
   11c9c:	00912223          	sw	s1,4(sp)
   11ca0:	40e78933          	sub	s2,a5,a4
   11ca4:	02e78263          	beq	a5,a4,11cc8 <__libc_init_array+0x4c>
   11ca8:	40295913          	srai	s2,s2,0x2
   11cac:	23840413          	addi	s0,s0,568
   11cb0:	00000493          	li	s1,0
   11cb4:	00042783          	lw	a5,0(s0)
   11cb8:	00148493          	addi	s1,s1,1
   11cbc:	00440413          	addi	s0,s0,4
   11cc0:	000780e7          	jalr	a5
   11cc4:	ff24e8e3          	bltu	s1,s2,11cb4 <__libc_init_array+0x38>
   11cc8:	00013437          	lui	s0,0x13
   11ccc:	000137b7          	lui	a5,0x13
   11cd0:	24078793          	addi	a5,a5,576 # 13240 <__do_global_dtors_aux_fini_array_entry>
   11cd4:	23840713          	addi	a4,s0,568 # 13238 <__init_array_start>
   11cd8:	40e78933          	sub	s2,a5,a4
   11cdc:	40295913          	srai	s2,s2,0x2
   11ce0:	02e78063          	beq	a5,a4,11d00 <__libc_init_array+0x84>
   11ce4:	23840413          	addi	s0,s0,568
   11ce8:	00000493          	li	s1,0
   11cec:	00042783          	lw	a5,0(s0)
   11cf0:	00148493          	addi	s1,s1,1
   11cf4:	00440413          	addi	s0,s0,4
   11cf8:	000780e7          	jalr	a5
   11cfc:	ff24e8e3          	bltu	s1,s2,11cec <__libc_init_array+0x70>
   11d00:	00c12083          	lw	ra,12(sp)
   11d04:	00812403          	lw	s0,8(sp)
   11d08:	00412483          	lw	s1,4(sp)
   11d0c:	00012903          	lw	s2,0(sp)
   11d10:	01010113          	addi	sp,sp,16
   11d14:	00008067          	ret

00011d18 <memset>:
   11d18:	00f00313          	li	t1,15
   11d1c:	00050713          	mv	a4,a0
   11d20:	02c37e63          	bgeu	t1,a2,11d5c <memset+0x44>
   11d24:	00f77793          	andi	a5,a4,15
   11d28:	0a079063          	bnez	a5,11dc8 <memset+0xb0>
   11d2c:	08059263          	bnez	a1,11db0 <memset+0x98>
   11d30:	ff067693          	andi	a3,a2,-16
   11d34:	00f67613          	andi	a2,a2,15
   11d38:	00e686b3          	add	a3,a3,a4
   11d3c:	00b72023          	sw	a1,0(a4)
   11d40:	00b72223          	sw	a1,4(a4)
   11d44:	00b72423          	sw	a1,8(a4)
   11d48:	00b72623          	sw	a1,12(a4)
   11d4c:	01070713          	addi	a4,a4,16
   11d50:	fed766e3          	bltu	a4,a3,11d3c <memset+0x24>
   11d54:	00061463          	bnez	a2,11d5c <memset+0x44>
   11d58:	00008067          	ret
   11d5c:	40c306b3          	sub	a3,t1,a2
   11d60:	00269693          	slli	a3,a3,0x2
   11d64:	00000297          	auipc	t0,0x0
   11d68:	005686b3          	add	a3,a3,t0
   11d6c:	00c68067          	jr	12(a3) # 7f80000c <__global_pointer$+0x7f7ec5c4>
   11d70:	00b70723          	sb	a1,14(a4)
   11d74:	00b706a3          	sb	a1,13(a4)
   11d78:	00b70623          	sb	a1,12(a4)
   11d7c:	00b705a3          	sb	a1,11(a4)
   11d80:	00b70523          	sb	a1,10(a4)
   11d84:	00b704a3          	sb	a1,9(a4)
   11d88:	00b70423          	sb	a1,8(a4)
   11d8c:	00b703a3          	sb	a1,7(a4)
   11d90:	00b70323          	sb	a1,6(a4)
   11d94:	00b702a3          	sb	a1,5(a4)
   11d98:	00b70223          	sb	a1,4(a4)
   11d9c:	00b701a3          	sb	a1,3(a4)
   11da0:	00b70123          	sb	a1,2(a4)
   11da4:	00b700a3          	sb	a1,1(a4)
   11da8:	00b70023          	sb	a1,0(a4)
   11dac:	00008067          	ret
   11db0:	0ff5f593          	zext.b	a1,a1
   11db4:	00859693          	slli	a3,a1,0x8
   11db8:	00d5e5b3          	or	a1,a1,a3
   11dbc:	01059693          	slli	a3,a1,0x10
   11dc0:	00d5e5b3          	or	a1,a1,a3
   11dc4:	f6dff06f          	j	11d30 <memset+0x18>
   11dc8:	00279693          	slli	a3,a5,0x2
   11dcc:	00000297          	auipc	t0,0x0
   11dd0:	005686b3          	add	a3,a3,t0
   11dd4:	00008293          	mv	t0,ra
   11dd8:	fa0680e7          	jalr	-96(a3)
   11ddc:	00028093          	mv	ra,t0
   11de0:	ff078793          	addi	a5,a5,-16
   11de4:	40f70733          	sub	a4,a4,a5
   11de8:	00f60633          	add	a2,a2,a5
   11dec:	f6c378e3          	bgeu	t1,a2,11d5c <memset+0x44>
   11df0:	f3dff06f          	j	11d2c <memset+0x14>

00011df4 <__call_exitprocs>:
   11df4:	fd010113          	addi	sp,sp,-48
   11df8:	01412c23          	sw	s4,24(sp)
   11dfc:	c941aa03          	lw	s4,-876(gp) # 136dc <_global_impure_ptr>
   11e00:	03212023          	sw	s2,32(sp)
   11e04:	02112623          	sw	ra,44(sp)
   11e08:	148a2903          	lw	s2,328(s4)
   11e0c:	02812423          	sw	s0,40(sp)
   11e10:	02912223          	sw	s1,36(sp)
   11e14:	01312e23          	sw	s3,28(sp)
   11e18:	01512a23          	sw	s5,20(sp)
   11e1c:	01612823          	sw	s6,16(sp)
   11e20:	01712623          	sw	s7,12(sp)
   11e24:	01812423          	sw	s8,8(sp)
   11e28:	04090063          	beqz	s2,11e68 <__call_exitprocs+0x74>
   11e2c:	00050b13          	mv	s6,a0
   11e30:	00058b93          	mv	s7,a1
   11e34:	00100a93          	li	s5,1
   11e38:	fff00993          	li	s3,-1
   11e3c:	00492483          	lw	s1,4(s2)
   11e40:	fff48413          	addi	s0,s1,-1
   11e44:	02044263          	bltz	s0,11e68 <__call_exitprocs+0x74>
   11e48:	00249493          	slli	s1,s1,0x2
   11e4c:	009904b3          	add	s1,s2,s1
   11e50:	040b8463          	beqz	s7,11e98 <__call_exitprocs+0xa4>
   11e54:	1044a783          	lw	a5,260(s1)
   11e58:	05778063          	beq	a5,s7,11e98 <__call_exitprocs+0xa4>
   11e5c:	fff40413          	addi	s0,s0,-1
   11e60:	ffc48493          	addi	s1,s1,-4
   11e64:	ff3416e3          	bne	s0,s3,11e50 <__call_exitprocs+0x5c>
   11e68:	02c12083          	lw	ra,44(sp)
   11e6c:	02812403          	lw	s0,40(sp)
   11e70:	02412483          	lw	s1,36(sp)
   11e74:	02012903          	lw	s2,32(sp)
   11e78:	01c12983          	lw	s3,28(sp)
   11e7c:	01812a03          	lw	s4,24(sp)
   11e80:	01412a83          	lw	s5,20(sp)
   11e84:	01012b03          	lw	s6,16(sp)
   11e88:	00c12b83          	lw	s7,12(sp)
   11e8c:	00812c03          	lw	s8,8(sp)
   11e90:	03010113          	addi	sp,sp,48
   11e94:	00008067          	ret
   11e98:	00492783          	lw	a5,4(s2)
   11e9c:	0044a683          	lw	a3,4(s1)
   11ea0:	fff78793          	addi	a5,a5,-1
   11ea4:	04878e63          	beq	a5,s0,11f00 <__call_exitprocs+0x10c>
   11ea8:	0004a223          	sw	zero,4(s1)
   11eac:	fa0688e3          	beqz	a3,11e5c <__call_exitprocs+0x68>
   11eb0:	18892783          	lw	a5,392(s2)
   11eb4:	008a9733          	sll	a4,s5,s0
   11eb8:	00492c03          	lw	s8,4(s2)
   11ebc:	00f777b3          	and	a5,a4,a5
   11ec0:	02079263          	bnez	a5,11ee4 <__call_exitprocs+0xf0>
   11ec4:	000680e7          	jalr	a3
   11ec8:	00492703          	lw	a4,4(s2)
   11ecc:	148a2783          	lw	a5,328(s4)
   11ed0:	01871463          	bne	a4,s8,11ed8 <__call_exitprocs+0xe4>
   11ed4:	f92784e3          	beq	a5,s2,11e5c <__call_exitprocs+0x68>
   11ed8:	f80788e3          	beqz	a5,11e68 <__call_exitprocs+0x74>
   11edc:	00078913          	mv	s2,a5
   11ee0:	f5dff06f          	j	11e3c <__call_exitprocs+0x48>
   11ee4:	18c92783          	lw	a5,396(s2)
   11ee8:	0844a583          	lw	a1,132(s1)
   11eec:	00f77733          	and	a4,a4,a5
   11ef0:	00071c63          	bnez	a4,11f08 <__call_exitprocs+0x114>
   11ef4:	000b0513          	mv	a0,s6
   11ef8:	000680e7          	jalr	a3
   11efc:	fcdff06f          	j	11ec8 <__call_exitprocs+0xd4>
   11f00:	00892223          	sw	s0,4(s2)
   11f04:	fa9ff06f          	j	11eac <__call_exitprocs+0xb8>
   11f08:	00058513          	mv	a0,a1
   11f0c:	000680e7          	jalr	a3
   11f10:	fb9ff06f          	j	11ec8 <__call_exitprocs+0xd4>

00011f14 <atexit>:
   11f14:	00050593          	mv	a1,a0
   11f18:	00000693          	li	a3,0
   11f1c:	00000613          	li	a2,0
   11f20:	00000513          	li	a0,0
   11f24:	0600006f          	j	11f84 <__register_exitproc>

00011f28 <__libc_fini_array>:
   11f28:	ff010113          	addi	sp,sp,-16
   11f2c:	00812423          	sw	s0,8(sp)
   11f30:	000137b7          	lui	a5,0x13
   11f34:	00013437          	lui	s0,0x13
   11f38:	24078793          	addi	a5,a5,576 # 13240 <__do_global_dtors_aux_fini_array_entry>
   11f3c:	24440413          	addi	s0,s0,580 # 13244 <__fini_array_end>
   11f40:	40f40433          	sub	s0,s0,a5
   11f44:	00912223          	sw	s1,4(sp)
   11f48:	00112623          	sw	ra,12(sp)
   11f4c:	40245493          	srai	s1,s0,0x2
   11f50:	02048063          	beqz	s1,11f70 <__libc_fini_array+0x48>
   11f54:	ffc40413          	addi	s0,s0,-4
   11f58:	00f40433          	add	s0,s0,a5
   11f5c:	00042783          	lw	a5,0(s0)
   11f60:	fff48493          	addi	s1,s1,-1
   11f64:	ffc40413          	addi	s0,s0,-4
   11f68:	000780e7          	jalr	a5
   11f6c:	fe0498e3          	bnez	s1,11f5c <__libc_fini_array+0x34>
   11f70:	00c12083          	lw	ra,12(sp)
   11f74:	00812403          	lw	s0,8(sp)
   11f78:	00412483          	lw	s1,4(sp)
   11f7c:	01010113          	addi	sp,sp,16
   11f80:	00008067          	ret

00011f84 <__register_exitproc>:
   11f84:	c941a703          	lw	a4,-876(gp) # 136dc <_global_impure_ptr>
   11f88:	14872783          	lw	a5,328(a4)
   11f8c:	04078c63          	beqz	a5,11fe4 <__register_exitproc+0x60>
   11f90:	0047a703          	lw	a4,4(a5)
   11f94:	01f00813          	li	a6,31
   11f98:	06e84e63          	blt	a6,a4,12014 <__register_exitproc+0x90>
   11f9c:	00271813          	slli	a6,a4,0x2
   11fa0:	02050663          	beqz	a0,11fcc <__register_exitproc+0x48>
   11fa4:	01078333          	add	t1,a5,a6
   11fa8:	08c32423          	sw	a2,136(t1) # 104c0 <__addsf3+0x2c>
   11fac:	1887a883          	lw	a7,392(a5)
   11fb0:	00100613          	li	a2,1
   11fb4:	00e61633          	sll	a2,a2,a4
   11fb8:	00c8e8b3          	or	a7,a7,a2
   11fbc:	1917a423          	sw	a7,392(a5)
   11fc0:	10d32423          	sw	a3,264(t1)
   11fc4:	00200693          	li	a3,2
   11fc8:	02d50463          	beq	a0,a3,11ff0 <__register_exitproc+0x6c>
   11fcc:	00170713          	addi	a4,a4,1
   11fd0:	00e7a223          	sw	a4,4(a5)
   11fd4:	010787b3          	add	a5,a5,a6
   11fd8:	00b7a423          	sw	a1,8(a5)
   11fdc:	00000513          	li	a0,0
   11fe0:	00008067          	ret
   11fe4:	14c70793          	addi	a5,a4,332
   11fe8:	14f72423          	sw	a5,328(a4)
   11fec:	fa5ff06f          	j	11f90 <__register_exitproc+0xc>
   11ff0:	18c7a683          	lw	a3,396(a5)
   11ff4:	00170713          	addi	a4,a4,1
   11ff8:	00e7a223          	sw	a4,4(a5)
   11ffc:	00c6e6b3          	or	a3,a3,a2
   12000:	18d7a623          	sw	a3,396(a5)
   12004:	010787b3          	add	a5,a5,a6
   12008:	00b7a423          	sw	a1,8(a5)
   1200c:	00000513          	li	a0,0
   12010:	00008067          	ret
   12014:	fff00513          	li	a0,-1
   12018:	00008067          	ret

0001201c <_exit>:
   1201c:	05d00893          	li	a7,93
   12020:	00000073          	ecall
   12024:	00054463          	bltz	a0,1202c <_exit+0x10>
   12028:	0000006f          	j	12028 <_exit+0xc>
   1202c:	ff010113          	addi	sp,sp,-16
   12030:	00812423          	sw	s0,8(sp)
   12034:	00050413          	mv	s0,a0
   12038:	00112623          	sw	ra,12(sp)
   1203c:	40800433          	neg	s0,s0
   12040:	c35ff0ef          	jal	ra,11c74 <__errno>
   12044:	00852023          	sw	s0,0(a0) # 3f800000 <__global_pointer$+0x3f7ec5b8>
   12048:	0000006f          	j	12048 <_exit+0x2c>

Disassembly of section .rodata:

0001204c <__clz_tab-0x78>:
   1204c:	616d                	.2byte	0x616d
   1204e:	646e                	.2byte	0x646e
   12050:	6c65                	.2byte	0x6c65
   12052:	7262                	.2byte	0x7262
   12054:	000a746f          	jal	s0,b9054 <__global_pointer$+0xa560c>
   12058:	0000                	.2byte	0x0
   1205a:	4320                	.2byte	0x4320
   1205c:	d70a                	.2byte	0xd70a
   1205e:	00003ba3          	.4byte	0x3ba3
   12062:	42c8                	.2byte	0x42c8
   12064:	0000                	.2byte	0x0
   12066:	4080                	.2byte	0x4080
   12068:	fdf4                	.2byte	0xfdf4
   1206a:	40a4                	.2byte	0x40a4
   1206c:	ae14                	.2byte	0xae14
   1206e:	41dd                	.2byte	0x41dd
   12070:	0000                	.2byte	0x0
   12072:	437f                	.2byte	0x437f
   12074:	3cda                	.2byte	0x3cda
   12076:	7ed0c093          	xori	ra,ra,2029
   1207a:	3c24                	.2byte	0x3c24
   1207c:	c45d                	.2byte	0xc45d
   1207e:	c49c3f53          	.4byte	0xc49c3f53
   12082:	3e70                	.2byte	0x3e70
   12084:	3a83126f          	jal	tp,4342c <__global_pointer$+0x2f9e4>
   12088:	0c28                	.2byte	0xc28
   1208a:	0001                	.2byte	0x1
   1208c:	0a68                	.2byte	0xa68
   1208e:	0001                	.2byte	0x1
   12090:	0bac                	.2byte	0xbac
   12092:	0001                	.2byte	0x1
   12094:	0a68                	.2byte	0xa68
   12096:	0001                	.2byte	0x1
   12098:	0c18                	.2byte	0xc18
   1209a:	0001                	.2byte	0x1
   1209c:	0a68                	.2byte	0xa68
   1209e:	0001                	.2byte	0x1
   120a0:	0bac                	.2byte	0xbac
   120a2:	0001                	.2byte	0x1
   120a4:	0c28                	.2byte	0xc28
   120a6:	0001                	.2byte	0x1
   120a8:	0c28                	.2byte	0xc28
   120aa:	0001                	.2byte	0x1
   120ac:	0c18                	.2byte	0xc18
   120ae:	0001                	.2byte	0x1
   120b0:	0bac                	.2byte	0xbac
   120b2:	0001                	.2byte	0x1
   120b4:	0a44                	.2byte	0xa44
   120b6:	0001                	.2byte	0x1
   120b8:	0a44                	.2byte	0xa44
   120ba:	0001                	.2byte	0x1
   120bc:	0a44                	.2byte	0xa44
   120be:	0001                	.2byte	0x1
   120c0:	0c18                	.2byte	0xc18
   120c2:	0001                	.2byte	0x1

000120c4 <__clz_tab>:
const UQItype __clz_tab[256] =
   120c4:	0100                	.2byte	0x100
   120c6:	0202                	.2byte	0x202
   120c8:	03030303          	lb	t1,48(t1)
   120cc:	0404                	.2byte	0x404
   120ce:	0404                	.2byte	0x404
   120d0:	0404                	.2byte	0x404
   120d2:	0404                	.2byte	0x404
   120d4:	0505                	.2byte	0x505
   120d6:	0505                	.2byte	0x505
   120d8:	0505                	.2byte	0x505
   120da:	0505                	.2byte	0x505
   120dc:	0505                	.2byte	0x505
   120de:	0505                	.2byte	0x505
   120e0:	0505                	.2byte	0x505
   120e2:	0505                	.2byte	0x505
   120e4:	0606                	.2byte	0x606
   120e6:	0606                	.2byte	0x606
   120e8:	0606                	.2byte	0x606
   120ea:	0606                	.2byte	0x606
   120ec:	0606                	.2byte	0x606
   120ee:	0606                	.2byte	0x606
   120f0:	0606                	.2byte	0x606
   120f2:	0606                	.2byte	0x606
   120f4:	0606                	.2byte	0x606
   120f6:	0606                	.2byte	0x606
   120f8:	0606                	.2byte	0x606
   120fa:	0606                	.2byte	0x606
   120fc:	0606                	.2byte	0x606
   120fe:	0606                	.2byte	0x606
   12100:	0606                	.2byte	0x606
   12102:	0606                	.2byte	0x606
   12104:	07070707          	.4byte	0x7070707
   12108:	07070707          	.4byte	0x7070707
   1210c:	07070707          	.4byte	0x7070707
   12110:	07070707          	.4byte	0x7070707
   12114:	07070707          	.4byte	0x7070707
   12118:	07070707          	.4byte	0x7070707
   1211c:	07070707          	.4byte	0x7070707
   12120:	07070707          	.4byte	0x7070707
   12124:	07070707          	.4byte	0x7070707
   12128:	07070707          	.4byte	0x7070707
   1212c:	07070707          	.4byte	0x7070707
   12130:	07070707          	.4byte	0x7070707
   12134:	07070707          	.4byte	0x7070707
   12138:	07070707          	.4byte	0x7070707
   1213c:	07070707          	.4byte	0x7070707
   12140:	07070707          	.4byte	0x7070707
   12144:	0808                	.2byte	0x808
   12146:	0808                	.2byte	0x808
   12148:	0808                	.2byte	0x808
   1214a:	0808                	.2byte	0x808
   1214c:	0808                	.2byte	0x808
   1214e:	0808                	.2byte	0x808
   12150:	0808                	.2byte	0x808
   12152:	0808                	.2byte	0x808
   12154:	0808                	.2byte	0x808
   12156:	0808                	.2byte	0x808
   12158:	0808                	.2byte	0x808
   1215a:	0808                	.2byte	0x808
   1215c:	0808                	.2byte	0x808
   1215e:	0808                	.2byte	0x808
   12160:	0808                	.2byte	0x808
   12162:	0808                	.2byte	0x808
   12164:	0808                	.2byte	0x808
   12166:	0808                	.2byte	0x808
   12168:	0808                	.2byte	0x808
   1216a:	0808                	.2byte	0x808
   1216c:	0808                	.2byte	0x808
   1216e:	0808                	.2byte	0x808
   12170:	0808                	.2byte	0x808
   12172:	0808                	.2byte	0x808
   12174:	0808                	.2byte	0x808
   12176:	0808                	.2byte	0x808
   12178:	0808                	.2byte	0x808
   1217a:	0808                	.2byte	0x808
   1217c:	0808                	.2byte	0x808
   1217e:	0808                	.2byte	0x808
   12180:	0808                	.2byte	0x808
   12182:	0808                	.2byte	0x808
   12184:	0808                	.2byte	0x808
   12186:	0808                	.2byte	0x808
   12188:	0808                	.2byte	0x808
   1218a:	0808                	.2byte	0x808
   1218c:	0808                	.2byte	0x808
   1218e:	0808                	.2byte	0x808
   12190:	0808                	.2byte	0x808
   12192:	0808                	.2byte	0x808
   12194:	0808                	.2byte	0x808
   12196:	0808                	.2byte	0x808
   12198:	0808                	.2byte	0x808
   1219a:	0808                	.2byte	0x808
   1219c:	0808                	.2byte	0x808
   1219e:	0808                	.2byte	0x808
   121a0:	0808                	.2byte	0x808
   121a2:	0808                	.2byte	0x808
   121a4:	0808                	.2byte	0x808
   121a6:	0808                	.2byte	0x808
   121a8:	0808                	.2byte	0x808
   121aa:	0808                	.2byte	0x808
   121ac:	0808                	.2byte	0x808
   121ae:	0808                	.2byte	0x808
   121b0:	0808                	.2byte	0x808
   121b2:	0808                	.2byte	0x808
   121b4:	0808                	.2byte	0x808
   121b6:	0808                	.2byte	0x808
   121b8:	0808                	.2byte	0x808
   121ba:	0808                	.2byte	0x808
   121bc:	0808                	.2byte	0x808
   121be:	0808                	.2byte	0x808
   121c0:	0808                	.2byte	0x808
   121c2:	0808                	.2byte	0x808
	...

Disassembly of section .eh_frame:

000131c8 <__EH_FRAME_BEGIN__>:
   131c8:	0010                	.2byte	0x10
   131ca:	0000                	.2byte	0x0
   131cc:	0000                	.2byte	0x0
   131ce:	0000                	.2byte	0x0
   131d0:	00527a03          	.4byte	0x527a03
   131d4:	7c01                	.2byte	0x7c01
   131d6:	0101                	.2byte	0x101
   131d8:	00020d1b          	.4byte	0x20d1b
   131dc:	002c                	.2byte	0x2c
   131de:	0000                	.2byte	0x0
   131e0:	0018                	.2byte	0x18
   131e2:	0000                	.2byte	0x0
   131e4:	cee0                	.2byte	0xcee0
   131e6:	ffff                	.2byte	0xffff
   131e8:	02b8                	.2byte	0x2b8
   131ea:	0000                	.2byte	0x0
   131ec:	4400                	.2byte	0x4400
   131ee:	600e                	.2byte	0x600e
   131f0:	8848                	.2byte	0x8848
   131f2:	8902                	.2byte	0x8902
   131f4:	01817403          	.4byte	0x1817403
   131f8:	0492                	.2byte	0x492
   131fa:	06940593          	addi	a1,s0,105
   131fe:	0795                	.2byte	0x795
   13200:	0896                	.2byte	0x896
   13202:	0a980997          	auipc	s3,0xa980
   13206:	0b99                	.2byte	0xb99
   13208:	0c9a                	.2byte	0xc9a
   1320a:	00100d9b          	.4byte	0x100d9b
   1320e:	0000                	.2byte	0x0
   13210:	0048                	.2byte	0x48
   13212:	0000                	.2byte	0x0
   13214:	d230                	.2byte	0xd230
   13216:	ffff                	.2byte	0xffff
   13218:	002c                	.2byte	0x2c
   1321a:	0000                	.2byte	0x0
   1321c:	0000                	.2byte	0x0
   1321e:	0000                	.2byte	0x0
   13220:	0010                	.2byte	0x10
   13222:	0000                	.2byte	0x0
   13224:	005c                	.2byte	0x5c
   13226:	0000                	.2byte	0x0
   13228:	d248                	.2byte	0xd248
   1322a:	ffff                	.2byte	0xffff
   1322c:	0024                	.2byte	0x24
   1322e:	0000                	.2byte	0x0
   13230:	0000                	.2byte	0x0
	...

00013234 <__FRAME_END__>:
   13234:	0000                	.2byte	0x0
	...

Disassembly of section .init_array:

00013238 <__init_array_start>:
   13238:	037c                	.2byte	0x37c
   1323a:	0001                	.2byte	0x1

0001323c <__frame_dummy_init_array_entry>:
   1323c:	0424                	.2byte	0x424
   1323e:	0001                	.2byte	0x1

Disassembly of section .fini_array:

00013240 <__do_global_dtors_aux_fini_array_entry>:
   13240:	03e0                	.2byte	0x3e0
   13242:	0001                	.2byte	0x1

Disassembly of section .data:

00013248 <IO_UARTTX>:
   13248:	0004                	.2byte	0x4
   1324a:	8000                	.2byte	0x8000

0001324c <VRAMBYTES>:
   1324c:	0000                	.2byte	0x0
   1324e:	2010                	.2byte	0x2010

00013250 <GPUFIFO>:
   13250:	0030                	.2byte	0x30
   13252:	8000                	.2byte	0x8000
   13254:	0000                	.2byte	0x0
	...

00013258 <impure_data>:
   13258:	0000                	.2byte	0x0
   1325a:	0000                	.2byte	0x0
   1325c:	3544                	.2byte	0x3544
   1325e:	0001                	.2byte	0x1
   13260:	35ac                	.2byte	0x35ac
   13262:	0001                	.2byte	0x1
   13264:	3614                	.2byte	0x3614
   13266:	0001                	.2byte	0x1
	...
   13300:	0001                	.2byte	0x1
   13302:	0000                	.2byte	0x0
   13304:	0000                	.2byte	0x0
   13306:	0000                	.2byte	0x0
   13308:	330e                	.2byte	0x330e
   1330a:	abcd                	.2byte	0xabcd
   1330c:	1234                	.2byte	0x1234
   1330e:	e66d                	.2byte	0xe66d
   13310:	deec                	.2byte	0xdeec
   13312:	0005                	.2byte	0x5
   13314:	0000000b          	.4byte	0xb
	...

Disassembly of section .got:

00013680 <.got>:
   13680:	ffff                	.2byte	0xffff
   13682:	ffff                	.2byte	0xffff
   13684:	0000                	.2byte	0x0
	...

00013688 <_GLOBAL_OFFSET_TABLE_>:
   13688:	0000                	.2byte	0x0
   1368a:	0000                	.2byte	0x0
   1368c:	3250                	.2byte	0x3250
   1368e:	0001                	.2byte	0x1
   13690:	324c                	.2byte	0x324c
   13692:	0001                	.2byte	0x1
   13694:	3248                	.2byte	0x3248
   13696:	0001                	.2byte	0x1

Disassembly of section .sdata:

00013698 <__SDATA_BEGIN__>:
   13698:	0000                	.2byte	0x0
   1369a:	ff80                	.2byte	0xff80
   1369c:	0000                	.2byte	0x0
   1369e:	cc00                	.2byte	0xcc00
   136a0:	0000                	.2byte	0x0
   136a2:	4c00                	.2byte	0x4c00
   136a4:	0000                	.2byte	0x0
   136a6:	3f80                	.2byte	0x3f80
   136a8:	7180                	.2byte	0x7180
   136aa:	3f31                	.2byte	0x3f31
   136ac:	f7d1                	.2byte	0xf7d1
   136ae:	aaab3717          	auipc	a4,0xaaab3
   136b2:	3eaa                	.2byte	0x3eaa
   136b4:	0000                	.2byte	0x0
   136b6:	3f00                	.2byte	0x3f00
   136b8:	0000                	.2byte	0x0
   136ba:	4000                	.2byte	0x4000
   136bc:	3e178897          	auipc	a7,0x3e178
   136c0:	3325                	.2byte	0x3325
   136c2:	3e3a                	.2byte	0x3e3a
   136c4:	4925                	.2byte	0x4925
   136c6:	3e92                	.2byte	0x3e92
   136c8:	3f2aaaab          	.4byte	0x3f2aaaab
   136cc:	3e1cd04f          	.4byte	0x3e1cd04f
   136d0:	8e29                	.2byte	0x8e29
   136d2:	cccd3e63          	.4byte	0xcccd3e63
   136d6:	3ecc                	.2byte	0x3ecc
   136d8:	0000                	.2byte	0x0
   136da:	7fc0                	.2byte	0x7fc0

000136dc <_global_impure_ptr>:
   136dc:	3258                	.2byte	0x3258
   136de:	0001                	.2byte	0x1

000136e0 <_impure_ptr>:
   136e0:	3258                	.2byte	0x3258
   136e2:	0001                	.2byte	0x1

Disassembly of section .bss:

000136e4 <completed.1>:
   136e4:	0000                	.2byte	0x0
	...

000136e8 <object.0>:
	...

00013700 <_ZL3row>:
   13700:	0000                	.2byte	0x0
	...

Disassembly of section .comment:

00000000 <.comment>:
   0:	3a434347          	.4byte	0x3a434347
   4:	2820                	.2byte	0x2820
   6:	61653167          	.4byte	0x61653167
   a:	3739                	.2byte	0x3739
   c:	6538                	.2byte	0x6538
   e:	36363033          	.4byte	0x36363033
  12:	2029                	.2byte	0x2029
  14:	3231                	.2byte	0x3231
  16:	312e                	.2byte	0x312e
  18:	302e                	.2byte	0x302e
  1a:	4700                	.2byte	0x4700
  1c:	203a4343          	.4byte	0x203a4343
  20:	4728                	.2byte	0x4728
  22:	554e                	.2byte	0x554e
  24:	2029                	.2byte	0x2029
  26:	3231                	.2byte	0x3231
  28:	312e                	.2byte	0x312e
  2a:	302e                	.2byte	0x302e
	...

Disassembly of section .riscv.attributes:

00000000 <.riscv.attributes>:
   0:	2441                	.2byte	0x2441
   2:	0000                	.2byte	0x0
   4:	7200                	.2byte	0x7200
   6:	7369                	.2byte	0x7369
   8:	01007663          	bgeu	zero,a6,14 <exit-0x10080>
   c:	001a                	.2byte	0x1a
   e:	0000                	.2byte	0x0
  10:	1004                	.2byte	0x1004
  12:	7205                	.2byte	0x7205
  14:	3376                	.2byte	0x3376
  16:	6932                	.2byte	0x6932
  18:	7032                	.2byte	0x7032
  1a:	5f30                	.2byte	0x5f30
  1c:	326d                	.2byte	0x326d
  1e:	3070                	.2byte	0x3070
  20:	0800                	.2byte	0x800
  22:	0a01                	.2byte	0xa01
  24:	0b              	Address 0x0000000000000024 is out of bounds.


Disassembly of section .debug_aranges:

00000000 <.debug_aranges>:
   0:	001c                	.2byte	0x1c
   2:	0000                	.2byte	0x0
   4:	0002                	.2byte	0x2
   6:	0000                	.2byte	0x0
   8:	0000                	.2byte	0x0
   a:	0004                	.2byte	0x4
	...
  20:	001c                	.2byte	0x1c
  22:	0000                	.2byte	0x0
  24:	0002                	.2byte	0x2
  26:	0761                	.2byte	0x761
  28:	0000                	.2byte	0x0
  2a:	0004                	.2byte	0x4
  2c:	0000                	.2byte	0x0
  2e:	0000                	.2byte	0x0
  30:	0494                	.2byte	0x494
  32:	0001                	.2byte	0x1
  34:	0470                	.2byte	0x470
	...
  3e:	0000                	.2byte	0x0
  40:	001c                	.2byte	0x1c
  42:	0000                	.2byte	0x0
  44:	0002                	.2byte	0x2
  46:	0a51                	.2byte	0xa51
  48:	0000                	.2byte	0x0
  4a:	0004                	.2byte	0x4
  4c:	0000                	.2byte	0x0
  4e:	0000                	.2byte	0x0
  50:	0904                	.2byte	0x904
  52:	0001                	.2byte	0x1
  54:	0330                	.2byte	0x330
	...
  5e:	0000                	.2byte	0x0
  60:	001c                	.2byte	0x1c
  62:	0000                	.2byte	0x0
  64:	0002                	.2byte	0x2
  66:	0db1                	.2byte	0xdb1
  68:	0000                	.2byte	0x0
  6a:	0004                	.2byte	0x4
  6c:	0000                	.2byte	0x0
  6e:	0000                	.2byte	0x0
  70:	0c34                	.2byte	0xc34
  72:	0001                	.2byte	0x1
  74:	00dc                	.2byte	0xdc
	...
  7e:	0000                	.2byte	0x0
  80:	001c                	.2byte	0x1c
  82:	0000                	.2byte	0x0
  84:	0002                	.2byte	0x2
  86:	0fad                	.2byte	0xfad
  88:	0000                	.2byte	0x0
  8a:	0004                	.2byte	0x4
  8c:	0000                	.2byte	0x0
  8e:	0000                	.2byte	0x0
  90:	0d10                	.2byte	0xd10
  92:	0001                	.2byte	0x1
  94:	0334                	.2byte	0x334
	...
  9e:	0000                	.2byte	0x0
  a0:	001c                	.2byte	0x1c
  a2:	0000                	.2byte	0x0
  a4:	0002                	.2byte	0x2
  a6:	1301                	.2byte	0x1301
  a8:	0000                	.2byte	0x0
  aa:	0004                	.2byte	0x4
  ac:	0000                	.2byte	0x0
  ae:	0000                	.2byte	0x0
  b0:	1044                	.2byte	0x1044
  b2:	0001                	.2byte	0x1
  b4:	04bc                	.2byte	0x4bc
	...
  be:	0000                	.2byte	0x0
  c0:	001c                	.2byte	0x1c
  c2:	0000                	.2byte	0x0
  c4:	0002                	.2byte	0x2
  c6:	15ed                	.2byte	0x15ed
  c8:	0000                	.2byte	0x0
  ca:	0004                	.2byte	0x4
  cc:	0000                	.2byte	0x0
  ce:	0000                	.2byte	0x0
  d0:	1500                	.2byte	0x1500
  d2:	0001                	.2byte	0x1
  d4:	0070                	.2byte	0x70
	...
  de:	0000                	.2byte	0x0
  e0:	001c                	.2byte	0x1c
  e2:	0000                	.2byte	0x0
  e4:	0002                	.2byte	0x2
  e6:	179e                	.2byte	0x179e
  e8:	0000                	.2byte	0x0
  ea:	0004                	.2byte	0x4
  ec:	0000                	.2byte	0x0
  ee:	0000                	.2byte	0x0
  f0:	1570                	.2byte	0x1570
  f2:	0001                	.2byte	0x1
  f4:	0114                	.2byte	0x114
	...
  fe:	0000                	.2byte	0x0
 100:	0014                	.2byte	0x14
 102:	0000                	.2byte	0x0
 104:	0002                	.2byte	0x2
 106:	19b1                	.2byte	0x19b1
 108:	0000                	.2byte	0x0
 10a:	0004                	.2byte	0x4
	...
 118:	001c                	.2byte	0x1c
 11a:	0000                	.2byte	0x0
 11c:	0002                	.2byte	0x2
 11e:	1a89                	.2byte	0x1a89
 120:	0000                	.2byte	0x0
 122:	0004                	.2byte	0x4
 124:	0000                	.2byte	0x0
 126:	0000                	.2byte	0x0
 128:	1684                	.2byte	0x1684
 12a:	0001                	.2byte	0x1
 12c:	004c                	.2byte	0x4c
	...
 136:	0000                	.2byte	0x0
 138:	001c                	.2byte	0x1c
 13a:	0000                	.2byte	0x0
 13c:	0002                	.2byte	0x2
 13e:	00001bcb          	.4byte	0x1bcb
 142:	0004                	.2byte	0x4
 144:	0000                	.2byte	0x0
 146:	0000                	.2byte	0x0
 148:	1ae0                	.2byte	0x1ae0
 14a:	0001                	.2byte	0x1
 14c:	0074                	.2byte	0x74
	...
 156:	0000                	.2byte	0x0
 158:	001c                	.2byte	0x1c
 15a:	0000                	.2byte	0x0
 15c:	0002                	.2byte	0x2
 15e:	1dc9                	.2byte	0x1dc9
 160:	0000                	.2byte	0x0
 162:	0004                	.2byte	0x4
 164:	0000                	.2byte	0x0
 166:	0000                	.2byte	0x0
 168:	1b54                	.2byte	0x1b54
 16a:	0001                	.2byte	0x1
 16c:	00dc                	.2byte	0xdc
	...
 176:	0000                	.2byte	0x0
 178:	001c                	.2byte	0x1c
 17a:	0000                	.2byte	0x0
 17c:	0002                	.2byte	0x2
 17e:	1fc5                	.2byte	0x1fc5
 180:	0000                	.2byte	0x0
 182:	0004                	.2byte	0x4
 184:	0000                	.2byte	0x0
 186:	0000                	.2byte	0x0
 188:	1c30                	.2byte	0x1c30
 18a:	0001                	.2byte	0x1
 18c:	0044                	.2byte	0x44
	...

Disassembly of section .debug_info:

00000000 <.debug_info>:
       0:	075d                	.2byte	0x75d
       2:	0000                	.2byte	0x0
       4:	0005                	.2byte	0x5
       6:	0401                	.2byte	0x401
       8:	0000                	.2byte	0x0
       a:	0000                	.2byte	0x0
       c:	1b11                	.2byte	0x1b11
       e:	0001                	.2byte	0x1
      10:	1d00                	.2byte	0x1d00
      12:	0000                	.2byte	0x0
      14:	0000                	.2byte	0x0
      16:	0038                	.2byte	0x38
	...
      24:	0000                	.2byte	0x0
      26:	0804                	.2byte	0x804
      28:	00004c07          	.4byte	0x4c07
      2c:	1200                	.2byte	0x1200
      2e:	0504                	.2byte	0x504
      30:	6e69                	.2byte	0x6e69
      32:	0074                	.2byte	0x74
      34:	0404                	.2byte	0x404
      36:	00005607          	.4byte	0x5607
      3a:	0400                	.2byte	0x400
      3c:	0508                	.2byte	0x508
      3e:	003e                	.2byte	0x3e
      40:	0000                	.2byte	0x0
      42:	1004                	.2byte	0x1004
      44:	f304                	.2byte	0xf304
      46:	0000                	.2byte	0x0
      48:	0400                	.2byte	0x400
      4a:	0601                	.2byte	0x601
      4c:	0074                	.2byte	0x74
      4e:	0000                	.2byte	0x0
      50:	0104                	.2byte	0x104
      52:	7208                	.2byte	0x7208
      54:	0000                	.2byte	0x0
      56:	0400                	.2byte	0x400
      58:	0502                	.2byte	0x502
      5a:	0020                	.2byte	0x20
      5c:	0000                	.2byte	0x0
      5e:	0204                	.2byte	0x204
      60:	0000a507          	.4byte	0xa507
      64:	0400                	.2byte	0x400
      66:	0504                	.2byte	0x504
      68:	00000043          	.4byte	0x43
      6c:	0404                	.2byte	0x404
      6e:	00005107          	.4byte	0x5107
      72:	0400                	.2byte	0x400
      74:	0801                	.2byte	0x801
      76:	0000007b          	.4byte	0x7b
      7a:	9406                	.2byte	0x9406
      7c:	0000                	.2byte	0x0
      7e:	7b00                	.2byte	0x7b00
      80:	5016                	.2byte	0x5016
      82:	0000                	.2byte	0x0
      84:	0900                	.2byte	0x900
      86:	007a                	.2byte	0x7a
      88:	0000                	.2byte	0x0
      8a:	0006                	.2byte	0x6
      8c:	0001                	.2byte	0x1
      8e:	8000                	.2byte	0x8000
      90:	00002d0f          	.4byte	0x2d0f
      94:	0600                	.2byte	0x600
      96:	00ff                	.2byte	0xff
      98:	0000                	.2byte	0x0
      9a:	1681                	.2byte	0x1681
      9c:	0034                	.2byte	0x34
      9e:	0000                	.2byte	0x0
      a0:	b906                	.2byte	0xb906
      a2:	0000                	.2byte	0x0
      a4:	8400                	.2byte	0x8400
      a6:	00003b0f          	.4byte	0x3b0f
      aa:	0600                	.2byte	0x600
      ac:	00b8                	.2byte	0xb8
      ae:	0000                	.2byte	0x0
      b0:	1685                	.2byte	0x1685
      b2:	0026                	.2byte	0x26
      b4:	0000                	.2byte	0x0
      b6:	0404                	.2byte	0x404
      b8:	1a04                	.2byte	0x1a04
      ba:	0000                	.2byte	0x0
      bc:	0400                	.2byte	0x400
      be:	0308                	.2byte	0x308
      c0:	0012                	.2byte	0x12
      c2:	0000                	.2byte	0x0
      c4:	0804                	.2byte	0x804
      c6:	f804                	.2byte	0xf804
      c8:	0000                	.2byte	0x0
      ca:	0400                	.2byte	0x400
      cc:	0310                	.2byte	0x310
      ce:	00ca                	.2byte	0xca
      d0:	0000                	.2byte	0x0
      d2:	2004                	.2byte	0x2004
      d4:	0000eb03          	.4byte	0xeb03
      d8:	1300                	.2byte	0x1300
      da:	009c                	.2byte	0x9c
      dc:	0000                	.2byte	0x0
      de:	0208                	.2byte	0x208
      e0:	01ed                	.2byte	0x1ed
      e2:	040a                	.2byte	0x40a
      e4:	0001                	.2byte	0x1
      e6:	1400                	.2byte	0x1400
      e8:	6f6c                	.2byte	0x6f6c
      ea:	ed020077          	.4byte	0xed020077
      ee:	1a01                	.2byte	0x1a01
      f0:	008a                	.2byte	0x8a
      f2:	0000                	.2byte	0x0
      f4:	1500                	.2byte	0x1500
      f6:	00000063          	beqz	zero,f6 <exit-0xff9e>
      fa:	ed02                	.2byte	0xed02
      fc:	1f01                	.2byte	0x1f01
      fe:	008a                	.2byte	0x8a
     100:	0000                	.2byte	0x0
     102:	0004                	.2byte	0x4
     104:	0816                	.2byte	0x816
     106:	f402                	.2byte	0xf402
     108:	0901                	.2byte	0x901
     10a:	0124                	.2byte	0x124
     10c:	0000                	.2byte	0x0
     10e:	730c                	.2byte	0x730c
     110:	f600                	.2byte	0xf600
     112:	1301                	.2byte	0x1301
     114:	00d9                	.2byte	0xd9
     116:	0000                	.2byte	0x0
     118:	6c0c                	.2byte	0x6c0c
     11a:	006c                	.2byte	0x6c
     11c:	a00a01f7          	.4byte	0xa00a01f7
     120:	0000                	.2byte	0x0
     122:	0000                	.2byte	0x0
     124:	00000017          	auipc	zero,0x0
     128:	0200                	.2byte	0x200
     12a:	01f8                	.2byte	0x1f8
     12c:	00010403          	lb	s0,0(sp)
     130:	0900                	.2byte	0x900
     132:	0124                	.2byte	0x124
     134:	0000                	.2byte	0x0
     136:	8518                	.2byte	0x8518
     138:	0000                	.2byte	0x0
     13a:	4600                	.2byte	0x4600
     13c:	0001                	.2byte	0x1
     13e:	1900                	.2byte	0x1900
     140:	0034                	.2byte	0x34
     142:	0000                	.2byte	0x0
     144:	00ff                	.2byte	0xff
     146:	3609                	.2byte	0x3609
     148:	0001                	.2byte	0x1
     14a:	1a00                	.2byte	0x1a00
     14c:	0068                	.2byte	0x68
     14e:	0000                	.2byte	0x0
     150:	0202                	.2byte	0x202
     152:	1602                	.2byte	0x1602
     154:	0146                	.2byte	0x146
     156:	0000                	.2byte	0x0
     158:	0000081b          	.4byte	0x81b
     15c:	0100                	.2byte	0x100
     15e:	0512                	.2byte	0x512
     160:	ab01                	.2byte	0xab01
	...
     16a:	0000                	.2byte	0x0
     16c:	0100                	.2byte	0x100
     16e:	2e9c                	.2byte	0x2e9c
     170:	0004                	.2byte	0x4
     172:	0d00                	.2byte	0xd00
     174:	006e                	.2byte	0x6e
     176:	ab14                	.2byte	0xab14
     178:	0000                	.2byte	0x0
     17a:	0c00                	.2byte	0xc00
     17c:	0000                	.2byte	0x0
     17e:	0d00                	.2byte	0xd00
     180:	0064                	.2byte	0x64
     182:	ab1f 0000 ed00      	.byte	0x1f, 0xab, 0x00, 0x00, 0x00, 0xed
     188:	0000                	.2byte	0x0
     18a:	1c00                	.2byte	0x1c00
     18c:	042e                	.2byte	0x42e
     18e:	0000                	.2byte	0x0
     190:	0000                	.2byte	0x0
     192:	0000                	.2byte	0x0
     194:	000c                	.2byte	0xc
     196:	0000                	.2byte	0x0
     198:	1401                	.2byte	0x1401
     19a:	0a05                	.2byte	0xa05
     19c:	500a                	.2byte	0x500a
     19e:	0004                	.2byte	0x4
     1a0:	7e00                	.2byte	0x7e00
     1a2:	0001                	.2byte	0x1
     1a4:	0a00                	.2byte	0xa00
     1a6:	0448                	.2byte	0x448
     1a8:	0000                	.2byte	0x0
     1aa:	00000197          	auipc	gp,0x0
     1ae:	400a                	.2byte	0x400a
     1b0:	0004                	.2byte	0x4
     1b2:	d800                	.2byte	0xd800
     1b4:	0001                	.2byte	0x1
     1b6:	1d00                	.2byte	0x1d00
     1b8:	0028                	.2byte	0x28
     1ba:	0000                	.2byte	0x0
     1bc:	5908                	.2byte	0x5908
     1be:	0004                	.2byte	0x4
     1c0:	0800                	.2byte	0x800
     1c2:	0464                	.2byte	0x464
     1c4:	0000                	.2byte	0x0
     1c6:	6f08                	.2byte	0x6f08
     1c8:	0004                	.2byte	0x4
     1ca:	0100                	.2byte	0x100
     1cc:	047a                	.2byte	0x47a
     1ce:	0000                	.2byte	0x0
     1d0:	02b9                	.2byte	0x2b9
     1d2:	0000                	.2byte	0x0
     1d4:	8501                	.2byte	0x8501
     1d6:	0004                	.2byte	0x4
     1d8:	2500                	.2byte	0x2500
     1da:	01000003          	lb	zero,16(zero) # 10 <exit-0x10084>
     1de:	0490                	.2byte	0x490
     1e0:	0000                	.2byte	0x0
     1e2:	035d                	.2byte	0x35d
     1e4:	0000                	.2byte	0x0
     1e6:	9b01                	.2byte	0x9b01
     1e8:	0004                	.2byte	0x4
     1ea:	0d00                	.2byte	0xd00
     1ec:	0004                	.2byte	0x4
     1ee:	0100                	.2byte	0x100
     1f0:	04a6                	.2byte	0x4a6
     1f2:	0000                	.2byte	0x0
     1f4:	0492                	.2byte	0x492
     1f6:	0000                	.2byte	0x0
     1f8:	b101                	.2byte	0xb101
     1fa:	0004                	.2byte	0x4
     1fc:	a900                	.2byte	0xa900
     1fe:	0004                	.2byte	0x4
     200:	0100                	.2byte	0x100
     202:	04bc                	.2byte	0x4bc
     204:	0000                	.2byte	0x0
     206:	000004cb          	.4byte	0x4cb
     20a:	c701                	.2byte	0xc701
     20c:	0004                	.2byte	0x4
     20e:	ee00                	.2byte	0xee00
     210:	0004                	.2byte	0x4
     212:	0100                	.2byte	0x100
     214:	04d1                	.2byte	0x4d1
     216:	0000                	.2byte	0x0
     218:	0505                	.2byte	0x505
     21a:	0000                	.2byte	0x0
     21c:	dc08                	.2byte	0xdc08
     21e:	0004                	.2byte	0x4
     220:	0700                	.2byte	0x700
     222:	000004e7          	jalr	s1,zero # 0 <exit-0x10094>
     226:	004d                	.2byte	0x4d
     228:	0000                	.2byte	0x0
     22a:	0241                	.2byte	0x241
     22c:	0000                	.2byte	0x0
     22e:	ec01                	.2byte	0xec01
     230:	0004                	.2byte	0x4
     232:	3d00                	.2byte	0x3d00
     234:	0005                	.2byte	0x5
     236:	0100                	.2byte	0x100
     238:	04f8                	.2byte	0x4f8
     23a:	0000                	.2byte	0x0
     23c:	0572                	.2byte	0x572
     23e:	0000                	.2byte	0x0
     240:	0e00                	.2byte	0xe00
     242:	0505                	.2byte	0x505
	...
     24c:	0000                	.2byte	0x0
     24e:	0292                	.2byte	0x292
     250:	0000                	.2byte	0x0
     252:	0a01                	.2byte	0xa01
     254:	0005                	.2byte	0x5
     256:	7e00                	.2byte	0x7e00
     258:	0005                	.2byte	0x5
     25a:	0100                	.2byte	0x100
     25c:	0516                	.2byte	0x516
     25e:	0000                	.2byte	0x0
     260:	058a                	.2byte	0x58a
     262:	0000                	.2byte	0x0
     264:	2201                	.2byte	0x2201
     266:	0005                	.2byte	0x5
     268:	9600                	.2byte	0x9600
     26a:	0005                	.2byte	0x5
     26c:	0100                	.2byte	0x100
     26e:	052e                	.2byte	0x52e
     270:	0000                	.2byte	0x0
     272:	05ad                	.2byte	0x5ad
     274:	0000                	.2byte	0x0
     276:	3a01                	.2byte	0x3a01
     278:	0005                	.2byte	0x5
     27a:	c400                	.2byte	0xc400
     27c:	0005                	.2byte	0x5
     27e:	0100                	.2byte	0x100
     280:	0546                	.2byte	0x546
     282:	0000                	.2byte	0x0
     284:	0608                	.2byte	0x608
     286:	0000                	.2byte	0x0
     288:	5201                	.2byte	0x5201
     28a:	0005                	.2byte	0x5
     28c:	2f00                	.2byte	0x2f00
     28e:	0006                	.2byte	0x6
     290:	0000                	.2byte	0x0
     292:	00066107          	.4byte	0x66107
     296:	6000                	.2byte	0x6000
     298:	0000                	.2byte	0x0
     29a:	5100                	.2byte	0x5100
     29c:	01000003          	lb	zero,16(zero) # 10 <exit-0x10084>
     2a0:	0662                	.2byte	0x662
     2a2:	0000                	.2byte	0x0
     2a4:	0656                	.2byte	0x656
     2a6:	0000                	.2byte	0x0
     2a8:	6d01                	.2byte	0x6d01
     2aa:	0006                	.2byte	0x6
     2ac:	6200                	.2byte	0x6200
     2ae:	0006                	.2byte	0x6
     2b0:	0700                	.2byte	0x700
     2b2:	0678                	.2byte	0x678
     2b4:	0000                	.2byte	0x0
     2b6:	00000073          	ecall
     2ba:	02fe                	.2byte	0x2fe
     2bc:	0000                	.2byte	0x0
     2be:	7d01                	.2byte	0x7d01
     2c0:	0006                	.2byte	0x6
     2c2:	9c00                	.2byte	0x9c00
     2c4:	0006                	.2byte	0x6
     2c6:	0100                	.2byte	0x100
     2c8:	0689                	.2byte	0x689
     2ca:	0000                	.2byte	0x0
     2cc:	06a8                	.2byte	0x6a8
     2ce:	0000                	.2byte	0x0
     2d0:	9501                	.2byte	0x9501
     2d2:	0006                	.2byte	0x6
     2d4:	c500                	.2byte	0xc500
     2d6:	0006                	.2byte	0x6
     2d8:	0100                	.2byte	0x100
     2da:	06a1                	.2byte	0x6a1
     2dc:	0000                	.2byte	0x0
     2de:	06dc                	.2byte	0x6dc
     2e0:	0000                	.2byte	0x0
     2e2:	ad01                	.2byte	0xad01
     2e4:	0006                	.2byte	0x6
     2e6:	f300                	.2byte	0xf300
     2e8:	0006                	.2byte	0x6
     2ea:	0100                	.2byte	0x100
     2ec:	06b9                	.2byte	0x6b9
     2ee:	0000                	.2byte	0x0
     2f0:	0725                	.2byte	0x725
     2f2:	0000                	.2byte	0x0
     2f4:	c501                	.2byte	0xc501
     2f6:	0006                	.2byte	0x6
     2f8:	5700                	.2byte	0x5700
     2fa:	00000007          	.4byte	0x7
     2fe:	0006d20f          	.4byte	0x6d20f
     302:	9800                	.2byte	0x9800
     304:	0000                	.2byte	0x0
     306:	0100                	.2byte	0x100
     308:	000006d7          	.4byte	0x6d7
     30c:	077e                	.2byte	0x77e
     30e:	0000                	.2byte	0x0
     310:	e301                	.2byte	0xe301
     312:	0006                	.2byte	0x6
     314:	8a00                	.2byte	0x8a00
     316:	01000007          	.4byte	0x1000007
     31a:	000006ef          	jal	a3,31a <exit-0xfd7a>
     31e:	000007c3          	.4byte	0x7c3
     322:	fb01                	.2byte	0xfb01
     324:	0006                	.2byte	0x6
     326:	cf00                	.2byte	0xcf00
     328:	01000007          	.4byte	0x1000007
     32c:	00000707          	.4byte	0x707
     330:	000007db          	.4byte	0x7db
     334:	1301                	.2byte	0x1301
     336:	27000007          	.4byte	0x27000007
     33a:	0008                	.2byte	0x8
     33c:	0100                	.2byte	0x100
     33e:	071f 0000 0833      	.byte	0x1f, 0x07, 0x00, 0x00, 0x33, 0x08
     344:	0000                	.2byte	0x0
     346:	2b01                	.2byte	0x2b01
     348:	5d000007          	.4byte	0x5d000007
     34c:	0008                	.2byte	0x8
     34e:	0000                	.2byte	0x0
     350:	0700                	.2byte	0x700
     352:	055f 0000 00c6      	.byte	0x5f, 0x05, 0x00, 0x00, 0xc6, 0x00
     358:	0000                	.2byte	0x0
     35a:	0371                	.2byte	0x371
     35c:	0000                	.2byte	0x0
     35e:	6401                	.2byte	0x6401
     360:	0005                	.2byte	0x5
     362:	6900                	.2byte	0x6900
     364:	0008                	.2byte	0x8
     366:	0100                	.2byte	0x100
     368:	0570                	.2byte	0x570
     36a:	0000                	.2byte	0x0
     36c:	0880                	.2byte	0x880
     36e:	0000                	.2byte	0x0
     370:	0e00                	.2byte	0xe00
     372:	000005d7          	.4byte	0x5d7
	...
     37e:	03c2                	.2byte	0x3c2
     380:	0000                	.2byte	0x0
     382:	dc01                	.2byte	0xdc01
     384:	0005                	.2byte	0x5
     386:	8c00                	.2byte	0x8c00
     388:	0008                	.2byte	0x8
     38a:	0100                	.2byte	0x100
     38c:	05e8                	.2byte	0x5e8
     38e:	0000                	.2byte	0x0
     390:	0898                	.2byte	0x898
     392:	0000                	.2byte	0x0
     394:	f401                	.2byte	0xf401
     396:	0005                	.2byte	0x5
     398:	a400                	.2byte	0xa400
     39a:	0008                	.2byte	0x8
     39c:	0100                	.2byte	0x100
     39e:	0600                	.2byte	0x600
     3a0:	0000                	.2byte	0x0
     3a2:	000008bb          	.4byte	0x8bb
     3a6:	0c01                	.2byte	0xc01
     3a8:	0006                	.2byte	0x6
     3aa:	d200                	.2byte	0xd200
     3ac:	0008                	.2byte	0x8
     3ae:	0100                	.2byte	0x100
     3b0:	0618                	.2byte	0x618
     3b2:	0000                	.2byte	0x0
     3b4:	0904                	.2byte	0x904
     3b6:	0000                	.2byte	0x0
     3b8:	2401                	.2byte	0x2401
     3ba:	0006                	.2byte	0x6
     3bc:	2b00                	.2byte	0x2b00
     3be:	0009                	.2byte	0x9
     3c0:	0000                	.2byte	0x0
     3c2:	00057d07          	.4byte	0x57d07
     3c6:	e200                	.2byte	0xe200
     3c8:	0000                	.2byte	0x0
     3ca:	0f00                	.2byte	0xf00
     3cc:	0004                	.2byte	0x4
     3ce:	0100                	.2byte	0x100
     3d0:	0582                	.2byte	0x582
     3d2:	0000                	.2byte	0x0
     3d4:	0952                	.2byte	0x952
     3d6:	0000                	.2byte	0x0
     3d8:	8e01                	.2byte	0x8e01
     3da:	0005                	.2byte	0x5
     3dc:	5e00                	.2byte	0x5e00
     3de:	0009                	.2byte	0x9
     3e0:	0100                	.2byte	0x100
     3e2:	059a                	.2byte	0x59a
     3e4:	0000                	.2byte	0x0
     3e6:	0000097b          	.4byte	0x97b
     3ea:	a601                	.2byte	0xa601
     3ec:	0005                	.2byte	0x5
     3ee:	9200                	.2byte	0x9200
     3f0:	0009                	.2byte	0x9
     3f2:	0100                	.2byte	0x100
     3f4:	05b2                	.2byte	0x5b2
     3f6:	0000                	.2byte	0x0
     3f8:	09a9                	.2byte	0x9a9
     3fa:	0000                	.2byte	0x0
     3fc:	be01                	.2byte	0xbe01
     3fe:	0005                	.2byte	0x5
     400:	db00                	.2byte	0xdb00
     402:	0009                	.2byte	0x9
     404:	0100                	.2byte	0x100
     406:	05ca                	.2byte	0x5ca
     408:	0000                	.2byte	0x0
     40a:	0a0d                	.2byte	0xa0d
     40c:	0000                	.2byte	0x0
     40e:	0f00                	.2byte	0xf00
     410:	0631                	.2byte	0x631
     412:	0000                	.2byte	0x0
     414:	00fe                	.2byte	0xfe
     416:	0000                	.2byte	0x0
     418:	3601                	.2byte	0x3601
     41a:	0006                	.2byte	0x6
     41c:	3400                	.2byte	0x3400
     41e:	000a                	.2byte	0xa
     420:	0100                	.2byte	0x100
     422:	0642                	.2byte	0x642
     424:	0000                	.2byte	0x0
     426:	0a40                	.2byte	0xa40
     428:	0000                	.2byte	0x0
     42a:	0000                	.2byte	0x0
     42c:	0000                	.2byte	0x0
     42e:	de1e                	.2byte	0xde1e
     430:	0000                	.2byte	0x0
     432:	0100                	.2byte	0x100
     434:	ab0103e3          	beq	sp,a6,fffffeda <__global_pointer$+0xfffec492>
     438:	0000                	.2byte	0x0
     43a:	0300                	.2byte	0x300
     43c:	075a                	.2byte	0x75a
     43e:	0000                	.2byte	0x0
     440:	17006e0b          	.4byte	0x17006e0b
     444:	000000ab          	.4byte	0xab
     448:	2200640b          	.4byte	0x2200640b
     44c:	000000ab          	.4byte	0xab
     450:	0070720b          	.4byte	0x70720b
     454:	5a2e                	.2byte	0x5a2e
     456:	03000007          	.4byte	0x3000007
     45a:	6e6e                	.2byte	0x6e6e
     45c:	e500                	.2byte	0xe500
     45e:	01311103          	lh	sp,19(sp)
     462:	0000                	.2byte	0x0
     464:	00646403          	.4byte	0x646403
     468:	03e6                	.2byte	0x3e6
     46a:	3111                	.2byte	0x3111
     46c:	0001                	.2byte	0x1
     46e:	0300                	.2byte	0x300
     470:	7272                	.2byte	0x7272
     472:	e700                	.2byte	0xe700
     474:	01240b03          	lb	s6,18(s0)
     478:	0000                	.2byte	0x0
     47a:	00306403          	.4byte	0x306403
     47e:	03e8                	.2byte	0x3e8
     480:	950a                	.2byte	0x950a
     482:	0000                	.2byte	0x0
     484:	0300                	.2byte	0x300
     486:	3164                	.2byte	0x3164
     488:	e800                	.2byte	0xe800
     48a:	00950e03          	lb	t3,9(a0)
     48e:	0000                	.2byte	0x0
     490:	00306e03          	.4byte	0x306e03
     494:	03e8                	.2byte	0x3e8
     496:	9512                	.2byte	0x9512
     498:	0000                	.2byte	0x0
     49a:	0300                	.2byte	0x300
     49c:	316e                	.2byte	0x316e
     49e:	e800                	.2byte	0xe800
     4a0:	00951603          	lh	a2,9(a0)
     4a4:	0000                	.2byte	0x0
     4a6:	00326e03          	.4byte	0x326e03
     4aa:	03e8                	.2byte	0x3e8
     4ac:	951a                	.2byte	0x951a
     4ae:	0000                	.2byte	0x0
     4b0:	0300                	.2byte	0x300
     4b2:	3071                	.2byte	0x3071
     4b4:	e900                	.2byte	0xe900
     4b6:	00950a03          	lb	s4,9(a0)
     4ba:	0000                	.2byte	0x0
     4bc:	00317103          	.4byte	0x317103
     4c0:	03e9                	.2byte	0x3e9
     4c2:	950e                	.2byte	0x950e
     4c4:	0000                	.2byte	0x0
     4c6:	0300                	.2byte	0x300
     4c8:	0062                	.2byte	0x62
     4ca:	03ea                	.2byte	0x3ea
     4cc:	950a                	.2byte	0x950a
     4ce:	0000                	.2byte	0x0
     4d0:	0300                	.2byte	0x300
     4d2:	6d62                	.2byte	0x6d62
     4d4:	ea00                	.2byte	0xea00
     4d6:	00950d03          	lb	s10,9(a0)
     4da:	0000                	.2byte	0x0
     4dc:	00777703          	.4byte	0x777703
     4e0:	311104b3          	.4byte	0x311104b3
     4e4:	0001                	.2byte	0x1
     4e6:	0500                	.2byte	0x500
     4e8:	0505                	.2byte	0x505
     4ea:	0000                	.2byte	0x0
     4ec:	d902                	.2byte	0xd902
     4ee:	0000                	.2byte	0x0
     4f0:	1a00                	.2byte	0x1a00
     4f2:	0404                	.2byte	0x404
     4f4:	0095                	.2byte	0x95
     4f6:	0000                	.2byte	0x0
     4f8:	615f5f03          	lhu	t5,1557(t5)
     4fc:	1a00                	.2byte	0x1a00
     4fe:	0404                	.2byte	0x404
     500:	0095                	.2byte	0x95
     502:	0000                	.2byte	0x0
     504:	0500                	.2byte	0x500
     506:	055f 0000 2f02      	.byte	0x5f, 0x05, 0x00, 0x00, 0x02, 0x2f
     50c:	0000                	.2byte	0x0
     50e:	2600                	.2byte	0x2600
     510:	0404                	.2byte	0x404
     512:	0095                	.2byte	0x95
     514:	0000                	.2byte	0x0
     516:	2a02                	.2byte	0x2a02
     518:	0000                	.2byte	0x0
     51a:	2600                	.2byte	0x2600
     51c:	0404                	.2byte	0x404
     51e:	0095                	.2byte	0x95
     520:	0000                	.2byte	0x0
     522:	c502                	.2byte	0xc502
     524:	0000                	.2byte	0x0
     526:	2600                	.2byte	0x2600
     528:	0404                	.2byte	0x404
     52a:	0095                	.2byte	0x95
     52c:	0000                	.2byte	0x0
     52e:	c002                	.2byte	0xc002
     530:	0000                	.2byte	0x0
     532:	2600                	.2byte	0x2600
     534:	0404                	.2byte	0x404
     536:	0095                	.2byte	0x95
     538:	0000                	.2byte	0x0
     53a:	0c02                	.2byte	0xc02
     53c:	0001                	.2byte	0x1
     53e:	2600                	.2byte	0x2600
     540:	0404                	.2byte	0x404
     542:	0095                	.2byte	0x95
     544:	0000                	.2byte	0x0
     546:	0702                	.2byte	0x702
     548:	0001                	.2byte	0x1
     54a:	2600                	.2byte	0x2600
     54c:	0404                	.2byte	0x404
     54e:	0095                	.2byte	0x95
     550:	0000                	.2byte	0x0
     552:	6d5f5f03          	lhu	t5,1749(t5)
     556:	2600                	.2byte	0x2600
     558:	0404                	.2byte	0x404
     55a:	0095                	.2byte	0x95
     55c:	0000                	.2byte	0x0
     55e:	0500                	.2byte	0x500
     560:	057d                	.2byte	0x57d
     562:	0000                	.2byte	0x0
     564:	d902                	.2byte	0xd902
     566:	0000                	.2byte	0x0
     568:	3200                	.2byte	0x3200
     56a:	0404                	.2byte	0x404
     56c:	0095                	.2byte	0x95
     56e:	0000                	.2byte	0x0
     570:	615f5f03          	lhu	t5,1557(t5)
     574:	3200                	.2byte	0x3200
     576:	0404                	.2byte	0x404
     578:	0095                	.2byte	0x95
     57a:	0000                	.2byte	0x0
     57c:	0500                	.2byte	0x500
     57e:	000005d7          	.4byte	0x5d7
     582:	2f02                	.2byte	0x2f02
     584:	0000                	.2byte	0x0
     586:	4b00                	.2byte	0x4b00
     588:	0804                	.2byte	0x804
     58a:	0095                	.2byte	0x95
     58c:	0000                	.2byte	0x0
     58e:	2a02                	.2byte	0x2a02
     590:	0000                	.2byte	0x0
     592:	4b00                	.2byte	0x4b00
     594:	0804                	.2byte	0x804
     596:	0095                	.2byte	0x95
     598:	0000                	.2byte	0x0
     59a:	c502                	.2byte	0xc502
     59c:	0000                	.2byte	0x0
     59e:	4b00                	.2byte	0x4b00
     5a0:	0804                	.2byte	0x804
     5a2:	0095                	.2byte	0x95
     5a4:	0000                	.2byte	0x0
     5a6:	c002                	.2byte	0xc002
     5a8:	0000                	.2byte	0x0
     5aa:	4b00                	.2byte	0x4b00
     5ac:	0804                	.2byte	0x804
     5ae:	0095                	.2byte	0x95
     5b0:	0000                	.2byte	0x0
     5b2:	0c02                	.2byte	0xc02
     5b4:	0001                	.2byte	0x1
     5b6:	4b00                	.2byte	0x4b00
     5b8:	0804                	.2byte	0x804
     5ba:	0095                	.2byte	0x95
     5bc:	0000                	.2byte	0x0
     5be:	0702                	.2byte	0x702
     5c0:	0001                	.2byte	0x1
     5c2:	4b00                	.2byte	0x4b00
     5c4:	0804                	.2byte	0x804
     5c6:	0095                	.2byte	0x95
     5c8:	0000                	.2byte	0x0
     5ca:	6d5f5f03          	lhu	t5,1749(t5)
     5ce:	4b00                	.2byte	0x4b00
     5d0:	0804                	.2byte	0x804
     5d2:	0095                	.2byte	0x95
     5d4:	0000                	.2byte	0x0
     5d6:	0500                	.2byte	0x500
     5d8:	0631                	.2byte	0x631
     5da:	0000                	.2byte	0x0
     5dc:	2f02                	.2byte	0x2f02
     5de:	0000                	.2byte	0x0
     5e0:	5000                	.2byte	0x5000
     5e2:	0404                	.2byte	0x404
     5e4:	0095                	.2byte	0x95
     5e6:	0000                	.2byte	0x0
     5e8:	2a02                	.2byte	0x2a02
     5ea:	0000                	.2byte	0x0
     5ec:	5000                	.2byte	0x5000
     5ee:	0404                	.2byte	0x404
     5f0:	0095                	.2byte	0x95
     5f2:	0000                	.2byte	0x0
     5f4:	c502                	.2byte	0xc502
     5f6:	0000                	.2byte	0x0
     5f8:	5000                	.2byte	0x5000
     5fa:	0404                	.2byte	0x404
     5fc:	0095                	.2byte	0x95
     5fe:	0000                	.2byte	0x0
     600:	c002                	.2byte	0xc002
     602:	0000                	.2byte	0x0
     604:	5000                	.2byte	0x5000
     606:	0404                	.2byte	0x404
     608:	0095                	.2byte	0x95
     60a:	0000                	.2byte	0x0
     60c:	0c02                	.2byte	0xc02
     60e:	0001                	.2byte	0x1
     610:	5000                	.2byte	0x5000
     612:	0404                	.2byte	0x404
     614:	0095                	.2byte	0x95
     616:	0000                	.2byte	0x0
     618:	0702                	.2byte	0x702
     61a:	0001                	.2byte	0x1
     61c:	5000                	.2byte	0x5000
     61e:	0404                	.2byte	0x404
     620:	0095                	.2byte	0x95
     622:	0000                	.2byte	0x0
     624:	6d5f5f03          	lhu	t5,1749(t5)
     628:	5000                	.2byte	0x5000
     62a:	0404                	.2byte	0x404
     62c:	0095                	.2byte	0x95
     62e:	0000                	.2byte	0x0
     630:	0500                	.2byte	0x500
     632:	0000064f          	.4byte	0x64f
     636:	d902                	.2byte	0xd902
     638:	0000                	.2byte	0x0
     63a:	7300                	.2byte	0x7300
     63c:	0404                	.2byte	0x404
     63e:	0095                	.2byte	0x95
     640:	0000                	.2byte	0x0
     642:	615f5f03          	lhu	t5,1557(t5)
     646:	7300                	.2byte	0x7300
     648:	0404                	.2byte	0x404
     64a:	0095                	.2byte	0x95
     64c:	0000                	.2byte	0x0
     64e:	0500                	.2byte	0x500
     650:	0661                	.2byte	0x661
     652:	0000                	.2byte	0x0
     654:	785f5f03          	lhu	t5,1925(t5)
     658:	8100                	.2byte	0x8100
     65a:	0504                	.2byte	0x504
     65c:	0095                	.2byte	0x95
     65e:	0000                	.2byte	0x0
     660:	1000                	.2byte	0x1000
     662:	00316d03          	.4byte	0x316d03
     666:	0491                	.2byte	0x491
     668:	0000950f          	.4byte	0x950f
     66c:	0300                	.2byte	0x300
     66e:	306d                	.2byte	0x306d
     670:	9100                	.2byte	0x9100
     672:	1304                	.2byte	0x1304
     674:	0095                	.2byte	0x95
     676:	0000                	.2byte	0x0
     678:	d205                	.2byte	0xd205
     67a:	0006                	.2byte	0x6
     67c:	0200                	.2byte	0x200
     67e:	0000002f          	.4byte	0x2f
     682:	049c                	.2byte	0x49c
     684:	9508                	.2byte	0x9508
     686:	0000                	.2byte	0x0
     688:	0200                	.2byte	0x200
     68a:	002a                	.2byte	0x2a
     68c:	0000                	.2byte	0x0
     68e:	049c                	.2byte	0x49c
     690:	9508                	.2byte	0x9508
     692:	0000                	.2byte	0x0
     694:	0200                	.2byte	0x200
     696:	00c5                	.2byte	0xc5
     698:	0000                	.2byte	0x0
     69a:	049c                	.2byte	0x49c
     69c:	9508                	.2byte	0x9508
     69e:	0000                	.2byte	0x0
     6a0:	0200                	.2byte	0x200
     6a2:	00c0                	.2byte	0xc0
     6a4:	0000                	.2byte	0x0
     6a6:	049c                	.2byte	0x49c
     6a8:	9508                	.2byte	0x9508
     6aa:	0000                	.2byte	0x0
     6ac:	0200                	.2byte	0x200
     6ae:	010c                	.2byte	0x10c
     6b0:	0000                	.2byte	0x0
     6b2:	049c                	.2byte	0x49c
     6b4:	9508                	.2byte	0x9508
     6b6:	0000                	.2byte	0x0
     6b8:	0200                	.2byte	0x200
     6ba:	00000107          	.4byte	0x107
     6be:	049c                	.2byte	0x49c
     6c0:	9508                	.2byte	0x9508
     6c2:	0000                	.2byte	0x0
     6c4:	0300                	.2byte	0x300
     6c6:	5f5f 006d 049c      	.byte	0x5f, 0x5f, 0x6d, 0x00, 0x9c, 0x04
     6cc:	9508                	.2byte	0x9508
     6ce:	0000                	.2byte	0x0
     6d0:	0000                	.2byte	0x0
     6d2:	3805                	.2byte	0x3805
     6d4:	02000007          	.4byte	0x2000007
     6d8:	0080                	.2byte	0x80
     6da:	0000                	.2byte	0x0
     6dc:	049d                	.2byte	0x49d
     6de:	9508                	.2byte	0x9508
     6e0:	0000                	.2byte	0x0
     6e2:	0200                	.2byte	0x200
     6e4:	0085                	.2byte	0x85
     6e6:	0000                	.2byte	0x0
     6e8:	049d                	.2byte	0x49d
     6ea:	9508                	.2byte	0x9508
     6ec:	0000                	.2byte	0x0
     6ee:	0200                	.2byte	0x200
     6f0:	008a                	.2byte	0x8a
     6f2:	0000                	.2byte	0x0
     6f4:	049d                	.2byte	0x49d
     6f6:	9508                	.2byte	0x9508
     6f8:	0000                	.2byte	0x0
     6fa:	0200                	.2byte	0x200
     6fc:	0000008f          	.4byte	0x8f
     700:	049d                	.2byte	0x49d
     702:	9508                	.2byte	0x9508
     704:	0000                	.2byte	0x0
     706:	0200                	.2byte	0x200
     708:	0116                	.2byte	0x116
     70a:	0000                	.2byte	0x0
     70c:	049d                	.2byte	0x49d
     70e:	9508                	.2byte	0x9508
     710:	0000                	.2byte	0x0
     712:	0200                	.2byte	0x200
     714:	0039                	.2byte	0x39
     716:	0000                	.2byte	0x0
     718:	049d                	.2byte	0x49d
     71a:	9508                	.2byte	0x9508
     71c:	0000                	.2byte	0x0
     71e:	0200                	.2byte	0x200
     720:	0111                	.2byte	0x111
     722:	0000                	.2byte	0x0
     724:	049d                	.2byte	0x49d
     726:	9508                	.2byte	0x9508
     728:	0000                	.2byte	0x0
     72a:	0200                	.2byte	0x200
     72c:	0034                	.2byte	0x34
     72e:	0000                	.2byte	0x0
     730:	049d                	.2byte	0x49d
     732:	9508                	.2byte	0x9508
     734:	0000                	.2byte	0x0
     736:	0000                	.2byte	0x0
     738:	4a05                	.2byte	0x4a05
     73a:	03000007          	.4byte	0x3000007
     73e:	5f5f 0078 04a2      	.byte	0x5f, 0x5f, 0x78, 0x00, 0xa2, 0x04
     744:	9505                	.2byte	0x9505
     746:	0000                	.2byte	0x0
     748:	0000                	.2byte	0x0
     74a:	0310                	.2byte	0x310
     74c:	5f5f 0078 04aa      	.byte	0x5f, 0x5f, 0x78, 0x00, 0xaa, 0x04
     752:	9505                	.2byte	0x9505
     754:	0000                	.2byte	0x0
     756:	0000                	.2byte	0x0
     758:	0000                	.2byte	0x0
     75a:	041f 00ab 0000      	.byte	0x1f, 0x04, 0xab, 0x00, 0x00, 0x00
     760:	ec00                	.2byte	0xec00
     762:	0002                	.2byte	0x2
     764:	0500                	.2byte	0x500
     766:	0100                	.2byte	0x100
     768:	a604                	.2byte	0xa604
     76a:	0001                	.2byte	0x1
     76c:	0a00                	.2byte	0xa00
     76e:	0000030f          	.4byte	0x30f
     772:	d31d                	.2byte	0xd31d
     774:	0000                	.2byte	0x0
     776:	3800                	.2byte	0x3800
     778:	0000                	.2byte	0x0
     77a:	9400                	.2byte	0x9400
     77c:	0104                	.2byte	0x104
     77e:	7000                	.2byte	0x7000
     780:	0004                	.2byte	0x4
     782:	1300                	.2byte	0x1300
     784:	02000007          	.4byte	0x2000007
     788:	0404                	.2byte	0x404
     78a:	001a                	.2byte	0x1a
     78c:	0000                	.2byte	0x0
     78e:	6905040b          	.4byte	0x6905040b
     792:	746e                	.2byte	0x746e
     794:	0200                	.2byte	0x200
     796:	0601                	.2byte	0x601
     798:	0074                	.2byte	0x74
     79a:	0000                	.2byte	0x0
     79c:	0802                	.2byte	0x802
     79e:	3e05                	.2byte	0x3e05
     7a0:	0000                	.2byte	0x0
     7a2:	0200                	.2byte	0x200
     7a4:	0801                	.2byte	0x801
     7a6:	0072                	.2byte	0x72
     7a8:	0000                	.2byte	0x0
     7aa:	0402                	.2byte	0x402
     7ac:	00005607          	.4byte	0x5607
     7b0:	0200                	.2byte	0x200
     7b2:	0708                	.2byte	0x708
     7b4:	004c                	.2byte	0x4c
     7b6:	0000                	.2byte	0x0
     7b8:	0202                	.2byte	0x202
     7ba:	0000a507          	.4byte	0xa507
     7be:	0c00                	.2byte	0xc00
     7c0:	0000023f 260f4502 	.8byte	0x260f45020000023f
     7c8:	0000                	.2byte	0x0
     7ca:	0d00                	.2byte	0xd00
     7cc:	0204                	.2byte	0x204
     7ce:	034a                	.2byte	0x34a
     7d0:	009a                	.2byte	0x9a
     7d2:	0000                	.2byte	0x0
     7d4:	9b08                	.2byte	0x9b08
     7d6:	0002                	.2byte	0x2
     7d8:	5100                	.2byte	0x5100
     7da:	0049                	.2byte	0x49
     7dc:	0000                	.2byte	0x0
     7de:	650e0017          	auipc	zero,0x650e0
     7e2:	7078                	.2byte	0x7078
     7e4:	0200                	.2byte	0x200
     7e6:	0e52                	.2byte	0xe52
     7e8:	0049                	.2byte	0x49
     7ea:	0000                	.2byte	0x0
     7ec:	1708                	.2byte	0x1708
     7ee:	6d08                	.2byte	0x6d08
     7f0:	0002                	.2byte	0x2
     7f2:	5300                	.2byte	0x5300
     7f4:	0049                	.2byte	0x49
     7f6:	0000                	.2byte	0x0
     7f8:	1f01                	.2byte	0x1f01
     7fa:	0f00                	.2byte	0xf00
     7fc:	00000303          	lb	t1,0(zero) # 0 <exit-0x10094>
     800:	0204                	.2byte	0x204
     802:	00c00747          	.4byte	0xc00747
     806:	0000                	.2byte	0x0
     808:	6610                	.2byte	0x6610
     80a:	746c                	.2byte	0x746c
     80c:	0200                	.2byte	0x200
     80e:	0a49                	.2byte	0xa49
     810:	005e                	.2byte	0x5e
     812:	0000                	.2byte	0x0
     814:	e611                	.2byte	0xe611
     816:	0002                	.2byte	0x2
     818:	0200                	.2byte	0x200
     81a:	0555                	.2byte	0x555
     81c:	006a                	.2byte	0x6a
     81e:	0000                	.2byte	0x0
     820:	1200                	.2byte	0x1200
     822:	0264                	.2byte	0x264
     824:	0000                	.2byte	0x0
     826:	2301                	.2byte	0x2301
     828:	5e01                	.2byte	0x5e01
     82a:	0000                	.2byte	0x0
     82c:	9400                	.2byte	0x9400
     82e:	0104                	.2byte	0x104
     830:	7000                	.2byte	0x7000
     832:	0004                	.2byte	0x4
     834:	0100                	.2byte	0x100
     836:	d89c                	.2byte	0xd89c
     838:	0002                	.2byte	0x2
     83a:	0900                	.2byte	0x900
     83c:	0061                	.2byte	0x61
     83e:	5e12                	.2byte	0x5e12
     840:	0000                	.2byte	0x0
     842:	5800                	.2byte	0x5800
     844:	000a                	.2byte	0xa
     846:	0900                	.2byte	0x900
     848:	0062                	.2byte	0x62
     84a:	5e1c                	.2byte	0x5e1c
     84c:	0000                	.2byte	0x0
     84e:	c300                	.2byte	0xc300
     850:	0600000b          	.4byte	0x600000b
     854:	0210                	.2byte	0x210
     856:	0000                	.2byte	0x0
     858:	2d25                	.2byte	0x2d25
     85a:	0000                	.2byte	0x0
     85c:	df00                	.2byte	0xdf00
     85e:	1300000b          	.4byte	0x1300000b
     862:	03c8                	.2byte	0x3c8
     864:	0000                	.2byte	0x0
     866:	2501                	.2byte	0x2501
     868:	00002d03          	lw	s10,0(zero) # 0 <exit-0x10094>
     86c:	0000                	.2byte	0x0
     86e:	635f4107          	.4byte	0x635f4107
     872:	2600                	.2byte	0x2600
     874:	02d8                	.2byte	0x2d8
     876:	0000                	.2byte	0x0
     878:	4101                	.2byte	0x4101
     87a:	735f 2600 d803      	.byte	0x5f, 0x73, 0x00, 0x26, 0x03, 0xd8
     880:	0002                	.2byte	0x2
     882:	3400                	.2byte	0x3400
     884:	000c                	.2byte	0xc
     886:	0100                	.2byte	0x100
     888:	5f41                	.2byte	0x5f41
     88a:	0065                	.2byte	0x65
     88c:	0326                	.2byte	0x326
     88e:	02d8                	.2byte	0x2d8
     890:	0000                	.2byte	0x0
     892:	0ce2                	.2byte	0xce2
     894:	0000                	.2byte	0x0
     896:	4101                	.2byte	0x4101
     898:	665f 2600 df03      	.byte	0x5f, 0x66, 0x00, 0x26, 0x03, 0xdf
     89e:	0002                	.2byte	0x2
     8a0:	f300                	.2byte	0xf300
     8a2:	000d                	.2byte	0xd
     8a4:	0700                	.2byte	0x700
     8a6:	5f42                	.2byte	0x5f42
     8a8:	d8270063          	beq	a4,sp,fffffe28 <__global_pointer$+0xfffec3e0>
     8ac:	0002                	.2byte	0x2
     8ae:	0100                	.2byte	0x100
     8b0:	5f42                	.2byte	0x5f42
     8b2:	03270073          	.4byte	0x3270073
     8b6:	02d8                	.2byte	0x2d8
     8b8:	0000                	.2byte	0x0
     8ba:	0fe0                	.2byte	0xfe0
     8bc:	0000                	.2byte	0x0
     8be:	4201                	.2byte	0x4201
     8c0:	655f 2700 d803      	.byte	0x5f, 0x65, 0x00, 0x27, 0x03, 0xd8
     8c6:	0002                	.2byte	0x2
     8c8:	5a00                	.2byte	0x5a00
     8ca:	0010                	.2byte	0x10
     8cc:	0100                	.2byte	0x100
     8ce:	5f42                	.2byte	0x5f42
     8d0:	0066                	.2byte	0x66
     8d2:	02df0327          	.4byte	0x2df0327
     8d6:	0000                	.2byte	0x0
     8d8:	10d4                	.2byte	0x10d4
     8da:	0000                	.2byte	0x0
     8dc:	635f5207          	.4byte	0x635f5207
     8e0:	2800                	.2byte	0x2800
     8e2:	02d8                	.2byte	0x2d8
     8e4:	0000                	.2byte	0x0
     8e6:	5201                	.2byte	0x5201
     8e8:	735f 2800 d803      	.byte	0x5f, 0x73, 0x00, 0x28, 0x03, 0xd8
     8ee:	0002                	.2byte	0x2
     8f0:	8000                	.2byte	0x8000
     8f2:	0011                	.2byte	0x11
     8f4:	0100                	.2byte	0x100
     8f6:	5f52                	.2byte	0x5f52
     8f8:	0065                	.2byte	0x65
     8fa:	0328                	.2byte	0x328
     8fc:	02d8                	.2byte	0x2d8
     8fe:	0000                	.2byte	0x0
     900:	1210                	.2byte	0x1210
     902:	0000                	.2byte	0x0
     904:	5201                	.2byte	0x5201
     906:	665f 2800 df03      	.byte	0x5f, 0x66, 0x00, 0x28, 0x03, 0xdf
     90c:	0002                	.2byte	0x2
     90e:	3f00                	.2byte	0x3f00
     910:	01000013          	li	zero,16
     914:	0072                	.2byte	0x72
     916:	0a29                	.2byte	0xa29
     918:	005e                	.2byte	0x5e
     91a:	0000                	.2byte	0x0
     91c:	0000148f          	.4byte	0x148f
     920:	1d05                	.2byte	0x1d05
     922:	0001                	.2byte	0x1
     924:	d300                	.2byte	0xd300
     926:	0001                	.2byte	0x1
     928:	0400                	.2byte	0x400
     92a:	0000024f          	.4byte	0x24f
     92e:	9a2c                	.2byte	0x9a2c
     930:	0000                	.2byte	0x0
     932:	0000                	.2byte	0x0
     934:	5405                	.2byte	0x5405
     936:	0001                	.2byte	0x1
     938:	e700                	.2byte	0xe700
     93a:	0001                	.2byte	0x1
     93c:	0400                	.2byte	0x400
     93e:	0000024f          	.4byte	0x24f
     942:	9a2d                	.2byte	0x9a2d
     944:	0000                	.2byte	0x0
     946:	0000                	.2byte	0x0
     948:	af05                	.2byte	0xaf05
     94a:	0001                	.2byte	0x1
     94c:	2300                	.2byte	0x2300
     94e:	0002                	.2byte	0x2
     950:	0300                	.2byte	0x300
     952:	02f4                	.2byte	0x2f4
     954:	0000                	.2byte	0x0
     956:	0534                	.2byte	0x534
     958:	0001                	.2byte	0x1
     95a:	0002f903          	.4byte	0x2f903
     95e:	4c00                	.2byte	0x4c00
     960:	0106                	.2byte	0x106
     962:	0300                	.2byte	0x300
     964:	02fe                	.2byte	0x2fe
     966:	0000                	.2byte	0x0
     968:	05d8                	.2byte	0x5d8
     96a:	0001                	.2byte	0x1
     96c:	00024603          	lbu	a2,0(tp) # 0 <exit-0x10094>
     970:	4000                	.2byte	0x4000
     972:	0105                	.2byte	0x105
     974:	0600                	.2byte	0x600
     976:	000002cf          	.4byte	0x2cf
     97a:	2d2e                	.2byte	0x2d2e
     97c:	0000                	.2byte	0x0
     97e:	ad00                	.2byte	0xad00
     980:	0014                	.2byte	0x14
     982:	0000                	.2byte	0x0
     984:	0a05                	.2byte	0xa05
     986:	0002                	.2byte	0x2
     988:	8500                	.2byte	0x8500
     98a:	0002                	.2byte	0x2
     98c:	0300                	.2byte	0x300
     98e:	0272                	.2byte	0x272
     990:	0000                	.2byte	0x0
     992:	0714                	.2byte	0x714
     994:	0001                	.2byte	0x1
     996:	00027703          	.4byte	0x27703
     99a:	b800                	.2byte	0xb800
     99c:	03000107          	.4byte	0x3000107
     9a0:	027c                	.2byte	0x27c
     9a2:	0000                	.2byte	0x0
     9a4:	073c                	.2byte	0x73c
     9a6:	0001                	.2byte	0x1
     9a8:	00029603          	lh	a2,0(t0) # 11dcc <memset+0xb4>
     9ac:	6400                	.2byte	0x6400
     9ae:	0108                	.2byte	0x108
     9b0:	0300                	.2byte	0x300
     9b2:	000002eb          	.4byte	0x2eb
     9b6:	0540                	.2byte	0x540
     9b8:	0001                	.2byte	0x1
     9ba:	cf06                	.2byte	0xcf06
     9bc:	0002                	.2byte	0x2
     9be:	2e00                	.2byte	0x2e00
     9c0:	002d                	.2byte	0x2d
     9c2:	0000                	.2byte	0x0
     9c4:	1542                	.2byte	0x1542
     9c6:	0000                	.2byte	0x0
     9c8:	6514                	.2byte	0x6514
     9ca:	0002                	.2byte	0x2
     9cc:	0600                	.2byte	0x600
     9ce:	02b9                	.2byte	0x2b9
     9d0:	0000                	.2byte	0x0
     9d2:	2d2e                	.2byte	0x2d2e
     9d4:	0000                	.2byte	0x0
     9d6:	0500                	.2byte	0x500
     9d8:	0016                	.2byte	0x16
     9da:	1500                	.2byte	0x1500
     9dc:	086c                	.2byte	0x86c
     9de:	0001                	.2byte	0x1
     9e0:	02e6                	.2byte	0x2e6
     9e2:	0000                	.2byte	0x0
     9e4:	0000                	.2byte	0x0
     9e6:	8105                	.2byte	0x8105
     9e8:	0002                	.2byte	0x2
     9ea:	c300                	.2byte	0xc300
     9ec:	0002                	.2byte	0x2
     9ee:	0400                	.2byte	0x400
     9f0:	02a0                	.2byte	0x2a0
     9f2:	0000                	.2byte	0x0
     9f4:	00002d2f          	.4byte	0x2d2f
     9f8:	1600                	.2byte	0x1600
     9fa:	1504                	.2byte	0x1504
     9fc:	0002                	.2byte	0x2
     9fe:	2f00                	.2byte	0x2f00
     a00:	02d8                	.2byte	0x2d8
     a02:	0000                	.2byte	0x0
     a04:	fb04                	.2byte	0xfb04
     a06:	0001                	.2byte	0x1
     a08:	2f00                	.2byte	0x2f00
     a0a:	02d8                	.2byte	0x2d8
     a0c:	0000                	.2byte	0x0
     a0e:	8104                	.2byte	0x8104
     a10:	0002                	.2byte	0x2
     a12:	2f00                	.2byte	0x2f00
     a14:	02d8                	.2byte	0x2d8
     a16:	0000                	.2byte	0x0
     a18:	2a04                	.2byte	0x2a04
     a1a:	0002                	.2byte	0x2
     a1c:	2f00                	.2byte	0x2f00
     a1e:	02df 0000 0000      	.byte	0xdf, 0x02, 0x00, 0x00, 0x00, 0x00
     a24:	01058417          	auipc	s0,0x1058
     a28:	1c00                	.2byte	0x1c00
     a2a:	0000                	.2byte	0x0
     a2c:	0400                	.2byte	0x400
     a2e:	01e8                	.2byte	0x1e8
     a30:	0000                	.2byte	0x0
     a32:	00009a2f          	.4byte	0x9a2f
     a36:	0000                	.2byte	0x0
     a38:	0200                	.2byte	0x200
     a3a:	0504                	.2byte	0x504
     a3c:	00000043          	.4byte	0x43
     a40:	0402                	.2byte	0x402
     a42:	00005107          	.4byte	0x5107
     a46:	1800                	.2byte	0x1800
     a48:	000003bf 000003bf 	.8byte	0x3bf000003bf
     a50:	5c00                	.2byte	0x5c00
     a52:	05000003          	lb	zero,80(zero) # 50 <exit-0x10044>
     a56:	0100                	.2byte	0x100
     a58:	1304                	.2byte	0x1304
     a5a:	0a000003          	lb	zero,160(zero) # a0 <exit-0xfff4>
     a5e:	0000030f          	.4byte	0x30f
     a62:	511d                	.2byte	0x511d
     a64:	0001                	.2byte	0x1
     a66:	3800                	.2byte	0x3800
     a68:	0000                	.2byte	0x0
     a6a:	0400                	.2byte	0x400
     a6c:	0109                	.2byte	0x109
     a6e:	3000                	.2byte	0x3000
     a70:	2f000003          	lb	zero,752(zero) # 2f0 <exit-0xfda4>
     a74:	0011                	.2byte	0x11
     a76:	0300                	.2byte	0x300
     a78:	0404                	.2byte	0x404
     a7a:	001a                	.2byte	0x1a
     a7c:	0000                	.2byte	0x0
     a7e:	6905040b          	.4byte	0x6905040b
     a82:	746e                	.2byte	0x746e
     a84:	0300                	.2byte	0x300
     a86:	0601                	.2byte	0x601
     a88:	0074                	.2byte	0x74
     a8a:	0000                	.2byte	0x0
     a8c:	3e050803          	lb	a6,992(a0)
     a90:	0000                	.2byte	0x0
     a92:	0300                	.2byte	0x300
     a94:	0801                	.2byte	0x801
     a96:	0072                	.2byte	0x72
     a98:	0000                	.2byte	0x0
     a9a:	56070403          	lb	s0,1376(a4) # aaac6c0e <__global_pointer$+0xaaab31c6>
     a9e:	0000                	.2byte	0x0
     aa0:	0300                	.2byte	0x300
     aa2:	0708                	.2byte	0x708
     aa4:	004c                	.2byte	0x4c
     aa6:	0000                	.2byte	0x0
     aa8:	a5070203          	lb	tp,-1456(a4)
     aac:	0000                	.2byte	0x0
     aae:	0c00                	.2byte	0xc00
     ab0:	0000023f 260f4502 	.8byte	0x260f45020000023f
     ab8:	0000                	.2byte	0x0
     aba:	0d00                	.2byte	0xd00
     abc:	0204                	.2byte	0x204
     abe:	034a                	.2byte	0x34a
     ac0:	009a                	.2byte	0x9a
     ac2:	0000                	.2byte	0x0
     ac4:	9b06                	.2byte	0x9b06
     ac6:	0002                	.2byte	0x2
     ac8:	5100                	.2byte	0x5100
     aca:	0049                	.2byte	0x49
     acc:	0000                	.2byte	0x0
     ace:	650e0017          	auipc	zero,0x650e0
     ad2:	7078                	.2byte	0x7078
     ad4:	0200                	.2byte	0x200
     ad6:	0e52                	.2byte	0xe52
     ad8:	0049                	.2byte	0x49
     ada:	0000                	.2byte	0x0
     adc:	1708                	.2byte	0x1708
     ade:	6d06                	.2byte	0x6d06
     ae0:	0002                	.2byte	0x2
     ae2:	5300                	.2byte	0x5300
     ae4:	0049                	.2byte	0x49
     ae6:	0000                	.2byte	0x0
     ae8:	1f01                	.2byte	0x1f01
     aea:	0f00                	.2byte	0xf00
     aec:	00000303          	lb	t1,0(zero) # 0 <exit-0x10094>
     af0:	0204                	.2byte	0x204
     af2:	00c00747          	.4byte	0xc00747
     af6:	0000                	.2byte	0x0
     af8:	6610                	.2byte	0x6610
     afa:	746c                	.2byte	0x746c
     afc:	0200                	.2byte	0x200
     afe:	0a49                	.2byte	0xa49
     b00:	005e                	.2byte	0x5e
     b02:	0000                	.2byte	0x0
     b04:	e611                	.2byte	0xe611
     b06:	0002                	.2byte	0x2
     b08:	0200                	.2byte	0x200
     b0a:	0555                	.2byte	0x555
     b0c:	006a                	.2byte	0x6a
     b0e:	0000                	.2byte	0x0
     b10:	1200                	.2byte	0x1200
     b12:	03ff                	.2byte	0x3ff
     b14:	0000                	.2byte	0x0
     b16:	2301                	.2byte	0x2301
     b18:	5e01                	.2byte	0x5e01
     b1a:	0000                	.2byte	0x0
     b1c:	0400                	.2byte	0x400
     b1e:	0109                	.2byte	0x109
     b20:	3000                	.2byte	0x3000
     b22:	01000003          	lb	zero,16(zero) # 10 <exit-0x10084>
     b26:	489c                	.2byte	0x489c
     b28:	07000003          	lb	zero,112(zero) # 70 <exit-0x10024>
     b2c:	0061                	.2byte	0x61
     b2e:	5e12                	.2byte	0x5e12
     b30:	0000                	.2byte	0x0
     b32:	3300                	.2byte	0x3300
     b34:	0016                	.2byte	0x16
     b36:	0700                	.2byte	0x700
     b38:	0062                	.2byte	0x62
     b3a:	5e1c                	.2byte	0x5e1c
     b3c:	0000                	.2byte	0x0
     b3e:	8500                	.2byte	0x8500
     b40:	0016                	.2byte	0x16
     b42:	0100                	.2byte	0x100
     b44:	0210                	.2byte	0x210
     b46:	0000                	.2byte	0x0
     b48:	2d25                	.2byte	0x2d25
     b4a:	0000                	.2byte	0x0
     b4c:	dd00                	.2byte	0xdd00
     b4e:	0016                	.2byte	0x16
     b50:	1300                	.2byte	0x1300
     b52:	03c8                	.2byte	0x3c8
     b54:	0000                	.2byte	0x0
     b56:	2501                	.2byte	0x2501
     b58:	00002d03          	lw	s10,0(zero) # 0 <exit-0x10094>
     b5c:	0000                	.2byte	0x0
     b5e:	4102                	.2byte	0x4102
     b60:	635f 2600 4803      	.byte	0x5f, 0x63, 0x00, 0x26, 0x03, 0x48
     b66:	f6000003          	lb	zero,-160(zero) # ffffff60 <__global_pointer$+0xfffec518>
     b6a:	0016                	.2byte	0x16
     b6c:	0200                	.2byte	0x200
     b6e:	5f41                	.2byte	0x5f41
     b70:	03260073          	.4byte	0x3260073
     b74:	0348                	.2byte	0x348
     b76:	0000                	.2byte	0x0
     b78:	1724                	.2byte	0x1724
     b7a:	0000                	.2byte	0x0
     b7c:	4102                	.2byte	0x4102
     b7e:	655f 2600 4803      	.byte	0x5f, 0x65, 0x00, 0x26, 0x03, 0x48
     b84:	45000003          	lb	zero,1104(zero) # 450 <exit-0xfc44>
     b88:	02000017          	auipc	zero,0x2000
     b8c:	5f41                	.2byte	0x5f41
     b8e:	0066                	.2byte	0x66
     b90:	0326                	.2byte	0x326
     b92:	0000034f          	.4byte	0x34f
     b96:	17c0                	.2byte	0x17c0
     b98:	0000                	.2byte	0x0
     b9a:	4202                	.2byte	0x4202
     b9c:	635f 2700 4803      	.byte	0x5f, 0x63, 0x00, 0x27, 0x03, 0x48
     ba2:	09000003          	lb	zero,144(zero) # 90 <exit-0x10004>
     ba6:	0018                	.2byte	0x18
     ba8:	0200                	.2byte	0x200
     baa:	5f42                	.2byte	0x5f42
     bac:	03270073          	.4byte	0x3270073
     bb0:	0348                	.2byte	0x348
     bb2:	0000                	.2byte	0x0
     bb4:	1842                	.2byte	0x1842
     bb6:	0000                	.2byte	0x0
     bb8:	4202                	.2byte	0x4202
     bba:	655f 2700 4803      	.byte	0x5f, 0x65, 0x00, 0x27, 0x03, 0x48
     bc0:	73000003          	lb	zero,1840(zero) # 730 <exit-0xf964>
     bc4:	0018                	.2byte	0x18
     bc6:	0200                	.2byte	0x200
     bc8:	5f42                	.2byte	0x5f42
     bca:	0066                	.2byte	0x66
     bcc:	034f0327          	.4byte	0x34f0327
     bd0:	0000                	.2byte	0x0
     bd2:	000018bf 635f5202 	.8byte	0x635f5202000018bf
     bda:	2800                	.2byte	0x2800
     bdc:	00034803          	lbu	a6,0(t1)
     be0:	0800                	.2byte	0x800
     be2:	0019                	.2byte	0x19
     be4:	0200                	.2byte	0x200
     be6:	5f52                	.2byte	0x5f52
     be8:	03280073          	.4byte	0x3280073
     bec:	0348                	.2byte	0x348
     bee:	0000                	.2byte	0x0
     bf0:	00001937          	lui	s2,0x1
     bf4:	5202                	.2byte	0x5202
     bf6:	655f 2800 4803      	.byte	0x5f, 0x65, 0x00, 0x28, 0x03, 0x48
     bfc:	8f000003          	lb	zero,-1808(zero) # fffff8f0 <__global_pointer$+0xfffebea8>
     c00:	0019                	.2byte	0x19
     c02:	0200                	.2byte	0x200
     c04:	5f52                	.2byte	0x5f52
     c06:	0066                	.2byte	0x66
     c08:	0328                	.2byte	0x328
     c0a:	0000034f          	.4byte	0x34f
     c0e:	19dd                	.2byte	0x19dd
     c10:	0000                	.2byte	0x0
     c12:	7202                	.2byte	0x7202
     c14:	2900                	.2byte	0x2900
     c16:	5e0a                	.2byte	0x5e0a
     c18:	0000                	.2byte	0x0
     c1a:	2400                	.2byte	0x2400
     c1c:	001a                	.2byte	0x1a
     c1e:	0500                	.2byte	0x500
     c20:	02cd                	.2byte	0x2cd
     c22:	0000                	.2byte	0x0
     c24:	01e2                	.2byte	0x1e2
     c26:	0000                	.2byte	0x0
     c28:	4f04                	.2byte	0x4f04
     c2a:	0002                	.2byte	0x2
     c2c:	2c00                	.2byte	0x2c00
     c2e:	009a                	.2byte	0x9a
     c30:	0000                	.2byte	0x0
     c32:	0500                	.2byte	0x500
     c34:	0304                	.2byte	0x304
     c36:	0000                	.2byte	0x0
     c38:	00000203          	lb	tp,0(zero) # 0 <exit-0x10094>
     c3c:	d601                	.2byte	0xd601
     c3e:	0004                	.2byte	0x4
     c40:	2c00                	.2byte	0x2c00
     c42:	0348                	.2byte	0x348
     c44:	0000                	.2byte	0x0
     c46:	1a42                	.2byte	0x1a42
     c48:	0000                	.2byte	0x0
     c4a:	d008                	.2byte	0xd008
     c4c:	0109                	.2byte	0x109
     c4e:	5600                	.2byte	0x5600
     c50:	00000003          	lb	zero,0(zero) # 0 <exit-0x10094>
     c54:	1705                	.2byte	0x1705
     c56:	17000003          	lb	zero,368(zero) # 170 <exit-0xff24>
     c5a:	0002                	.2byte	0x2
     c5c:	0400                	.2byte	0x400
     c5e:	0000024f          	.4byte	0x24f
     c62:	9a2d                	.2byte	0x9a2d
     c64:	0000                	.2byte	0x0
     c66:	0000                	.2byte	0x0
     c68:	3c05                	.2byte	0x3c05
     c6a:	38000003          	lb	zero,896(zero) # 380 <exit-0xfd14>
     c6e:	0002                	.2byte	0x2
     c70:	0100                	.2byte	0x100
     c72:	04d6                	.2byte	0x4d6
     c74:	0000                	.2byte	0x0
     c76:	482d                	.2byte	0x482d
     c78:	50000003          	lb	zero,1280(zero) # 500 <exit-0xfb94>
     c7c:	001a                	.2byte	0x1a
     c7e:	0800                	.2byte	0x800
     c80:	0a10                	.2byte	0xa10
     c82:	0001                	.2byte	0x1
     c84:	0356                	.2byte	0x356
     c86:	0000                	.2byte	0x0
     c88:	0500                	.2byte	0x500
     c8a:	0000034f          	.4byte	0x34f
     c8e:	02f1                	.2byte	0x2f1
     c90:	0000                	.2byte	0x0
     c92:	1f01                	.2byte	0x1f01
     c94:	0004                	.2byte	0x4
     c96:	2e00                	.2byte	0x2e00
     c98:	0000034f          	.4byte	0x34f
     c9c:	1a5e                	.2byte	0x1a5e
     c9e:	0000                	.2byte	0x0
     ca0:	ba01                	.2byte	0xba01
     ca2:	0004                	.2byte	0x4
     ca4:	2e00                	.2byte	0x2e00
     ca6:	0000034f          	.4byte	0x34f
     caa:	1a75                	.2byte	0x1a75
     cac:	0000                	.2byte	0x0
     cae:	8401                	.2byte	0x8401
     cb0:	0004                	.2byte	0x4
     cb2:	2e00                	.2byte	0x2e00
     cb4:	0000034f          	.4byte	0x34f
     cb8:	1a98                	.2byte	0x1a98
     cba:	0000                	.2byte	0x0
     cbc:	3b01                	.2byte	0x3b01
     cbe:	0004                	.2byte	0x4
     cc0:	2e00                	.2byte	0x2e00
     cc2:	0000034f          	.4byte	0x34f
     cc6:	1ab6                	.2byte	0x1ab6
     cc8:	0000                	.2byte	0x0
     cca:	9f01                	.2byte	0x9f01
     ccc:	0004                	.2byte	0x4
     cce:	2e00                	.2byte	0x2e00
     cd0:	0000034f          	.4byte	0x34f
     cd4:	1ad2                	.2byte	0x1ad2
     cd6:	0000                	.2byte	0x0
     cd8:	6209                	.2byte	0x6209
     cda:	01000003          	lb	zero,16(zero) # 10 <exit-0x10084>
     cde:	0000002f          	.4byte	0x2f
     ce2:	4f2e                	.2byte	0x4f2e
     ce4:	e9000003          	lb	zero,-368(zero) # fffffe90 <__global_pointer$+0xfffec448>
     ce8:	001a                	.2byte	0x1a
     cea:	0100                	.2byte	0x100
     cec:	002a                	.2byte	0x2a
     cee:	0000                	.2byte	0x0
     cf0:	4f2e                	.2byte	0x4f2e
     cf2:	04000003          	lb	zero,64(zero) # 40 <exit-0x10054>
     cf6:	0100001b          	.4byte	0x100001b
     cfa:	00c5                	.2byte	0xc5
     cfc:	0000                	.2byte	0x0
     cfe:	4f2e                	.2byte	0x4f2e
     d00:	21000003          	lb	zero,528(zero) # 210 <exit-0xfe84>
     d04:	0100001b          	.4byte	0x100001b
     d08:	00c0                	.2byte	0xc0
     d0a:	0000                	.2byte	0x0
     d0c:	4f2e                	.2byte	0x4f2e
     d0e:	38000003          	lb	zero,896(zero) # 380 <exit-0xfd14>
     d12:	0100001b          	.4byte	0x100001b
     d16:	010c                	.2byte	0x10c
     d18:	0000                	.2byte	0x0
     d1a:	4f2e                	.2byte	0x4f2e
     d1c:	4f000003          	lb	zero,1264(zero) # 4f0 <exit-0xfba4>
     d20:	0100001b          	.4byte	0x100001b
     d24:	00000107          	.4byte	0x107
     d28:	4f2e                	.2byte	0x4f2e
     d2a:	91000003          	lb	zero,-1776(zero) # fffff910 <__global_pointer$+0xfffebec8>
     d2e:	0200001b          	.4byte	0x200001b
     d32:	5f5f 006d 032e      	.byte	0x5f, 0x5f, 0x6d, 0x00, 0x2e, 0x03
     d38:	0000034f          	.4byte	0x34f
     d3c:	00001bd3          	.4byte	0x1bd3
     d40:	0000                	.2byte	0x0
     d42:	b414                	.2byte	0xb414
     d44:	6400010b          	.4byte	0x6400010b
     d48:	0000                	.2byte	0x0
     d4a:	3700                	.2byte	0x3700
     d4c:	01000003          	lb	zero,16(zero) # 10 <exit-0x10084>
     d50:	03cd                	.2byte	0x3cd
     d52:	0000                	.2byte	0x0
     d54:	00002d2f          	.4byte	0x2d2f
     d58:	fa00                	.2byte	0xfa00
     d5a:	1500001b          	.4byte	0x1500001b
     d5e:	5604                	.2byte	0x5604
     d60:	0004                	.2byte	0x4
     d62:	2f00                	.2byte	0x2f00
     d64:	0348                	.2byte	0x348
     d66:	0000                	.2byte	0x0
     d68:	6d04                	.2byte	0x6d04
     d6a:	0004                	.2byte	0x4
     d6c:	2f00                	.2byte	0x2f00
     d6e:	0348                	.2byte	0x348
     d70:	0000                	.2byte	0x0
     d72:	0804                	.2byte	0x804
     d74:	0004                	.2byte	0x4
     d76:	2f00                	.2byte	0x2f00
     d78:	0348                	.2byte	0x348
     d7a:	0000                	.2byte	0x0
     d7c:	e804                	.2byte	0xe804
     d7e:	2f000003          	lb	zero,752(zero) # 2f0 <exit-0xfda4>
     d82:	0000034f          	.4byte	0x34f
     d86:	0000                	.2byte	0x0
     d88:	7e09                	.2byte	0x7e09
     d8a:	04000003          	lb	zero,64(zero) # 40 <exit-0x10054>
     d8e:	01e8                	.2byte	0x1e8
     d90:	0000                	.2byte	0x0
     d92:	00009a2f          	.4byte	0x9a2f
     d96:	0000                	.2byte	0x0
     d98:	0300                	.2byte	0x300
     d9a:	0504                	.2byte	0x504
     d9c:	00000043          	.4byte	0x43
     da0:	51070403          	lb	s0,1296(a4)
     da4:	0000                	.2byte	0x0
     da6:	1600                	.2byte	0x1600
     da8:	000003bf 000003bf 	.8byte	0x3bf000003bf
     db0:	f800                	.2byte	0xf800
     db2:	0001                	.2byte	0x1
     db4:	0500                	.2byte	0x500
     db6:	0100                	.2byte	0x100
     db8:	5f04                	.2byte	0x5f04
     dba:	0004                	.2byte	0x4
     dbc:	0b00                	.2byte	0xb00
     dbe:	0000030f          	.4byte	0x30f
     dc2:	901d                	.2byte	0x901d
     dc4:	0001                	.2byte	0x1
     dc6:	3800                	.2byte	0x3800
     dc8:	0000                	.2byte	0x0
     dca:	3400                	.2byte	0x3400
     dcc:	010c                	.2byte	0x10c
     dce:	dc00                	.2byte	0xdc00
     dd0:	0000                	.2byte	0x0
     dd2:	4700                	.2byte	0x4700
     dd4:	0019                	.2byte	0x19
     dd6:	0100                	.2byte	0x100
     dd8:	0404                	.2byte	0x404
     dda:	001a                	.2byte	0x1a
     ddc:	0000                	.2byte	0x0
     dde:	1c04                	.2byte	0x1c04
     de0:	0005                	.2byte	0x5
     de2:	0200                	.2byte	0x200
     de4:	0d50                	.2byte	0xd50
     de6:	0039                	.2byte	0x39
     de8:	0000                	.2byte	0x0
     dea:	040c                	.2byte	0x40c
     dec:	6905                	.2byte	0x6905
     dee:	746e                	.2byte	0x746e
     df0:	0100                	.2byte	0x100
     df2:	0601                	.2byte	0x601
     df4:	0074                	.2byte	0x74
     df6:	0000                	.2byte	0x0
     df8:	0801                	.2byte	0x801
     dfa:	3e05                	.2byte	0x3e05
     dfc:	0000                	.2byte	0x0
     dfe:	0100                	.2byte	0x100
     e00:	0801                	.2byte	0x801
     e02:	0072                	.2byte	0x72
     e04:	0000                	.2byte	0x0
     e06:	0401                	.2byte	0x401
     e08:	00005607          	.4byte	0x5607
     e0c:	0100                	.2byte	0x100
     e0e:	0708                	.2byte	0x708
     e10:	004c                	.2byte	0x4c
     e12:	0000                	.2byte	0x0
     e14:	0201                	.2byte	0x201
     e16:	0000a507          	.4byte	0xa507
     e1a:	0400                	.2byte	0x400
     e1c:	0000023f 260f4503 	.8byte	0x260f45030000023f
     e24:	0000                	.2byte	0x0
     e26:	0d00                	.2byte	0xd00
     e28:	0304                	.2byte	0x304
     e2a:	034a                	.2byte	0x34a
     e2c:	00a6                	.2byte	0xa6
     e2e:	0000                	.2byte	0x0
     e30:	9b05                	.2byte	0x9b05
     e32:	0002                	.2byte	0x2
     e34:	5100                	.2byte	0x5100
     e36:	0055                	.2byte	0x55
     e38:	0000                	.2byte	0x0
     e3a:	650e0017          	auipc	zero,0x650e0
     e3e:	7078                	.2byte	0x7078
     e40:	0300                	.2byte	0x300
     e42:	0e52                	.2byte	0xe52
     e44:	0055                	.2byte	0x55
     e46:	0000                	.2byte	0x0
     e48:	1708                	.2byte	0x1708
     e4a:	6d05                	.2byte	0x6d05
     e4c:	0002                	.2byte	0x2
     e4e:	5300                	.2byte	0x5300
     e50:	0055                	.2byte	0x55
     e52:	0000                	.2byte	0x0
     e54:	1f01                	.2byte	0x1f01
     e56:	0f00                	.2byte	0xf00
     e58:	00000303          	lb	t1,0(zero) # 0 <exit-0x10094>
     e5c:	0304                	.2byte	0x304
     e5e:	00cc0747          	.4byte	0xcc0747
     e62:	0000                	.2byte	0x0
     e64:	6610                	.2byte	0x6610
     e66:	746c                	.2byte	0x746c
     e68:	0300                	.2byte	0x300
     e6a:	0a49                	.2byte	0xa49
     e6c:	006a                	.2byte	0x6a
     e6e:	0000                	.2byte	0x0
     e70:	e611                	.2byte	0xe611
     e72:	0002                	.2byte	0x2
     e74:	0300                	.2byte	0x300
     e76:	0555                	.2byte	0x555
     e78:	0076                	.2byte	0x76
     e7a:	0000                	.2byte	0x0
     e7c:	1200                	.2byte	0x1200
     e7e:	0502                	.2byte	0x502
     e80:	0000                	.2byte	0x0
     e82:	2301                	.2byte	0x2301
     e84:	2d01                	.2byte	0x2d01
     e86:	0000                	.2byte	0x0
     e88:	3400                	.2byte	0x3400
     e8a:	010c                	.2byte	0x10c
     e8c:	dc00                	.2byte	0xdc00
     e8e:	0000                	.2byte	0x0
     e90:	0100                	.2byte	0x100
     e92:	ed9c                	.2byte	0xed9c
     e94:	0001                	.2byte	0x1
     e96:	0600                	.2byte	0x600
     e98:	0061                	.2byte	0x61
     e9a:	6a11                	.2byte	0x6a11
     e9c:	0000                	.2byte	0x0
     e9e:	1300                	.2byte	0x1300
     ea0:	001c                	.2byte	0x1c
     ea2:	0600                	.2byte	0x600
     ea4:	0062                	.2byte	0x62
     ea6:	00006a1b          	.4byte	0x6a1b
     eaa:	2f00                	.2byte	0x2f00
     eac:	001c                	.2byte	0x1c
     eae:	0700                	.2byte	0x700
     eb0:	0210                	.2byte	0x210
     eb2:	0000                	.2byte	0x0
     eb4:	0039                	.2byte	0x39
     eb6:	0000                	.2byte	0x0
     eb8:	0003c807          	.4byte	0x3c807
     ebc:	3900                	.2byte	0x3900
     ebe:	0000                	.2byte	0x0
     ec0:	0800                	.2byte	0x800
     ec2:	5f41                	.2byte	0x5f41
     ec4:	ed260063          	beq	a2,s2,584 <exit-0xfb10>
     ec8:	0001                	.2byte	0x1
     eca:	0200                	.2byte	0x200
     ecc:	5f41                	.2byte	0x5f41
     ece:	03260073          	.4byte	0x3260073
     ed2:	01ed                	.2byte	0x1ed
     ed4:	0000                	.2byte	0x0
     ed6:	5f01                	.2byte	0x5f01
     ed8:	4102                	.2byte	0x4102
     eda:	655f 2600 ed03      	.byte	0x5f, 0x65, 0x00, 0x26, 0x03, 0xed
     ee0:	0001                	.2byte	0x1
     ee2:	0100                	.2byte	0x100
     ee4:	025d                	.2byte	0x25d
     ee6:	5f41                	.2byte	0x5f41
     ee8:	0066                	.2byte	0x66
     eea:	0326                	.2byte	0x326
     eec:	01f4                	.2byte	0x1f4
     eee:	0000                	.2byte	0x0
     ef0:	5c01                	.2byte	0x5c01
     ef2:	4208                	.2byte	0x4208
     ef4:	635f 2700 01ed      	.byte	0x5f, 0x63, 0x00, 0x27, 0xed, 0x01
     efa:	0000                	.2byte	0x0
     efc:	4202                	.2byte	0x4202
     efe:	735f 2700 ed03      	.byte	0x5f, 0x73, 0x00, 0x27, 0x03, 0xed
     f04:	0001                	.2byte	0x1
     f06:	0100                	.2byte	0x100
     f08:	5f42135b          	.4byte	0x5f42135b
     f0c:	0065                	.2byte	0x65
     f0e:	2701                	.2byte	0x2701
     f10:	0001ed03          	.4byte	0x1ed03
     f14:	4b00                	.2byte	0x4b00
     f16:	001c                	.2byte	0x1c
     f18:	0200                	.2byte	0x200
     f1a:	5f42                	.2byte	0x5f42
     f1c:	0066                	.2byte	0x66
     f1e:	01f40327          	.4byte	0x1f40327
     f22:	0000                	.2byte	0x0
     f24:	5e01                	.2byte	0x5e01
     f26:	7202                	.2byte	0x7202
     f28:	2800                	.2byte	0x2800
     f2a:	00002d0b          	.4byte	0x2d0b
     f2e:	0100                	.2byte	0x100
     f30:	145a                	.2byte	0x145a
     f32:	0c34                	.2byte	0xc34
     f34:	0001                	.2byte	0x1
     f36:	0018                	.2byte	0x18
     f38:	0000                	.2byte	0x0
     f3a:	0198                	.2byte	0x198
     f3c:	0000                	.2byte	0x0
     f3e:	00024f03          	lbu	t5,0(tp) # 0 <exit-0x10094>
     f42:	2b00                	.2byte	0x2b00
     f44:	00a6                	.2byte	0xa6
     f46:	0000                	.2byte	0x0
     f48:	1500                	.2byte	0x1500
     f4a:	039d                	.2byte	0x39d
     f4c:	0000                	.2byte	0x0
     f4e:	01ac                	.2byte	0x1ac
     f50:	0000                	.2byte	0x0
     f52:	00024f03          	lbu	t5,0(tp) # 0 <exit-0x10094>
     f56:	2c00                	.2byte	0x2c00
     f58:	00a6                	.2byte	0xa6
     f5a:	0000                	.2byte	0x0
     f5c:	0900                	.2byte	0x900
     f5e:	01bc                	.2byte	0x1bc
     f60:	0000                	.2byte	0x0
     f62:	0004f103          	.4byte	0x4f103
     f66:	2d00                	.2byte	0x2d00
     f68:	0039                	.2byte	0x39
     f6a:	0000                	.2byte	0x0
     f6c:	0900                	.2byte	0x900
     f6e:	01cc                	.2byte	0x1cc
     f70:	0000                	.2byte	0x0
     f72:	0004f103          	.4byte	0x4f103
     f76:	2d00                	.2byte	0x2d00
     f78:	0039                	.2byte	0x39
     f7a:	0000                	.2byte	0x0
     f7c:	1600                	.2byte	0x1600
     f7e:	03b0                	.2byte	0x3b0
     f80:	0000                	.2byte	0x0
     f82:	0a0a                	.2byte	0xa0a
     f84:	0005                	.2byte	0x5
     f86:	3900                	.2byte	0x3900
     f88:	0000                	.2byte	0x0
     f8a:	a400                	.2byte	0xa400
     f8c:	001c                	.2byte	0x1c
     f8e:	0a00                	.2byte	0xa00
     f90:	052a                	.2byte	0x52a
     f92:	0000                	.2byte	0x0
     f94:	0039                	.2byte	0x39
     f96:	0000                	.2byte	0x0
     f98:	00001cc3          	.4byte	0x1cc3
     f9c:	0000                	.2byte	0x0
     f9e:	0401                	.2byte	0x401
     fa0:	4305                	.2byte	0x4305
     fa2:	0000                	.2byte	0x0
     fa4:	0100                	.2byte	0x100
     fa6:	0704                	.2byte	0x704
     fa8:	0051                	.2byte	0x51
     faa:	0000                	.2byte	0x0
     fac:	5000                	.2byte	0x5000
     fae:	05000003          	lb	zero,80(zero) # 50 <exit-0x10044>
     fb2:	0100                	.2byte	0x100
     fb4:	be04                	.2byte	0xbe04
     fb6:	0005                	.2byte	0x5
     fb8:	0b00                	.2byte	0xb00
     fba:	0000030f          	.4byte	0x30f
     fbe:	de1d                	.2byte	0xde1d
     fc0:	0001                	.2byte	0x1
     fc2:	3800                	.2byte	0x3800
     fc4:	0000                	.2byte	0x0
     fc6:	1000                	.2byte	0x1000
     fc8:	010d                	.2byte	0x10d
     fca:	3400                	.2byte	0x3400
     fcc:	3d000003          	lb	zero,976(zero) # 3d0 <exit-0xfcc4>
     fd0:	001c                	.2byte	0x1c
     fd2:	0300                	.2byte	0x300
     fd4:	0404                	.2byte	0x404
     fd6:	001a                	.2byte	0x1a
     fd8:	0000                	.2byte	0x0
     fda:	040c                	.2byte	0x40c
     fdc:	6905                	.2byte	0x6905
     fde:	746e                	.2byte	0x746e
     fe0:	0300                	.2byte	0x300
     fe2:	0601                	.2byte	0x601
     fe4:	0074                	.2byte	0x74
     fe6:	0000                	.2byte	0x0
     fe8:	3e050803          	lb	a6,992(a0)
     fec:	0000                	.2byte	0x0
     fee:	0300                	.2byte	0x300
     ff0:	0801                	.2byte	0x801
     ff2:	0072                	.2byte	0x72
     ff4:	0000                	.2byte	0x0
     ff6:	56070403          	lb	s0,1376(a4)
     ffa:	0000                	.2byte	0x0
     ffc:	0300                	.2byte	0x300
     ffe:	0708                	.2byte	0x708
    1000:	004c                	.2byte	0x4c
    1002:	0000                	.2byte	0x0
    1004:	6e0d                	.2byte	0x6e0d
    1006:	0005                	.2byte	0x5
    1008:	0200                	.2byte	0x200
    100a:	014e                	.2byte	0x14e
    100c:	6416                	.2byte	0x6416
    100e:	0000                	.2byte	0x0
    1010:	0300                	.2byte	0x300
    1012:	0702                	.2byte	0x702
    1014:	00a5                	.2byte	0xa5
    1016:	0000                	.2byte	0x0
    1018:	3f0e                	.2byte	0x3f0e
    101a:	0002                	.2byte	0x2
    101c:	0300                	.2byte	0x300
    101e:	0f45                	.2byte	0xf45
    1020:	0026                	.2byte	0x26
    1022:	0000                	.2byte	0x0
    1024:	4a03040f          	.4byte	0x4a03040f
    1028:	0000a703          	lw	a4,0(ra) # 10404 <__do_global_dtors_aux+0x24>
    102c:	0600                	.2byte	0x600
    102e:	0000029b          	.4byte	0x29b
    1032:	4951                	.2byte	0x4951
    1034:	0000                	.2byte	0x0
    1036:	1700                	.2byte	0x1700
    1038:	1000                	.2byte	0x1000
    103a:	7865                	.2byte	0x7865
    103c:	0070                	.2byte	0x70
    103e:	490e5203          	lhu	tp,1168(t3)
    1042:	0000                	.2byte	0x0
    1044:	0800                	.2byte	0x800
    1046:	026d0617          	auipc	a2,0x26d0
    104a:	0000                	.2byte	0x0
    104c:	00004953          	.4byte	0x4953
    1050:	0100                	.2byte	0x100
    1052:	001f 0311 0003      	.byte	0x1f, 0x00, 0x11, 0x03, 0x03, 0x00
    1058:	0400                	.2byte	0x400
    105a:	cd074703          	lbu	a4,-816(a4)
    105e:	0000                	.2byte	0x0
    1060:	1200                	.2byte	0x1200
    1062:	6c66                	.2byte	0x6c66
    1064:	0074                	.2byte	0x74
    1066:	6b0a4903          	lbu	s2,1712(s4)
    106a:	0000                	.2byte	0x0
    106c:	1300                	.2byte	0x1300
    106e:	02e6                	.2byte	0x2e6
    1070:	0000                	.2byte	0x0
    1072:	77055503          	lhu	a0,1904(a0)
    1076:	0000                	.2byte	0x0
    1078:	0000                	.2byte	0x0
    107a:	7614                	.2byte	0x7614
    107c:	0005                	.2byte	0x5
    107e:	0100                	.2byte	0x100
    1080:	006b0123          	sb	t1,2(s6)
    1084:	0000                	.2byte	0x0
    1086:	0d10                	.2byte	0xd10
    1088:	0001                	.2byte	0x1
    108a:	0334                	.2byte	0x334
    108c:	0000                	.2byte	0x0
    108e:	9c01                	.2byte	0x9c01
    1090:	033c                	.2byte	0x33c
    1092:	0000                	.2byte	0x0
    1094:	12006107          	.4byte	0x12006107
    1098:	0000006b          	.4byte	0x6b
    109c:	1cf4                	.2byte	0x1cf4
    109e:	0000                	.2byte	0x0
    10a0:	1c006207          	.4byte	0x1c006207
    10a4:	0000006b          	.4byte	0x6b
    10a8:	1d46                	.2byte	0x1d46
    10aa:	0000                	.2byte	0x0
    10ac:	1001                	.2byte	0x1001
    10ae:	0002                	.2byte	0x2
    10b0:	2500                	.2byte	0x2500
    10b2:	002d                	.2byte	0x2d
    10b4:	0000                	.2byte	0x0
    10b6:	1d9e                	.2byte	0x1d9e
    10b8:	0000                	.2byte	0x0
    10ba:	c815                	.2byte	0xc815
    10bc:	01000003          	lb	zero,16(zero) # 10 <exit-0x10084>
    10c0:	0325                	.2byte	0x325
    10c2:	002d                	.2byte	0x2d
    10c4:	0000                	.2byte	0x0
    10c6:	0200                	.2byte	0x200
    10c8:	5f41                	.2byte	0x5f41
    10ca:	03260063          	beq	a2,s2,10ea <exit-0xefaa>
    10ce:	033c                	.2byte	0x33c
    10d0:	0000                	.2byte	0x0
    10d2:	00001db7          	lui	s11,0x1
    10d6:	4102                	.2byte	0x4102
    10d8:	735f 2600 3c03      	.byte	0x5f, 0x73, 0x00, 0x26, 0x03, 0x3c
    10de:	da000003          	lb	zero,-608(zero) # fffffda0 <__global_pointer$+0xfffec358>
    10e2:	001d                	.2byte	0x1d
    10e4:	0200                	.2byte	0x200
    10e6:	5f41                	.2byte	0x5f41
    10e8:	0065                	.2byte	0x65
    10ea:	0326                	.2byte	0x326
    10ec:	033c                	.2byte	0x33c
    10ee:	0000                	.2byte	0x0
    10f0:	00001dfb          	.4byte	0x1dfb
    10f4:	4102                	.2byte	0x4102
    10f6:	665f 2600 4303      	.byte	0x5f, 0x66, 0x00, 0x26, 0x03, 0x43
    10fc:	76000003          	lb	zero,1888(zero) # 760 <exit-0xf934>
    1100:	001e                	.2byte	0x1e
    1102:	0200                	.2byte	0x200
    1104:	5f42                	.2byte	0x5f42
    1106:	03270063          	beq	a4,s2,1126 <exit-0xef6e>
    110a:	033c                	.2byte	0x33c
    110c:	0000                	.2byte	0x0
    110e:	1ec9                	.2byte	0x1ec9
    1110:	0000                	.2byte	0x0
    1112:	4202                	.2byte	0x4202
    1114:	735f 2700 3c03      	.byte	0x5f, 0x73, 0x00, 0x27, 0x03, 0x3c
    111a:	f7000003          	lb	zero,-144(zero) # ffffff70 <__global_pointer$+0xfffec528>
    111e:	001e                	.2byte	0x1e
    1120:	0200                	.2byte	0x200
    1122:	5f42                	.2byte	0x5f42
    1124:	0065                	.2byte	0x65
    1126:	033c0327          	.4byte	0x33c0327
    112a:	0000                	.2byte	0x0
    112c:	1f18                	.2byte	0x1f18
    112e:	0000                	.2byte	0x0
    1130:	4202                	.2byte	0x4202
    1132:	665f 2700 4303      	.byte	0x5f, 0x66, 0x00, 0x27, 0x03, 0x43
    1138:	64000003          	lb	zero,1600(zero) # 640 <exit-0xfa54>
    113c:	001f 0200 5f52      	.byte	0x1f, 0x00, 0x00, 0x02, 0x52, 0x5f
    1142:	03280063          	beq	a6,s2,1162 <exit-0xef32>
    1146:	033c                	.2byte	0x33c
    1148:	0000                	.2byte	0x0
    114a:	1fa2                	.2byte	0x1fa2
    114c:	0000                	.2byte	0x0
    114e:	5202                	.2byte	0x5202
    1150:	735f 2800 3c03      	.byte	0x5f, 0x73, 0x00, 0x28, 0x03, 0x3c
    1156:	c6000003          	lb	zero,-928(zero) # fffffc60 <__global_pointer$+0xfffec218>
    115a:	001f 0200 5f52      	.byte	0x1f, 0x00, 0x00, 0x02, 0x52, 0x5f
    1160:	0065                	.2byte	0x65
    1162:	0328                	.2byte	0x328
    1164:	033c                	.2byte	0x33c
    1166:	0000                	.2byte	0x0
    1168:	2029                	.2byte	0x2029
    116a:	0000                	.2byte	0x0
    116c:	5202                	.2byte	0x5202
    116e:	665f 2800 4303      	.byte	0x5f, 0x66, 0x00, 0x28, 0x03, 0x43
    1174:	79000003          	lb	zero,1936(zero) # 790 <exit-0xf904>
    1178:	0020                	.2byte	0x20
    117a:	0200                	.2byte	0x200
    117c:	0072                	.2byte	0x72
    117e:	0a29                	.2byte	0xa29
    1180:	0000006b          	.4byte	0x6b
    1184:	000020cb          	.4byte	0x20cb
    1188:	ea05                	.2byte	0xea05
    118a:	ef000003          	lb	zero,-272(zero) # fffffef0 <__global_pointer$+0xfffec4a8>
    118e:	0001                	.2byte	0x1
    1190:	0400                	.2byte	0x400
    1192:	0000024f          	.4byte	0x24f
    1196:	a72c                	.2byte	0xa72c
    1198:	0000                	.2byte	0x0
    119a:	0000                	.2byte	0x0
    119c:	2105                	.2byte	0x2105
    119e:	0004                	.2byte	0x4
    11a0:	1000                	.2byte	0x1000
    11a2:	0002                	.2byte	0x2
    11a4:	0100                	.2byte	0x100
    11a6:	04d6                	.2byte	0x4d6
    11a8:	0000                	.2byte	0x0
    11aa:	3c2c                	.2byte	0x3c2c
    11ac:	e9000003          	lb	zero,-368(zero) # fffffe90 <__global_pointer$+0xfffec448>
    11b0:	0020                	.2byte	0x20
    11b2:	0800                	.2byte	0x800
    11b4:	0ee0                	.2byte	0xee0
    11b6:	0001                	.2byte	0x1
    11b8:	034a                	.2byte	0x34a
    11ba:	0000                	.2byte	0x0
    11bc:	0500                	.2byte	0x500
    11be:	0434                	.2byte	0x434
    11c0:	0000                	.2byte	0x0
    11c2:	0224                	.2byte	0x224
    11c4:	0000                	.2byte	0x0
    11c6:	4f04                	.2byte	0x4f04
    11c8:	0002                	.2byte	0x2
    11ca:	2d00                	.2byte	0x2d00
    11cc:	000000a7          	.4byte	0xa7
    11d0:	0500                	.2byte	0x500
    11d2:	0459                	.2byte	0x459
    11d4:	0000                	.2byte	0x0
    11d6:	0245                	.2byte	0x245
    11d8:	0000                	.2byte	0x0
    11da:	d601                	.2byte	0xd601
    11dc:	0004                	.2byte	0x4
    11de:	2d00                	.2byte	0x2d00
    11e0:	033c                	.2byte	0x33c
    11e2:	0000                	.2byte	0x0
    11e4:	000020f7          	.4byte	0x20f7
    11e8:	2008                	.2byte	0x2008
    11ea:	4a00010f          	.4byte	0x4a00010f
    11ee:	00000003          	lb	zero,0(zero) # 0 <exit-0x10094>
    11f2:	cc09                	.2byte	0xcc09
    11f4:	010d                	.2byte	0x10d
    11f6:	6c00                	.2byte	0x6c00
    11f8:	0000                	.2byte	0x0
    11fa:	e500                	.2byte	0xe500
    11fc:	0002                	.2byte	0x2
    11fe:	0100                	.2byte	0x100
    1200:	053c                	.2byte	0x53c
    1202:	0000                	.2byte	0x0
    1204:	432e                	.2byte	0x432e
    1206:	05000003          	lb	zero,80(zero) # 50 <exit-0x10044>
    120a:	0021                	.2byte	0x21
    120c:	0100                	.2byte	0x100
    120e:	0555                	.2byte	0x555
    1210:	0000                	.2byte	0x0
    1212:	432e                	.2byte	0x432e
    1214:	27000003          	lb	zero,624(zero) # 270 <exit-0xfe24>
    1218:	0021                	.2byte	0x21
    121a:	0a00                	.2byte	0xa00
    121c:	046c                	.2byte	0x46c
    121e:	0000                	.2byte	0x0
    1220:	8001                	.2byte	0x8001
    1222:	0000                	.2byte	0x0
    1224:	2e00                	.2byte	0x2e00
    1226:	00000343          	.4byte	0x343
    122a:	2145                	.2byte	0x2145
    122c:	0000                	.2byte	0x0
    122e:	8501                	.2byte	0x8501
    1230:	0000                	.2byte	0x0
    1232:	2e00                	.2byte	0x2e00
    1234:	00000343          	.4byte	0x343
    1238:	2151                	.2byte	0x2151
    123a:	0000                	.2byte	0x0
    123c:	8a01                	.2byte	0x8a01
    123e:	0000                	.2byte	0x0
    1240:	2e00                	.2byte	0x2e00
    1242:	00000343          	.4byte	0x343
    1246:	2178                	.2byte	0x2178
    1248:	0000                	.2byte	0x0
    124a:	8f01                	.2byte	0x8f01
    124c:	0000                	.2byte	0x0
    124e:	2e00                	.2byte	0x2e00
    1250:	00000343          	.4byte	0x343
    1254:	2184                	.2byte	0x2184
    1256:	0000                	.2byte	0x0
    1258:	1601                	.2byte	0x1601
    125a:	0001                	.2byte	0x1
    125c:	2e00                	.2byte	0x2e00
    125e:	00000057          	.4byte	0x57
    1262:	0000219b          	.4byte	0x219b
    1266:	3901                	.2byte	0x3901
    1268:	0000                	.2byte	0x0
    126a:	2e00                	.2byte	0x2e00
    126c:	00000057          	.4byte	0x57
    1270:	000021a7          	.4byte	0x21a7
    1274:	1101                	.2byte	0x1101
    1276:	0001                	.2byte	0x1
    1278:	2e00                	.2byte	0x2e00
    127a:	00000057          	.4byte	0x57
    127e:	000021b3          	sltz	gp,zero
    1282:	3401                	.2byte	0x3401
    1284:	0000                	.2byte	0x0
    1286:	2e00                	.2byte	0x2e00
    1288:	00000057          	.4byte	0x57
    128c:	000021bf c4090000 	.8byte	0xc4090000000021bf
    1294:	6400010f          	.4byte	0x6400010f
    1298:	0000                	.2byte	0x0
    129a:	2b00                	.2byte	0x2b00
    129c:	01000003          	lb	zero,16(zero) # 10 <exit-0x10084>
    12a0:	03cd                	.2byte	0x3cd
    12a2:	0000                	.2byte	0x0
    12a4:	00002d2f          	.4byte	0x2d2f
    12a8:	cb00                	.2byte	0xcb00
    12aa:	0021                	.2byte	0x21
    12ac:	1600                	.2byte	0x1600
    12ae:	5604                	.2byte	0x5604
    12b0:	0004                	.2byte	0x4
    12b2:	2f00                	.2byte	0x2f00
    12b4:	033c                	.2byte	0x33c
    12b6:	0000                	.2byte	0x0
    12b8:	6d04                	.2byte	0x6d04
    12ba:	0004                	.2byte	0x4
    12bc:	2f00                	.2byte	0x2f00
    12be:	033c                	.2byte	0x33c
    12c0:	0000                	.2byte	0x0
    12c2:	0804                	.2byte	0x804
    12c4:	0004                	.2byte	0x4
    12c6:	2f00                	.2byte	0x2f00
    12c8:	033c                	.2byte	0x33c
    12ca:	0000                	.2byte	0x0
    12cc:	e804                	.2byte	0xe804
    12ce:	2f000003          	lb	zero,752(zero) # 2f0 <exit-0xfda4>
    12d2:	00000343          	.4byte	0x343
    12d6:	0000                	.2byte	0x0
    12d8:	880a                	.2byte	0x880a
    12da:	0004                	.2byte	0x4
    12dc:	0400                	.2byte	0x400
    12de:	01e8                	.2byte	0x1e8
    12e0:	0000                	.2byte	0x0
    12e2:	0000a72f          	.4byte	0xa72f
    12e6:	0000                	.2byte	0x0
    12e8:	0300                	.2byte	0x300
    12ea:	0504                	.2byte	0x504
    12ec:	00000043          	.4byte	0x43
    12f0:	51070403          	lb	s0,1296(a4)
    12f4:	0000                	.2byte	0x0
    12f6:	1700                	.2byte	0x1700
    12f8:	000003bf 000003bf 	.8byte	0x3bf000003bf
    1300:	e800                	.2byte	0xe800
    1302:	0002                	.2byte	0x2
    1304:	0500                	.2byte	0x500
    1306:	0100                	.2byte	0x100
    1308:	1904                	.2byte	0x1904
    130a:	0b000007          	.4byte	0xb000007
    130e:	0000030f          	.4byte	0x30f
    1312:	271d                	.2byte	0x271d
    1314:	0002                	.2byte	0x2
    1316:	3800                	.2byte	0x3800
    1318:	0000                	.2byte	0x0
    131a:	4400                	.2byte	0x4400
    131c:	0110                	.2byte	0x110
    131e:	bc00                	.2byte	0xbc00
    1320:	0004                	.2byte	0x4
    1322:	b800                	.2byte	0xb800
    1324:	02000023          	sb	zero,32(zero) # 20 <exit-0x10074>
    1328:	0404                	.2byte	0x404
    132a:	001a                	.2byte	0x1a
    132c:	0000                	.2byte	0x0
    132e:	040c                	.2byte	0x40c
    1330:	6905                	.2byte	0x6905
    1332:	746e                	.2byte	0x746e
    1334:	0200                	.2byte	0x200
    1336:	0601                	.2byte	0x601
    1338:	0074                	.2byte	0x74
    133a:	0000                	.2byte	0x0
    133c:	0802                	.2byte	0x802
    133e:	3e05                	.2byte	0x3e05
    1340:	0000                	.2byte	0x0
    1342:	0200                	.2byte	0x200
    1344:	0801                	.2byte	0x801
    1346:	0072                	.2byte	0x72
    1348:	0000                	.2byte	0x0
    134a:	0402                	.2byte	0x402
    134c:	00005607          	.4byte	0x5607
    1350:	0200                	.2byte	0x200
    1352:	0708                	.2byte	0x708
    1354:	004c                	.2byte	0x4c
    1356:	0000                	.2byte	0x0
    1358:	0202                	.2byte	0x202
    135a:	0000a507          	.4byte	0xa507
    135e:	0d00                	.2byte	0xd00
    1360:	0000023f 260f4502 	.8byte	0x260f45020000023f
    1368:	0000                	.2byte	0x0
    136a:	0e00                	.2byte	0xe00
    136c:	0204                	.2byte	0x204
    136e:	034a                	.2byte	0x34a
    1370:	009a                	.2byte	0x9a
    1372:	0000                	.2byte	0x0
    1374:	9b08                	.2byte	0x9b08
    1376:	0002                	.2byte	0x2
    1378:	5100                	.2byte	0x5100
    137a:	0049                	.2byte	0x49
    137c:	0000                	.2byte	0x0
    137e:	650f0017          	auipc	zero,0x650f0
    1382:	7078                	.2byte	0x7078
    1384:	0200                	.2byte	0x200
    1386:	0e52                	.2byte	0xe52
    1388:	0049                	.2byte	0x49
    138a:	0000                	.2byte	0x0
    138c:	1708                	.2byte	0x1708
    138e:	6d08                	.2byte	0x6d08
    1390:	0002                	.2byte	0x2
    1392:	5300                	.2byte	0x5300
    1394:	0049                	.2byte	0x49
    1396:	0000                	.2byte	0x0
    1398:	1f01                	.2byte	0x1f01
    139a:	1000                	.2byte	0x1000
    139c:	00000303          	lb	t1,0(zero) # 0 <exit-0x10094>
    13a0:	0204                	.2byte	0x204
    13a2:	00c00747          	.4byte	0xc00747
    13a6:	0000                	.2byte	0x0
    13a8:	6611                	.2byte	0x6611
    13aa:	746c                	.2byte	0x746c
    13ac:	0200                	.2byte	0x200
    13ae:	0a49                	.2byte	0xa49
    13b0:	005e                	.2byte	0x5e
    13b2:	0000                	.2byte	0x0
    13b4:	e612                	.2byte	0xe612
    13b6:	0002                	.2byte	0x2
    13b8:	0200                	.2byte	0x200
    13ba:	0555                	.2byte	0x555
    13bc:	006a                	.2byte	0x6a
    13be:	0000                	.2byte	0x0
    13c0:	1300                	.2byte	0x1300
    13c2:	057f                	.2byte	0x57f
    13c4:	0000                	.2byte	0x0
    13c6:	2301                	.2byte	0x2301
    13c8:	5e01                	.2byte	0x5e01
    13ca:	0000                	.2byte	0x0
    13cc:	4400                	.2byte	0x4400
    13ce:	0110                	.2byte	0x110
    13d0:	bc00                	.2byte	0xbc00
    13d2:	0004                	.2byte	0x4
    13d4:	0100                	.2byte	0x100
    13d6:	d49c                	.2byte	0xd49c
    13d8:	0002                	.2byte	0x2
    13da:	0900                	.2byte	0x900
    13dc:	0061                	.2byte	0x61
    13de:	5e12                	.2byte	0x5e12
    13e0:	0000                	.2byte	0x0
    13e2:	e400                	.2byte	0xe400
    13e4:	0021                	.2byte	0x21
    13e6:	0900                	.2byte	0x900
    13e8:	0062                	.2byte	0x62
    13ea:	5e1c                	.2byte	0x5e1c
    13ec:	0000                	.2byte	0x0
    13ee:	0000                	.2byte	0x0
    13f0:	0022                	.2byte	0x22
    13f2:	0600                	.2byte	0x600
    13f4:	0210                	.2byte	0x210
    13f6:	0000                	.2byte	0x0
    13f8:	2d25                	.2byte	0x2d25
    13fa:	0000                	.2byte	0x0
    13fc:	1c00                	.2byte	0x1c00
    13fe:	0022                	.2byte	0x22
    1400:	1400                	.2byte	0x1400
    1402:	03c8                	.2byte	0x3c8
    1404:	0000                	.2byte	0x0
    1406:	2501                	.2byte	0x2501
    1408:	00002d03          	lw	s10,0(zero) # 0 <exit-0x10094>
    140c:	0000                	.2byte	0x0
    140e:	635f4107          	.4byte	0x635f4107
    1412:	2600                	.2byte	0x2600
    1414:	02d4                	.2byte	0x2d4
    1416:	0000                	.2byte	0x0
    1418:	4101                	.2byte	0x4101
    141a:	735f 2600 d403      	.byte	0x5f, 0x73, 0x00, 0x26, 0x03, 0xd4
    1420:	0002                	.2byte	0x2
    1422:	7100                	.2byte	0x7100
    1424:	0022                	.2byte	0x22
    1426:	0100                	.2byte	0x100
    1428:	5f41                	.2byte	0x5f41
    142a:	0065                	.2byte	0x65
    142c:	0326                	.2byte	0x326
    142e:	02d4                	.2byte	0x2d4
    1430:	0000                	.2byte	0x0
    1432:	2338                	.2byte	0x2338
    1434:	0000                	.2byte	0x0
    1436:	4101                	.2byte	0x4101
    1438:	665f 2600 db03      	.byte	0x5f, 0x66, 0x00, 0x26, 0x03, 0xdb
    143e:	0002                	.2byte	0x2
    1440:	7000                	.2byte	0x7000
    1442:	0024                	.2byte	0x24
    1444:	0700                	.2byte	0x700
    1446:	5f42                	.2byte	0x5f42
    1448:	d4270063          	beq	a4,sp,988 <exit-0xf70c>
    144c:	0002                	.2byte	0x2
    144e:	0100                	.2byte	0x100
    1450:	5f42                	.2byte	0x5f42
    1452:	03270073          	.4byte	0x3270073
    1456:	02d4                	.2byte	0x2d4
    1458:	0000                	.2byte	0x0
    145a:	2532                	.2byte	0x2532
    145c:	0000                	.2byte	0x0
    145e:	4201                	.2byte	0x4201
    1460:	655f 2700 d403      	.byte	0x5f, 0x65, 0x00, 0x27, 0x03, 0xd4
    1466:	0002                	.2byte	0x2
    1468:	6900                	.2byte	0x6900
    146a:	0026                	.2byte	0x26
    146c:	0100                	.2byte	0x100
    146e:	5f42                	.2byte	0x5f42
    1470:	0066                	.2byte	0x66
    1472:	02db0327          	.4byte	0x2db0327
    1476:	0000                	.2byte	0x0
    1478:	26cd                	.2byte	0x26cd
    147a:	0000                	.2byte	0x0
    147c:	635f5207          	.4byte	0x635f5207
    1480:	2800                	.2byte	0x2800
    1482:	02d4                	.2byte	0x2d4
    1484:	0000                	.2byte	0x0
    1486:	5201                	.2byte	0x5201
    1488:	735f 2800 d403      	.byte	0x5f, 0x73, 0x00, 0x28, 0x03, 0xd4
    148e:	0002                	.2byte	0x2
    1490:	f400                	.2byte	0xf400
    1492:	01000027          	.4byte	0x1000027
    1496:	5f52                	.2byte	0x5f52
    1498:	0065                	.2byte	0x65
    149a:	0328                	.2byte	0x328
    149c:	02d4                	.2byte	0x2d4
    149e:	0000                	.2byte	0x0
    14a0:	28c6                	.2byte	0x28c6
    14a2:	0000                	.2byte	0x0
    14a4:	5201                	.2byte	0x5201
    14a6:	665f 2800 db03      	.byte	0x5f, 0x66, 0x00, 0x28, 0x03, 0xdb
    14ac:	0002                	.2byte	0x2
    14ae:	0e00                	.2byte	0xe00
    14b0:	002a                	.2byte	0x2a
    14b2:	0100                	.2byte	0x100
    14b4:	0072                	.2byte	0x72
    14b6:	0a29                	.2byte	0xa29
    14b8:	005e                	.2byte	0x5e
    14ba:	0000                	.2byte	0x0
    14bc:	2b69                	.2byte	0x2b69
    14be:	0000                	.2byte	0x0
    14c0:	a705                	.2byte	0xa705
    14c2:	0004                	.2byte	0x4
    14c4:	d300                	.2byte	0xd300
    14c6:	0001                	.2byte	0x1
    14c8:	0400                	.2byte	0x400
    14ca:	0000024f          	.4byte	0x24f
    14ce:	9a2c                	.2byte	0x9a2c
    14d0:	0000                	.2byte	0x0
    14d2:	0000                	.2byte	0x0
    14d4:	d505                	.2byte	0xd505
    14d6:	0004                	.2byte	0x4
    14d8:	e700                	.2byte	0xe700
    14da:	0001                	.2byte	0x1
    14dc:	0400                	.2byte	0x400
    14de:	0000024f          	.4byte	0x24f
    14e2:	9a2d                	.2byte	0x9a2d
    14e4:	0000                	.2byte	0x0
    14e6:	0000                	.2byte	0x0
    14e8:	3005                	.2byte	0x3005
    14ea:	0005                	.2byte	0x5
    14ec:	2300                	.2byte	0x2300
    14ee:	0002                	.2byte	0x2
    14f0:	0300                	.2byte	0x300
    14f2:	02f4                	.2byte	0x2f4
    14f4:	0000                	.2byte	0x0
    14f6:	1184                	.2byte	0x1184
    14f8:	0001                	.2byte	0x1
    14fa:	0002f903          	.4byte	0x2f903
    14fe:	3000                	.2byte	0x3000
    1500:	0112                	.2byte	0x112
    1502:	0300                	.2byte	0x300
    1504:	02fe                	.2byte	0x2fe
    1506:	0000                	.2byte	0x0
    1508:	11c8                	.2byte	0x11c8
    150a:	0001                	.2byte	0x1
    150c:	00024603          	lbu	a2,0(tp) # 0 <exit-0x10094>
    1510:	9000                	.2byte	0x9000
    1512:	0111                	.2byte	0x111
    1514:	0600                	.2byte	0x600
    1516:	000002cf          	.4byte	0x2cf
    151a:	2d2e                	.2byte	0x2d2e
    151c:	0000                	.2byte	0x0
    151e:	8700                	.2byte	0x8700
    1520:	0000002b          	.4byte	0x2b
    1524:	f905                	.2byte	0xf905
    1526:	0005                	.2byte	0x5
    1528:	8500                	.2byte	0x8500
    152a:	0002                	.2byte	0x2
    152c:	0300                	.2byte	0x300
    152e:	0272                	.2byte	0x272
    1530:	0000                	.2byte	0x0
    1532:	12e8                	.2byte	0x12e8
    1534:	0001                	.2byte	0x1
    1536:	00027703          	.4byte	0x27703
    153a:	a800                	.2byte	0xa800
    153c:	03000113          	li	sp,48
    1540:	027c                	.2byte	0x27c
    1542:	0000                	.2byte	0x0
    1544:	1310                	.2byte	0x1310
    1546:	0001                	.2byte	0x1
    1548:	00029603          	lh	a2,0(t0)
    154c:	6800                	.2byte	0x6800
    154e:	0114                	.2byte	0x114
    1550:	0300                	.2byte	0x300
    1552:	000002eb          	.4byte	0x2eb
    1556:	1190                	.2byte	0x1190
    1558:	0001                	.2byte	0x1
    155a:	cf06                	.2byte	0xcf06
    155c:	0002                	.2byte	0x2
    155e:	2e00                	.2byte	0x2e00
    1560:	002d                	.2byte	0x2d
    1562:	0000                	.2byte	0x0
    1564:	2c00                	.2byte	0x2c00
    1566:	0000                	.2byte	0x0
    1568:	4b0a                	.2byte	0x4b0a
    156a:	0006                	.2byte	0x6
    156c:	0600                	.2byte	0x600
    156e:	02b9                	.2byte	0x2b9
    1570:	0000                	.2byte	0x0
    1572:	2d2e                	.2byte	0x2d2e
    1574:	0000                	.2byte	0x0
    1576:	b400                	.2byte	0xb400
    1578:	002c                	.2byte	0x2c
    157a:	1500                	.2byte	0x1500
    157c:	1470                	.2byte	0x1470
    157e:	0001                	.2byte	0x1
    1580:	02e2                	.2byte	0x2e2
    1582:	0000                	.2byte	0x0
    1584:	0000                	.2byte	0x0
    1586:	9d05                	.2byte	0x9d05
    1588:	0005                	.2byte	0x5
    158a:	c300                	.2byte	0xc300
    158c:	0002                	.2byte	0x2
    158e:	0400                	.2byte	0x400
    1590:	02a0                	.2byte	0x2a0
    1592:	0000                	.2byte	0x0
    1594:	00002d2f          	.4byte	0x2d2f
    1598:	1600                	.2byte	0x1600
    159a:	1504                	.2byte	0x1504
    159c:	0002                	.2byte	0x2
    159e:	2f00                	.2byte	0x2f00
    15a0:	02d4                	.2byte	0x2d4
    15a2:	0000                	.2byte	0x0
    15a4:	fb04                	.2byte	0xfb04
    15a6:	0001                	.2byte	0x1
    15a8:	2f00                	.2byte	0x2f00
    15aa:	02d4                	.2byte	0x2d4
    15ac:	0000                	.2byte	0x0
    15ae:	8104                	.2byte	0x8104
    15b0:	0002                	.2byte	0x2
    15b2:	2f00                	.2byte	0x2f00
    15b4:	02d4                	.2byte	0x2d4
    15b6:	0000                	.2byte	0x0
    15b8:	2a04                	.2byte	0x2a04
    15ba:	0002                	.2byte	0x2
    15bc:	2f00                	.2byte	0x2f00
    15be:	000002db          	.4byte	0x2db
    15c2:	0000                	.2byte	0x0
    15c4:	dd0a                	.2byte	0xdd0a
    15c6:	0005                	.2byte	0x5
    15c8:	0400                	.2byte	0x400
    15ca:	01e8                	.2byte	0x1e8
    15cc:	0000                	.2byte	0x0
    15ce:	00009a2f          	.4byte	0x9a2f
    15d2:	0000                	.2byte	0x0
    15d4:	0200                	.2byte	0x200
    15d6:	0504                	.2byte	0x504
    15d8:	00000043          	.4byte	0x43
    15dc:	0402                	.2byte	0x402
    15de:	00005107          	.4byte	0x5107
    15e2:	1700                	.2byte	0x1700
    15e4:	000003bf 000003bf 	.8byte	0x3bf000003bf
    15ec:	ad00                	.2byte	0xad00
    15ee:	0001                	.2byte	0x1
    15f0:	0500                	.2byte	0x500
    15f2:	0100                	.2byte	0x100
    15f4:	7d04                	.2byte	0x7d04
    15f6:	0008                	.2byte	0x8
    15f8:	0700                	.2byte	0x700
    15fa:	0000030f          	.4byte	0x30f
    15fe:	661d                	.2byte	0x661d
    1600:	0002                	.2byte	0x2
    1602:	3800                	.2byte	0x3800
    1604:	0000                	.2byte	0x0
    1606:	0000                	.2byte	0x0
    1608:	0115                	.2byte	0x115
    160a:	7000                	.2byte	0x7000
    160c:	0000                	.2byte	0x0
    160e:	0d00                	.2byte	0xd00
    1610:	0100002f          	.4byte	0x100002f
    1614:	0404                	.2byte	0x404
    1616:	001a                	.2byte	0x1a
    1618:	0000                	.2byte	0x0
    161a:	0408                	.2byte	0x408
    161c:	6905                	.2byte	0x6905
    161e:	746e                	.2byte	0x746e
    1620:	0100                	.2byte	0x100
    1622:	0601                	.2byte	0x601
    1624:	0074                	.2byte	0x74
    1626:	0000                	.2byte	0x0
    1628:	00010003          	lb	zero,0(sp)
    162c:	4800                	.2byte	0x4800
    162e:	0d01                	.2byte	0xd01
    1630:	002d                	.2byte	0x2d
    1632:	0000                	.2byte	0x0
    1634:	0801                	.2byte	0x801
    1636:	3e05                	.2byte	0x3e05
    1638:	0000                	.2byte	0x0
    163a:	0100                	.2byte	0x100
    163c:	0801                	.2byte	0x801
    163e:	0072                	.2byte	0x72
    1640:	0000                	.2byte	0x0
    1642:	0000ff03          	.4byte	0xff03
    1646:	4b00                	.2byte	0x4b00
    1648:	1601                	.2byte	0x1601
    164a:	0061                	.2byte	0x61
    164c:	0000                	.2byte	0x0
    164e:	0401                	.2byte	0x401
    1650:	00005607          	.4byte	0x5607
    1654:	0100                	.2byte	0x100
    1656:	0708                	.2byte	0x708
    1658:	004c                	.2byte	0x4c
    165a:	0000                	.2byte	0x0
    165c:	0201                	.2byte	0x201
    165e:	0000a507          	.4byte	0xa507
    1662:	0900                	.2byte	0x900
    1664:	0000023f 260f4503 	.8byte	0x260f45030000023f
    166c:	0000                	.2byte	0x0
    166e:	0a00                	.2byte	0xa00
    1670:	0304                	.2byte	0x304
    1672:	034a                	.2byte	0x34a
    1674:	00b2                	.2byte	0xb2
    1676:	0000                	.2byte	0x0
    1678:	9b04                	.2byte	0x9b04
    167a:	0002                	.2byte	0x2
    167c:	5100                	.2byte	0x5100
    167e:	0061                	.2byte	0x61
    1680:	0000                	.2byte	0x0
    1682:	650b0017          	auipc	zero,0x650b0
    1686:	7078                	.2byte	0x7078
    1688:	0300                	.2byte	0x300
    168a:	0e52                	.2byte	0xe52
    168c:	0061                	.2byte	0x61
    168e:	0000                	.2byte	0x0
    1690:	1708                	.2byte	0x1708
    1692:	6d04                	.2byte	0x6d04
    1694:	0002                	.2byte	0x2
    1696:	5300                	.2byte	0x5300
    1698:	0061                	.2byte	0x61
    169a:	0000                	.2byte	0x0
    169c:	1f01                	.2byte	0x1f01
    169e:	0c00                	.2byte	0xc00
    16a0:	00000303          	lb	t1,0(zero) # 0 <exit-0x10094>
    16a4:	0304                	.2byte	0x304
    16a6:	00d80747          	.4byte	0xd80747
    16aa:	0000                	.2byte	0x0
    16ac:	660d                	.2byte	0x660d
    16ae:	746c                	.2byte	0x746c
    16b0:	0300                	.2byte	0x300
    16b2:	0a49                	.2byte	0xa49
    16b4:	0076                	.2byte	0x76
    16b6:	0000                	.2byte	0x0
    16b8:	e60e                	.2byte	0xe60e
    16ba:	0002                	.2byte	0x2
    16bc:	0300                	.2byte	0x300
    16be:	0555                	.2byte	0x555
    16c0:	0082                	.2byte	0x82
    16c2:	0000                	.2byte	0x0
    16c4:	0f00                	.2byte	0xf00
    16c6:	0588                	.2byte	0x588
    16c8:	0000                	.2byte	0x0
    16ca:	2301                	.2byte	0x2301
    16cc:	3b01                	.2byte	0x3b01
    16ce:	0000                	.2byte	0x0
    16d0:	0000                	.2byte	0x0
    16d2:	0115                	.2byte	0x115
    16d4:	7000                	.2byte	0x7000
    16d6:	0000                	.2byte	0x0
    16d8:	0100                	.2byte	0x100
    16da:	a29c                	.2byte	0xa29c
    16dc:	0001                	.2byte	0x1
    16de:	1000                	.2byte	0x1000
    16e0:	0061                	.2byte	0x61
    16e2:	2301                	.2byte	0x2301
    16e4:	00007613          	andi	a2,zero,0
    16e8:	e200                	.2byte	0xe200
    16ea:	002c                	.2byte	0x2c
    16ec:	0500                	.2byte	0x500
    16ee:	0210                	.2byte	0x210
    16f0:	0000                	.2byte	0x0
    16f2:	2d25                	.2byte	0x2d25
    16f4:	0000                	.2byte	0x0
    16f6:	3400                	.2byte	0x3400
    16f8:	002d                	.2byte	0x2d
    16fa:	1100                	.2byte	0x1100
    16fc:	03c8                	.2byte	0x3c8
    16fe:	0000                	.2byte	0x0
    1700:	2501                	.2byte	0x2501
    1702:	00002d03          	lw	s10,0(zero) # 0 <exit-0x10094>
    1706:	0000                	.2byte	0x0
    1708:	4112                	.2byte	0x4112
    170a:	635f 0100 0326      	.byte	0x5f, 0x63, 0x00, 0x01, 0x26, 0x03
    1710:	01a2                	.2byte	0x1a2
    1712:	0000                	.2byte	0x0
    1714:	735f4113          	xori	sp,t5,1845
    1718:	0100                	.2byte	0x100
    171a:	0326                	.2byte	0x326
    171c:	01a2                	.2byte	0x1a2
    171e:	0000                	.2byte	0x0
    1720:	7d06                	.2byte	0x7d06
    1722:	0800                	.2byte	0x800
    1724:	1aff                	.2byte	0x1aff
    1726:	029f 5f41 0065      	.byte	0x9f, 0x02, 0x41, 0x5f, 0x65, 0x00
    172c:	0326                	.2byte	0x326
    172e:	01a2                	.2byte	0x1a2
    1730:	0000                	.2byte	0x0
    1732:	2d41                	.2byte	0x2d41
    1734:	0000                	.2byte	0x0
    1736:	4102                	.2byte	0x4102
    1738:	665f 2600 a903      	.byte	0x5f, 0x66, 0x00, 0x26, 0x03, 0xa9
    173e:	0001                	.2byte	0x1
    1740:	6600                	.2byte	0x6600
    1742:	002d                	.2byte	0x2d
    1744:	0200                	.2byte	0x200
    1746:	0072                	.2byte	0x72
    1748:	00550b27          	.4byte	0x550b27
    174c:	0000                	.2byte	0x0
    174e:	00002d93          	slti	s11,zero,0
    1752:	7314                	.2byte	0x7314
    1754:	0006                	.2byte	0x6
    1756:	7900                	.2byte	0x7900
    1758:	0001                	.2byte	0x1
    175a:	0600                	.2byte	0x600
    175c:	0000024f          	.4byte	0x24f
    1760:	b22a                	.2byte	0xb22a
    1762:	0000                	.2byte	0x0
    1764:	0000                	.2byte	0x0
    1766:	8915                	.2byte	0x8915
    1768:	0001                	.2byte	0x1
    176a:	0600                	.2byte	0x600
    176c:	0592                	.2byte	0x592
    176e:	0000                	.2byte	0x0
    1770:	00002d2b          	.4byte	0x2d2b
    1774:	0000                	.2byte	0x0
    1776:	3816                	.2byte	0x3816
    1778:	0115                	.2byte	0x115
    177a:	3000                	.2byte	0x3000
    177c:	0000                	.2byte	0x0
    177e:	0500                	.2byte	0x500
    1780:	0592                	.2byte	0x592
    1782:	0000                	.2byte	0x0
    1784:	00002d2b          	.4byte	0x2d2b
    1788:	cf00                	.2byte	0xcf00
    178a:	002d                	.2byte	0x2d
    178c:	0000                	.2byte	0x0
    178e:	0100                	.2byte	0x100
    1790:	0504                	.2byte	0x504
    1792:	00000043          	.4byte	0x43
    1796:	0401                	.2byte	0x401
    1798:	00005107          	.4byte	0x5107
    179c:	0000                	.2byte	0x0
    179e:	0000020f          	.4byte	0x20f
    17a2:	0005                	.2byte	0x5
    17a4:	0401                	.2byte	0x401
    17a6:	09da                	.2byte	0x9da
    17a8:	0000                	.2byte	0x0
    17aa:	0f09                	.2byte	0xf09
    17ac:	1d000003          	lb	zero,464(zero) # 1d0 <exit-0xfec4>
    17b0:	02a6                	.2byte	0x2a6
    17b2:	0000                	.2byte	0x0
    17b4:	0038                	.2byte	0x38
    17b6:	0000                	.2byte	0x0
    17b8:	1570                	.2byte	0x1570
    17ba:	0001                	.2byte	0x1
    17bc:	0114                	.2byte	0x114
    17be:	0000                	.2byte	0x0
    17c0:	30e8                	.2byte	0x30e8
    17c2:	0000                	.2byte	0x0
    17c4:	0401                	.2byte	0x401
    17c6:	1a04                	.2byte	0x1a04
    17c8:	0000                	.2byte	0x0
    17ca:	0a00                	.2byte	0xa00
    17cc:	0504                	.2byte	0x504
    17ce:	6e69                	.2byte	0x6e69
    17d0:	0074                	.2byte	0x74
    17d2:	0101                	.2byte	0x101
    17d4:	7406                	.2byte	0x7406
    17d6:	0000                	.2byte	0x0
    17d8:	0600                	.2byte	0x600
    17da:	0100                	.2byte	0x100
    17dc:	0000                	.2byte	0x0
    17de:	0148                	.2byte	0x148
    17e0:	2d0d                	.2byte	0x2d0d
    17e2:	0000                	.2byte	0x0
    17e4:	0100                	.2byte	0x100
    17e6:	0508                	.2byte	0x508
    17e8:	003e                	.2byte	0x3e
    17ea:	0000                	.2byte	0x0
    17ec:	0101                	.2byte	0x101
    17ee:	7208                	.2byte	0x7208
    17f0:	0000                	.2byte	0x0
    17f2:	0600                	.2byte	0x600
    17f4:	00ff                	.2byte	0xff
    17f6:	0000                	.2byte	0x0
    17f8:	6116014b          	.4byte	0x6116014b
    17fc:	0000                	.2byte	0x0
    17fe:	0100                	.2byte	0x100
    1800:	0704                	.2byte	0x704
    1802:	0056                	.2byte	0x56
    1804:	0000                	.2byte	0x0
    1806:	0801                	.2byte	0x801
    1808:	00004c07          	.4byte	0x4c07
    180c:	0100                	.2byte	0x100
    180e:	0702                	.2byte	0x702
    1810:	00a5                	.2byte	0xa5
    1812:	0000                	.2byte	0x0
    1814:	00023f0b          	.4byte	0x23f0b
    1818:	0300                	.2byte	0x300
    181a:	0f45                	.2byte	0xf45
    181c:	0026                	.2byte	0x26
    181e:	0000                	.2byte	0x0
    1820:	040c                	.2byte	0x40c
    1822:	b2034a03          	lbu	s4,-1248(t1)
    1826:	0000                	.2byte	0x0
    1828:	0700                	.2byte	0x700
    182a:	0000029b          	.4byte	0x29b
    182e:	6151                	.2byte	0x6151
    1830:	0000                	.2byte	0x0
    1832:	1700                	.2byte	0x1700
    1834:	0d00                	.2byte	0xd00
    1836:	7865                	.2byte	0x7865
    1838:	0070                	.2byte	0x70
    183a:	610e5203          	lhu	tp,1552(t3)
    183e:	0000                	.2byte	0x0
    1840:	0800                	.2byte	0x800
    1842:	026d0717          	auipc	a4,0x26d0
    1846:	0000                	.2byte	0x0
    1848:	00006153          	.4byte	0x6153
    184c:	0100                	.2byte	0x100
    184e:	001f 030e 0003      	.byte	0x1f, 0x00, 0x0e, 0x03, 0x03, 0x00
    1854:	0400                	.2byte	0x400
    1856:	d8074703          	lbu	a4,-640(a4) # 26d15c2 <__global_pointer$+0x26bdb7a>
    185a:	0000                	.2byte	0x0
    185c:	0f00                	.2byte	0xf00
    185e:	6c66                	.2byte	0x6c66
    1860:	0074                	.2byte	0x74
    1862:	760a4903          	lbu	s2,1888(s4)
    1866:	0000                	.2byte	0x0
    1868:	1000                	.2byte	0x1000
    186a:	02e6                	.2byte	0x2e6
    186c:	0000                	.2byte	0x0
    186e:	82055503          	lhu	a0,-2016(a0)
    1872:	0000                	.2byte	0x0
    1874:	0000                	.2byte	0x0
    1876:	c211                	.2byte	0xc211
    1878:	0005                	.2byte	0x5
    187a:	0100                	.2byte	0x100
    187c:	00760123          	sb	t2,2(a2) # 26d1048 <__global_pointer$+0x26bd600>
    1880:	0000                	.2byte	0x0
    1882:	1570                	.2byte	0x1570
    1884:	0001                	.2byte	0x1
    1886:	0114                	.2byte	0x114
    1888:	0000                	.2byte	0x0
    188a:	9c01                	.2byte	0x9c01
    188c:	000001fb          	.4byte	0x1fb
    1890:	6912                	.2byte	0x6912
    1892:	0100                	.2byte	0x100
    1894:	003b1523          	sh	gp,10(s6)
    1898:	0000                	.2byte	0x0
    189a:	2de8                	.2byte	0x2de8
    189c:	0000                	.2byte	0x0
    189e:	00021003          	lh	zero,0(tp) # 0 <exit-0x10094>
    18a2:	2500                	.2byte	0x2500
    18a4:	002d                	.2byte	0x2d
    18a6:	0000                	.2byte	0x0
    18a8:	2e26                	.2byte	0x2e26
    18aa:	0000                	.2byte	0x0
    18ac:	0003c813          	xori	a6,t2,0
    18b0:	0100                	.2byte	0x100
    18b2:	0325                	.2byte	0x325
    18b4:	002d                	.2byte	0x2d
    18b6:	0000                	.2byte	0x0
    18b8:	1400                	.2byte	0x1400
    18ba:	5f41                	.2byte	0x5f41
    18bc:	26010063          	beqz	sp,1b1c <exit-0xe578>
    18c0:	0001fb03          	.4byte	0x1fb03
    18c4:	0400                	.2byte	0x400
    18c6:	5f41                	.2byte	0x5f41
    18c8:	03260073          	.4byte	0x3260073
    18cc:	000001fb          	.4byte	0x1fb
    18d0:	00002e57          	.4byte	0x2e57
    18d4:	4104                	.2byte	0x4104
    18d6:	655f 2600 fb03      	.byte	0x5f, 0x65, 0x00, 0x26, 0x03, 0xfb
    18dc:	0001                	.2byte	0x1
    18de:	7900                	.2byte	0x7900
    18e0:	002e                	.2byte	0x2e
    18e2:	0400                	.2byte	0x400
    18e4:	5f41                	.2byte	0x5f41
    18e6:	0066                	.2byte	0x66
    18e8:	0326                	.2byte	0x326
    18ea:	0202                	.2byte	0x202
    18ec:	0000                	.2byte	0x0
    18ee:	2ec6                	.2byte	0x2ec6
    18f0:	0000                	.2byte	0x0
    18f2:	6104                	.2byte	0x6104
    18f4:	2700                	.2byte	0x2700
    18f6:	760a                	.2byte	0x760a
    18f8:	0000                	.2byte	0x0
    18fa:	fe00                	.2byte	0xfe00
    18fc:	002e                	.2byte	0x2e
    18fe:	0800                	.2byte	0x800
    1900:	0692                	.2byte	0x692
    1902:	0000                	.2byte	0x0
    1904:	01ea                	.2byte	0x1ea
    1906:	0000                	.2byte	0x0
    1908:	b515                	.2byte	0xb515
    190a:	0005                	.2byte	0x5
    190c:	0100                	.2byte	0x100
    190e:	032a                	.2byte	0x32a
    1910:	1620                	.2byte	0x1620
    1912:	0001                	.2byte	0x1
    1914:	ae05                	.2byte	0xae05
    1916:	0006                	.2byte	0x6
    1918:	0300                	.2byte	0x300
    191a:	05a5                	.2byte	0x5a5
    191c:	0000                	.2byte	0x0
    191e:	552a                	.2byte	0x552a
    1920:	0000                	.2byte	0x0
    1922:	1c00                	.2byte	0x1c00
    1924:	0800002f          	.4byte	0x800002f
    1928:	06ca                	.2byte	0x6ca
    192a:	0000                	.2byte	0x0
    192c:	01aa                	.2byte	0x1aa
    192e:	0000                	.2byte	0x0
    1930:	0005ce03          	lbu	t3,0(a1) # 4000000 <__global_pointer$+0x3fec5b8>
    1934:	2a00                	.2byte	0x2a00
    1936:	002d                	.2byte	0x2d
    1938:	0000                	.2byte	0x0
    193a:	2f88                	.2byte	0x2f88
    193c:	0000                	.2byte	0x0
    193e:	a016                	.2byte	0xa016
    1940:	0115                	.2byte	0x115
    1942:	0900                	.2byte	0x900
    1944:	0002                	.2byte	0x2
    1946:	0000                	.2byte	0x0
    1948:	dd05                	.2byte	0xdd05
    194a:	0006                	.2byte	0x6
    194c:	0300                	.2byte	0x300
    194e:	02a0                	.2byte	0x2a0
    1950:	0000                	.2byte	0x0
    1952:	2d2a                	.2byte	0x2d2a
    1954:	0000                	.2byte	0x0
    1956:	b700                	.2byte	0xb700
    1958:	1700002f          	.4byte	0x1700002f
    195c:	1502                	.2byte	0x1502
    195e:	0002                	.2byte	0x2
    1960:	2a00                	.2byte	0x2a00
    1962:	000001fb          	.4byte	0x1fb
    1966:	fb02                	.2byte	0xfb02
    1968:	0001                	.2byte	0x1
    196a:	2a00                	.2byte	0x2a00
    196c:	000001fb          	.4byte	0x1fb
    1970:	8102                	.2byte	0x8102
    1972:	0002                	.2byte	0x2
    1974:	2a00                	.2byte	0x2a00
    1976:	000001fb          	.4byte	0x1fb
    197a:	2a02                	.2byte	0x2a02
    197c:	0002                	.2byte	0x2
    197e:	2a00                	.2byte	0x2a00
    1980:	0202                	.2byte	0x202
    1982:	0000                	.2byte	0x0
    1984:	0000                	.2byte	0x0
    1986:	0000                	.2byte	0x0
    1988:	f005                	.2byte	0xf005
    198a:	0006                	.2byte	0x6
    198c:	0200                	.2byte	0x200
    198e:	01e8                	.2byte	0x1e8
    1990:	0000                	.2byte	0x0
    1992:	0000b22b          	.4byte	0xb22b
    1996:	0000                	.2byte	0x0
    1998:	0100                	.2byte	0x100
    199a:	0504                	.2byte	0x504
    199c:	00000043          	.4byte	0x43
    19a0:	0401                	.2byte	0x401
    19a2:	00005107          	.4byte	0x5107
    19a6:	1800                	.2byte	0x1800
    19a8:	000003bf 000003bf 	.8byte	0x3bf000003bf
    19b0:	d400                	.2byte	0xd400
    19b2:	0000                	.2byte	0x0
    19b4:	0500                	.2byte	0x500
    19b6:	0100                	.2byte	0x100
    19b8:	4704                	.2byte	0x4704
    19ba:	0300000b          	.4byte	0x300000b
    19be:	0000030f          	.4byte	0x30f
    19c2:	001d                	.2byte	0x1d
    19c4:	0000                	.2byte	0x0
    19c6:	3800                	.2byte	0x3800
    19c8:	0000                	.2byte	0x0
    19ca:	4900                	.2byte	0x4900
    19cc:	0034                	.2byte	0x34
    19ce:	0400                	.2byte	0x400
    19d0:	0504                	.2byte	0x504
    19d2:	6e69                	.2byte	0x6e69
    19d4:	0074                	.2byte	0x74
    19d6:	0401                	.2byte	0x401
    19d8:	00005607          	.4byte	0x5607
    19dc:	0100                	.2byte	0x100
    19de:	0508                	.2byte	0x508
    19e0:	003e                	.2byte	0x3e
    19e2:	0000                	.2byte	0x0
    19e4:	1001                	.2byte	0x1001
    19e6:	f304                	.2byte	0xf304
    19e8:	0000                	.2byte	0x0
    19ea:	0100                	.2byte	0x100
    19ec:	0601                	.2byte	0x601
    19ee:	0074                	.2byte	0x74
    19f0:	0000                	.2byte	0x0
    19f2:	0101                	.2byte	0x101
    19f4:	7208                	.2byte	0x7208
    19f6:	0000                	.2byte	0x0
    19f8:	0100                	.2byte	0x100
    19fa:	0502                	.2byte	0x502
    19fc:	0020                	.2byte	0x20
    19fe:	0000                	.2byte	0x0
    1a00:	0201                	.2byte	0x201
    1a02:	0000a507          	.4byte	0xa507
    1a06:	0100                	.2byte	0x100
    1a08:	0504                	.2byte	0x504
    1a0a:	00000043          	.4byte	0x43
    1a0e:	0401                	.2byte	0x401
    1a10:	00005107          	.4byte	0x5107
    1a14:	0100                	.2byte	0x100
    1a16:	0708                	.2byte	0x708
    1a18:	004c                	.2byte	0x4c
    1a1a:	0000                	.2byte	0x0
    1a1c:	0101                	.2byte	0x101
    1a1e:	7b08                	.2byte	0x7b08
    1a20:	0000                	.2byte	0x0
    1a22:	0500                	.2byte	0x500
    1a24:	0094                	.2byte	0x94
    1a26:	0000                	.2byte	0x0
    1a28:	7b01                	.2byte	0x7b01
    1a2a:	4116                	.2byte	0x4116
    1a2c:	0000                	.2byte	0x0
    1a2e:	0200                	.2byte	0x200
    1a30:	0072                	.2byte	0x72
    1a32:	0000                	.2byte	0x0
    1a34:	0401                	.2byte	0x401
    1a36:	1a04                	.2byte	0x1a04
    1a38:	0000                	.2byte	0x0
    1a3a:	0100                	.2byte	0x100
    1a3c:	0308                	.2byte	0x308
    1a3e:	0012                	.2byte	0x12
    1a40:	0000                	.2byte	0x0
    1a42:	0801                	.2byte	0x801
    1a44:	f804                	.2byte	0xf804
    1a46:	0000                	.2byte	0x0
    1a48:	0100                	.2byte	0x100
    1a4a:	0310                	.2byte	0x310
    1a4c:	00ca                	.2byte	0xca
    1a4e:	0000                	.2byte	0x0
    1a50:	2001                	.2byte	0x2001
    1a52:	0000eb03          	.4byte	0xeb03
    1a56:	0600                	.2byte	0x600
    1a58:	007e                	.2byte	0x7e
    1a5a:	0000                	.2byte	0x0
    1a5c:	00b6                	.2byte	0xb6
    1a5e:	0000                	.2byte	0x0
    1a60:	00002507          	.4byte	0x2507
    1a64:	ff00                	.2byte	0xff00
    1a66:	0200                	.2byte	0x200
    1a68:	00a6                	.2byte	0xa6
    1a6a:	0000                	.2byte	0x0
    1a6c:	6808                	.2byte	0x6808
    1a6e:	0000                	.2byte	0x0
    1a70:	0100                	.2byte	0x100
    1a72:	0202                	.2byte	0x202
    1a74:	b616                	.2byte	0xb616
    1a76:	0000                	.2byte	0x0
    1a78:	0900                	.2byte	0x900
    1a7a:	000000bb          	.4byte	0xbb
    1a7e:	9e02                	.2byte	0x9e02
    1a80:	0f02                	.2byte	0xf02
    1a82:	0305                	.2byte	0x305
    1a84:	20c4                	.2byte	0x20c4
    1a86:	0001                	.2byte	0x1
    1a88:	3e00                	.2byte	0x3e00
    1a8a:	0001                	.2byte	0x1
    1a8c:	0500                	.2byte	0x500
    1a8e:	0100                	.2byte	0x100
    1a90:	b704                	.2byte	0xb704
    1a92:	0400000b          	.4byte	0x400000b
    1a96:	0000030f          	.4byte	0x30f
    1a9a:	001d                	.2byte	0x1d
    1a9c:	0000                	.2byte	0x0
    1a9e:	3800                	.2byte	0x3800
    1aa0:	0000                	.2byte	0x0
    1aa2:	8400                	.2byte	0x8400
    1aa4:	0116                	.2byte	0x116
    1aa6:	4c00                	.2byte	0x4c00
    1aa8:	0000                	.2byte	0x0
    1aaa:	8800                	.2byte	0x8800
    1aac:	0034                	.2byte	0x34
    1aae:	0500                	.2byte	0x500
    1ab0:	0504                	.2byte	0x504
    1ab2:	6e69                	.2byte	0x6e69
    1ab4:	0074                	.2byte	0x74
    1ab6:	0401                	.2byte	0x401
    1ab8:	00005607          	.4byte	0x5607
    1abc:	0100                	.2byte	0x100
    1abe:	0508                	.2byte	0x508
    1ac0:	003e                	.2byte	0x3e
    1ac2:	0000                	.2byte	0x0
    1ac4:	1001                	.2byte	0x1001
    1ac6:	f304                	.2byte	0xf304
    1ac8:	0000                	.2byte	0x0
    1aca:	0100                	.2byte	0x100
    1acc:	0601                	.2byte	0x601
    1ace:	0074                	.2byte	0x74
    1ad0:	0000                	.2byte	0x0
    1ad2:	0101                	.2byte	0x101
    1ad4:	7208                	.2byte	0x7208
    1ad6:	0000                	.2byte	0x0
    1ad8:	0100                	.2byte	0x100
    1ada:	0502                	.2byte	0x502
    1adc:	0020                	.2byte	0x20
    1ade:	0000                	.2byte	0x0
    1ae0:	0201                	.2byte	0x201
    1ae2:	0000a507          	.4byte	0xa507
    1ae6:	0100                	.2byte	0x100
    1ae8:	0504                	.2byte	0x504
    1aea:	00000043          	.4byte	0x43
    1aee:	0401                	.2byte	0x401
    1af0:	00005107          	.4byte	0x5107
    1af4:	0100                	.2byte	0x100
    1af6:	0708                	.2byte	0x708
    1af8:	004c                	.2byte	0x4c
    1afa:	0000                	.2byte	0x0
    1afc:	0101                	.2byte	0x101
    1afe:	7b08                	.2byte	0x7b08
    1b00:	0000                	.2byte	0x0
    1b02:	0200                	.2byte	0x200
    1b04:	0094                	.2byte	0x94
    1b06:	0000                	.2byte	0x0
    1b08:	0049167b          	.4byte	0x49167b
    1b0c:	0000                	.2byte	0x0
    1b0e:	00007a03          	.4byte	0x7a03
    1b12:	0200                	.2byte	0x200
    1b14:	0100                	.2byte	0x100
    1b16:	0000                	.2byte	0x0
    1b18:	0f80                	.2byte	0xf80
    1b1a:	0026                	.2byte	0x26
    1b1c:	0000                	.2byte	0x0
    1b1e:	ff02                	.2byte	0xff02
    1b20:	0000                	.2byte	0x0
    1b22:	8100                	.2byte	0x8100
    1b24:	2d16                	.2byte	0x2d16
    1b26:	0000                	.2byte	0x0
    1b28:	0100                	.2byte	0x100
    1b2a:	0404                	.2byte	0x404
    1b2c:	001a                	.2byte	0x1a
    1b2e:	0000                	.2byte	0x0
    1b30:	0801                	.2byte	0x801
    1b32:	00001203          	lh	tp,0(zero) # 0 <exit-0x10094>
    1b36:	0100                	.2byte	0x100
    1b38:	0408                	.2byte	0x408
    1b3a:	00f8                	.2byte	0xf8
    1b3c:	0000                	.2byte	0x0
    1b3e:	1001                	.2byte	0x1001
    1b40:	0000ca03          	lbu	s4,0(ra)
    1b44:	0100                	.2byte	0x100
    1b46:	0320                	.2byte	0x320
    1b48:	000000eb          	.4byte	0xeb
    1b4c:	8506                	.2byte	0x8506
    1b4e:	0000                	.2byte	0x0
    1b50:	d300                	.2byte	0xd300
    1b52:	0000                	.2byte	0x0
    1b54:	0700                	.2byte	0x700
    1b56:	002d                	.2byte	0x2d
    1b58:	0000                	.2byte	0x0
    1b5a:	00ff                	.2byte	0xff
    1b5c:	0000c303          	lbu	t1,0(ra)
    1b60:	0800                	.2byte	0x800
    1b62:	0068                	.2byte	0x68
    1b64:	0000                	.2byte	0x0
    1b66:	0202                	.2byte	0x202
    1b68:	1602                	.2byte	0x1602
    1b6a:	000000d3          	.4byte	0xd3
    1b6e:	bf09                	.2byte	0xbf09
    1b70:	01000003          	lb	zero,16(zero) # 10 <exit-0x10084>
    1b74:	02ae                	.2byte	0x2ae
    1b76:	2601                	.2byte	0x2601
    1b78:	0000                	.2byte	0x0
    1b7a:	8400                	.2byte	0x8400
    1b7c:	0116                	.2byte	0x116
    1b7e:	4c00                	.2byte	0x4c00
    1b80:	0000                	.2byte	0x0
    1b82:	0100                	.2byte	0x100
    1b84:	0a9c                	.2byte	0xa9c
    1b86:	0078                	.2byte	0x78
    1b88:	ae01                	.2byte	0xae01
    1b8a:	1202                	.2byte	0x1202
    1b8c:	0095                	.2byte	0x95
    1b8e:	0000                	.2byte	0x0
    1b90:	2fd0                	.2byte	0x2fd0
    1b92:	0000                	.2byte	0x0
    1b94:	7465720b          	.4byte	0x7465720b
    1b98:	0100                	.2byte	0x100
    1b9a:	02b0                	.2byte	0x2b0
    1b9c:	8a09                	.2byte	0x8a09
    1b9e:	0000                	.2byte	0x0
    1ba0:	0c00                	.2byte	0xc00
    1ba2:	0718                	.2byte	0x718
    1ba4:	0000                	.2byte	0x0
    1ba6:	d90d                	.2byte	0xd90d
    1ba8:	0000                	.2byte	0x0
    1baa:	0100                	.2byte	0x100
    1bac:	02b2                	.2byte	0x2b2
    1bae:	00009503          	lh	a0,0(ra)
    1bb2:	f500                	.2byte	0xf500
    1bb4:	0e00002f          	.4byte	0xe00002f
    1bb8:	5f5f 0061 b201      	.byte	0x5f, 0x5f, 0x61, 0x00, 0x01, 0xb2
    1bbe:	0302                	.2byte	0x302
    1bc0:	0095                	.2byte	0x95
    1bc2:	0000                	.2byte	0x0
    1bc4:	301a                	.2byte	0x301a
    1bc6:	0000                	.2byte	0x0
    1bc8:	0000                	.2byte	0x0
    1bca:	fa00                	.2byte	0xfa00
    1bcc:	0001                	.2byte	0x1
    1bce:	0500                	.2byte	0x500
    1bd0:	0100                	.2byte	0x100
    1bd2:	8104                	.2byte	0x8104
    1bd4:	000c                	.2byte	0xc
    1bd6:	0b00                	.2byte	0xb00
    1bd8:	0000030f          	.4byte	0x30f
    1bdc:	e81d                	.2byte	0xe81d
    1bde:	0002                	.2byte	0x2
    1be0:	3800                	.2byte	0x3800
    1be2:	0000                	.2byte	0x0
    1be4:	e000                	.2byte	0xe000
    1be6:	011a                	.2byte	0x11a
    1be8:	7400                	.2byte	0x7400
    1bea:	0000                	.2byte	0x0
    1bec:	5300                	.2byte	0x5300
    1bee:	0035                	.2byte	0x35
    1bf0:	0100                	.2byte	0x100
    1bf2:	0404                	.2byte	0x404
    1bf4:	001a                	.2byte	0x1a
    1bf6:	0000                	.2byte	0x0
    1bf8:	1c05                	.2byte	0x1c05
    1bfa:	0005                	.2byte	0x5
    1bfc:	0200                	.2byte	0x200
    1bfe:	0d50                	.2byte	0xd50
    1c00:	0039                	.2byte	0x39
    1c02:	0000                	.2byte	0x0
    1c04:	040c                	.2byte	0x40c
    1c06:	6905                	.2byte	0x6905
    1c08:	746e                	.2byte	0x746e
    1c0a:	0100                	.2byte	0x100
    1c0c:	0601                	.2byte	0x601
    1c0e:	0074                	.2byte	0x74
    1c10:	0000                	.2byte	0x0
    1c12:	0801                	.2byte	0x801
    1c14:	3e05                	.2byte	0x3e05
    1c16:	0000                	.2byte	0x0
    1c18:	0100                	.2byte	0x100
    1c1a:	0801                	.2byte	0x801
    1c1c:	0072                	.2byte	0x72
    1c1e:	0000                	.2byte	0x0
    1c20:	0401                	.2byte	0x401
    1c22:	00005607          	.4byte	0x5607
    1c26:	0100                	.2byte	0x100
    1c28:	0708                	.2byte	0x708
    1c2a:	004c                	.2byte	0x4c
    1c2c:	0000                	.2byte	0x0
    1c2e:	0201                	.2byte	0x201
    1c30:	0000a507          	.4byte	0xa507
    1c34:	0500                	.2byte	0x500
    1c36:	0000023f 260f4503 	.8byte	0x260f45030000023f
    1c3e:	0000                	.2byte	0x0
    1c40:	0d00                	.2byte	0xd00
    1c42:	0304                	.2byte	0x304
    1c44:	034a                	.2byte	0x34a
    1c46:	00a6                	.2byte	0xa6
    1c48:	0000                	.2byte	0x0
    1c4a:	9b06                	.2byte	0x9b06
    1c4c:	0002                	.2byte	0x2
    1c4e:	5100                	.2byte	0x5100
    1c50:	0055                	.2byte	0x55
    1c52:	0000                	.2byte	0x0
    1c54:	650e0017          	auipc	zero,0x650e0
    1c58:	7078                	.2byte	0x7078
    1c5a:	0300                	.2byte	0x300
    1c5c:	0e52                	.2byte	0xe52
    1c5e:	0055                	.2byte	0x55
    1c60:	0000                	.2byte	0x0
    1c62:	1708                	.2byte	0x1708
    1c64:	6d06                	.2byte	0x6d06
    1c66:	0002                	.2byte	0x2
    1c68:	5300                	.2byte	0x5300
    1c6a:	0055                	.2byte	0x55
    1c6c:	0000                	.2byte	0x0
    1c6e:	1f01                	.2byte	0x1f01
    1c70:	0f00                	.2byte	0xf00
    1c72:	00000303          	lb	t1,0(zero) # 0 <exit-0x10094>
    1c76:	0304                	.2byte	0x304
    1c78:	00cc0747          	.4byte	0xcc0747
    1c7c:	0000                	.2byte	0x0
    1c7e:	6610                	.2byte	0x6610
    1c80:	746c                	.2byte	0x746c
    1c82:	0300                	.2byte	0x300
    1c84:	0a49                	.2byte	0xa49
    1c86:	006a                	.2byte	0x6a
    1c88:	0000                	.2byte	0x0
    1c8a:	e611                	.2byte	0xe611
    1c8c:	0002                	.2byte	0x2
    1c8e:	0300                	.2byte	0x300
    1c90:	0555                	.2byte	0x555
    1c92:	0076                	.2byte	0x76
    1c94:	0000                	.2byte	0x0
    1c96:	1200                	.2byte	0x1200
    1c98:	05de                	.2byte	0x5de
    1c9a:	0000                	.2byte	0x0
    1c9c:	2301                	.2byte	0x2301
    1c9e:	2d01                	.2byte	0x2d01
    1ca0:	0000                	.2byte	0x0
    1ca2:	e000                	.2byte	0xe000
    1ca4:	011a                	.2byte	0x11a
    1ca6:	7400                	.2byte	0x7400
    1ca8:	0000                	.2byte	0x0
    1caa:	0100                	.2byte	0x100
    1cac:	ef9c                	.2byte	0xef9c
    1cae:	0001                	.2byte	0x1
    1cb0:	0700                	.2byte	0x700
    1cb2:	0061                	.2byte	0x61
    1cb4:	6a11                	.2byte	0x6a11
    1cb6:	0000                	.2byte	0x0
    1cb8:	3200                	.2byte	0x3200
    1cba:	0030                	.2byte	0x30
    1cbc:	0700                	.2byte	0x700
    1cbe:	0062                	.2byte	0x62
    1cc0:	00006a1b          	.4byte	0x6a1b
    1cc4:	4e00                	.2byte	0x4e00
    1cc6:	0030                	.2byte	0x30
    1cc8:	0800                	.2byte	0x800
    1cca:	0210                	.2byte	0x210
    1ccc:	0000                	.2byte	0x0
    1cce:	0039                	.2byte	0x39
    1cd0:	0000                	.2byte	0x0
    1cd2:	c808                	.2byte	0xc808
    1cd4:	39000003          	lb	zero,912(zero) # 390 <exit-0xfd04>
    1cd8:	0000                	.2byte	0x0
    1cda:	0900                	.2byte	0x900
    1cdc:	5f41                	.2byte	0x5f41
    1cde:	ef260063          	beq	a2,s2,13be <exit-0xecd6>
    1ce2:	0001                	.2byte	0x1
    1ce4:	0200                	.2byte	0x200
    1ce6:	5f41                	.2byte	0x5f41
    1ce8:	03260073          	.4byte	0x3260073
    1cec:	000001ef          	jal	gp,1cec <exit-0xe3a8>
    1cf0:	7f06                	.2byte	0x7f06
    1cf2:	0800                	.2byte	0x800
    1cf4:	1aff                	.2byte	0x1aff
    1cf6:	029f 5f41 0065      	.byte	0x9f, 0x02, 0x41, 0x5f, 0x65, 0x00
    1cfc:	0326                	.2byte	0x326
    1cfe:	000001ef          	jal	gp,1cfe <exit-0xe396>
    1d02:	5d01                	.2byte	0x5d01
    1d04:	665f4113          	xori	sp,t5,1637
    1d08:	0100                	.2byte	0x100
    1d0a:	0326                	.2byte	0x326
    1d0c:	01f6                	.2byte	0x1f6
    1d0e:	0000                	.2byte	0x0
    1d10:	306a                	.2byte	0x306a
    1d12:	0000                	.2byte	0x0
    1d14:	4209                	.2byte	0x4209
    1d16:	635f 2700 01ef      	.byte	0x5f, 0x63, 0x00, 0x27, 0xef, 0x01
    1d1c:	0000                	.2byte	0x0
    1d1e:	4202                	.2byte	0x4202
    1d20:	735f 2700 ef03      	.byte	0x5f, 0x73, 0x00, 0x27, 0x03, 0xef
    1d26:	0001                	.2byte	0x1
    1d28:	0600                	.2byte	0x600
    1d2a:	ff08007b          	.4byte	0xff08007b
    1d2e:	9f1a                	.2byte	0x9f1a
    1d30:	4202                	.2byte	0x4202
    1d32:	655f 2700 ef03      	.byte	0x5f, 0x65, 0x00, 0x27, 0x03, 0xef
    1d38:	0001                	.2byte	0x1
    1d3a:	0100                	.2byte	0x100
    1d3c:	0260                	.2byte	0x260
    1d3e:	5f42                	.2byte	0x5f42
    1d40:	0066                	.2byte	0x66
    1d42:	01f60327          	.4byte	0x1f60327
    1d46:	0000                	.2byte	0x0
    1d48:	5e01                	.2byte	0x5e01
    1d4a:	7202                	.2byte	0x7202
    1d4c:	2800                	.2byte	0x2800
    1d4e:	00002d0b          	.4byte	0x2d0b
    1d52:	0100                	.2byte	0x100
    1d54:	0a5a                	.2byte	0xa5a
    1d56:	0740                	.2byte	0x740
    1d58:	0000                	.2byte	0x0
    1d5a:	019e                	.2byte	0x19e
    1d5c:	0000                	.2byte	0x0
    1d5e:	00024f03          	lbu	t5,0(tp) # 0 <exit-0x10094>
    1d62:	2b00                	.2byte	0x2b00
    1d64:	00a6                	.2byte	0xa6
    1d66:	0000                	.2byte	0x0
    1d68:	0a00                	.2byte	0xa00
    1d6a:	075c                	.2byte	0x75c
    1d6c:	0000                	.2byte	0x0
    1d6e:	01b2                	.2byte	0x1b2
    1d70:	0000                	.2byte	0x0
    1d72:	00024f03          	lbu	t5,0(tp) # 0 <exit-0x10094>
    1d76:	2c00                	.2byte	0x2c00
    1d78:	00a6                	.2byte	0xa6
    1d7a:	0000                	.2byte	0x0
    1d7c:	0400                	.2byte	0x400
    1d7e:	01c2                	.2byte	0x1c2
    1d80:	0000                	.2byte	0x0
    1d82:	0004f103          	.4byte	0x4f103
    1d86:	2d00                	.2byte	0x2d00
    1d88:	0039                	.2byte	0x39
    1d8a:	0000                	.2byte	0x0
    1d8c:	0400                	.2byte	0x400
    1d8e:	01d2                	.2byte	0x1d2
    1d90:	0000                	.2byte	0x0
    1d92:	0004f103          	.4byte	0x4f103
    1d96:	2d00                	.2byte	0x2d00
    1d98:	0039                	.2byte	0x39
    1d9a:	0000                	.2byte	0x0
    1d9c:	0400                	.2byte	0x400
    1d9e:	01e2                	.2byte	0x1e2
    1da0:	0000                	.2byte	0x0
    1da2:	0004f103          	.4byte	0x4f103
    1da6:	2d00                	.2byte	0x2d00
    1da8:	0039                	.2byte	0x39
    1daa:	0000                	.2byte	0x0
    1dac:	1400                	.2byte	0x1400
    1dae:	0004f103          	.4byte	0x4f103
    1db2:	2d00                	.2byte	0x2d00
    1db4:	0039                	.2byte	0x39
    1db6:	0000                	.2byte	0x0
    1db8:	0000                	.2byte	0x0
    1dba:	0401                	.2byte	0x401
    1dbc:	4305                	.2byte	0x4305
    1dbe:	0000                	.2byte	0x0
    1dc0:	0100                	.2byte	0x100
    1dc2:	0704                	.2byte	0x704
    1dc4:	0051                	.2byte	0x51
    1dc6:	0000                	.2byte	0x0
    1dc8:	f800                	.2byte	0xf800
    1dca:	0001                	.2byte	0x1
    1dcc:	0500                	.2byte	0x500
    1dce:	0100                	.2byte	0x100
    1dd0:	bf04                	.2byte	0xbf04
    1dd2:	000d                	.2byte	0xd
    1dd4:	0b00                	.2byte	0xb00
    1dd6:	0000030f          	.4byte	0x30f
    1dda:	261d                	.2byte	0x261d
    1ddc:	38000003          	lb	zero,896(zero) # 380 <exit-0xfd14>
    1de0:	0000                	.2byte	0x0
    1de2:	5400                	.2byte	0x5400
    1de4:	dc00011b          	.4byte	0xdc00011b
    1de8:	0000                	.2byte	0x0
    1dea:	7000                	.2byte	0x7000
    1dec:	01000037          	lui	zero,0x1000
    1df0:	0404                	.2byte	0x404
    1df2:	001a                	.2byte	0x1a
    1df4:	0000                	.2byte	0x0
    1df6:	1c04                	.2byte	0x1c04
    1df8:	0005                	.2byte	0x5
    1dfa:	0200                	.2byte	0x200
    1dfc:	0d50                	.2byte	0xd50
    1dfe:	0039                	.2byte	0x39
    1e00:	0000                	.2byte	0x0
    1e02:	040c                	.2byte	0x40c
    1e04:	6905                	.2byte	0x6905
    1e06:	746e                	.2byte	0x746e
    1e08:	0100                	.2byte	0x100
    1e0a:	0601                	.2byte	0x601
    1e0c:	0074                	.2byte	0x74
    1e0e:	0000                	.2byte	0x0
    1e10:	0801                	.2byte	0x801
    1e12:	3e05                	.2byte	0x3e05
    1e14:	0000                	.2byte	0x0
    1e16:	0100                	.2byte	0x100
    1e18:	0801                	.2byte	0x801
    1e1a:	0072                	.2byte	0x72
    1e1c:	0000                	.2byte	0x0
    1e1e:	0401                	.2byte	0x401
    1e20:	00005607          	.4byte	0x5607
    1e24:	0100                	.2byte	0x100
    1e26:	0708                	.2byte	0x708
    1e28:	004c                	.2byte	0x4c
    1e2a:	0000                	.2byte	0x0
    1e2c:	0201                	.2byte	0x201
    1e2e:	0000a507          	.4byte	0xa507
    1e32:	0400                	.2byte	0x400
    1e34:	0000023f 260f4503 	.8byte	0x260f45030000023f
    1e3c:	0000                	.2byte	0x0
    1e3e:	0d00                	.2byte	0xd00
    1e40:	0304                	.2byte	0x304
    1e42:	034a                	.2byte	0x34a
    1e44:	00a6                	.2byte	0xa6
    1e46:	0000                	.2byte	0x0
    1e48:	9b05                	.2byte	0x9b05
    1e4a:	0002                	.2byte	0x2
    1e4c:	5100                	.2byte	0x5100
    1e4e:	0055                	.2byte	0x55
    1e50:	0000                	.2byte	0x0
    1e52:	650e0017          	auipc	zero,0x650e0
    1e56:	7078                	.2byte	0x7078
    1e58:	0300                	.2byte	0x300
    1e5a:	0e52                	.2byte	0xe52
    1e5c:	0055                	.2byte	0x55
    1e5e:	0000                	.2byte	0x0
    1e60:	1708                	.2byte	0x1708
    1e62:	6d05                	.2byte	0x6d05
    1e64:	0002                	.2byte	0x2
    1e66:	5300                	.2byte	0x5300
    1e68:	0055                	.2byte	0x55
    1e6a:	0000                	.2byte	0x0
    1e6c:	1f01                	.2byte	0x1f01
    1e6e:	0f00                	.2byte	0xf00
    1e70:	00000303          	lb	t1,0(zero) # 0 <exit-0x10094>
    1e74:	0304                	.2byte	0x304
    1e76:	00cc0747          	.4byte	0xcc0747
    1e7a:	0000                	.2byte	0x0
    1e7c:	6610                	.2byte	0x6610
    1e7e:	746c                	.2byte	0x746c
    1e80:	0300                	.2byte	0x300
    1e82:	0a49                	.2byte	0xa49
    1e84:	006a                	.2byte	0x6a
    1e86:	0000                	.2byte	0x0
    1e88:	e611                	.2byte	0xe611
    1e8a:	0002                	.2byte	0x2
    1e8c:	0300                	.2byte	0x300
    1e8e:	0555                	.2byte	0x555
    1e90:	0076                	.2byte	0x76
    1e92:	0000                	.2byte	0x0
    1e94:	1200                	.2byte	0x1200
    1e96:	05e6                	.2byte	0x5e6
    1e98:	0000                	.2byte	0x0
    1e9a:	2301                	.2byte	0x2301
    1e9c:	2d01                	.2byte	0x2d01
    1e9e:	0000                	.2byte	0x0
    1ea0:	5400                	.2byte	0x5400
    1ea2:	dc00011b          	.4byte	0xdc00011b
    1ea6:	0000                	.2byte	0x0
    1ea8:	0100                	.2byte	0x100
    1eaa:	ed9c                	.2byte	0xed9c
    1eac:	0001                	.2byte	0x1
    1eae:	0600                	.2byte	0x600
    1eb0:	0061                	.2byte	0x61
    1eb2:	6a11                	.2byte	0x6a11
    1eb4:	0000                	.2byte	0x0
    1eb6:	8d00                	.2byte	0x8d00
    1eb8:	0030                	.2byte	0x30
    1eba:	0600                	.2byte	0x600
    1ebc:	0062                	.2byte	0x62
    1ebe:	00006a1b          	.4byte	0x6a1b
    1ec2:	a900                	.2byte	0xa900
    1ec4:	0030                	.2byte	0x30
    1ec6:	0700                	.2byte	0x700
    1ec8:	0210                	.2byte	0x210
    1eca:	0000                	.2byte	0x0
    1ecc:	0039                	.2byte	0x39
    1ece:	0000                	.2byte	0x0
    1ed0:	0003c807          	.4byte	0x3c807
    1ed4:	3900                	.2byte	0x3900
    1ed6:	0000                	.2byte	0x0
    1ed8:	0800                	.2byte	0x800
    1eda:	5f41                	.2byte	0x5f41
    1edc:	ed260063          	beq	a2,s2,159c <exit-0xeaf8>
    1ee0:	0001                	.2byte	0x1
    1ee2:	0200                	.2byte	0x200
    1ee4:	5f41                	.2byte	0x5f41
    1ee6:	03260073          	.4byte	0x3260073
    1eea:	01ed                	.2byte	0x1ed
    1eec:	0000                	.2byte	0x0
    1eee:	5f01                	.2byte	0x5f01
    1ef0:	4102                	.2byte	0x4102
    1ef2:	655f 2600 ed03      	.byte	0x5f, 0x65, 0x00, 0x26, 0x03, 0xed
    1ef8:	0001                	.2byte	0x1
    1efa:	0100                	.2byte	0x100
    1efc:	025d                	.2byte	0x25d
    1efe:	5f41                	.2byte	0x5f41
    1f00:	0066                	.2byte	0x66
    1f02:	0326                	.2byte	0x326
    1f04:	01f4                	.2byte	0x1f4
    1f06:	0000                	.2byte	0x0
    1f08:	5c01                	.2byte	0x5c01
    1f0a:	4208                	.2byte	0x4208
    1f0c:	635f 2700 01ed      	.byte	0x5f, 0x63, 0x00, 0x27, 0xed, 0x01
    1f12:	0000                	.2byte	0x0
    1f14:	4202                	.2byte	0x4202
    1f16:	735f 2700 ed03      	.byte	0x5f, 0x73, 0x00, 0x27, 0x03, 0xed
    1f1c:	0001                	.2byte	0x1
    1f1e:	0100                	.2byte	0x100
    1f20:	5f42135b          	.4byte	0x5f42135b
    1f24:	0065                	.2byte	0x65
    1f26:	2701                	.2byte	0x2701
    1f28:	0001ed03          	.4byte	0x1ed03
    1f2c:	c500                	.2byte	0xc500
    1f2e:	0030                	.2byte	0x30
    1f30:	0200                	.2byte	0x200
    1f32:	5f42                	.2byte	0x5f42
    1f34:	0066                	.2byte	0x66
    1f36:	01f40327          	.4byte	0x1f40327
    1f3a:	0000                	.2byte	0x0
    1f3c:	5e01                	.2byte	0x5e01
    1f3e:	7202                	.2byte	0x7202
    1f40:	2800                	.2byte	0x2800
    1f42:	00002d0b          	.4byte	0x2d0b
    1f46:	0100                	.2byte	0x100
    1f48:	145a                	.2byte	0x145a
    1f4a:	1b54                	.2byte	0x1b54
    1f4c:	0001                	.2byte	0x1
    1f4e:	0018                	.2byte	0x18
    1f50:	0000                	.2byte	0x0
    1f52:	0198                	.2byte	0x198
    1f54:	0000                	.2byte	0x0
    1f56:	00024f03          	lbu	t5,0(tp) # 0 <exit-0x10094>
    1f5a:	2b00                	.2byte	0x2b00
    1f5c:	00a6                	.2byte	0xa6
    1f5e:	0000                	.2byte	0x0
    1f60:	1500                	.2byte	0x1500
    1f62:	0000077b          	.4byte	0x77b
    1f66:	01ac                	.2byte	0x1ac
    1f68:	0000                	.2byte	0x0
    1f6a:	00024f03          	lbu	t5,0(tp) # 0 <exit-0x10094>
    1f6e:	2c00                	.2byte	0x2c00
    1f70:	00a6                	.2byte	0xa6
    1f72:	0000                	.2byte	0x0
    1f74:	0900                	.2byte	0x900
    1f76:	01bc                	.2byte	0x1bc
    1f78:	0000                	.2byte	0x0
    1f7a:	0004f103          	.4byte	0x4f103
    1f7e:	2d00                	.2byte	0x2d00
    1f80:	0039                	.2byte	0x39
    1f82:	0000                	.2byte	0x0
    1f84:	0900                	.2byte	0x900
    1f86:	01cc                	.2byte	0x1cc
    1f88:	0000                	.2byte	0x0
    1f8a:	0004f103          	.4byte	0x4f103
    1f8e:	2d00                	.2byte	0x2d00
    1f90:	0039                	.2byte	0x39
    1f92:	0000                	.2byte	0x0
    1f94:	1600                	.2byte	0x1600
    1f96:	078e                	.2byte	0x78e
    1f98:	0000                	.2byte	0x0
    1f9a:	0a0a                	.2byte	0xa0a
    1f9c:	0005                	.2byte	0x5
    1f9e:	3900                	.2byte	0x3900
    1fa0:	0000                	.2byte	0x0
    1fa2:	1e00                	.2byte	0x1e00
    1fa4:	0031                	.2byte	0x31
    1fa6:	0a00                	.2byte	0xa00
    1fa8:	052a                	.2byte	0x52a
    1faa:	0000                	.2byte	0x0
    1fac:	0039                	.2byte	0x39
    1fae:	0000                	.2byte	0x0
    1fb0:	313d                	.2byte	0x313d
    1fb2:	0000                	.2byte	0x0
    1fb4:	0000                	.2byte	0x0
    1fb6:	0401                	.2byte	0x401
    1fb8:	4305                	.2byte	0x4305
    1fba:	0000                	.2byte	0x0
    1fbc:	0100                	.2byte	0x100
    1fbe:	0704                	.2byte	0x704
    1fc0:	0051                	.2byte	0x51
    1fc2:	0000                	.2byte	0x0
    1fc4:	ef00                	.2byte	0xef00
    1fc6:	0001                	.2byte	0x1
    1fc8:	0500                	.2byte	0x500
    1fca:	0100                	.2byte	0x100
    1fcc:	1e04                	.2byte	0x1e04
    1fce:	0a00000f          	fence	ir,unknown
    1fd2:	0000030f          	.4byte	0x30f
    1fd6:	641d                	.2byte	0x641d
    1fd8:	38000003          	lb	zero,896(zero) # 380 <exit-0xfd14>
    1fdc:	0000                	.2byte	0x0
    1fde:	3000                	.2byte	0x3000
    1fe0:	011c                	.2byte	0x11c
    1fe2:	4400                	.2byte	0x4400
    1fe4:	0000                	.2byte	0x0
    1fe6:	6600                	.2byte	0x6600
    1fe8:	003a                	.2byte	0x3a
    1fea:	0100                	.2byte	0x100
    1fec:	0404                	.2byte	0x404
    1fee:	001a                	.2byte	0x1a
    1ff0:	0000                	.2byte	0x0
    1ff2:	1c05                	.2byte	0x1c05
    1ff4:	0005                	.2byte	0x5
    1ff6:	0200                	.2byte	0x200
    1ff8:	0d50                	.2byte	0xd50
    1ffa:	0039                	.2byte	0x39
    1ffc:	0000                	.2byte	0x0
    1ffe:	6905040b          	.4byte	0x6905040b
    2002:	746e                	.2byte	0x746e
    2004:	0100                	.2byte	0x100
    2006:	0601                	.2byte	0x601
    2008:	0074                	.2byte	0x74
    200a:	0000                	.2byte	0x0
    200c:	0801                	.2byte	0x801
    200e:	3e05                	.2byte	0x3e05
    2010:	0000                	.2byte	0x0
    2012:	0100                	.2byte	0x100
    2014:	0801                	.2byte	0x801
    2016:	0072                	.2byte	0x72
    2018:	0000                	.2byte	0x0
    201a:	0401                	.2byte	0x401
    201c:	00005607          	.4byte	0x5607
    2020:	0100                	.2byte	0x100
    2022:	0708                	.2byte	0x708
    2024:	004c                	.2byte	0x4c
    2026:	0000                	.2byte	0x0
    2028:	0201                	.2byte	0x201
    202a:	0000a507          	.4byte	0xa507
    202e:	0500                	.2byte	0x500
    2030:	0000023f 260f4503 	.8byte	0x260f45030000023f
    2038:	0000                	.2byte	0x0
    203a:	0c00                	.2byte	0xc00
    203c:	0304                	.2byte	0x304
    203e:	034a                	.2byte	0x34a
    2040:	00a6                	.2byte	0xa6
    2042:	0000                	.2byte	0x0
    2044:	9b06                	.2byte	0x9b06
    2046:	0002                	.2byte	0x2
    2048:	5100                	.2byte	0x5100
    204a:	0055                	.2byte	0x55
    204c:	0000                	.2byte	0x0
    204e:	650d0017          	auipc	zero,0x650d0
    2052:	7078                	.2byte	0x7078
    2054:	0300                	.2byte	0x300
    2056:	0e52                	.2byte	0xe52
    2058:	0055                	.2byte	0x55
    205a:	0000                	.2byte	0x0
    205c:	1708                	.2byte	0x1708
    205e:	6d06                	.2byte	0x6d06
    2060:	0002                	.2byte	0x2
    2062:	5300                	.2byte	0x5300
    2064:	0055                	.2byte	0x55
    2066:	0000                	.2byte	0x0
    2068:	1f01                	.2byte	0x1f01
    206a:	0e00                	.2byte	0xe00
    206c:	00000303          	lb	t1,0(zero) # 0 <exit-0x10094>
    2070:	0304                	.2byte	0x304
    2072:	00cc0747          	.4byte	0xcc0747
    2076:	0000                	.2byte	0x0
    2078:	746c660f          	.4byte	0x746c660f
    207c:	0300                	.2byte	0x300
    207e:	0a49                	.2byte	0xa49
    2080:	006a                	.2byte	0x6a
    2082:	0000                	.2byte	0x0
    2084:	e610                	.2byte	0xe610
    2086:	0002                	.2byte	0x2
    2088:	0300                	.2byte	0x300
    208a:	0555                	.2byte	0x555
    208c:	0076                	.2byte	0x76
    208e:	0000                	.2byte	0x0
    2090:	1100                	.2byte	0x1100
    2092:	05ee                	.2byte	0x5ee
    2094:	0000                	.2byte	0x0
    2096:	2201                	.2byte	0x2201
    2098:	2d01                	.2byte	0x2d01
    209a:	0000                	.2byte	0x0
    209c:	3000                	.2byte	0x3000
    209e:	011c                	.2byte	0x11c
    20a0:	4400                	.2byte	0x4400
    20a2:	0000                	.2byte	0x0
    20a4:	0100                	.2byte	0x100
    20a6:	e49c                	.2byte	0xe49c
    20a8:	0001                	.2byte	0x1
    20aa:	0700                	.2byte	0x700
    20ac:	0061                	.2byte	0x61
    20ae:	6a14                	.2byte	0x6a14
    20b0:	0000                	.2byte	0x0
    20b2:	6e00                	.2byte	0x6e00
    20b4:	0031                	.2byte	0x31
    20b6:	0700                	.2byte	0x700
    20b8:	0062                	.2byte	0x62
    20ba:	6a1e                	.2byte	0x6a1e
    20bc:	0000                	.2byte	0x0
    20be:	8a00                	.2byte	0x8a00
    20c0:	0031                	.2byte	0x31
    20c2:	0800                	.2byte	0x800
    20c4:	0210                	.2byte	0x210
    20c6:	0000                	.2byte	0x0
    20c8:	0039                	.2byte	0x39
    20ca:	0000                	.2byte	0x0
    20cc:	c808                	.2byte	0xc808
    20ce:	39000003          	lb	zero,912(zero) # 390 <exit-0xfd04>
    20d2:	0000                	.2byte	0x0
    20d4:	0200                	.2byte	0x200
    20d6:	5f41                	.2byte	0x5f41
    20d8:	03250063          	beq	a0,s2,20f8 <exit-0xdf9c>
    20dc:	01e4                	.2byte	0x1e4
    20de:	0000                	.2byte	0x0
    20e0:	4102                	.2byte	0x4102
    20e2:	735f 2500 e403      	.byte	0x5f, 0x73, 0x00, 0x25, 0x03, 0xe4
    20e8:	0001                	.2byte	0x1
    20ea:	0200                	.2byte	0x200
    20ec:	5f41                	.2byte	0x5f41
    20ee:	0065                	.2byte	0x65
    20f0:	0325                	.2byte	0x325
    20f2:	01e4                	.2byte	0x1e4
    20f4:	0000                	.2byte	0x0
    20f6:	4112                	.2byte	0x4112
    20f8:	665f 0100 0325      	.byte	0x5f, 0x66, 0x00, 0x01, 0x25, 0x03
    20fe:	000001eb          	.4byte	0x1eb
    2102:	31a6                	.2byte	0x31a6
    2104:	0000                	.2byte	0x0
    2106:	4202                	.2byte	0x4202
    2108:	635f 2600 e403      	.byte	0x5f, 0x63, 0x00, 0x26, 0x03, 0xe4
    210e:	0001                	.2byte	0x1
    2110:	0200                	.2byte	0x200
    2112:	5f42                	.2byte	0x5f42
    2114:	03260073          	.4byte	0x3260073
    2118:	01e4                	.2byte	0x1e4
    211a:	0000                	.2byte	0x0
    211c:	4209                	.2byte	0x4209
    211e:	655f e400 0001      	.byte	0x5f, 0x65, 0x00, 0xe4, 0x01, 0x00
    2124:	0600                	.2byte	0x600
    2126:	ff08007b          	.4byte	0xff08007b
    212a:	9f1a                	.2byte	0x9f1a
    212c:	4209                	.2byte	0x4209
    212e:	665f eb00 0001      	.byte	0x5f, 0x66, 0x00, 0xeb, 0x01, 0x00
    2134:	0100                	.2byte	0x100
    2136:	025f 0072 0b27      	.byte	0x5f, 0x02, 0x72, 0x00, 0x27, 0x0b
    213c:	002d                	.2byte	0x2d
    213e:	0000                	.2byte	0x0
    2140:	011c3013          	sltiu	zero,s8,17
    2144:	0c00                	.2byte	0xc00
    2146:	0000                	.2byte	0x0
    2148:	9300                	.2byte	0x9300
    214a:	0001                	.2byte	0x1
    214c:	0300                	.2byte	0x300
    214e:	0000024f          	.4byte	0x24f
    2152:	a62a                	.2byte	0xa62a
    2154:	0000                	.2byte	0x0
    2156:	0000                	.2byte	0x0
    2158:	c814                	.2byte	0xc814
    215a:	a7000007          	.4byte	0xa7000007
    215e:	0001                	.2byte	0x1
    2160:	0300                	.2byte	0x300
    2162:	0000024f          	.4byte	0x24f
    2166:	0000a62b          	.4byte	0xa62b
    216a:	0000                	.2byte	0x0
    216c:	b704                	.2byte	0xb704
    216e:	0001                	.2byte	0x1
    2170:	0300                	.2byte	0x300
    2172:	04f1                	.2byte	0x4f1
    2174:	0000                	.2byte	0x0
    2176:	392c                	.2byte	0x392c
    2178:	0000                	.2byte	0x0
    217a:	0000                	.2byte	0x0
    217c:	c704                	.2byte	0xc704
    217e:	0001                	.2byte	0x1
    2180:	0300                	.2byte	0x300
    2182:	04f1                	.2byte	0x4f1
    2184:	0000                	.2byte	0x0
    2186:	392c                	.2byte	0x392c
    2188:	0000                	.2byte	0x0
    218a:	0000                	.2byte	0x0
    218c:	d704                	.2byte	0xd704
    218e:	0001                	.2byte	0x1
    2190:	0300                	.2byte	0x300
    2192:	04f1                	.2byte	0x4f1
    2194:	0000                	.2byte	0x0
    2196:	392c                	.2byte	0x392c
    2198:	0000                	.2byte	0x0
    219a:	0000                	.2byte	0x0
    219c:	0315                	.2byte	0x315
    219e:	04f1                	.2byte	0x4f1
    21a0:	0000                	.2byte	0x0
    21a2:	392c                	.2byte	0x392c
    21a4:	0000                	.2byte	0x0
    21a6:	0000                	.2byte	0x0
    21a8:	0100                	.2byte	0x100
    21aa:	0504                	.2byte	0x504
    21ac:	00000043          	.4byte	0x43
    21b0:	0401                	.2byte	0x401
    21b2:	00005107          	.4byte	0x5107
	...

Disassembly of section .debug_abbrev:

00000000 <.debug_abbrev>:
       0:	3401                	.2byte	0x3401
       2:	3100                	.2byte	0x3100
       4:	00170213          	addi	tp,a4,1
       8:	0200                	.2byte	0x200
       a:	0034                	.2byte	0x34
       c:	213a0e03          	lb	t3,531(s4)
      10:	3b01                	.2byte	0x3b01
      12:	3905                	.2byte	0x3905
      14:	0013490b          	.4byte	0x13490b
      18:	0300                	.2byte	0x300
      1a:	0034                	.2byte	0x34
      1c:	213a0803          	lb	a6,531(s4)
      20:	3b01                	.2byte	0x3b01
      22:	3905                	.2byte	0x3905
      24:	0013490b          	.4byte	0x13490b
      28:	0400                	.2byte	0x400
      2a:	0024                	.2byte	0x24
      2c:	0b3e0b0b          	.4byte	0xb3e0b0b
      30:	00000e03          	lb	t3,0(zero) # 0 <exit-0x10094>
      34:	0b05                	.2byte	0xb05
      36:	0101                	.2byte	0x101
      38:	06000013          	li	zero,96
      3c:	0016                	.2byte	0x16
      3e:	213a0e03          	lb	t3,531(s4)
      42:	3b02                	.2byte	0x3b02
      44:	490b390b          	.4byte	0x490b390b
      48:	07000013          	li	zero,112
      4c:	1331010b          	.4byte	0x1331010b
      50:	1755                	.2byte	0x1755
      52:	1301                	.2byte	0x1301
      54:	0000                	.2byte	0x0
      56:	3408                	.2byte	0x3408
      58:	3100                	.2byte	0x3100
      5a:	09000013          	li	zero,144
      5e:	0026                	.2byte	0x26
      60:	1349                	.2byte	0x1349
      62:	0000                	.2byte	0x0
      64:	050a                	.2byte	0x50a
      66:	3100                	.2byte	0x3100
      68:	00170213          	addi	tp,a4,1
      6c:	0b00                	.2byte	0xb00
      6e:	0005                	.2byte	0x5
      70:	213a0803          	lb	a6,531(s4)
      74:	3b01                	.2byte	0x3b01
      76:	e321                	.2byte	0xe321
      78:	490b3907          	.4byte	0x490b3907
      7c:	0c000013          	li	zero,192
      80:	000d                	.2byte	0xd
      82:	213a0803          	lb	a6,531(s4)
      86:	3b02                	.2byte	0x3b02
      88:	3905                	.2byte	0x3905
      8a:	0013490b          	.4byte	0x13490b
      8e:	0d00                	.2byte	0xd00
      90:	0005                	.2byte	0x5
      92:	213a0803          	lb	a6,531(s4)
      96:	3b01                	.2byte	0x3b01
      98:	9221                	.2byte	0x9221
      9a:	390a                	.2byte	0x390a
      9c:	0213490b          	.4byte	0x213490b
      a0:	0e000017          	auipc	zero,0xe000
      a4:	1331010b          	.4byte	0x1331010b
      a8:	0111                	.2byte	0x111
      aa:	0612                	.2byte	0x612
      ac:	1301                	.2byte	0x1301
      ae:	0000                	.2byte	0x0
      b0:	31010b0f          	.4byte	0x31010b0f
      b4:	00175513          	srli	a0,a4,0x1
      b8:	1000                	.2byte	0x1000
      ba:	0000010b          	.4byte	0x10b
      be:	1111                	.2byte	0x1111
      c0:	2501                	.2byte	0x2501
      c2:	130e                	.2byte	0x130e
      c4:	1b1f030b          	.4byte	0x1b1f030b
      c8:	111f 1201 1006      	.byte	0x1f, 0x11, 0x01, 0x12, 0x06, 0x10
      ce:	12000017          	auipc	zero,0x12000
      d2:	0024                	.2byte	0x24
      d4:	0b3e0b0b          	.4byte	0xb3e0b0b
      d8:	00000803          	lb	a6,0(zero) # 0 <exit-0x10094>
      dc:	03011313          	slli	t1,sp,0x30
      e0:	0b0e                	.2byte	0xb0e
      e2:	3b0b3a0b          	.4byte	0x3b0b3a0b
      e6:	3905                	.2byte	0x3905
      e8:	0013010b          	.4byte	0x13010b
      ec:	1400                	.2byte	0x1400
      ee:	000d                	.2byte	0xd
      f0:	0b3a0803          	lb	a6,179(s4)
      f4:	0b39053b          	.4byte	0xb39053b
      f8:	1349                	.2byte	0x1349
      fa:	0b38                	.2byte	0xb38
      fc:	0000                	.2byte	0x0
      fe:	0d15                	.2byte	0xd15
     100:	0300                	.2byte	0x300
     102:	3a0e                	.2byte	0x3a0e
     104:	39053b0b          	.4byte	0x39053b0b
     108:	3813490b          	.4byte	0x3813490b
     10c:	1600000b          	.4byte	0x1600000b
     110:	0b0b0117          	auipc	sp,0xb0b0
     114:	0b3a                	.2byte	0xb3a
     116:	0b39053b          	.4byte	0xb39053b
     11a:	1301                	.2byte	0x1301
     11c:	0000                	.2byte	0x0
     11e:	03001617          	auipc	a2,0x3001
     122:	3a0e                	.2byte	0x3a0e
     124:	39053b0b          	.4byte	0x39053b0b
     128:	0013490b          	.4byte	0x13490b
     12c:	1800                	.2byte	0x1800
     12e:	0101                	.2byte	0x101
     130:	1349                	.2byte	0x1349
     132:	1301                	.2byte	0x1301
     134:	0000                	.2byte	0x0
     136:	2119                	.2byte	0x2119
     138:	4900                	.2byte	0x4900
     13a:	000b2f13          	slti	t5,s6,0
     13e:	1a00                	.2byte	0x1a00
     140:	0034                	.2byte	0x34
     142:	0b3a0e03          	lb	t3,179(s4)
     146:	0b39053b          	.4byte	0xb39053b
     14a:	1349                	.2byte	0x1349
     14c:	193c193f 2e1b0000 	.8byte	0x2e1b0000193c193f
     154:	3f01                	.2byte	0x3f01
     156:	0319                	.2byte	0x319
     158:	3a0e                	.2byte	0x3a0e
     15a:	39053b0b          	.4byte	0x39053b0b
     15e:	4919270b          	.4byte	0x4919270b
     162:	12011113          	.4byte	0x12011113
     166:	4006                	.2byte	0x4006
     168:	7a18                	.2byte	0x7a18
     16a:	0119                	.2byte	0x119
     16c:	1c000013          	li	zero,448
     170:	011d                	.2byte	0x11d
     172:	1331                	.2byte	0x1331
     174:	0152                	.2byte	0x152
     176:	1755                	.2byte	0x1755
     178:	0b58                	.2byte	0xb58
     17a:	0559                	.2byte	0x559
     17c:	00000b57          	.4byte	0xb57
     180:	0b1d                	.2byte	0xb1d
     182:	5501                	.2byte	0x5501
     184:	1e000017          	auipc	zero,0x1e000
     188:	012e                	.2byte	0x12e
     18a:	0b3a0e03          	lb	t3,179(s4)
     18e:	0b39053b          	.4byte	0xb39053b
     192:	13491927          	.4byte	0x13491927
     196:	0b20                	.2byte	0xb20
     198:	1301                	.2byte	0x1301
     19a:	0000                	.2byte	0x0
     19c:	0f1f 0b00 490b      	.byte	0x1f, 0x0f, 0x00, 0x0b, 0x0b, 0x49
     1a2:	00000013          	nop
     1a6:	3401                	.2byte	0x3401
     1a8:	0300                	.2byte	0x300
     1aa:	3a08                	.2byte	0x3a08
     1ac:	0121                	.2byte	0x121
     1ae:	0b390b3b          	.4byte	0xb390b3b
     1b2:	1349                	.2byte	0x1349
     1b4:	1702                	.2byte	0x1702
     1b6:	0000                	.2byte	0x0
     1b8:	2402                	.2byte	0x2402
     1ba:	0b00                	.2byte	0xb00
     1bc:	030b3e0b          	.4byte	0x30b3e0b
     1c0:	000e                	.2byte	0xe
     1c2:	0300                	.2byte	0x300
     1c4:	000a                	.2byte	0xa
     1c6:	213a0e03          	lb	t3,531(s4)
     1ca:	3b01                	.2byte	0x3b01
     1cc:	2e21                	.2byte	0x2e21
     1ce:	2139                	.2byte	0x2139
     1d0:	00011103          	lh	sp,0(sp) # b0b0110 <__global_pointer$+0xb09c6c8>
     1d4:	0400                	.2byte	0x400
     1d6:	0034                	.2byte	0x34
     1d8:	213a0e03          	lb	t3,531(s4)
     1dc:	3b01                	.2byte	0x3b01
     1de:	0321390b          	.4byte	0x321390b
     1e2:	1349                	.2byte	0x1349
     1e4:	0000                	.2byte	0x0
     1e6:	0b05                	.2byte	0xb05
     1e8:	5501                	.2byte	0x5501
     1ea:	00130117          	auipc	sp,0x130
     1ee:	0600                	.2byte	0x600
     1f0:	0034                	.2byte	0x34
     1f2:	213a0e03          	lb	t3,531(s4)
     1f6:	3b01                	.2byte	0x3b01
     1f8:	0321390b          	.4byte	0x321390b
     1fc:	1349                	.2byte	0x1349
     1fe:	1702                	.2byte	0x1702
     200:	0000                	.2byte	0x0
     202:	03003407          	.4byte	0x3003407
     206:	3a08                	.2byte	0x3a08
     208:	0121                	.2byte	0x121
     20a:	21390b3b          	.4byte	0x21390b3b
     20e:	00134903          	lbu	s2,1(t1)
     212:	0800                	.2byte	0x800
     214:	000d                	.2byte	0xd
     216:	213a0e03          	lb	t3,531(s4)
     21a:	3b02                	.2byte	0x3b02
     21c:	0e21390b          	.4byte	0xe21390b
     220:	1349                	.2byte	0x1349
     222:	0b0d                	.2byte	0xb0d
     224:	00000b6b          	.4byte	0xb6b
     228:	0509                	.2byte	0x509
     22a:	0300                	.2byte	0x300
     22c:	3a08                	.2byte	0x3a08
     22e:	0121                	.2byte	0x121
     230:	3923213b          	.4byte	0x3923213b
     234:	0213490b          	.4byte	0x213490b
     238:	0a000017          	auipc	zero,0xa000
     23c:	0111                	.2byte	0x111
     23e:	0e25                	.2byte	0xe25
     240:	1f030b13          	addi	s6,t1,496
     244:	01111f1b          	.4byte	0x1111f1b
     248:	0612                	.2byte	0x612
     24a:	1710                	.2byte	0x1710
     24c:	0000                	.2byte	0x0
     24e:	0b00240b          	.4byte	0xb00240b
     252:	030b3e0b          	.4byte	0x30b3e0b
     256:	0008                	.2byte	0x8
     258:	0c00                	.2byte	0xc00
     25a:	0016                	.2byte	0x16
     25c:	0b3a0e03          	lb	t3,179(s4)
     260:	0b390b3b          	.4byte	0xb390b3b
     264:	1349                	.2byte	0x1349
     266:	0000                	.2byte	0x0
     268:	130d                	.2byte	0x130d
     26a:	0b01                	.2byte	0xb01
     26c:	3b0b3a0b          	.4byte	0x3b0b3a0b
     270:	010b390b          	.4byte	0x10b390b
     274:	0e000013          	li	zero,224
     278:	000d                	.2byte	0xd
     27a:	0b3a0803          	lb	a6,179(s4)
     27e:	0b390b3b          	.4byte	0xb390b3b
     282:	1349                	.2byte	0x1349
     284:	0b0d                	.2byte	0xb0d
     286:	00000b6b          	.4byte	0xb6b
     28a:	0301170f          	.4byte	0x301170f
     28e:	0b0e                	.2byte	0xb0e
     290:	3b0b3a0b          	.4byte	0x3b0b3a0b
     294:	010b390b          	.4byte	0x10b390b
     298:	10000013          	li	zero,256
     29c:	000d                	.2byte	0xd
     29e:	0b3a0803          	lb	a6,179(s4)
     2a2:	0b390b3b          	.4byte	0xb390b3b
     2a6:	1349                	.2byte	0x1349
     2a8:	0000                	.2byte	0x0
     2aa:	0d11                	.2byte	0xd11
     2ac:	0300                	.2byte	0x300
     2ae:	3a0e                	.2byte	0x3a0e
     2b0:	390b3b0b          	.4byte	0x390b3b0b
     2b4:	0013490b          	.4byte	0x13490b
     2b8:	1200                	.2byte	0x1200
     2ba:	012e                	.2byte	0x12e
     2bc:	0e03193f 0b3b0b3a 	.8byte	0xb3b0b3a0e03193f
     2c4:	0b39                	.2byte	0xb39
     2c6:	13491927          	.4byte	0x13491927
     2ca:	0111                	.2byte	0x111
     2cc:	0612                	.2byte	0x612
     2ce:	1840                	.2byte	0x1840
     2d0:	197a                	.2byte	0x197a
     2d2:	1301                	.2byte	0x1301
     2d4:	0000                	.2byte	0x0
     2d6:	03003413          	sltiu	s0,zero,48
     2da:	3a0e                	.2byte	0x3a0e
     2dc:	390b3b0b          	.4byte	0x390b3b0b
     2e0:	1c13490b          	.4byte	0x1c13490b
     2e4:	1400000b          	.4byte	0x1400000b
     2e8:	1755010b          	.4byte	0x1755010b
     2ec:	0000                	.2byte	0x0
     2ee:	4815                	.2byte	0x4815
     2f0:	7d00                	.2byte	0x7d00
     2f2:	7f01                	.2byte	0x7f01
     2f4:	16000013          	li	zero,352
     2f8:	0000010b          	.4byte	0x10b
     2fc:	11010b17          	auipc	s6,0x11010
     300:	1201                	.2byte	0x1201
     302:	0006                	.2byte	0x6
     304:	1800                	.2byte	0x1800
     306:	002e                	.2byte	0x2e
     308:	193c193f 0e030e6e 	.8byte	0xe030e6e193c193f
     310:	0000                	.2byte	0x0
     312:	0100                	.2byte	0x100
     314:	0034                	.2byte	0x34
     316:	213a0e03          	lb	t3,531(s4)
     31a:	3b01                	.2byte	0x3b01
     31c:	0321390b          	.4byte	0x321390b
     320:	1349                	.2byte	0x1349
     322:	1702                	.2byte	0x1702
     324:	0000                	.2byte	0x0
     326:	3402                	.2byte	0x3402
     328:	0300                	.2byte	0x300
     32a:	3a08                	.2byte	0x3a08
     32c:	0121                	.2byte	0x121
     32e:	0b390b3b          	.4byte	0xb390b3b
     332:	1349                	.2byte	0x1349
     334:	1702                	.2byte	0x1702
     336:	0000                	.2byte	0x0
     338:	0b002403          	lw	s0,176(zero) # b0 <exit-0xffe4>
     33c:	030b3e0b          	.4byte	0x30b3e0b
     340:	000e                	.2byte	0xe
     342:	0400                	.2byte	0x400
     344:	0034                	.2byte	0x34
     346:	213a0e03          	lb	t3,531(s4)
     34a:	3b01                	.2byte	0x3b01
     34c:	0321390b          	.4byte	0x321390b
     350:	1349                	.2byte	0x1349
     352:	0000                	.2byte	0x0
     354:	0b05                	.2byte	0xb05
     356:	5501                	.2byte	0x5501
     358:	00130117          	auipc	sp,0x130
     35c:	0600                	.2byte	0x600
     35e:	000d                	.2byte	0xd
     360:	213a0e03          	lb	t3,531(s4)
     364:	3b02                	.2byte	0x3b02
     366:	0e21390b          	.4byte	0xe21390b
     36a:	1349                	.2byte	0x1349
     36c:	0b0d                	.2byte	0xb0d
     36e:	00000b6b          	.4byte	0xb6b
     372:	03000507          	.4byte	0x3000507
     376:	3a08                	.2byte	0x3a08
     378:	0121                	.2byte	0x121
     37a:	3923213b          	.4byte	0x3923213b
     37e:	0213490b          	.4byte	0x213490b
     382:	08000017          	auipc	zero,0x8000
     386:	0048                	.2byte	0x48
     388:	017d                	.2byte	0x17d
     38a:	137f                	.2byte	0x137f
     38c:	0000                	.2byte	0x0
     38e:	0b09                	.2byte	0xb09
     390:	5501                	.2byte	0x5501
     392:	0a000017          	auipc	zero,0xa000
     396:	0111                	.2byte	0x111
     398:	0e25                	.2byte	0xe25
     39a:	1f030b13          	addi	s6,t1,496
     39e:	01111f1b          	.4byte	0x1111f1b
     3a2:	0612                	.2byte	0x612
     3a4:	1710                	.2byte	0x1710
     3a6:	0000                	.2byte	0x0
     3a8:	0b00240b          	.4byte	0xb00240b
     3ac:	030b3e0b          	.4byte	0x30b3e0b
     3b0:	0008                	.2byte	0x8
     3b2:	0c00                	.2byte	0xc00
     3b4:	0016                	.2byte	0x16
     3b6:	0b3a0e03          	lb	t3,179(s4)
     3ba:	0b390b3b          	.4byte	0xb390b3b
     3be:	1349                	.2byte	0x1349
     3c0:	0000                	.2byte	0x0
     3c2:	130d                	.2byte	0x130d
     3c4:	0b01                	.2byte	0xb01
     3c6:	3b0b3a0b          	.4byte	0x3b0b3a0b
     3ca:	010b390b          	.4byte	0x10b390b
     3ce:	0e000013          	li	zero,224
     3d2:	000d                	.2byte	0xd
     3d4:	0b3a0803          	lb	a6,179(s4)
     3d8:	0b390b3b          	.4byte	0xb390b3b
     3dc:	1349                	.2byte	0x1349
     3de:	0b0d                	.2byte	0xb0d
     3e0:	00000b6b          	.4byte	0xb6b
     3e4:	0301170f          	.4byte	0x301170f
     3e8:	0b0e                	.2byte	0xb0e
     3ea:	3b0b3a0b          	.4byte	0x3b0b3a0b
     3ee:	010b390b          	.4byte	0x10b390b
     3f2:	10000013          	li	zero,256
     3f6:	000d                	.2byte	0xd
     3f8:	0b3a0803          	lb	a6,179(s4)
     3fc:	0b390b3b          	.4byte	0xb390b3b
     400:	1349                	.2byte	0x1349
     402:	0000                	.2byte	0x0
     404:	0d11                	.2byte	0xd11
     406:	0300                	.2byte	0x300
     408:	3a0e                	.2byte	0x3a0e
     40a:	390b3b0b          	.4byte	0x390b3b0b
     40e:	0013490b          	.4byte	0x13490b
     412:	1200                	.2byte	0x1200
     414:	012e                	.2byte	0x12e
     416:	0e03193f 0b3b0b3a 	.8byte	0xb3b0b3a0e03193f
     41e:	0b39                	.2byte	0xb39
     420:	13491927          	.4byte	0x13491927
     424:	0111                	.2byte	0x111
     426:	0612                	.2byte	0x612
     428:	1840                	.2byte	0x1840
     42a:	197a                	.2byte	0x197a
     42c:	1301                	.2byte	0x1301
     42e:	0000                	.2byte	0x0
     430:	03003413          	sltiu	s0,zero,48
     434:	3a0e                	.2byte	0x3a0e
     436:	390b3b0b          	.4byte	0x390b3b0b
     43a:	1c13490b          	.4byte	0x1c13490b
     43e:	1400000b          	.4byte	0x1400000b
     442:	0111010b          	.4byte	0x111010b
     446:	0612                	.2byte	0x612
     448:	1301                	.2byte	0x1301
     44a:	0000                	.2byte	0x0
     44c:	0b15                	.2byte	0xb15
     44e:	0001                	.2byte	0x1
     450:	1600                	.2byte	0x1600
     452:	002e                	.2byte	0x2e
     454:	193c193f 0e030e6e 	.8byte	0xe030e6e193c193f
     45c:	0000                	.2byte	0x0
     45e:	0100                	.2byte	0x100
     460:	0024                	.2byte	0x24
     462:	0b3e0b0b          	.4byte	0xb3e0b0b
     466:	00000e03          	lb	t3,0(zero) # 0 <exit-0x10094>
     46a:	3402                	.2byte	0x3402
     46c:	0300                	.2byte	0x300
     46e:	3a08                	.2byte	0x3a08
     470:	0121                	.2byte	0x121
     472:	0b390b3b          	.4byte	0xb390b3b
     476:	1349                	.2byte	0x1349
     478:	1802                	.2byte	0x1802
     47a:	0000                	.2byte	0x0
     47c:	03003403          	.4byte	0x3003403
     480:	3a0e                	.2byte	0x3a0e
     482:	0121                	.2byte	0x121
     484:	21390b3b          	.4byte	0x21390b3b
     488:	00134903          	lbu	s2,1(t1)
     48c:	0400                	.2byte	0x400
     48e:	0016                	.2byte	0x16
     490:	0b3a0e03          	lb	t3,179(s4)
     494:	0b390b3b          	.4byte	0xb390b3b
     498:	1349                	.2byte	0x1349
     49a:	0000                	.2byte	0x0
     49c:	0d05                	.2byte	0xd05
     49e:	0300                	.2byte	0x300
     4a0:	3a0e                	.2byte	0x3a0e
     4a2:	0321                	.2byte	0x321
     4a4:	21390b3b          	.4byte	0x21390b3b
     4a8:	490e                	.2byte	0x490e
     4aa:	6b0b0d13          	addi	s10,s6,1712 # 110109ac <__global_pointer$+0x10ffcf64>
     4ae:	0600000b          	.4byte	0x600000b
     4b2:	0005                	.2byte	0x5
     4b4:	213a0803          	lb	a6,531(s4)
     4b8:	3b01                	.2byte	0x3b01
     4ba:	2321                	.2byte	0x2321
     4bc:	0b39                	.2byte	0xb39
     4be:	1349                	.2byte	0x1349
     4c0:	1702                	.2byte	0x1702
     4c2:	0000                	.2byte	0x0
     4c4:	03003407          	.4byte	0x3003407
     4c8:	3a0e                	.2byte	0x3a0e
     4ca:	0121                	.2byte	0x121
     4cc:	3925213b          	.4byte	0x3925213b
     4d0:	0321                	.2byte	0x321
     4d2:	1349                	.2byte	0x1349
     4d4:	211c                	.2byte	0x211c
     4d6:	0000                	.2byte	0x0
     4d8:	0800                	.2byte	0x800
     4da:	0034                	.2byte	0x34
     4dc:	213a0803          	lb	a6,531(s4)
     4e0:	3b01                	.2byte	0x3b01
     4e2:	0321390b          	.4byte	0x321390b
     4e6:	1349                	.2byte	0x1349
     4e8:	0000                	.2byte	0x0
     4ea:	0b09                	.2byte	0xb09
     4ec:	0101                	.2byte	0x101
     4ee:	0a000013          	li	zero,160
     4f2:	0034                	.2byte	0x34
     4f4:	213a0e03          	lb	t3,531(s4)
     4f8:	3b01                	.2byte	0x3b01
     4fa:	2d21                	.2byte	0x2d21
     4fc:	2139                	.2byte	0x2139
     4fe:	02134903          	lbu	s2,33(t1)
     502:	0b000017          	auipc	zero,0xb000
     506:	0111                	.2byte	0x111
     508:	0e25                	.2byte	0xe25
     50a:	1f030b13          	addi	s6,t1,496
     50e:	01111f1b          	.4byte	0x1111f1b
     512:	0612                	.2byte	0x612
     514:	1710                	.2byte	0x1710
     516:	0000                	.2byte	0x0
     518:	240c                	.2byte	0x240c
     51a:	0b00                	.2byte	0xb00
     51c:	030b3e0b          	.4byte	0x30b3e0b
     520:	0008                	.2byte	0x8
     522:	0d00                	.2byte	0xd00
     524:	0b0b0113          	addi	sp,s6,176
     528:	0b3a                	.2byte	0xb3a
     52a:	0b390b3b          	.4byte	0xb390b3b
     52e:	1301                	.2byte	0x1301
     530:	0000                	.2byte	0x0
     532:	0d0e                	.2byte	0xd0e
     534:	0300                	.2byte	0x300
     536:	3a08                	.2byte	0x3a08
     538:	390b3b0b          	.4byte	0x390b3b0b
     53c:	0d13490b          	.4byte	0xd13490b
     540:	000b6b0b          	.4byte	0xb6b0b
     544:	0f00                	.2byte	0xf00
     546:	0e030117          	auipc	sp,0xe030
     54a:	0b3a0b0b          	.4byte	0xb3a0b0b
     54e:	0b390b3b          	.4byte	0xb390b3b
     552:	1301                	.2byte	0x1301
     554:	0000                	.2byte	0x0
     556:	0d10                	.2byte	0xd10
     558:	0300                	.2byte	0x300
     55a:	3a08                	.2byte	0x3a08
     55c:	390b3b0b          	.4byte	0x390b3b0b
     560:	0013490b          	.4byte	0x13490b
     564:	1100                	.2byte	0x1100
     566:	000d                	.2byte	0xd
     568:	0b3a0e03          	lb	t3,179(s4)
     56c:	0b390b3b          	.4byte	0xb390b3b
     570:	1349                	.2byte	0x1349
     572:	0000                	.2byte	0x0
     574:	2e12                	.2byte	0x2e12
     576:	3f01                	.2byte	0x3f01
     578:	0319                	.2byte	0x319
     57a:	3a0e                	.2byte	0x3a0e
     57c:	390b3b0b          	.4byte	0x390b3b0b
     580:	4919270b          	.4byte	0x4919270b
     584:	12011113          	.4byte	0x12011113
     588:	4006                	.2byte	0x4006
     58a:	7a18                	.2byte	0x7a18
     58c:	0119                	.2byte	0x119
     58e:	13000013          	li	zero,304
     592:	0034                	.2byte	0x34
     594:	0b3a0803          	lb	a6,179(s4)
     598:	0b390b3b          	.4byte	0xb390b3b
     59c:	1349                	.2byte	0x1349
     59e:	1702                	.2byte	0x1702
     5a0:	0000                	.2byte	0x0
     5a2:	0b14                	.2byte	0xb14
     5a4:	1101                	.2byte	0x1101
     5a6:	1201                	.2byte	0x1201
     5a8:	0106                	.2byte	0x106
     5aa:	15000013          	li	zero,336
     5ae:	1755010b          	.4byte	0x1755010b
     5b2:	1301                	.2byte	0x1301
     5b4:	0000                	.2byte	0x0
     5b6:	0b16                	.2byte	0xb16
     5b8:	5501                	.2byte	0x5501
     5ba:	00000017          	auipc	zero,0x0
     5be:	3401                	.2byte	0x3401
     5c0:	0300                	.2byte	0x300
     5c2:	3a0e                	.2byte	0x3a0e
     5c4:	0121                	.2byte	0x121
     5c6:	21390b3b          	.4byte	0x21390b3b
     5ca:	02134903          	lbu	s2,33(t1)
     5ce:	02000017          	auipc	zero,0x2000
     5d2:	0034                	.2byte	0x34
     5d4:	213a0803          	lb	a6,531(s4)
     5d8:	3b01                	.2byte	0x3b01
     5da:	490b390b          	.4byte	0x490b390b
     5de:	00170213          	addi	tp,a4,1
     5e2:	0300                	.2byte	0x300
     5e4:	0024                	.2byte	0x24
     5e6:	0b3e0b0b          	.4byte	0xb3e0b0b
     5ea:	00000e03          	lb	t3,0(zero) # 0 <exit-0x10094>
     5ee:	3404                	.2byte	0x3404
     5f0:	0300                	.2byte	0x300
     5f2:	3a0e                	.2byte	0x3a0e
     5f4:	0121                	.2byte	0x121
     5f6:	21390b3b          	.4byte	0x21390b3b
     5fa:	00134903          	lbu	s2,1(t1)
     5fe:	0500                	.2byte	0x500
     600:	1755010b          	.4byte	0x1755010b
     604:	1301                	.2byte	0x1301
     606:	0000                	.2byte	0x0
     608:	0d06                	.2byte	0xd06
     60a:	0300                	.2byte	0x300
     60c:	3a0e                	.2byte	0x3a0e
     60e:	0321                	.2byte	0x321
     610:	21390b3b          	.4byte	0x21390b3b
     614:	490e                	.2byte	0x490e
     616:	6b0b0d13          	addi	s10,s6,1712
     61a:	0700000b          	.4byte	0x700000b
     61e:	0005                	.2byte	0x5
     620:	213a0803          	lb	a6,531(s4)
     624:	3b01                	.2byte	0x3b01
     626:	2321                	.2byte	0x2321
     628:	0b39                	.2byte	0xb39
     62a:	1349                	.2byte	0x1349
     62c:	1702                	.2byte	0x1702
     62e:	0000                	.2byte	0x0
     630:	4808                	.2byte	0x4808
     632:	7d00                	.2byte	0x7d00
     634:	7f01                	.2byte	0x7f01
     636:	09000013          	li	zero,144
     63a:	0111010b          	.4byte	0x111010b
     63e:	0612                	.2byte	0x612
     640:	1301                	.2byte	0x1301
     642:	0000                	.2byte	0x0
     644:	0b0a                	.2byte	0xb0a
     646:	5501                	.2byte	0x5501
     648:	0b000017          	auipc	zero,0xb000
     64c:	0111                	.2byte	0x111
     64e:	0e25                	.2byte	0xe25
     650:	1f030b13          	addi	s6,t1,496
     654:	01111f1b          	.4byte	0x1111f1b
     658:	0612                	.2byte	0x612
     65a:	1710                	.2byte	0x1710
     65c:	0000                	.2byte	0x0
     65e:	240c                	.2byte	0x240c
     660:	0b00                	.2byte	0xb00
     662:	030b3e0b          	.4byte	0x30b3e0b
     666:	0008                	.2byte	0x8
     668:	0d00                	.2byte	0xd00
     66a:	0016                	.2byte	0x16
     66c:	0b3a0e03          	lb	t3,179(s4)
     670:	0b39053b          	.4byte	0xb39053b
     674:	1349                	.2byte	0x1349
     676:	0000                	.2byte	0x0
     678:	160e                	.2byte	0x160e
     67a:	0300                	.2byte	0x300
     67c:	3a0e                	.2byte	0x3a0e
     67e:	390b3b0b          	.4byte	0x390b3b0b
     682:	0013490b          	.4byte	0x13490b
     686:	0f00                	.2byte	0xf00
     688:	0b0b0113          	addi	sp,s6,176
     68c:	0b3a                	.2byte	0xb3a
     68e:	0b390b3b          	.4byte	0xb390b3b
     692:	1301                	.2byte	0x1301
     694:	0000                	.2byte	0x0
     696:	0d10                	.2byte	0xd10
     698:	0300                	.2byte	0x300
     69a:	3a08                	.2byte	0x3a08
     69c:	390b3b0b          	.4byte	0x390b3b0b
     6a0:	0d13490b          	.4byte	0xd13490b
     6a4:	000b6b0b          	.4byte	0xb6b0b
     6a8:	1100                	.2byte	0x1100
     6aa:	0e030117          	auipc	sp,0xe030
     6ae:	0b3a0b0b          	.4byte	0xb3a0b0b
     6b2:	0b390b3b          	.4byte	0xb390b3b
     6b6:	1301                	.2byte	0x1301
     6b8:	0000                	.2byte	0x0
     6ba:	0d12                	.2byte	0xd12
     6bc:	0300                	.2byte	0x300
     6be:	3a08                	.2byte	0x3a08
     6c0:	390b3b0b          	.4byte	0x390b3b0b
     6c4:	0013490b          	.4byte	0x13490b
     6c8:	1300                	.2byte	0x1300
     6ca:	000d                	.2byte	0xd
     6cc:	0b3a0e03          	lb	t3,179(s4)
     6d0:	0b390b3b          	.4byte	0xb390b3b
     6d4:	1349                	.2byte	0x1349
     6d6:	0000                	.2byte	0x0
     6d8:	2e14                	.2byte	0x2e14
     6da:	3f01                	.2byte	0x3f01
     6dc:	0319                	.2byte	0x319
     6de:	3a0e                	.2byte	0x3a0e
     6e0:	390b3b0b          	.4byte	0x390b3b0b
     6e4:	4919270b          	.4byte	0x4919270b
     6e8:	12011113          	.4byte	0x12011113
     6ec:	4006                	.2byte	0x4006
     6ee:	7a18                	.2byte	0x7a18
     6f0:	0119                	.2byte	0x119
     6f2:	15000013          	li	zero,336
     6f6:	0034                	.2byte	0x34
     6f8:	0b3a0e03          	lb	t3,179(s4)
     6fc:	0b390b3b          	.4byte	0xb390b3b
     700:	1349                	.2byte	0x1349
     702:	0b1c                	.2byte	0xb1c
     704:	0000                	.2byte	0x0
     706:	0b16                	.2byte	0xb16
     708:	0001                	.2byte	0x1
     70a:	1700                	.2byte	0x1700
     70c:	002e                	.2byte	0x2e
     70e:	193c193f 0e030e6e 	.8byte	0xe030e6e193c193f
     716:	0000                	.2byte	0x0
     718:	0100                	.2byte	0x100
     71a:	0034                	.2byte	0x34
     71c:	213a0803          	lb	a6,531(s4)
     720:	3b01                	.2byte	0x3b01
     722:	490b390b          	.4byte	0x490b390b
     726:	00170213          	addi	tp,a4,1
     72a:	0200                	.2byte	0x200
     72c:	0024                	.2byte	0x24
     72e:	0b3e0b0b          	.4byte	0xb3e0b0b
     732:	00000e03          	lb	t3,0(zero) # 0 <exit-0x10094>
     736:	03000a03          	lb	s4,48(zero) # 30 <exit-0x10064>
     73a:	3a0e                	.2byte	0x3a0e
     73c:	0121                	.2byte	0x121
     73e:	392e213b          	.4byte	0x392e213b
     742:	0321                	.2byte	0x321
     744:	0111                	.2byte	0x111
     746:	0000                	.2byte	0x0
     748:	3404                	.2byte	0x3404
     74a:	0300                	.2byte	0x300
     74c:	3a0e                	.2byte	0x3a0e
     74e:	0121                	.2byte	0x121
     750:	21390b3b          	.4byte	0x21390b3b
     754:	00134903          	lbu	s2,1(t1)
     758:	0500                	.2byte	0x500
     75a:	1755010b          	.4byte	0x1755010b
     75e:	1301                	.2byte	0x1301
     760:	0000                	.2byte	0x0
     762:	3406                	.2byte	0x3406
     764:	0300                	.2byte	0x300
     766:	3a0e                	.2byte	0x3a0e
     768:	0121                	.2byte	0x121
     76a:	21390b3b          	.4byte	0x21390b3b
     76e:	02134903          	lbu	s2,33(t1)
     772:	07000017          	auipc	zero,0x7000
     776:	0034                	.2byte	0x34
     778:	213a0803          	lb	a6,531(s4)
     77c:	3b01                	.2byte	0x3b01
     77e:	0321390b          	.4byte	0x321390b
     782:	1349                	.2byte	0x1349
     784:	0000                	.2byte	0x0
     786:	0d08                	.2byte	0xd08
     788:	0300                	.2byte	0x300
     78a:	3a0e                	.2byte	0x3a0e
     78c:	0221                	.2byte	0x221
     78e:	21390b3b          	.4byte	0x21390b3b
     792:	490e                	.2byte	0x490e
     794:	6b0b0d13          	addi	s10,s6,1712
     798:	0900000b          	.4byte	0x900000b
     79c:	0005                	.2byte	0x5
     79e:	213a0803          	lb	a6,531(s4)
     7a2:	3b01                	.2byte	0x3b01
     7a4:	2321                	.2byte	0x2321
     7a6:	0b39                	.2byte	0xb39
     7a8:	1349                	.2byte	0x1349
     7aa:	1702                	.2byte	0x1702
     7ac:	0000                	.2byte	0x0
     7ae:	0b0a                	.2byte	0xb0a
     7b0:	5501                	.2byte	0x5501
     7b2:	0b000017          	auipc	zero,0xb000
     7b6:	0111                	.2byte	0x111
     7b8:	0e25                	.2byte	0xe25
     7ba:	1f030b13          	addi	s6,t1,496
     7be:	01111f1b          	.4byte	0x1111f1b
     7c2:	0612                	.2byte	0x612
     7c4:	1710                	.2byte	0x1710
     7c6:	0000                	.2byte	0x0
     7c8:	240c                	.2byte	0x240c
     7ca:	0b00                	.2byte	0xb00
     7cc:	030b3e0b          	.4byte	0x30b3e0b
     7d0:	0008                	.2byte	0x8
     7d2:	0d00                	.2byte	0xd00
     7d4:	0016                	.2byte	0x16
     7d6:	0b3a0e03          	lb	t3,179(s4)
     7da:	0b390b3b          	.4byte	0xb390b3b
     7de:	1349                	.2byte	0x1349
     7e0:	0000                	.2byte	0x0
     7e2:	130e                	.2byte	0x130e
     7e4:	0b01                	.2byte	0xb01
     7e6:	3b0b3a0b          	.4byte	0x3b0b3a0b
     7ea:	010b390b          	.4byte	0x10b390b
     7ee:	0f000013          	li	zero,240
     7f2:	000d                	.2byte	0xd
     7f4:	0b3a0803          	lb	a6,179(s4)
     7f8:	0b390b3b          	.4byte	0xb390b3b
     7fc:	1349                	.2byte	0x1349
     7fe:	0b0d                	.2byte	0xb0d
     800:	00000b6b          	.4byte	0xb6b
     804:	1710                	.2byte	0x1710
     806:	0301                	.2byte	0x301
     808:	0b0e                	.2byte	0xb0e
     80a:	3b0b3a0b          	.4byte	0x3b0b3a0b
     80e:	010b390b          	.4byte	0x10b390b
     812:	11000013          	li	zero,272
     816:	000d                	.2byte	0xd
     818:	0b3a0803          	lb	a6,179(s4)
     81c:	0b390b3b          	.4byte	0xb390b3b
     820:	1349                	.2byte	0x1349
     822:	0000                	.2byte	0x0
     824:	0d12                	.2byte	0xd12
     826:	0300                	.2byte	0x300
     828:	3a0e                	.2byte	0x3a0e
     82a:	390b3b0b          	.4byte	0x390b3b0b
     82e:	0013490b          	.4byte	0x13490b
     832:	1300                	.2byte	0x1300
     834:	012e                	.2byte	0x12e
     836:	0e03193f 0b3b0b3a 	.8byte	0xb3b0b3a0e03193f
     83e:	0b39                	.2byte	0xb39
     840:	13491927          	.4byte	0x13491927
     844:	0111                	.2byte	0x111
     846:	0612                	.2byte	0x612
     848:	1840                	.2byte	0x1840
     84a:	197a                	.2byte	0x197a
     84c:	1301                	.2byte	0x1301
     84e:	0000                	.2byte	0x0
     850:	3414                	.2byte	0x3414
     852:	0300                	.2byte	0x300
     854:	3a0e                	.2byte	0x3a0e
     856:	390b3b0b          	.4byte	0x390b3b0b
     85a:	1c13490b          	.4byte	0x1c13490b
     85e:	1500000b          	.4byte	0x1500000b
     862:	0048                	.2byte	0x48
     864:	017d                	.2byte	0x17d
     866:	137f                	.2byte	0x137f
     868:	0000                	.2byte	0x0
     86a:	0b16                	.2byte	0xb16
     86c:	0001                	.2byte	0x1
     86e:	1700                	.2byte	0x1700
     870:	002e                	.2byte	0x2e
     872:	193c193f 0e030e6e 	.8byte	0xe030e6e193c193f
     87a:	0000                	.2byte	0x0
     87c:	0100                	.2byte	0x100
     87e:	0024                	.2byte	0x24
     880:	0b3e0b0b          	.4byte	0xb3e0b0b
     884:	00000e03          	lb	t3,0(zero) # 0 <exit-0x10094>
     888:	3402                	.2byte	0x3402
     88a:	0300                	.2byte	0x300
     88c:	3a08                	.2byte	0x3a08
     88e:	0121                	.2byte	0x121
     890:	0b390b3b          	.4byte	0xb390b3b
     894:	1349                	.2byte	0x1349
     896:	1702                	.2byte	0x1702
     898:	0000                	.2byte	0x0
     89a:	03001603          	lh	a2,48(zero) # 30 <exit-0x10064>
     89e:	3a0e                	.2byte	0x3a0e
     8a0:	0221                	.2byte	0x221
     8a2:	0b39053b          	.4byte	0xb39053b
     8a6:	1349                	.2byte	0x1349
     8a8:	0000                	.2byte	0x0
     8aa:	0d04                	.2byte	0xd04
     8ac:	0300                	.2byte	0x300
     8ae:	3a0e                	.2byte	0x3a0e
     8b0:	0321                	.2byte	0x321
     8b2:	21390b3b          	.4byte	0x21390b3b
     8b6:	490e                	.2byte	0x490e
     8b8:	6b0b0d13          	addi	s10,s6,1712
     8bc:	0500000b          	.4byte	0x500000b
     8c0:	0034                	.2byte	0x34
     8c2:	213a0e03          	lb	t3,531(s4)
     8c6:	3b01                	.2byte	0x3b01
     8c8:	0321390b          	.4byte	0x321390b
     8cc:	1349                	.2byte	0x1349
     8ce:	1702                	.2byte	0x1702
     8d0:	0000                	.2byte	0x0
     8d2:	3406                	.2byte	0x3406
     8d4:	0300                	.2byte	0x300
     8d6:	3a0e                	.2byte	0x3a0e
     8d8:	0121                	.2byte	0x121
     8da:	21390b3b          	.4byte	0x21390b3b
     8de:	00134903          	lbu	s2,1(t1)
     8e2:	0700                	.2byte	0x700
     8e4:	0111                	.2byte	0x111
     8e6:	0e25                	.2byte	0xe25
     8e8:	1f030b13          	addi	s6,t1,496
     8ec:	01111f1b          	.4byte	0x1111f1b
     8f0:	0612                	.2byte	0x612
     8f2:	1710                	.2byte	0x1710
     8f4:	0000                	.2byte	0x0
     8f6:	2408                	.2byte	0x2408
     8f8:	0b00                	.2byte	0xb00
     8fa:	030b3e0b          	.4byte	0x30b3e0b
     8fe:	0008                	.2byte	0x8
     900:	0900                	.2byte	0x900
     902:	0016                	.2byte	0x16
     904:	0b3a0e03          	lb	t3,179(s4)
     908:	0b390b3b          	.4byte	0xb390b3b
     90c:	1349                	.2byte	0x1349
     90e:	0000                	.2byte	0x0
     910:	130a                	.2byte	0x130a
     912:	0b01                	.2byte	0xb01
     914:	3b0b3a0b          	.4byte	0x3b0b3a0b
     918:	010b390b          	.4byte	0x10b390b
     91c:	0b000013          	li	zero,176
     920:	000d                	.2byte	0xd
     922:	0b3a0803          	lb	a6,179(s4)
     926:	0b390b3b          	.4byte	0xb390b3b
     92a:	1349                	.2byte	0x1349
     92c:	0b0d                	.2byte	0xb0d
     92e:	00000b6b          	.4byte	0xb6b
     932:	170c                	.2byte	0x170c
     934:	0301                	.2byte	0x301
     936:	0b0e                	.2byte	0xb0e
     938:	3b0b3a0b          	.4byte	0x3b0b3a0b
     93c:	010b390b          	.4byte	0x10b390b
     940:	0d000013          	li	zero,208
     944:	000d                	.2byte	0xd
     946:	0b3a0803          	lb	a6,179(s4)
     94a:	0b390b3b          	.4byte	0xb390b3b
     94e:	1349                	.2byte	0x1349
     950:	0000                	.2byte	0x0
     952:	0d0e                	.2byte	0xd0e
     954:	0300                	.2byte	0x300
     956:	3a0e                	.2byte	0x3a0e
     958:	390b3b0b          	.4byte	0x390b3b0b
     95c:	0013490b          	.4byte	0x13490b
     960:	0f00                	.2byte	0xf00
     962:	012e                	.2byte	0x12e
     964:	0e03193f 0b3b0b3a 	.8byte	0xb3b0b3a0e03193f
     96c:	0b39                	.2byte	0xb39
     96e:	13491927          	.4byte	0x13491927
     972:	0111                	.2byte	0x111
     974:	0612                	.2byte	0x612
     976:	1840                	.2byte	0x1840
     978:	197a                	.2byte	0x197a
     97a:	1301                	.2byte	0x1301
     97c:	0000                	.2byte	0x0
     97e:	0510                	.2byte	0x510
     980:	0300                	.2byte	0x300
     982:	3a08                	.2byte	0x3a08
     984:	390b3b0b          	.4byte	0x390b3b0b
     988:	0213490b          	.4byte	0x213490b
     98c:	11000017          	auipc	zero,0x11000
     990:	0034                	.2byte	0x34
     992:	0b3a0e03          	lb	t3,179(s4)
     996:	0b390b3b          	.4byte	0xb390b3b
     99a:	1349                	.2byte	0x1349
     99c:	0b1c                	.2byte	0xb1c
     99e:	0000                	.2byte	0x0
     9a0:	3412                	.2byte	0x3412
     9a2:	0300                	.2byte	0x300
     9a4:	3a08                	.2byte	0x3a08
     9a6:	390b3b0b          	.4byte	0x390b3b0b
     9aa:	0013490b          	.4byte	0x13490b
     9ae:	1300                	.2byte	0x1300
     9b0:	0034                	.2byte	0x34
     9b2:	0b3a0803          	lb	a6,179(s4)
     9b6:	0b390b3b          	.4byte	0xb390b3b
     9ba:	1349                	.2byte	0x1349
     9bc:	1802                	.2byte	0x1802
     9be:	0000                	.2byte	0x0
     9c0:	0b14                	.2byte	0xb14
     9c2:	5501                	.2byte	0x5501
     9c4:	00130117          	auipc	sp,0x130
     9c8:	1500                	.2byte	0x1500
     9ca:	1301010b          	.4byte	0x1301010b
     9ce:	0000                	.2byte	0x0
     9d0:	0b16                	.2byte	0xb16
     9d2:	1101                	.2byte	0x1101
     9d4:	1201                	.2byte	0x1201
     9d6:	0006                	.2byte	0x6
     9d8:	0000                	.2byte	0x0
     9da:	2401                	.2byte	0x2401
     9dc:	0b00                	.2byte	0xb00
     9de:	030b3e0b          	.4byte	0x30b3e0b
     9e2:	000e                	.2byte	0xe
     9e4:	0200                	.2byte	0x200
     9e6:	0034                	.2byte	0x34
     9e8:	213a0e03          	lb	t3,531(s4)
     9ec:	3b01                	.2byte	0x3b01
     9ee:	0321390b          	.4byte	0x321390b
     9f2:	1349                	.2byte	0x1349
     9f4:	0000                	.2byte	0x0
     9f6:	03003403          	.4byte	0x3003403
     9fa:	3a0e                	.2byte	0x3a0e
     9fc:	0121                	.2byte	0x121
     9fe:	21390b3b          	.4byte	0x21390b3b
     a02:	02134903          	lbu	s2,33(t1)
     a06:	04000017          	auipc	zero,0x4000
     a0a:	0034                	.2byte	0x34
     a0c:	213a0803          	lb	a6,531(s4)
     a10:	3b01                	.2byte	0x3b01
     a12:	490b390b          	.4byte	0x490b390b
     a16:	00170213          	addi	tp,a4,1
     a1a:	0500                	.2byte	0x500
     a1c:	1755010b          	.4byte	0x1755010b
     a20:	0000                	.2byte	0x0
     a22:	1606                	.2byte	0x1606
     a24:	0300                	.2byte	0x300
     a26:	3a0e                	.2byte	0x3a0e
     a28:	0221                	.2byte	0x221
     a2a:	0b39053b          	.4byte	0xb39053b
     a2e:	1349                	.2byte	0x1349
     a30:	0000                	.2byte	0x0
     a32:	03000d07          	.4byte	0x3000d07
     a36:	3a0e                	.2byte	0x3a0e
     a38:	0321                	.2byte	0x321
     a3a:	21390b3b          	.4byte	0x21390b3b
     a3e:	490e                	.2byte	0x490e
     a40:	6b0b0d13          	addi	s10,s6,1712
     a44:	0800000b          	.4byte	0x800000b
     a48:	1755010b          	.4byte	0x1755010b
     a4c:	1301                	.2byte	0x1301
     a4e:	0000                	.2byte	0x0
     a50:	1109                	.2byte	0x1109
     a52:	2501                	.2byte	0x2501
     a54:	130e                	.2byte	0x130e
     a56:	1b1f030b          	.4byte	0x1b1f030b
     a5a:	111f 1201 1006      	.byte	0x1f, 0x11, 0x01, 0x12, 0x06, 0x10
     a60:	0a000017          	auipc	zero,0xa000
     a64:	0024                	.2byte	0x24
     a66:	0b3e0b0b          	.4byte	0xb3e0b0b
     a6a:	00000803          	lb	a6,0(zero) # 0 <exit-0x10094>
     a6e:	0300160b          	.4byte	0x300160b
     a72:	3a0e                	.2byte	0x3a0e
     a74:	390b3b0b          	.4byte	0x390b3b0b
     a78:	0013490b          	.4byte	0x13490b
     a7c:	0c00                	.2byte	0xc00
     a7e:	0b0b0113          	addi	sp,s6,176
     a82:	0b3a                	.2byte	0xb3a
     a84:	0b390b3b          	.4byte	0xb390b3b
     a88:	1301                	.2byte	0x1301
     a8a:	0000                	.2byte	0x0
     a8c:	0d0d                	.2byte	0xd0d
     a8e:	0300                	.2byte	0x300
     a90:	3a08                	.2byte	0x3a08
     a92:	390b3b0b          	.4byte	0x390b3b0b
     a96:	0d13490b          	.4byte	0xd13490b
     a9a:	000b6b0b          	.4byte	0xb6b0b
     a9e:	0e00                	.2byte	0xe00
     aa0:	0e030117          	auipc	sp,0xe030
     aa4:	0b3a0b0b          	.4byte	0xb3a0b0b
     aa8:	0b390b3b          	.4byte	0xb390b3b
     aac:	1301                	.2byte	0x1301
     aae:	0000                	.2byte	0x0
     ab0:	03000d0f          	.4byte	0x3000d0f
     ab4:	3a08                	.2byte	0x3a08
     ab6:	390b3b0b          	.4byte	0x390b3b0b
     aba:	0013490b          	.4byte	0x13490b
     abe:	1000                	.2byte	0x1000
     ac0:	000d                	.2byte	0xd
     ac2:	0b3a0e03          	lb	t3,179(s4)
     ac6:	0b390b3b          	.4byte	0xb390b3b
     aca:	1349                	.2byte	0x1349
     acc:	0000                	.2byte	0x0
     ace:	2e11                	.2byte	0x2e11
     ad0:	3f01                	.2byte	0x3f01
     ad2:	0319                	.2byte	0x319
     ad4:	3a0e                	.2byte	0x3a0e
     ad6:	390b3b0b          	.4byte	0x390b3b0b
     ada:	4919270b          	.4byte	0x4919270b
     ade:	12011113          	.4byte	0x12011113
     ae2:	4006                	.2byte	0x4006
     ae4:	7a18                	.2byte	0x7a18
     ae6:	0119                	.2byte	0x119
     ae8:	12000013          	li	zero,288
     aec:	0005                	.2byte	0x5
     aee:	0b3a0803          	lb	a6,179(s4)
     af2:	0b390b3b          	.4byte	0xb390b3b
     af6:	1349                	.2byte	0x1349
     af8:	1702                	.2byte	0x1702
     afa:	0000                	.2byte	0x0
     afc:	03003413          	sltiu	s0,zero,48
     b00:	3a0e                	.2byte	0x3a0e
     b02:	390b3b0b          	.4byte	0x390b3b0b
     b06:	1c13490b          	.4byte	0x1c13490b
     b0a:	1400000b          	.4byte	0x1400000b
     b0e:	0034                	.2byte	0x34
     b10:	0b3a0803          	lb	a6,179(s4)
     b14:	0b390b3b          	.4byte	0xb390b3b
     b18:	1349                	.2byte	0x1349
     b1a:	0000                	.2byte	0x0
     b1c:	0a15                	.2byte	0xa15
     b1e:	0300                	.2byte	0x300
     b20:	3a0e                	.2byte	0x3a0e
     b22:	390b3b0b          	.4byte	0x390b3b0b
     b26:	0001110b          	.4byte	0x1110b
     b2a:	1600                	.2byte	0x1600
     b2c:	0048                	.2byte	0x48
     b2e:	017d                	.2byte	0x17d
     b30:	137f                	.2byte	0x137f
     b32:	0000                	.2byte	0x0
     b34:	00010b17          	auipc	s6,0x10
     b38:	1800                	.2byte	0x1800
     b3a:	002e                	.2byte	0x2e
     b3c:	193c193f 0e030e6e 	.8byte	0xe030e6e193c193f
     b44:	0000                	.2byte	0x0
     b46:	0100                	.2byte	0x100
     b48:	0024                	.2byte	0x24
     b4a:	0b3e0b0b          	.4byte	0xb3e0b0b
     b4e:	00000e03          	lb	t3,0(zero) # 0 <exit-0x10094>
     b52:	2602                	.2byte	0x2602
     b54:	4900                	.2byte	0x4900
     b56:	03000013          	li	zero,48
     b5a:	0111                	.2byte	0x111
     b5c:	0e25                	.2byte	0xe25
     b5e:	1f030b13          	addi	s6,t1,496
     b62:	17101f1b          	.4byte	0x17101f1b
     b66:	0000                	.2byte	0x0
     b68:	2404                	.2byte	0x2404
     b6a:	0b00                	.2byte	0xb00
     b6c:	030b3e0b          	.4byte	0x30b3e0b
     b70:	0008                	.2byte	0x8
     b72:	0500                	.2byte	0x500
     b74:	0016                	.2byte	0x16
     b76:	0b3a0e03          	lb	t3,179(s4)
     b7a:	0b390b3b          	.4byte	0xb390b3b
     b7e:	1349                	.2byte	0x1349
     b80:	0000                	.2byte	0x0
     b82:	0106                	.2byte	0x106
     b84:	4901                	.2byte	0x4901
     b86:	00130113          	addi	sp,t1,1
     b8a:	0700                	.2byte	0x700
     b8c:	0021                	.2byte	0x21
     b8e:	1349                	.2byte	0x1349
     b90:	00000b2f          	.4byte	0xb2f
     b94:	3408                	.2byte	0x3408
     b96:	0300                	.2byte	0x300
     b98:	3a0e                	.2byte	0x3a0e
     b9a:	39053b0b          	.4byte	0x39053b0b
     b9e:	3f13490b          	.4byte	0x3f13490b
     ba2:	3c19                	.2byte	0x3c19
     ba4:	0019                	.2byte	0x19
     ba6:	0900                	.2byte	0x900
     ba8:	0034                	.2byte	0x34
     baa:	0b3a1347          	.4byte	0xb3a1347
     bae:	0b39053b          	.4byte	0xb39053b
     bb2:	1802                	.2byte	0x1802
     bb4:	0000                	.2byte	0x0
     bb6:	0100                	.2byte	0x100
     bb8:	0024                	.2byte	0x24
     bba:	0b3e0b0b          	.4byte	0xb3e0b0b
     bbe:	00000e03          	lb	t3,0(zero) # 0 <exit-0x10094>
     bc2:	1602                	.2byte	0x1602
     bc4:	0300                	.2byte	0x300
     bc6:	3a0e                	.2byte	0x3a0e
     bc8:	0221                	.2byte	0x221
     bca:	0b390b3b          	.4byte	0xb390b3b
     bce:	1349                	.2byte	0x1349
     bd0:	0000                	.2byte	0x0
     bd2:	49002603          	lw	a2,1168(zero) # 490 <exit-0xfc04>
     bd6:	04000013          	li	zero,64
     bda:	0111                	.2byte	0x111
     bdc:	0e25                	.2byte	0xe25
     bde:	1f030b13          	addi	s6,t1,496
     be2:	01111f1b          	.4byte	0x1111f1b
     be6:	0612                	.2byte	0x612
     be8:	1710                	.2byte	0x1710
     bea:	0000                	.2byte	0x0
     bec:	2405                	.2byte	0x2405
     bee:	0b00                	.2byte	0xb00
     bf0:	030b3e0b          	.4byte	0x30b3e0b
     bf4:	0008                	.2byte	0x8
     bf6:	0600                	.2byte	0x600
     bf8:	0101                	.2byte	0x101
     bfa:	1349                	.2byte	0x1349
     bfc:	1301                	.2byte	0x1301
     bfe:	0000                	.2byte	0x0
     c00:	49002107          	.4byte	0x49002107
     c04:	000b2f13          	slti	t5,s6,0
     c08:	0800                	.2byte	0x800
     c0a:	0034                	.2byte	0x34
     c0c:	0b3a0e03          	lb	t3,179(s4)
     c10:	0b39053b          	.4byte	0xb39053b
     c14:	1349                	.2byte	0x1349
     c16:	193c193f 2e090000 	.8byte	0x2e090000193c193f
     c1e:	3f01                	.2byte	0x3f01
     c20:	0319                	.2byte	0x319
     c22:	3a0e                	.2byte	0x3a0e
     c24:	39053b0b          	.4byte	0x39053b0b
     c28:	4919270b          	.4byte	0x4919270b
     c2c:	12011113          	.4byte	0x12011113
     c30:	4006                	.2byte	0x4006
     c32:	7a18                	.2byte	0x7a18
     c34:	0019                	.2byte	0x19
     c36:	0a00                	.2byte	0xa00
     c38:	0005                	.2byte	0x5
     c3a:	0b3a0803          	lb	a6,179(s4)
     c3e:	0b39053b          	.4byte	0xb39053b
     c42:	1349                	.2byte	0x1349
     c44:	1702                	.2byte	0x1702
     c46:	0000                	.2byte	0x0
     c48:	0300340b          	.4byte	0x300340b
     c4c:	3a08                	.2byte	0x3a08
     c4e:	39053b0b          	.4byte	0x39053b0b
     c52:	0013490b          	.4byte	0x13490b
     c56:	0c00                	.2byte	0xc00
     c58:	1755010b          	.4byte	0x1755010b
     c5c:	0000                	.2byte	0x0
     c5e:	340d                	.2byte	0x340d
     c60:	0300                	.2byte	0x300
     c62:	3a0e                	.2byte	0x3a0e
     c64:	39053b0b          	.4byte	0x39053b0b
     c68:	0213490b          	.4byte	0x213490b
     c6c:	0e000017          	auipc	zero,0xe000
     c70:	0034                	.2byte	0x34
     c72:	0b3a0803          	lb	a6,179(s4)
     c76:	0b39053b          	.4byte	0xb39053b
     c7a:	1349                	.2byte	0x1349
     c7c:	1702                	.2byte	0x1702
     c7e:	0000                	.2byte	0x0
     c80:	0100                	.2byte	0x100
     c82:	0024                	.2byte	0x24
     c84:	0b3e0b0b          	.4byte	0xb3e0b0b
     c88:	00000e03          	lb	t3,0(zero) # 0 <exit-0x10094>
     c8c:	3402                	.2byte	0x3402
     c8e:	0300                	.2byte	0x300
     c90:	3a08                	.2byte	0x3a08
     c92:	0121                	.2byte	0x121
     c94:	0b390b3b          	.4byte	0xb390b3b
     c98:	1349                	.2byte	0x1349
     c9a:	1802                	.2byte	0x1802
     c9c:	0000                	.2byte	0x0
     c9e:	03003403          	.4byte	0x3003403
     ca2:	3a0e                	.2byte	0x3a0e
     ca4:	0121                	.2byte	0x121
     ca6:	21390b3b          	.4byte	0x21390b3b
     caa:	00134903          	lbu	s2,1(t1)
     cae:	0400                	.2byte	0x400
     cb0:	1301010b          	.4byte	0x1301010b
     cb4:	0000                	.2byte	0x0
     cb6:	1605                	.2byte	0x1605
     cb8:	0300                	.2byte	0x300
     cba:	3a0e                	.2byte	0x3a0e
     cbc:	390b3b0b          	.4byte	0x390b3b0b
     cc0:	0013490b          	.4byte	0x13490b
     cc4:	0600                	.2byte	0x600
     cc6:	000d                	.2byte	0xd
     cc8:	213a0e03          	lb	t3,531(s4)
     ccc:	390b3b03          	.4byte	0x390b3b03
     cd0:	0e21                	.2byte	0xe21
     cd2:	1349                	.2byte	0x1349
     cd4:	0b0d                	.2byte	0xb0d
     cd6:	00000b6b          	.4byte	0xb6b
     cda:	03000507          	.4byte	0x3000507
     cde:	3a08                	.2byte	0x3a08
     ce0:	0121                	.2byte	0x121
     ce2:	3923213b          	.4byte	0x3923213b
     ce6:	0213490b          	.4byte	0x213490b
     cea:	08000017          	auipc	zero,0x8000
     cee:	0034                	.2byte	0x34
     cf0:	213a0e03          	lb	t3,531(s4)
     cf4:	3b01                	.2byte	0x3b01
     cf6:	2521                	.2byte	0x2521
     cf8:	2139                	.2byte	0x2139
     cfa:	1c134903          	lbu	s2,449(t1)
     cfe:	0021                	.2byte	0x21
     d00:	0000                	.2byte	0x0
     d02:	3409                	.2byte	0x3409
     d04:	0300                	.2byte	0x300
     d06:	3a08                	.2byte	0x3a08
     d08:	0121                	.2byte	0x121
     d0a:	21390b3b          	.4byte	0x21390b3b
     d0e:	00134903          	lbu	s2,1(t1)
     d12:	0a00                	.2byte	0xa00
     d14:	1755010b          	.4byte	0x1755010b
     d18:	1301                	.2byte	0x1301
     d1a:	0000                	.2byte	0x0
     d1c:	2501110b          	.4byte	0x2501110b
     d20:	130e                	.2byte	0x130e
     d22:	1b1f030b          	.4byte	0x1b1f030b
     d26:	111f 1201 1006      	.byte	0x1f, 0x11, 0x01, 0x12, 0x06, 0x10
     d2c:	0c000017          	auipc	zero,0xc000
     d30:	0024                	.2byte	0x24
     d32:	0b3e0b0b          	.4byte	0xb3e0b0b
     d36:	00000803          	lb	a6,0(zero) # 0 <exit-0x10094>
     d3a:	130d                	.2byte	0x130d
     d3c:	0b01                	.2byte	0xb01
     d3e:	3b0b3a0b          	.4byte	0x3b0b3a0b
     d42:	010b390b          	.4byte	0x10b390b
     d46:	0e000013          	li	zero,224
     d4a:	000d                	.2byte	0xd
     d4c:	0b3a0803          	lb	a6,179(s4)
     d50:	0b390b3b          	.4byte	0xb390b3b
     d54:	1349                	.2byte	0x1349
     d56:	0b0d                	.2byte	0xb0d
     d58:	00000b6b          	.4byte	0xb6b
     d5c:	0301170f          	.4byte	0x301170f
     d60:	0b0e                	.2byte	0xb0e
     d62:	3b0b3a0b          	.4byte	0x3b0b3a0b
     d66:	010b390b          	.4byte	0x10b390b
     d6a:	10000013          	li	zero,256
     d6e:	000d                	.2byte	0xd
     d70:	0b3a0803          	lb	a6,179(s4)
     d74:	0b390b3b          	.4byte	0xb390b3b
     d78:	1349                	.2byte	0x1349
     d7a:	0000                	.2byte	0x0
     d7c:	0d11                	.2byte	0xd11
     d7e:	0300                	.2byte	0x300
     d80:	3a0e                	.2byte	0x3a0e
     d82:	390b3b0b          	.4byte	0x390b3b0b
     d86:	0013490b          	.4byte	0x13490b
     d8a:	1200                	.2byte	0x1200
     d8c:	012e                	.2byte	0x12e
     d8e:	0e03193f 0b3b0b3a 	.8byte	0xb3b0b3a0e03193f
     d96:	0b39                	.2byte	0xb39
     d98:	13491927          	.4byte	0x13491927
     d9c:	0111                	.2byte	0x111
     d9e:	0612                	.2byte	0x612
     da0:	1840                	.2byte	0x1840
     da2:	197a                	.2byte	0x197a
     da4:	1301                	.2byte	0x1301
     da6:	0000                	.2byte	0x0
     da8:	03003413          	sltiu	s0,zero,48
     dac:	3a08                	.2byte	0x3a08
     dae:	390b3b0b          	.4byte	0x390b3b0b
     db2:	0213490b          	.4byte	0x213490b
     db6:	14000017          	auipc	zero,0x14000
     dba:	0000010b          	.4byte	0x10b
     dbe:	0100                	.2byte	0x100
     dc0:	0024                	.2byte	0x24
     dc2:	0b3e0b0b          	.4byte	0xb3e0b0b
     dc6:	00000e03          	lb	t3,0(zero) # 0 <exit-0x10094>
     dca:	3402                	.2byte	0x3402
     dcc:	0300                	.2byte	0x300
     dce:	3a08                	.2byte	0x3a08
     dd0:	0121                	.2byte	0x121
     dd2:	0b390b3b          	.4byte	0xb390b3b
     dd6:	1349                	.2byte	0x1349
     dd8:	1802                	.2byte	0x1802
     dda:	0000                	.2byte	0x0
     ddc:	03003403          	.4byte	0x3003403
     de0:	3a0e                	.2byte	0x3a0e
     de2:	0121                	.2byte	0x121
     de4:	21390b3b          	.4byte	0x21390b3b
     de8:	00134903          	lbu	s2,1(t1)
     dec:	0400                	.2byte	0x400
     dee:	0016                	.2byte	0x16
     df0:	0b3a0e03          	lb	t3,179(s4)
     df4:	0b390b3b          	.4byte	0xb390b3b
     df8:	1349                	.2byte	0x1349
     dfa:	0000                	.2byte	0x0
     dfc:	0d05                	.2byte	0xd05
     dfe:	0300                	.2byte	0x300
     e00:	3a0e                	.2byte	0x3a0e
     e02:	0321                	.2byte	0x321
     e04:	21390b3b          	.4byte	0x21390b3b
     e08:	490e                	.2byte	0x490e
     e0a:	6b0b0d13          	addi	s10,s6,1712 # 111e4 <__subsf3+0x1a0>
     e0e:	0600000b          	.4byte	0x600000b
     e12:	0005                	.2byte	0x5
     e14:	213a0803          	lb	a6,531(s4)
     e18:	3b01                	.2byte	0x3b01
     e1a:	2321                	.2byte	0x2321
     e1c:	0b39                	.2byte	0xb39
     e1e:	1349                	.2byte	0x1349
     e20:	1702                	.2byte	0x1702
     e22:	0000                	.2byte	0x0
     e24:	03003407          	.4byte	0x3003407
     e28:	3a0e                	.2byte	0x3a0e
     e2a:	0121                	.2byte	0x121
     e2c:	3925213b          	.4byte	0x3925213b
     e30:	0321                	.2byte	0x321
     e32:	1349                	.2byte	0x1349
     e34:	211c                	.2byte	0x211c
     e36:	0000                	.2byte	0x0
     e38:	0800                	.2byte	0x800
     e3a:	0034                	.2byte	0x34
     e3c:	213a0803          	lb	a6,531(s4)
     e40:	3b01                	.2byte	0x3b01
     e42:	0321390b          	.4byte	0x321390b
     e46:	1349                	.2byte	0x1349
     e48:	0000                	.2byte	0x0
     e4a:	0b09                	.2byte	0xb09
     e4c:	0101                	.2byte	0x101
     e4e:	0a000013          	li	zero,160
     e52:	0034                	.2byte	0x34
     e54:	213a0e03          	lb	t3,531(s4)
     e58:	3b01                	.2byte	0x3b01
     e5a:	2d21                	.2byte	0x2d21
     e5c:	2139                	.2byte	0x2139
     e5e:	02134903          	lbu	s2,33(t1)
     e62:	0b000017          	auipc	zero,0xb000
     e66:	0111                	.2byte	0x111
     e68:	0e25                	.2byte	0xe25
     e6a:	1f030b13          	addi	s6,t1,496
     e6e:	01111f1b          	.4byte	0x1111f1b
     e72:	0612                	.2byte	0x612
     e74:	1710                	.2byte	0x1710
     e76:	0000                	.2byte	0x0
     e78:	240c                	.2byte	0x240c
     e7a:	0b00                	.2byte	0xb00
     e7c:	030b3e0b          	.4byte	0x30b3e0b
     e80:	0008                	.2byte	0x8
     e82:	0d00                	.2byte	0xd00
     e84:	0b0b0113          	addi	sp,s6,176
     e88:	0b3a                	.2byte	0xb3a
     e8a:	0b390b3b          	.4byte	0xb390b3b
     e8e:	1301                	.2byte	0x1301
     e90:	0000                	.2byte	0x0
     e92:	0d0e                	.2byte	0xd0e
     e94:	0300                	.2byte	0x300
     e96:	3a08                	.2byte	0x3a08
     e98:	390b3b0b          	.4byte	0x390b3b0b
     e9c:	0d13490b          	.4byte	0xd13490b
     ea0:	000b6b0b          	.4byte	0xb6b0b
     ea4:	0f00                	.2byte	0xf00
     ea6:	0e030117          	auipc	sp,0xe030
     eaa:	0b3a0b0b          	.4byte	0xb3a0b0b
     eae:	0b390b3b          	.4byte	0xb390b3b
     eb2:	1301                	.2byte	0x1301
     eb4:	0000                	.2byte	0x0
     eb6:	0d10                	.2byte	0xd10
     eb8:	0300                	.2byte	0x300
     eba:	3a08                	.2byte	0x3a08
     ebc:	390b3b0b          	.4byte	0x390b3b0b
     ec0:	0013490b          	.4byte	0x13490b
     ec4:	1100                	.2byte	0x1100
     ec6:	000d                	.2byte	0xd
     ec8:	0b3a0e03          	lb	t3,179(s4)
     ecc:	0b390b3b          	.4byte	0xb390b3b
     ed0:	1349                	.2byte	0x1349
     ed2:	0000                	.2byte	0x0
     ed4:	2e12                	.2byte	0x2e12
     ed6:	3f01                	.2byte	0x3f01
     ed8:	0319                	.2byte	0x319
     eda:	3a0e                	.2byte	0x3a0e
     edc:	390b3b0b          	.4byte	0x390b3b0b
     ee0:	4919270b          	.4byte	0x4919270b
     ee4:	12011113          	.4byte	0x12011113
     ee8:	4006                	.2byte	0x4006
     eea:	7a18                	.2byte	0x7a18
     eec:	0119                	.2byte	0x119
     eee:	13000013          	li	zero,304
     ef2:	0034                	.2byte	0x34
     ef4:	0b3a0803          	lb	a6,179(s4)
     ef8:	0b390b3b          	.4byte	0xb390b3b
     efc:	1349                	.2byte	0x1349
     efe:	1702                	.2byte	0x1702
     f00:	0000                	.2byte	0x0
     f02:	0b14                	.2byte	0xb14
     f04:	1101                	.2byte	0x1101
     f06:	1201                	.2byte	0x1201
     f08:	0106                	.2byte	0x106
     f0a:	15000013          	li	zero,336
     f0e:	1755010b          	.4byte	0x1755010b
     f12:	1301                	.2byte	0x1301
     f14:	0000                	.2byte	0x0
     f16:	0b16                	.2byte	0xb16
     f18:	5501                	.2byte	0x5501
     f1a:	00000017          	auipc	zero,0x0
     f1e:	2401                	.2byte	0x2401
     f20:	0b00                	.2byte	0xb00
     f22:	030b3e0b          	.4byte	0x30b3e0b
     f26:	000e                	.2byte	0xe
     f28:	0200                	.2byte	0x200
     f2a:	0034                	.2byte	0x34
     f2c:	213a0803          	lb	a6,531(s4)
     f30:	3b01                	.2byte	0x3b01
     f32:	490b390b          	.4byte	0x490b390b
     f36:	03000013          	li	zero,48
     f3a:	0034                	.2byte	0x34
     f3c:	213a0e03          	lb	t3,531(s4)
     f40:	3b01                	.2byte	0x3b01
     f42:	0321390b          	.4byte	0x321390b
     f46:	1349                	.2byte	0x1349
     f48:	0000                	.2byte	0x0
     f4a:	0b04                	.2byte	0xb04
     f4c:	0101                	.2byte	0x101
     f4e:	05000013          	li	zero,80
     f52:	0016                	.2byte	0x16
     f54:	0b3a0e03          	lb	t3,179(s4)
     f58:	0b390b3b          	.4byte	0xb390b3b
     f5c:	1349                	.2byte	0x1349
     f5e:	0000                	.2byte	0x0
     f60:	0d06                	.2byte	0xd06
     f62:	0300                	.2byte	0x300
     f64:	3a0e                	.2byte	0x3a0e
     f66:	0321                	.2byte	0x321
     f68:	21390b3b          	.4byte	0x21390b3b
     f6c:	490e                	.2byte	0x490e
     f6e:	6b0b0d13          	addi	s10,s6,1712
     f72:	0700000b          	.4byte	0x700000b
     f76:	0005                	.2byte	0x5
     f78:	213a0803          	lb	a6,531(s4)
     f7c:	3b01                	.2byte	0x3b01
     f7e:	2221                	.2byte	0x2221
     f80:	0b39                	.2byte	0xb39
     f82:	1349                	.2byte	0x1349
     f84:	1702                	.2byte	0x1702
     f86:	0000                	.2byte	0x0
     f88:	3408                	.2byte	0x3408
     f8a:	0300                	.2byte	0x300
     f8c:	3a0e                	.2byte	0x3a0e
     f8e:	0121                	.2byte	0x121
     f90:	3924213b          	.4byte	0x3924213b
     f94:	0321                	.2byte	0x321
     f96:	1349                	.2byte	0x1349
     f98:	211c                	.2byte	0x211c
     f9a:	0000                	.2byte	0x0
     f9c:	0900                	.2byte	0x900
     f9e:	0034                	.2byte	0x34
     fa0:	213a0803          	lb	a6,531(s4)
     fa4:	3b01                	.2byte	0x3b01
     fa6:	2621                	.2byte	0x2621
     fa8:	2139                	.2byte	0x2139
     faa:	02134903          	lbu	s2,33(t1)
     fae:	0018                	.2byte	0x18
     fb0:	0a00                	.2byte	0xa00
     fb2:	0111                	.2byte	0x111
     fb4:	0e25                	.2byte	0xe25
     fb6:	1f030b13          	addi	s6,t1,496
     fba:	01111f1b          	.4byte	0x1111f1b
     fbe:	0612                	.2byte	0x612
     fc0:	1710                	.2byte	0x1710
     fc2:	0000                	.2byte	0x0
     fc4:	0b00240b          	.4byte	0xb00240b
     fc8:	030b3e0b          	.4byte	0x30b3e0b
     fcc:	0008                	.2byte	0x8
     fce:	0c00                	.2byte	0xc00
     fd0:	0b0b0113          	addi	sp,s6,176
     fd4:	0b3a                	.2byte	0xb3a
     fd6:	0b390b3b          	.4byte	0xb390b3b
     fda:	1301                	.2byte	0x1301
     fdc:	0000                	.2byte	0x0
     fde:	0d0d                	.2byte	0xd0d
     fe0:	0300                	.2byte	0x300
     fe2:	3a08                	.2byte	0x3a08
     fe4:	390b3b0b          	.4byte	0x390b3b0b
     fe8:	0d13490b          	.4byte	0xd13490b
     fec:	000b6b0b          	.4byte	0xb6b0b
     ff0:	0e00                	.2byte	0xe00
     ff2:	0e030117          	auipc	sp,0xe030
     ff6:	0b3a0b0b          	.4byte	0xb3a0b0b
     ffa:	0b390b3b          	.4byte	0xb390b3b
     ffe:	1301                	.2byte	0x1301
    1000:	0000                	.2byte	0x0
    1002:	03000d0f          	.4byte	0x3000d0f
    1006:	3a08                	.2byte	0x3a08
    1008:	390b3b0b          	.4byte	0x390b3b0b
    100c:	0013490b          	.4byte	0x13490b
    1010:	1000                	.2byte	0x1000
    1012:	000d                	.2byte	0xd
    1014:	0b3a0e03          	lb	t3,179(s4)
    1018:	0b390b3b          	.4byte	0xb390b3b
    101c:	1349                	.2byte	0x1349
    101e:	0000                	.2byte	0x0
    1020:	2e11                	.2byte	0x2e11
    1022:	3f01                	.2byte	0x3f01
    1024:	0319                	.2byte	0x319
    1026:	3a0e                	.2byte	0x3a0e
    1028:	390b3b0b          	.4byte	0x390b3b0b
    102c:	4919270b          	.4byte	0x4919270b
    1030:	12011113          	.4byte	0x12011113
    1034:	4006                	.2byte	0x4006
    1036:	7a18                	.2byte	0x7a18
    1038:	0119                	.2byte	0x119
    103a:	12000013          	li	zero,288
    103e:	0034                	.2byte	0x34
    1040:	0b3a0803          	lb	a6,179(s4)
    1044:	0b390b3b          	.4byte	0xb390b3b
    1048:	1349                	.2byte	0x1349
    104a:	1702                	.2byte	0x1702
    104c:	0000                	.2byte	0x0
    104e:	11010b13          	addi	s6,sp,272 # e031102 <__global_pointer$+0xe01d6ba>
    1052:	1201                	.2byte	0x1201
    1054:	0106                	.2byte	0x106
    1056:	14000013          	li	zero,320
    105a:	1755010b          	.4byte	0x1755010b
    105e:	1301                	.2byte	0x1301
    1060:	0000                	.2byte	0x0
    1062:	0b15                	.2byte	0xb15
    1064:	0001                	.2byte	0x1
	...

Disassembly of section .debug_line:

00000000 <.debug_line>:
       0:	0000070f          	.4byte	0x70f
       4:	0005                	.2byte	0x5
       6:	0004                	.2byte	0x4
       8:	00000033          	add	zero,zero,zero
       c:	0101                	.2byte	0x101
       e:	fb01                	.2byte	0xfb01
      10:	0d0e                	.2byte	0xd0e
      12:	0100                	.2byte	0x100
      14:	0101                	.2byte	0x101
      16:	0001                	.2byte	0x1
      18:	0000                	.2byte	0x0
      1a:	0001                	.2byte	0x1
      1c:	0100                	.2byte	0x100
      1e:	0101                	.2byte	0x101
      20:	021f 0038 0000      	.byte	0x1f, 0x02, 0x38, 0x00, 0x00, 0x00
      26:	0000009b          	.4byte	0x9b
      2a:	0102                	.2byte	0x102
      2c:	021f 030f 002e      	.byte	0x1f, 0x02, 0x0f, 0x03, 0x2e, 0x00
      32:	0000                	.2byte	0x0
      34:	2e01                	.2byte	0x2e01
      36:	0000                	.2byte	0x0
      38:	0100                	.2byte	0x100
      3a:	00c9                	.2byte	0xc9
      3c:	0000                	.2byte	0x0
      3e:	0501                	.2byte	0x501
      40:	0001                	.2byte	0x1
      42:	0205                	.2byte	0x205
      44:	0000                	.2byte	0x0
      46:	0000                	.2byte	0x0
      48:	010a9203          	lh	tp,16(s5)
      4c:	0305                	.2byte	0x305
      4e:	00090103          	lb	sp,0(s2) # 1000 <exit-0xf094>
      52:	0100                	.2byte	0x100
      54:	097dd103          	lhu	sp,151(s11) # 1097 <exit-0xeffd>
      58:	0000                	.2byte	0x0
      5a:	0301                	.2byte	0x301
      5c:	0901                	.2byte	0x901
      5e:	0000                	.2byte	0x0
      60:	0301                	.2byte	0x301
      62:	0901                	.2byte	0x901
      64:	0000                	.2byte	0x0
      66:	0301                	.2byte	0x301
      68:	0901                	.2byte	0x901
      6a:	0000                	.2byte	0x0
      6c:	0301                	.2byte	0x301
      6e:	0901                	.2byte	0x901
      70:	0000                	.2byte	0x0
      72:	0301                	.2byte	0x301
      74:	0901                	.2byte	0x901
      76:	0000                	.2byte	0x0
      78:	0301                	.2byte	0x301
      7a:	0902                	.2byte	0x902
      7c:	0000                	.2byte	0x0
      7e:	0501                	.2byte	0x501
      80:	0601                	.2byte	0x601
      82:	0902a703          	lw	a4,144(t0)
      86:	0000                	.2byte	0x0
      88:	0501                	.2byte	0x501
      8a:	0306                	.2byte	0x306
      8c:	7dd9                	.2byte	0x7dd9
      8e:	0009                	.2byte	0x9
      90:	0100                	.2byte	0x100
      92:	0305                	.2byte	0x305
      94:	0306                	.2byte	0x306
      96:	0901                	.2byte	0x901
      98:	0000                	.2byte	0x0
      9a:	0301                	.2byte	0x301
      9c:	0901                	.2byte	0x901
      9e:	0000                	.2byte	0x0
      a0:	0501                	.2byte	0x501
      a2:	0606                	.2byte	0x606
      a4:	00090003          	lb	zero,0(s2)
      a8:	0100                	.2byte	0x100
      aa:	0305                	.2byte	0x305
      ac:	0306                	.2byte	0x306
      ae:	0901                	.2byte	0x901
      b0:	0000                	.2byte	0x0
      b2:	0501                	.2byte	0x501
      b4:	0606                	.2byte	0x606
      b6:	00090003          	lb	zero,0(s2)
      ba:	0100                	.2byte	0x100
      bc:	0305                	.2byte	0x305
      be:	0306                	.2byte	0x306
      c0:	0925                	.2byte	0x925
      c2:	0000                	.2byte	0x0
      c4:	0501                	.2byte	0x501
      c6:	0606                	.2byte	0x606
      c8:	00090003          	lb	zero,0(s2)
      cc:	0100                	.2byte	0x100
      ce:	0705                	.2byte	0x705
      d0:	0306                	.2byte	0x306
      d2:	0902                	.2byte	0x902
      d4:	0000                	.2byte	0x0
      d6:	0501                	.2byte	0x501
      d8:	060a                	.2byte	0x60a
      da:	00090003          	lb	zero,0(s2)
      de:	0100                	.2byte	0x100
      e0:	0405                	.2byte	0x405
      e2:	0306                	.2byte	0x306
      e4:	0904                	.2byte	0x904
      e6:	0000                	.2byte	0x0
      e8:	0301                	.2byte	0x301
      ea:	0900                	.2byte	0x900
      ec:	0000                	.2byte	0x0
      ee:	0301                	.2byte	0x301
      f0:	0900                	.2byte	0x900
      f2:	0000                	.2byte	0x0
      f4:	0301                	.2byte	0x301
      f6:	0900                	.2byte	0x900
      f8:	0000                	.2byte	0x0
      fa:	0301                	.2byte	0x301
      fc:	0900                	.2byte	0x900
      fe:	0000                	.2byte	0x0
     100:	0301                	.2byte	0x301
     102:	0900                	.2byte	0x900
     104:	0000                	.2byte	0x0
     106:	0301                	.2byte	0x301
     108:	0900                	.2byte	0x900
     10a:	0000                	.2byte	0x0
     10c:	0301                	.2byte	0x301
     10e:	0902                	.2byte	0x902
     110:	0000                	.2byte	0x0
     112:	0501                	.2byte	0x501
     114:	00030607          	.4byte	0x30607
     118:	0009                	.2byte	0x9
     11a:	0100                	.2byte	0x100
     11c:	0805                	.2byte	0x805
     11e:	0306                	.2byte	0x306
     120:	0905                	.2byte	0x905
     122:	0000                	.2byte	0x0
     124:	0501                	.2byte	0x501
     126:	0611                	.2byte	0x611
     128:	00090103          	lb	sp,0(s2)
     12c:	0100                	.2byte	0x100
     12e:	1e05                	.2byte	0x1e05
     130:	00090003          	lb	zero,0(s2)
     134:	0100                	.2byte	0x100
     136:	0b05                	.2byte	0xb05
     138:	00097f03          	.4byte	0x97f03
     13c:	0100                	.2byte	0x100
     13e:	0805                	.2byte	0x805
     140:	0306                	.2byte	0x306
     142:	0901                	.2byte	0x901
     144:	0000                	.2byte	0x0
     146:	0501                	.2byte	0x501
     148:	0003060b          	.4byte	0x3060b
     14c:	0009                	.2byte	0x9
     14e:	0100                	.2byte	0x100
     150:	0805                	.2byte	0x805
     152:	0306                	.2byte	0x306
     154:	0901                	.2byte	0x901
     156:	0000                	.2byte	0x0
     158:	0501                	.2byte	0x501
     15a:	0003060b          	.4byte	0x3060b
     15e:	0009                	.2byte	0x9
     160:	0100                	.2byte	0x100
     162:	0405                	.2byte	0x405
     164:	0306                	.2byte	0x306
     166:	00000903          	lb	s2,0(zero) # 0 <exit-0x10094>
     16a:	0301                	.2byte	0x301
     16c:	0900                	.2byte	0x900
     16e:	0000                	.2byte	0x0
     170:	0301                	.2byte	0x301
     172:	0900                	.2byte	0x900
     174:	0000                	.2byte	0x0
     176:	0301                	.2byte	0x301
     178:	0900                	.2byte	0x900
     17a:	0000                	.2byte	0x0
     17c:	0301                	.2byte	0x301
     17e:	0900                	.2byte	0x900
     180:	0000                	.2byte	0x0
     182:	0301                	.2byte	0x301
     184:	0900                	.2byte	0x900
     186:	0000                	.2byte	0x0
     188:	0301                	.2byte	0x301
     18a:	0900                	.2byte	0x900
     18c:	0000                	.2byte	0x0
     18e:	0301                	.2byte	0x301
     190:	0900                	.2byte	0x900
     192:	0000                	.2byte	0x0
     194:	0301                	.2byte	0x301
     196:	0900                	.2byte	0x900
     198:	0000                	.2byte	0x0
     19a:	0301                	.2byte	0x301
     19c:	0900                	.2byte	0x900
     19e:	0000                	.2byte	0x0
     1a0:	0301                	.2byte	0x301
     1a2:	0900                	.2byte	0x900
     1a4:	0000                	.2byte	0x0
     1a6:	0301                	.2byte	0x301
     1a8:	0900                	.2byte	0x900
     1aa:	0000                	.2byte	0x0
     1ac:	0301                	.2byte	0x301
     1ae:	0900                	.2byte	0x900
     1b0:	0000                	.2byte	0x0
     1b2:	0301                	.2byte	0x301
     1b4:	0900                	.2byte	0x900
     1b6:	0000                	.2byte	0x0
     1b8:	0301                	.2byte	0x301
     1ba:	0900                	.2byte	0x900
     1bc:	0000                	.2byte	0x0
     1be:	0301                	.2byte	0x301
     1c0:	0900                	.2byte	0x900
     1c2:	0000                	.2byte	0x0
     1c4:	0301                	.2byte	0x301
     1c6:	0900                	.2byte	0x900
     1c8:	0000                	.2byte	0x0
     1ca:	0301                	.2byte	0x301
     1cc:	0900                	.2byte	0x900
     1ce:	0000                	.2byte	0x0
     1d0:	0301                	.2byte	0x301
     1d2:	0900                	.2byte	0x900
     1d4:	0000                	.2byte	0x0
     1d6:	0301                	.2byte	0x301
     1d8:	0900                	.2byte	0x900
     1da:	0000                	.2byte	0x0
     1dc:	0301                	.2byte	0x301
     1de:	0900                	.2byte	0x900
     1e0:	0000                	.2byte	0x0
     1e2:	0301                	.2byte	0x301
     1e4:	0900                	.2byte	0x900
     1e6:	0000                	.2byte	0x0
     1e8:	0301                	.2byte	0x301
     1ea:	0900                	.2byte	0x900
     1ec:	0000                	.2byte	0x0
     1ee:	0301                	.2byte	0x301
     1f0:	0900                	.2byte	0x900
     1f2:	0000                	.2byte	0x0
     1f4:	0301                	.2byte	0x301
     1f6:	0900                	.2byte	0x900
     1f8:	0000                	.2byte	0x0
     1fa:	0301                	.2byte	0x301
     1fc:	0900                	.2byte	0x900
     1fe:	0000                	.2byte	0x0
     200:	0301                	.2byte	0x301
     202:	0900                	.2byte	0x900
     204:	0000                	.2byte	0x0
     206:	0301                	.2byte	0x301
     208:	0901                	.2byte	0x901
     20a:	0000                	.2byte	0x0
     20c:	0501                	.2byte	0x501
     20e:	fe03060b          	.4byte	0xfe03060b
     212:	0900                	.2byte	0x900
     214:	0000                	.2byte	0x0
     216:	0501                	.2byte	0x501
     218:	0e030603          	lb	a2,224(t1)
     21c:	0009                	.2byte	0x9
     21e:	0100                	.2byte	0x100
     220:	00090103          	lb	sp,0(s2)
     224:	0100                	.2byte	0x100
     226:	0105                	.2byte	0x105
     228:	0306                	.2byte	0x306
     22a:	00e1                	.2byte	0xe1
     22c:	0009                	.2byte	0x9
     22e:	0100                	.2byte	0x100
     230:	0405                	.2byte	0x405
     232:	097e8503          	lb	a0,151(t4)
     236:	0000                	.2byte	0x0
     238:	0601                	.2byte	0x601
     23a:	00091503          	lh	a0,0(s2)
     23e:	0100                	.2byte	0x100
     240:	0306                	.2byte	0x306
     242:	00000903          	lb	s2,0(zero) # 0 <exit-0x10094>
     246:	0501                	.2byte	0x501
     248:	097d0307          	.4byte	0x97d0307
     24c:	0000                	.2byte	0x0
     24e:	0501                	.2byte	0x501
     250:	0604                	.2byte	0x604
     252:	00090303          	lb	t1,0(s2)
     256:	0100                	.2byte	0x100
     258:	00090003          	lb	zero,0(s2)
     25c:	0100                	.2byte	0x100
     25e:	00090003          	lb	zero,0(s2)
     262:	0100                	.2byte	0x100
     264:	00090003          	lb	zero,0(s2)
     268:	0100                	.2byte	0x100
     26a:	00090003          	lb	zero,0(s2)
     26e:	0100                	.2byte	0x100
     270:	00090003          	lb	zero,0(s2)
     274:	0100                	.2byte	0x100
     276:	00090003          	lb	zero,0(s2)
     27a:	0100                	.2byte	0x100
     27c:	00090203          	lb	tp,0(s2)
     280:	0100                	.2byte	0x100
     282:	0705                	.2byte	0x705
     284:	0306                	.2byte	0x306
     286:	0900                	.2byte	0x900
     288:	0000                	.2byte	0x0
     28a:	0501                	.2byte	0x501
     28c:	0608                	.2byte	0x608
     28e:	00090903          	lb	s2,0(s2)
     292:	0100                	.2byte	0x100
     294:	0b05                	.2byte	0xb05
     296:	0306                	.2byte	0x306
     298:	0900                	.2byte	0x900
     29a:	0000                	.2byte	0x0
     29c:	0501                	.2byte	0x501
     29e:	0608                	.2byte	0x608
     2a0:	00090103          	lb	sp,0(s2)
     2a4:	0100                	.2byte	0x100
     2a6:	0b05                	.2byte	0xb05
     2a8:	0306                	.2byte	0x306
     2aa:	0900                	.2byte	0x900
     2ac:	0000                	.2byte	0x0
     2ae:	0501                	.2byte	0x501
     2b0:	0608                	.2byte	0x608
     2b2:	00090d03          	lb	s10,0(s2)
     2b6:	0100                	.2byte	0x100
     2b8:	0405                	.2byte	0x405
     2ba:	00090503          	lb	a0,0(s2)
     2be:	0100                	.2byte	0x100
     2c0:	00090003          	lb	zero,0(s2)
     2c4:	0100                	.2byte	0x100
     2c6:	00090003          	lb	zero,0(s2)
     2ca:	0100                	.2byte	0x100
     2cc:	00090003          	lb	zero,0(s2)
     2d0:	0100                	.2byte	0x100
     2d2:	00090003          	lb	zero,0(s2)
     2d6:	0100                	.2byte	0x100
     2d8:	00090003          	lb	zero,0(s2)
     2dc:	0100                	.2byte	0x100
     2de:	00090003          	lb	zero,0(s2)
     2e2:	0100                	.2byte	0x100
     2e4:	00090003          	lb	zero,0(s2)
     2e8:	0100                	.2byte	0x100
     2ea:	00090003          	lb	zero,0(s2)
     2ee:	0100                	.2byte	0x100
     2f0:	00090003          	lb	zero,0(s2)
     2f4:	0100                	.2byte	0x100
     2f6:	00090003          	lb	zero,0(s2)
     2fa:	0100                	.2byte	0x100
     2fc:	00090003          	lb	zero,0(s2)
     300:	0100                	.2byte	0x100
     302:	00090003          	lb	zero,0(s2)
     306:	0100                	.2byte	0x100
     308:	00090003          	lb	zero,0(s2)
     30c:	0100                	.2byte	0x100
     30e:	00090003          	lb	zero,0(s2)
     312:	0100                	.2byte	0x100
     314:	00090003          	lb	zero,0(s2)
     318:	0100                	.2byte	0x100
     31a:	00090003          	lb	zero,0(s2)
     31e:	0100                	.2byte	0x100
     320:	00090003          	lb	zero,0(s2)
     324:	0100                	.2byte	0x100
     326:	00090003          	lb	zero,0(s2)
     32a:	0100                	.2byte	0x100
     32c:	00090003          	lb	zero,0(s2)
     330:	0100                	.2byte	0x100
     332:	00090003          	lb	zero,0(s2)
     336:	0100                	.2byte	0x100
     338:	00090003          	lb	zero,0(s2)
     33c:	0100                	.2byte	0x100
     33e:	00090003          	lb	zero,0(s2)
     342:	0100                	.2byte	0x100
     344:	00090003          	lb	zero,0(s2)
     348:	0100                	.2byte	0x100
     34a:	00090003          	lb	zero,0(s2)
     34e:	0100                	.2byte	0x100
     350:	00090003          	lb	zero,0(s2)
     354:	0100                	.2byte	0x100
     356:	0306                	.2byte	0x306
     358:	0962                	.2byte	0x962
     35a:	0000                	.2byte	0x0
     35c:	0501                	.2byte	0x501
     35e:	0608                	.2byte	0x608
     360:	00091203          	lh	tp,0(s2)
     364:	0100                	.2byte	0x100
     366:	00090203          	lb	tp,0(s2)
     36a:	0100                	.2byte	0x100
     36c:	0b05                	.2byte	0xb05
     36e:	0306                	.2byte	0x306
     370:	0900                	.2byte	0x900
     372:	0000                	.2byte	0x0
     374:	0501                	.2byte	0x501
     376:	0608                	.2byte	0x608
     378:	00090103          	lb	sp,0(s2)
     37c:	0100                	.2byte	0x100
     37e:	0b05                	.2byte	0xb05
     380:	0306                	.2byte	0x306
     382:	0900                	.2byte	0x900
     384:	0000                	.2byte	0x0
     386:	0501                	.2byte	0x501
     388:	0608                	.2byte	0x608
     38a:	00090103          	lb	sp,0(s2)
     38e:	0100                	.2byte	0x100
     390:	0306                	.2byte	0x306
     392:	00000903          	lb	s2,0(zero) # 0 <exit-0x10094>
     396:	0501                	.2byte	0x501
     398:	0311                	.2byte	0x311
     39a:	097d                	.2byte	0x97d
     39c:	0000                	.2byte	0x0
     39e:	0501                	.2byte	0x501
     3a0:	031e                	.2byte	0x31e
     3a2:	0900                	.2byte	0x900
     3a4:	0000                	.2byte	0x0
     3a6:	0501                	.2byte	0x501
     3a8:	0900030b          	.4byte	0x900030b
     3ac:	0000                	.2byte	0x0
     3ae:	0501                	.2byte	0x501
     3b0:	0608                	.2byte	0x608
     3b2:	00090103          	lb	sp,0(s2)
     3b6:	0100                	.2byte	0x100
     3b8:	0306                	.2byte	0x306
     3ba:	0902                	.2byte	0x902
     3bc:	0000                	.2byte	0x0
     3be:	0501                	.2byte	0x501
     3c0:	097e030b          	.4byte	0x97e030b
     3c4:	0000                	.2byte	0x0
     3c6:	0501                	.2byte	0x501
     3c8:	0608                	.2byte	0x608
     3ca:	00090203          	lb	tp,0(s2)
     3ce:	0100                	.2byte	0x100
     3d0:	00090003          	lb	zero,0(s2)
     3d4:	0100                	.2byte	0x100
     3d6:	00090003          	lb	zero,0(s2)
     3da:	0100                	.2byte	0x100
     3dc:	00090003          	lb	zero,0(s2)
     3e0:	0100                	.2byte	0x100
     3e2:	00090003          	lb	zero,0(s2)
     3e6:	0100                	.2byte	0x100
     3e8:	00090003          	lb	zero,0(s2)
     3ec:	0100                	.2byte	0x100
     3ee:	00090003          	lb	zero,0(s2)
     3f2:	0100                	.2byte	0x100
     3f4:	00090003          	lb	zero,0(s2)
     3f8:	0100                	.2byte	0x100
     3fa:	00090003          	lb	zero,0(s2)
     3fe:	0100                	.2byte	0x100
     400:	00090003          	lb	zero,0(s2)
     404:	0100                	.2byte	0x100
     406:	00090003          	lb	zero,0(s2)
     40a:	0100                	.2byte	0x100
     40c:	00090003          	lb	zero,0(s2)
     410:	0100                	.2byte	0x100
     412:	00090003          	lb	zero,0(s2)
     416:	0100                	.2byte	0x100
     418:	00090003          	lb	zero,0(s2)
     41c:	0100                	.2byte	0x100
     41e:	00090003          	lb	zero,0(s2)
     422:	0100                	.2byte	0x100
     424:	00090003          	lb	zero,0(s2)
     428:	0100                	.2byte	0x100
     42a:	00090003          	lb	zero,0(s2)
     42e:	0100                	.2byte	0x100
     430:	00090003          	lb	zero,0(s2)
     434:	0100                	.2byte	0x100
     436:	00090003          	lb	zero,0(s2)
     43a:	0100                	.2byte	0x100
     43c:	00090003          	lb	zero,0(s2)
     440:	0100                	.2byte	0x100
     442:	00090003          	lb	zero,0(s2)
     446:	0100                	.2byte	0x100
     448:	00090003          	lb	zero,0(s2)
     44c:	0100                	.2byte	0x100
     44e:	00090003          	lb	zero,0(s2)
     452:	0100                	.2byte	0x100
     454:	00090003          	lb	zero,0(s2)
     458:	0100                	.2byte	0x100
     45a:	00090003          	lb	zero,0(s2)
     45e:	0100                	.2byte	0x100
     460:	00090003          	lb	zero,0(s2)
     464:	0100                	.2byte	0x100
     466:	00090003          	lb	zero,0(s2)
     46a:	0100                	.2byte	0x100
     46c:	0705                	.2byte	0x705
     46e:	00091503          	lh	a0,0(s2)
     472:	0100                	.2byte	0x100
     474:	0a05                	.2byte	0xa05
     476:	0306                	.2byte	0x306
     478:	0900                	.2byte	0x900
     47a:	0000                	.2byte	0x0
     47c:	0501                	.2byte	0x501
     47e:	0604                	.2byte	0x604
     480:	00091303          	lh	t1,0(s2)
     484:	0100                	.2byte	0x100
     486:	00090003          	lb	zero,0(s2)
     48a:	0100                	.2byte	0x100
     48c:	00090003          	lb	zero,0(s2)
     490:	0100                	.2byte	0x100
     492:	00090003          	lb	zero,0(s2)
     496:	0100                	.2byte	0x100
     498:	00090003          	lb	zero,0(s2)
     49c:	0100                	.2byte	0x100
     49e:	00090003          	lb	zero,0(s2)
     4a2:	0100                	.2byte	0x100
     4a4:	00090003          	lb	zero,0(s2)
     4a8:	0100                	.2byte	0x100
     4aa:	00090103          	lb	sp,0(s2)
     4ae:	0100                	.2byte	0x100
     4b0:	0705                	.2byte	0x705
     4b2:	0306                	.2byte	0x306
     4b4:	0900                	.2byte	0x900
     4b6:	0000                	.2byte	0x0
     4b8:	0501                	.2byte	0x501
     4ba:	0608                	.2byte	0x608
     4bc:	00090a03          	lb	s4,0(s2)
     4c0:	0100                	.2byte	0x100
     4c2:	0306                	.2byte	0x306
     4c4:	0902                	.2byte	0x902
     4c6:	0000                	.2byte	0x0
     4c8:	0501                	.2byte	0x501
     4ca:	097e030b          	.4byte	0x97e030b
     4ce:	0000                	.2byte	0x0
     4d0:	0501                	.2byte	0x501
     4d2:	0314                	.2byte	0x314
     4d4:	0900                	.2byte	0x900
     4d6:	0000                	.2byte	0x0
     4d8:	0501                	.2byte	0x501
     4da:	0304                	.2byte	0x304
     4dc:	0975                	.2byte	0x975
     4de:	0000                	.2byte	0x0
     4e0:	0501                	.2byte	0x501
     4e2:	0608                	.2byte	0x608
     4e4:	00091e03          	lh	t3,0(s2)
     4e8:	0100                	.2byte	0x100
     4ea:	00090303          	lb	t1,0(s2)
     4ee:	0100                	.2byte	0x100
     4f0:	00090203          	lb	tp,0(s2)
     4f4:	0100                	.2byte	0x100
     4f6:	1e05                	.2byte	0x1e05
     4f8:	0306                	.2byte	0x306
     4fa:	0900                	.2byte	0x900
     4fc:	0000                	.2byte	0x0
     4fe:	0501                	.2byte	0x501
     500:	0311                	.2byte	0x311
     502:	0900                	.2byte	0x900
     504:	0000                	.2byte	0x0
     506:	0501                	.2byte	0x501
     508:	0900030b          	.4byte	0x900030b
     50c:	0000                	.2byte	0x0
     50e:	0501                	.2byte	0x501
     510:	0608                	.2byte	0x608
     512:	00090103          	lb	sp,0(s2)
     516:	0100                	.2byte	0x100
     518:	0b05                	.2byte	0xb05
     51a:	0306                	.2byte	0x306
     51c:	0901                	.2byte	0x901
     51e:	0000                	.2byte	0x0
     520:	0501                	.2byte	0x501
     522:	0311                	.2byte	0x311
     524:	0901                	.2byte	0x901
     526:	0000                	.2byte	0x0
     528:	0501                	.2byte	0x501
     52a:	031e                	.2byte	0x31e
     52c:	0900                	.2byte	0x900
     52e:	0000                	.2byte	0x0
     530:	0501                	.2byte	0x501
     532:	0900030b          	.4byte	0x900030b
     536:	0000                	.2byte	0x0
     538:	0501                	.2byte	0x501
     53a:	0308                	.2byte	0x308
     53c:	00000903          	lb	s2,0(zero) # 0 <exit-0x10094>
     540:	0501                	.2byte	0x501
     542:	097b030b          	.4byte	0x97b030b
     546:	0000                	.2byte	0x0
     548:	0501                	.2byte	0x501
     54a:	0608                	.2byte	0x608
     54c:	00090103          	lb	sp,0(s2)
     550:	0100                	.2byte	0x100
     552:	00090103          	lb	sp,0(s2)
     556:	0100                	.2byte	0x100
     558:	00090103          	lb	sp,0(s2)
     55c:	0100                	.2byte	0x100
     55e:	00090203          	lb	tp,0(s2)
     562:	0100                	.2byte	0x100
     564:	00090003          	lb	zero,0(s2)
     568:	0100                	.2byte	0x100
     56a:	00090003          	lb	zero,0(s2)
     56e:	0100                	.2byte	0x100
     570:	00090003          	lb	zero,0(s2)
     574:	0100                	.2byte	0x100
     576:	00090003          	lb	zero,0(s2)
     57a:	0100                	.2byte	0x100
     57c:	00090003          	lb	zero,0(s2)
     580:	0100                	.2byte	0x100
     582:	00090003          	lb	zero,0(s2)
     586:	0100                	.2byte	0x100
     588:	00090003          	lb	zero,0(s2)
     58c:	0100                	.2byte	0x100
     58e:	00090003          	lb	zero,0(s2)
     592:	0100                	.2byte	0x100
     594:	00090003          	lb	zero,0(s2)
     598:	0100                	.2byte	0x100
     59a:	00090003          	lb	zero,0(s2)
     59e:	0100                	.2byte	0x100
     5a0:	00090003          	lb	zero,0(s2)
     5a4:	0100                	.2byte	0x100
     5a6:	00090003          	lb	zero,0(s2)
     5aa:	0100                	.2byte	0x100
     5ac:	00090003          	lb	zero,0(s2)
     5b0:	0100                	.2byte	0x100
     5b2:	00090003          	lb	zero,0(s2)
     5b6:	0100                	.2byte	0x100
     5b8:	00090003          	lb	zero,0(s2)
     5bc:	0100                	.2byte	0x100
     5be:	00090003          	lb	zero,0(s2)
     5c2:	0100                	.2byte	0x100
     5c4:	00090003          	lb	zero,0(s2)
     5c8:	0100                	.2byte	0x100
     5ca:	00090003          	lb	zero,0(s2)
     5ce:	0100                	.2byte	0x100
     5d0:	00090003          	lb	zero,0(s2)
     5d4:	0100                	.2byte	0x100
     5d6:	00090003          	lb	zero,0(s2)
     5da:	0100                	.2byte	0x100
     5dc:	00090003          	lb	zero,0(s2)
     5e0:	0100                	.2byte	0x100
     5e2:	00090003          	lb	zero,0(s2)
     5e6:	0100                	.2byte	0x100
     5e8:	00090003          	lb	zero,0(s2)
     5ec:	0100                	.2byte	0x100
     5ee:	00090003          	lb	zero,0(s2)
     5f2:	0100                	.2byte	0x100
     5f4:	0306                	.2byte	0x306
     5f6:	0901                	.2byte	0x901
     5f8:	0000                	.2byte	0x0
     5fa:	0301                	.2byte	0x301
     5fc:	097f                	.2byte	0x97f
     5fe:	0000                	.2byte	0x0
     600:	0301                	.2byte	0x301
     602:	0901                	.2byte	0x901
     604:	0000                	.2byte	0x0
     606:	0301                	.2byte	0x301
     608:	097f                	.2byte	0x97f
     60a:	0000                	.2byte	0x0
     60c:	0601                	.2byte	0x601
     60e:	00090003          	lb	zero,0(s2)
     612:	0100                	.2byte	0x100
     614:	00090003          	lb	zero,0(s2)
     618:	0100                	.2byte	0x100
     61a:	00090003          	lb	zero,0(s2)
     61e:	0100                	.2byte	0x100
     620:	00090103          	lb	sp,0(s2)
     624:	0100                	.2byte	0x100
     626:	00090003          	lb	zero,0(s2)
     62a:	0100                	.2byte	0x100
     62c:	00090003          	lb	zero,0(s2)
     630:	0100                	.2byte	0x100
     632:	00090003          	lb	zero,0(s2)
     636:	0100                	.2byte	0x100
     638:	00090003          	lb	zero,0(s2)
     63c:	0100                	.2byte	0x100
     63e:	00090003          	lb	zero,0(s2)
     642:	0100                	.2byte	0x100
     644:	00090003          	lb	zero,0(s2)
     648:	0100                	.2byte	0x100
     64a:	00090003          	lb	zero,0(s2)
     64e:	0100                	.2byte	0x100
     650:	00090003          	lb	zero,0(s2)
     654:	0100                	.2byte	0x100
     656:	00090003          	lb	zero,0(s2)
     65a:	0100                	.2byte	0x100
     65c:	00090003          	lb	zero,0(s2)
     660:	0100                	.2byte	0x100
     662:	00090003          	lb	zero,0(s2)
     666:	0100                	.2byte	0x100
     668:	00090003          	lb	zero,0(s2)
     66c:	0100                	.2byte	0x100
     66e:	00090003          	lb	zero,0(s2)
     672:	0100                	.2byte	0x100
     674:	00090003          	lb	zero,0(s2)
     678:	0100                	.2byte	0x100
     67a:	00090003          	lb	zero,0(s2)
     67e:	0100                	.2byte	0x100
     680:	00090003          	lb	zero,0(s2)
     684:	0100                	.2byte	0x100
     686:	00090003          	lb	zero,0(s2)
     68a:	0100                	.2byte	0x100
     68c:	00090203          	lb	tp,0(s2)
     690:	0100                	.2byte	0x100
     692:	0b05                	.2byte	0xb05
     694:	0306                	.2byte	0x306
     696:	0900                	.2byte	0x900
     698:	0000                	.2byte	0x0
     69a:	0501                	.2byte	0x501
     69c:	0314                	.2byte	0x314
     69e:	0900                	.2byte	0x900
     6a0:	0000                	.2byte	0x0
     6a2:	0501                	.2byte	0x501
     6a4:	0308                	.2byte	0x308
     6a6:	097e                	.2byte	0x97e
     6a8:	0000                	.2byte	0x0
     6aa:	0501                	.2byte	0x501
     6ac:	097d030b          	.4byte	0x97d030b
     6b0:	0000                	.2byte	0x0
     6b2:	0501                	.2byte	0x501
     6b4:	0308                	.2byte	0x308
     6b6:	00000903          	lb	s2,0(zero) # 0 <exit-0x10094>
     6ba:	0501                	.2byte	0x501
     6bc:	0908030b          	.4byte	0x908030b
     6c0:	0000                	.2byte	0x0
     6c2:	0501                	.2byte	0x501
     6c4:	0321                	.2byte	0x321
     6c6:	097a                	.2byte	0x97a
     6c8:	0000                	.2byte	0x0
     6ca:	0501                	.2byte	0x501
     6cc:	0605                	.2byte	0x605
     6ce:	00090203          	lb	tp,0(s2)
     6d2:	0100                	.2byte	0x100
     6d4:	0705                	.2byte	0x705
     6d6:	0306                	.2byte	0x306
     6d8:	0900                	.2byte	0x900
     6da:	0000                	.2byte	0x0
     6dc:	0501                	.2byte	0x501
     6de:	0605                	.2byte	0x605
     6e0:	00090103          	lb	sp,0(s2)
     6e4:	0100                	.2byte	0x100
     6e6:	00090003          	lb	zero,0(s2)
     6ea:	0100                	.2byte	0x100
     6ec:	00090003          	lb	zero,0(s2)
     6f0:	0100                	.2byte	0x100
     6f2:	00090003          	lb	zero,0(s2)
     6f6:	0100                	.2byte	0x100
     6f8:	00090003          	lb	zero,0(s2)
     6fc:	0100                	.2byte	0x100
     6fe:	0705                	.2byte	0x705
     700:	0306                	.2byte	0x306
     702:	00000943          	.4byte	0x943
     706:	0301                	.2byte	0x301
     708:	097f                	.2byte	0x97f
     70a:	0000                	.2byte	0x0
     70c:	0901                	.2byte	0x901
     70e:	0000                	.2byte	0x0
     710:	0100                	.2byte	0x100
     712:	1801                	.2byte	0x1801
     714:	000a                	.2byte	0xa
     716:	0500                	.2byte	0x500
     718:	0400                	.2byte	0x400
     71a:	3300                	.2byte	0x3300
     71c:	0000                	.2byte	0x0
     71e:	0100                	.2byte	0x100
     720:	0101                	.2byte	0x101
     722:	000d0efb          	.4byte	0xd0efb
     726:	0101                	.2byte	0x101
     728:	0101                	.2byte	0x101
     72a:	0000                	.2byte	0x0
     72c:	0100                	.2byte	0x100
     72e:	0000                	.2byte	0x0
     730:	0101                	.2byte	0x101
     732:	1f01                	.2byte	0x1f01
     734:	3802                	.2byte	0x3802
     736:	0000                	.2byte	0x0
     738:	1200                	.2byte	0x1200
     73a:	0001                	.2byte	0x1
     73c:	0200                	.2byte	0x200
     73e:	1f01                	.2byte	0x1f01
     740:	0f02                	.2byte	0xf02
     742:	00010903          	lb	s2,0(sp)
     746:	0100                	.2byte	0x100
     748:	0109                	.2byte	0x109
     74a:	0000                	.2byte	0x0
     74c:	4801                	.2byte	0x4801
     74e:	0001                	.2byte	0x1
     750:	0100                	.2byte	0x100
     752:	0105                	.2byte	0x105
     754:	0500                	.2byte	0x500
     756:	9402                	.2byte	0x9402
     758:	0104                	.2byte	0x104
     75a:	0300                	.2byte	0x300
     75c:	03050123          	sb	a6,34(a0)
     760:	00090103          	lb	sp,0(s2)
     764:	0100                	.2byte	0x100
     766:	00090003          	lb	zero,0(s2)
     76a:	0100                	.2byte	0x100
     76c:	0d05                	.2byte	0xd05
     76e:	00090003          	lb	zero,0(s2)
     772:	0100                	.2byte	0x100
     774:	0305                	.2byte	0x305
     776:	00090103          	lb	sp,0(s2)
     77a:	0100                	.2byte	0x100
     77c:	00090003          	lb	zero,0(s2)
     780:	0100                	.2byte	0x100
     782:	00090003          	lb	zero,0(s2)
     786:	0100                	.2byte	0x100
     788:	00090003          	lb	zero,0(s2)
     78c:	0100                	.2byte	0x100
     78e:	00090103          	lb	sp,0(s2)
     792:	0100                	.2byte	0x100
     794:	00090003          	lb	zero,0(s2)
     798:	0100                	.2byte	0x100
     79a:	00090003          	lb	zero,0(s2)
     79e:	0100                	.2byte	0x100
     7a0:	00090003          	lb	zero,0(s2)
     7a4:	0100                	.2byte	0x100
     7a6:	00090103          	lb	sp,0(s2)
     7aa:	0100                	.2byte	0x100
     7ac:	00090003          	lb	zero,0(s2)
     7b0:	0100                	.2byte	0x100
     7b2:	00090003          	lb	zero,0(s2)
     7b6:	0100                	.2byte	0x100
     7b8:	00090003          	lb	zero,0(s2)
     7bc:	0100                	.2byte	0x100
     7be:	00090103          	lb	sp,0(s2)
     7c2:	0100                	.2byte	0x100
     7c4:	00090203          	lb	tp,0(s2)
     7c8:	0100                	.2byte	0x100
     7ca:	00090103          	lb	sp,0(s2)
     7ce:	0100                	.2byte	0x100
     7d0:	00090003          	lb	zero,0(s2)
     7d4:	0100                	.2byte	0x100
     7d6:	00090003          	lb	zero,0(s2)
     7da:	0100                	.2byte	0x100
     7dc:	00090003          	lb	zero,0(s2)
     7e0:	0100                	.2byte	0x100
     7e2:	00090003          	lb	zero,0(s2)
     7e6:	0100                	.2byte	0x100
     7e8:	0105                	.2byte	0x105
     7ea:	0306                	.2byte	0x306
     7ec:	0978                	.2byte	0x978
     7ee:	0000                	.2byte	0x0
     7f0:	0501                	.2byte	0x501
     7f2:	09080303          	lb	t1,144(a6)
     7f6:	0004                	.2byte	0x4
     7f8:	0301                	.2byte	0x301
     7fa:	0901                	.2byte	0x901
     7fc:	0008                	.2byte	0x8
     7fe:	0501                	.2byte	0x501
     800:	0301                	.2byte	0x301
     802:	00040977          	.4byte	0x40977
     806:	0501                	.2byte	0x501
     808:	09080303          	lb	t1,144(a6)
     80c:	0004                	.2byte	0x4
     80e:	0601                	.2byte	0x601
     810:	08090003          	lb	zero,128(s2)
     814:	0100                	.2byte	0x100
     816:	0105                	.2byte	0x105
     818:	0306                	.2byte	0x306
     81a:	0978                	.2byte	0x978
     81c:	0000                	.2byte	0x0
     81e:	0501                	.2byte	0x501
     820:	09090303          	lb	t1,144(s2)
     824:	0004                	.2byte	0x4
     826:	0301                	.2byte	0x301
     828:	097f                	.2byte	0x97f
     82a:	0004                	.2byte	0x4
     82c:	0601                	.2byte	0x601
     82e:	04090003          	lb	zero,64(s2)
     832:	0100                	.2byte	0x100
     834:	0306                	.2byte	0x306
     836:	0901                	.2byte	0x901
     838:	0000                	.2byte	0x0
     83a:	0501                	.2byte	0x501
     83c:	0301                	.2byte	0x301
     83e:	00040977          	.4byte	0x40977
     842:	0501                	.2byte	0x501
     844:	09080303          	lb	t1,144(a6)
     848:	0008                	.2byte	0x8
     84a:	0601                	.2byte	0x601
     84c:	04090003          	lb	zero,64(s2)
     850:	0100                	.2byte	0x100
     852:	00090003          	lb	zero,0(s2)
     856:	0100                	.2byte	0x100
     858:	00090003          	lb	zero,0(s2)
     85c:	0100                	.2byte	0x100
     85e:	00090003          	lb	zero,0(s2)
     862:	0100                	.2byte	0x100
     864:	0306                	.2byte	0x306
     866:	0901                	.2byte	0x901
     868:	0000                	.2byte	0x0
     86a:	0301                	.2byte	0x301
     86c:	097f                	.2byte	0x97f
     86e:	0004                	.2byte	0x4
     870:	0601                	.2byte	0x601
     872:	04090003          	lb	zero,64(s2)
     876:	0100                	.2byte	0x100
     878:	00090003          	lb	zero,0(s2)
     87c:	0100                	.2byte	0x100
     87e:	00090103          	lb	sp,0(s2)
     882:	0100                	.2byte	0x100
     884:	00090003          	lb	zero,0(s2)
     888:	0100                	.2byte	0x100
     88a:	00090003          	lb	zero,0(s2)
     88e:	0100                	.2byte	0x100
     890:	00090003          	lb	zero,0(s2)
     894:	0100                	.2byte	0x100
     896:	00090003          	lb	zero,0(s2)
     89a:	0100                	.2byte	0x100
     89c:	00090003          	lb	zero,0(s2)
     8a0:	0100                	.2byte	0x100
     8a2:	00090003          	lb	zero,0(s2)
     8a6:	0100                	.2byte	0x100
     8a8:	00090003          	lb	zero,0(s2)
     8ac:	0100                	.2byte	0x100
     8ae:	00090003          	lb	zero,0(s2)
     8b2:	0100                	.2byte	0x100
     8b4:	00090003          	lb	zero,0(s2)
     8b8:	0100                	.2byte	0x100
     8ba:	00090003          	lb	zero,0(s2)
     8be:	0100                	.2byte	0x100
     8c0:	04090003          	lb	zero,64(s2)
     8c4:	0100                	.2byte	0x100
     8c6:	00090003          	lb	zero,0(s2)
     8ca:	0100                	.2byte	0x100
     8cc:	00090103          	lb	sp,0(s2)
     8d0:	0100                	.2byte	0x100
     8d2:	00090003          	lb	zero,0(s2)
     8d6:	0100                	.2byte	0x100
     8d8:	00090003          	lb	zero,0(s2)
     8dc:	0100                	.2byte	0x100
     8de:	00090003          	lb	zero,0(s2)
     8e2:	0100                	.2byte	0x100
     8e4:	00090003          	lb	zero,0(s2)
     8e8:	0100                	.2byte	0x100
     8ea:	00090003          	lb	zero,0(s2)
     8ee:	0100                	.2byte	0x100
     8f0:	00090003          	lb	zero,0(s2)
     8f4:	0100                	.2byte	0x100
     8f6:	00090003          	lb	zero,0(s2)
     8fa:	0100                	.2byte	0x100
     8fc:	0200                	.2byte	0x200
     8fe:	0704                	.2byte	0x704
     900:	08090003          	lb	zero,128(s2)
     904:	0100                	.2byte	0x100
     906:	0200                	.2byte	0x200
     908:	0704                	.2byte	0x704
     90a:	00090003          	lb	zero,0(s2)
     90e:	0100                	.2byte	0x100
     910:	0200                	.2byte	0x200
     912:	0704                	.2byte	0x704
     914:	00090003          	lb	zero,0(s2)
     918:	0100                	.2byte	0x100
     91a:	0200                	.2byte	0x200
     91c:	0904                	.2byte	0x904
     91e:	04090003          	lb	zero,64(s2)
     922:	0100                	.2byte	0x100
     924:	0200                	.2byte	0x200
     926:	0904                	.2byte	0x904
     928:	00090003          	lb	zero,0(s2)
     92c:	0100                	.2byte	0x100
     92e:	0200                	.2byte	0x200
     930:	0b04                	.2byte	0xb04
     932:	04090003          	lb	zero,64(s2)
     936:	0100                	.2byte	0x100
     938:	0200                	.2byte	0x200
     93a:	0e04                	.2byte	0xe04
     93c:	04090003          	lb	zero,64(s2)
     940:	0100                	.2byte	0x100
     942:	0200                	.2byte	0x200
     944:	0e04                	.2byte	0xe04
     946:	00090003          	lb	zero,0(s2)
     94a:	0100                	.2byte	0x100
     94c:	0200                	.2byte	0x200
     94e:	0e04                	.2byte	0xe04
     950:	04090003          	lb	zero,64(s2)
     954:	0100                	.2byte	0x100
     956:	04090003          	lb	zero,64(s2)
     95a:	0100                	.2byte	0x100
     95c:	04090003          	lb	zero,64(s2)
     960:	0100                	.2byte	0x100
     962:	00090003          	lb	zero,0(s2)
     966:	0100                	.2byte	0x100
     968:	0200                	.2byte	0x200
     96a:	7e04                	.2byte	0x7e04
     96c:	10090003          	lb	zero,256(s2)
     970:	0100                	.2byte	0x100
     972:	0200                	.2byte	0x200
     974:	1804                	.2byte	0x1804
     976:	08090003          	lb	zero,128(s2)
     97a:	0100                	.2byte	0x100
     97c:	0306                	.2byte	0x306
     97e:	0900                	.2byte	0x900
     980:	0008                	.2byte	0x8
     982:	0001                	.2byte	0x1
     984:	0402                	.2byte	0x402
     986:	060c                	.2byte	0x60c
     988:	08090003          	lb	zero,128(s2)
     98c:	0100                	.2byte	0x100
     98e:	0200                	.2byte	0x200
     990:	2604                	.2byte	0x2604
     992:	08090003          	lb	zero,128(s2)
     996:	0100                	.2byte	0x100
     998:	0200                	.2byte	0x200
     99a:	2f04                	.2byte	0x2f04
     99c:	0c090003          	lb	zero,192(s2)
     9a0:	0100                	.2byte	0x100
     9a2:	08090003          	lb	zero,128(s2)
     9a6:	0100                	.2byte	0x100
     9a8:	04090003          	lb	zero,64(s2)
     9ac:	0100                	.2byte	0x100
     9ae:	0300                	.2byte	0x300
     9b0:	f904                	.2byte	0xf904
     9b2:	0302                	.2byte	0x302
     9b4:	0900                	.2byte	0x900
     9b6:	0000                	.2byte	0x0
     9b8:	0001                	.2byte	0x1
     9ba:	02f90403          	lb	s0,47(s2)
     9be:	00090003          	lb	zero,0(s2)
     9c2:	0100                	.2byte	0x100
     9c4:	0300                	.2byte	0x300
     9c6:	f904                	.2byte	0xf904
     9c8:	0302                	.2byte	0x302
     9ca:	0901                	.2byte	0x901
     9cc:	0000                	.2byte	0x0
     9ce:	0001                	.2byte	0x1
     9d0:	02f90403          	lb	s0,47(s2)
     9d4:	00090003          	lb	zero,0(s2)
     9d8:	0100                	.2byte	0x100
     9da:	0300                	.2byte	0x300
     9dc:	f904                	.2byte	0xf904
     9de:	0302                	.2byte	0x302
     9e0:	0900                	.2byte	0x900
     9e2:	0000                	.2byte	0x0
     9e4:	0001                	.2byte	0x1
     9e6:	02f90403          	lb	s0,47(s2)
     9ea:	00090003          	lb	zero,0(s2)
     9ee:	0100                	.2byte	0x100
     9f0:	0300                	.2byte	0x300
     9f2:	f904                	.2byte	0xf904
     9f4:	0302                	.2byte	0x302
     9f6:	0900                	.2byte	0x900
     9f8:	0000                	.2byte	0x0
     9fa:	0001                	.2byte	0x1
     9fc:	0402                	.2byte	0x402
     9fe:	0325                	.2byte	0x325
     a00:	0900                	.2byte	0x900
     a02:	0008                	.2byte	0x8
     a04:	0001                	.2byte	0x1
     a06:	0402                	.2byte	0x402
     a08:	0325                	.2byte	0x325
     a0a:	0900                	.2byte	0x900
     a0c:	0000                	.2byte	0x0
     a0e:	0001                	.2byte	0x1
     a10:	0402                	.2byte	0x402
     a12:	0325                	.2byte	0x325
     a14:	0900                	.2byte	0x900
     a16:	0000                	.2byte	0x0
     a18:	0001                	.2byte	0x1
     a1a:	0402                	.2byte	0x402
     a1c:	0325                	.2byte	0x325
     a1e:	0900                	.2byte	0x900
     a20:	0000                	.2byte	0x0
     a22:	0001                	.2byte	0x1
     a24:	0402                	.2byte	0x402
     a26:	032c                	.2byte	0x32c
     a28:	0900                	.2byte	0x900
     a2a:	000c                	.2byte	0xc
     a2c:	0001                	.2byte	0x1
     a2e:	0402                	.2byte	0x402
     a30:	0900032f          	.4byte	0x900032f
     a34:	0004                	.2byte	0x4
     a36:	0001                	.2byte	0x1
     a38:	0402                	.2byte	0x402
     a3a:	0900032f          	.4byte	0x900032f
     a3e:	0000                	.2byte	0x0
     a40:	0001                	.2byte	0x1
     a42:	0402                	.2byte	0x402
     a44:	0900032f          	.4byte	0x900032f
     a48:	0000                	.2byte	0x0
     a4a:	0001                	.2byte	0x1
     a4c:	0402                	.2byte	0x402
     a4e:	0900033f 0001000c 	.8byte	0x1000c0900033f
     a56:	0402                	.2byte	0x402
     a58:	0900033f 00010000 	.8byte	0x100000900033f
     a60:	0402                	.2byte	0x402
     a62:	0900033f 03010004 	.8byte	0x30100040900033f
     a6a:	0900                	.2byte	0x900
     a6c:	000c                	.2byte	0xc
     a6e:	0301                	.2byte	0x301
     a70:	0900                	.2byte	0x900
     a72:	0000                	.2byte	0x0
     a74:	0301                	.2byte	0x301
     a76:	0900                	.2byte	0x900
     a78:	0010                	.2byte	0x10
     a7a:	0001                	.2byte	0x1
     a7c:	0402                	.2byte	0x402
     a7e:	035a                	.2byte	0x35a
     a80:	0900                	.2byte	0x900
     a82:	0000                	.2byte	0x0
     a84:	0001                	.2byte	0x1
     a86:	0402                	.2byte	0x402
     a88:	035a                	.2byte	0x35a
     a8a:	0900                	.2byte	0x900
     a8c:	0000                	.2byte	0x0
     a8e:	0001                	.2byte	0x1
     a90:	0402                	.2byte	0x402
     a92:	035a                	.2byte	0x35a
     a94:	0900                	.2byte	0x900
     a96:	0000                	.2byte	0x0
     a98:	0001                	.2byte	0x1
     a9a:	0402                	.2byte	0x402
     a9c:	035a                	.2byte	0x35a
     a9e:	0900                	.2byte	0x900
     aa0:	0000                	.2byte	0x0
     aa2:	0001                	.2byte	0x1
     aa4:	0402                	.2byte	0x402
     aa6:	035a                	.2byte	0x35a
     aa8:	0900                	.2byte	0x900
     aaa:	0000                	.2byte	0x0
     aac:	0001                	.2byte	0x1
     aae:	0402                	.2byte	0x402
     ab0:	035a                	.2byte	0x35a
     ab2:	0900                	.2byte	0x900
     ab4:	0000                	.2byte	0x0
     ab6:	0001                	.2byte	0x1
     ab8:	0402                	.2byte	0x402
     aba:	035a                	.2byte	0x35a
     abc:	0900                	.2byte	0x900
     abe:	0000                	.2byte	0x0
     ac0:	0001                	.2byte	0x1
     ac2:	0402                	.2byte	0x402
     ac4:	035a                	.2byte	0x35a
     ac6:	0900                	.2byte	0x900
     ac8:	001c                	.2byte	0x1c
     aca:	0001                	.2byte	0x1
     acc:	0402                	.2byte	0x402
     ace:	035a                	.2byte	0x35a
     ad0:	0900                	.2byte	0x900
     ad2:	0000                	.2byte	0x0
     ad4:	0001                	.2byte	0x1
     ad6:	0402                	.2byte	0x402
     ad8:	035a                	.2byte	0x35a
     ada:	0900                	.2byte	0x900
     adc:	0000                	.2byte	0x0
     ade:	0001                	.2byte	0x1
     ae0:	0402                	.2byte	0x402
     ae2:	035a                	.2byte	0x35a
     ae4:	0901                	.2byte	0x901
     ae6:	0000                	.2byte	0x0
     ae8:	0001                	.2byte	0x1
     aea:	0402                	.2byte	0x402
     aec:	035a                	.2byte	0x35a
     aee:	0900                	.2byte	0x900
     af0:	0000                	.2byte	0x0
     af2:	0001                	.2byte	0x1
     af4:	0402                	.2byte	0x402
     af6:	035a                	.2byte	0x35a
     af8:	0900                	.2byte	0x900
     afa:	0000                	.2byte	0x0
     afc:	0001                	.2byte	0x1
     afe:	0402                	.2byte	0x402
     b00:	035a                	.2byte	0x35a
     b02:	0902                	.2byte	0x902
     b04:	0000                	.2byte	0x0
     b06:	0501                	.2byte	0x501
     b08:	0001                	.2byte	0x1
     b0a:	0402                	.2byte	0x402
     b0c:	065a                	.2byte	0x65a
     b0e:	00090103          	lb	sp,0(s2)
     b12:	0100                	.2byte	0x100
     b14:	0305                	.2byte	0x305
     b16:	0200                	.2byte	0x200
     b18:	3004                	.2byte	0x3004
     b1a:	0306                	.2byte	0x306
     b1c:	001c097b          	.4byte	0x1c097b
     b20:	0001                	.2byte	0x1
     b22:	0402                	.2byte	0x402
     b24:	0330                	.2byte	0x330
     b26:	0900                	.2byte	0x900
     b28:	0014                	.2byte	0x14
     b2a:	0001                	.2byte	0x1
     b2c:	0402                	.2byte	0x402
     b2e:	0370                	.2byte	0x370
     b30:	0900                	.2byte	0x900
     b32:	0008                	.2byte	0x8
     b34:	0001                	.2byte	0x1
     b36:	01ab0403          	lb	s0,26(s6)
     b3a:	0c090003          	lb	zero,192(s2)
     b3e:	0100                	.2byte	0x100
     b40:	0300                	.2byte	0x300
     b42:	ab04                	.2byte	0xab04
     b44:	0301                	.2byte	0x301
     b46:	0900                	.2byte	0x900
     b48:	0000                	.2byte	0x0
     b4a:	0001                	.2byte	0x1
     b4c:	01ab0403          	lb	s0,26(s6)
     b50:	04090003          	lb	zero,64(s2)
     b54:	0100                	.2byte	0x100
     b56:	0300                	.2byte	0x300
     b58:	ab04                	.2byte	0xab04
     b5a:	0301                	.2byte	0x301
     b5c:	0900                	.2byte	0x900
     b5e:	0000                	.2byte	0x0
     b60:	0001                	.2byte	0x1
     b62:	01ab0403          	lb	s0,26(s6)
     b66:	0306                	.2byte	0x306
     b68:	0901                	.2byte	0x901
     b6a:	0004                	.2byte	0x4
     b6c:	0001                	.2byte	0x1
     b6e:	01ab0403          	lb	s0,26(s6)
     b72:	04097f03          	.4byte	0x4097f03
     b76:	0100                	.2byte	0x100
     b78:	04090003          	lb	zero,64(s2)
     b7c:	0100                	.2byte	0x100
     b7e:	0200                	.2byte	0x200
     b80:	0a04                	.2byte	0xa04
     b82:	0306                	.2byte	0x306
     b84:	0900                	.2byte	0x900
     b86:	001c                	.2byte	0x1c
     b88:	0001                	.2byte	0x1
     b8a:	0402                	.2byte	0x402
     b8c:	033d                	.2byte	0x33d
     b8e:	0900                	.2byte	0x900
     b90:	0004                	.2byte	0x4
     b92:	0001                	.2byte	0x1
     b94:	0402                	.2byte	0x402
     b96:	033d                	.2byte	0x33d
     b98:	0900                	.2byte	0x900
     b9a:	0004                	.2byte	0x4
     b9c:	0001                	.2byte	0x1
     b9e:	0402                	.2byte	0x402
     ba0:	033d                	.2byte	0x33d
     ba2:	0900                	.2byte	0x900
     ba4:	0000                	.2byte	0x0
     ba6:	0001                	.2byte	0x1
     ba8:	0402                	.2byte	0x402
     baa:	0900033f 00010004 	.8byte	0x100040900033f
     bb2:	0402                	.2byte	0x402
     bb4:	0342                	.2byte	0x342
     bb6:	0900                	.2byte	0x900
     bb8:	0004                	.2byte	0x4
     bba:	0001                	.2byte	0x1
     bbc:	0402                	.2byte	0x402
     bbe:	0342                	.2byte	0x342
     bc0:	0900                	.2byte	0x900
     bc2:	0000                	.2byte	0x0
     bc4:	0001                	.2byte	0x1
     bc6:	0402                	.2byte	0x402
     bc8:	0342                	.2byte	0x342
     bca:	0900                	.2byte	0x900
     bcc:	0004                	.2byte	0x4
     bce:	0001                	.2byte	0x1
     bd0:	0402                	.2byte	0x402
     bd2:	034c                	.2byte	0x34c
     bd4:	0900                	.2byte	0x900
     bd6:	0004                	.2byte	0x4
     bd8:	0601                	.2byte	0x601
     bda:	08097f03          	.4byte	0x8097f03
     bde:	0100                	.2byte	0x100
     be0:	0200                	.2byte	0x200
     be2:	4004                	.2byte	0x4004
     be4:	0306                	.2byte	0x306
     be6:	0901                	.2byte	0x901
     be8:	0008                	.2byte	0x8
     bea:	0001                	.2byte	0x1
     bec:	0402                	.2byte	0x402
     bee:	035a                	.2byte	0x35a
     bf0:	0900                	.2byte	0x900
     bf2:	0008                	.2byte	0x8
     bf4:	0001                	.2byte	0x1
     bf6:	0402                	.2byte	0x402
     bf8:	09000363          	beq	zero,a6,c7e <exit-0xf416>
     bfc:	000c                	.2byte	0xc
     bfe:	0301                	.2byte	0x301
     c00:	0900                	.2byte	0x900
     c02:	0008                	.2byte	0x8
     c04:	0301                	.2byte	0x301
     c06:	0900                	.2byte	0x900
     c08:	0004                	.2byte	0x4
     c0a:	0601                	.2byte	0x601
     c0c:	00097f03          	.4byte	0x97f03
     c10:	0100                	.2byte	0x100
     c12:	0200                	.2byte	0x200
     c14:	6404                	.2byte	0x6404
     c16:	0306                	.2byte	0x306
     c18:	0901                	.2byte	0x901
     c1a:	0008                	.2byte	0x8
     c1c:	0001                	.2byte	0x1
     c1e:	0402                	.2byte	0x402
     c20:	0364                	.2byte	0x364
     c22:	0900                	.2byte	0x900
     c24:	0014                	.2byte	0x14
     c26:	0001                	.2byte	0x1
     c28:	0402                	.2byte	0x402
     c2a:	0664                	.2byte	0x664
     c2c:	08097f03          	.4byte	0x8097f03
     c30:	0100                	.2byte	0x100
     c32:	0200                	.2byte	0x200
     c34:	3e04                	.2byte	0x3e04
     c36:	0306                	.2byte	0x306
     c38:	0901                	.2byte	0x901
     c3a:	0008                	.2byte	0x8
     c3c:	0001                	.2byte	0x1
     c3e:	0402                	.2byte	0x402
     c40:	0371                	.2byte	0x371
     c42:	0900                	.2byte	0x900
     c44:	000c                	.2byte	0xc
     c46:	0001                	.2byte	0x1
     c48:	0402                	.2byte	0x402
     c4a:	09000373          	.4byte	0x9000373
     c4e:	0004                	.2byte	0x4
     c50:	0001                	.2byte	0x1
     c52:	0402                	.2byte	0x402
     c54:	09000373          	.4byte	0x9000373
     c58:	0000                	.2byte	0x0
     c5a:	0001                	.2byte	0x1
     c5c:	0402                	.2byte	0x402
     c5e:	0376                	.2byte	0x376
     c60:	0900                	.2byte	0x900
     c62:	0004                	.2byte	0x4
     c64:	0001                	.2byte	0x1
     c66:	0402                	.2byte	0x402
     c68:	037c                	.2byte	0x37c
     c6a:	0900                	.2byte	0x900
     c6c:	0004                	.2byte	0x4
     c6e:	0001                	.2byte	0x1
     c70:	0402                	.2byte	0x402
     c72:	037c                	.2byte	0x37c
     c74:	0900                	.2byte	0x900
     c76:	0000                	.2byte	0x0
     c78:	0001                	.2byte	0x1
     c7a:	0402                	.2byte	0x402
     c7c:	037c                	.2byte	0x37c
     c7e:	0900                	.2byte	0x900
     c80:	0004                	.2byte	0x4
     c82:	0001                	.2byte	0x1
     c84:	0402                	.2byte	0x402
     c86:	037e                	.2byte	0x37e
     c88:	0900                	.2byte	0x900
     c8a:	000c                	.2byte	0xc
     c8c:	0001                	.2byte	0x1
     c8e:	018f0403          	lb	s0,24(t5)
     c92:	10090003          	lb	zero,256(s2)
     c96:	0100                	.2byte	0x100
     c98:	0300                	.2byte	0x300
     c9a:	8f04                	.2byte	0x8f04
     c9c:	0301                	.2byte	0x301
     c9e:	0900                	.2byte	0x900
     ca0:	0000                	.2byte	0x0
     ca2:	0001                	.2byte	0x1
     ca4:	018f0403          	lb	s0,24(t5)
     ca8:	00090003          	lb	zero,0(s2)
     cac:	0100                	.2byte	0x100
     cae:	0300                	.2byte	0x300
     cb0:	8f04                	.2byte	0x8f04
     cb2:	0301                	.2byte	0x301
     cb4:	0900                	.2byte	0x900
     cb6:	0000                	.2byte	0x0
     cb8:	0001                	.2byte	0x1
     cba:	018f0403          	lb	s0,24(t5)
     cbe:	00090003          	lb	zero,0(s2)
     cc2:	0100                	.2byte	0x100
     cc4:	0300                	.2byte	0x300
     cc6:	8f04                	.2byte	0x8f04
     cc8:	0301                	.2byte	0x301
     cca:	0900                	.2byte	0x900
     ccc:	0000                	.2byte	0x0
     cce:	0001                	.2byte	0x1
     cd0:	018f0403          	lb	s0,24(t5)
     cd4:	00090003          	lb	zero,0(s2)
     cd8:	0100                	.2byte	0x100
     cda:	0300                	.2byte	0x300
     cdc:	8f04                	.2byte	0x8f04
     cde:	0301                	.2byte	0x301
     ce0:	0900                	.2byte	0x900
     ce2:	0000                	.2byte	0x0
     ce4:	0001                	.2byte	0x1
     ce6:	02c90403          	lb	s0,44(s2)
     cea:	04090003          	lb	zero,64(s2)
     cee:	0100                	.2byte	0x100
     cf0:	0306                	.2byte	0x306
     cf2:	0901                	.2byte	0x901
     cf4:	0004                	.2byte	0x4
     cf6:	0001                	.2byte	0x1
     cf8:	0402                	.2byte	0x402
     cfa:	0672                	.2byte	0x672
     cfc:	10097f03          	.4byte	0x10097f03
     d00:	0100                	.2byte	0x100
     d02:	0200                	.2byte	0x200
     d04:	7204                	.2byte	0x7204
     d06:	00090003          	lb	zero,0(s2)
     d0a:	0100                	.2byte	0x100
     d0c:	0200                	.2byte	0x200
     d0e:	7204                	.2byte	0x7204
     d10:	00090003          	lb	zero,0(s2)
     d14:	0100                	.2byte	0x100
     d16:	0200                	.2byte	0x200
     d18:	7204                	.2byte	0x7204
     d1a:	00090003          	lb	zero,0(s2)
     d1e:	0100                	.2byte	0x100
     d20:	0306                	.2byte	0x306
     d22:	0900                	.2byte	0x900
     d24:	0008                	.2byte	0x8
     d26:	0301                	.2byte	0x301
     d28:	097e                	.2byte	0x97e
     d2a:	0008                	.2byte	0x8
     d2c:	0001                	.2byte	0x1
     d2e:	0402                	.2byte	0x402
     d30:	0608                	.2byte	0x608
     d32:	08090203          	lb	tp,128(s2)
     d36:	0100                	.2byte	0x100
     d38:	0200                	.2byte	0x200
     d3a:	0804                	.2byte	0x804
     d3c:	00090003          	lb	zero,0(s2)
     d40:	0100                	.2byte	0x100
     d42:	0300                	.2byte	0x300
     d44:	bd04                	.2byte	0xbd04
     d46:	0301                	.2byte	0x301
     d48:	0900                	.2byte	0x900
     d4a:	0004                	.2byte	0x4
     d4c:	0001                	.2byte	0x1
     d4e:	01bd0403          	lb	s0,27(s10)
     d52:	00090003          	lb	zero,0(s2)
     d56:	0100                	.2byte	0x100
     d58:	0300                	.2byte	0x300
     d5a:	bd04                	.2byte	0xbd04
     d5c:	0301                	.2byte	0x301
     d5e:	0900                	.2byte	0x900
     d60:	0000                	.2byte	0x0
     d62:	0001                	.2byte	0x1
     d64:	01bf0403          	lb	s0,27(t5)
     d68:	04090003          	lb	zero,64(s2)
     d6c:	0100                	.2byte	0x100
     d6e:	0300                	.2byte	0x300
     d70:	c204                	.2byte	0xc204
     d72:	0301                	.2byte	0x301
     d74:	0900                	.2byte	0x900
     d76:	0004                	.2byte	0x4
     d78:	0001                	.2byte	0x1
     d7a:	01c20403          	lb	s0,28(tp) # 1c <exit-0x10078>
     d7e:	00090003          	lb	zero,0(s2)
     d82:	0100                	.2byte	0x100
     d84:	0300                	.2byte	0x300
     d86:	c204                	.2byte	0xc204
     d88:	0301                	.2byte	0x301
     d8a:	0900                	.2byte	0x900
     d8c:	0004                	.2byte	0x4
     d8e:	0001                	.2byte	0x1
     d90:	01cb0403          	lb	s0,28(s6)
     d94:	04090003          	lb	zero,64(s2)
     d98:	0100                	.2byte	0x100
     d9a:	0300                	.2byte	0x300
     d9c:	cb04                	.2byte	0xcb04
     d9e:	0301                	.2byte	0x301
     da0:	0900                	.2byte	0x900
     da2:	0004                	.2byte	0x4
     da4:	0001                	.2byte	0x1
     da6:	01ff0403          	lb	s0,31(t5)
     daa:	0306                	.2byte	0x306
     dac:	097f                	.2byte	0x97f
     dae:	0000                	.2byte	0x0
     db0:	0001                	.2byte	0x1
     db2:	01ff0403          	lb	s0,31(t5)
     db6:	04090103          	lb	sp,64(s2)
     dba:	0100                	.2byte	0x100
     dbc:	0300                	.2byte	0x300
     dbe:	cc04                	.2byte	0xcc04
     dc0:	0601                	.2byte	0x601
     dc2:	04090003          	lb	zero,64(s2)
     dc6:	0100                	.2byte	0x100
     dc8:	0300                	.2byte	0x300
     dca:	e304                	.2byte	0xe304
     dcc:	0301                	.2byte	0x301
     dce:	0900                	.2byte	0x900
     dd0:	0008                	.2byte	0x8
     dd2:	0001                	.2byte	0x1
     dd4:	01e40403          	lb	s0,30(s0) # 1058a42 <__global_pointer$+0x1044ffa>
     dd8:	0c090003          	lb	zero,192(s2)
     ddc:	0100                	.2byte	0x100
     dde:	0300                	.2byte	0x300
     de0:	ef04                	.2byte	0xef04
     de2:	0301                	.2byte	0x301
     de4:	0900                	.2byte	0x900
     de6:	0018                	.2byte	0x18
     de8:	0001                	.2byte	0x1
     dea:	02a40403          	lb	s0,42(s0)
     dee:	04090003          	lb	zero,64(s2)
     df2:	0100                	.2byte	0x100
     df4:	0300                	.2byte	0x300
     df6:	df04                	.2byte	0xdf04
     df8:	0302                	.2byte	0x302
     dfa:	0900                	.2byte	0x900
     dfc:	000c                	.2byte	0xc
     dfe:	0001                	.2byte	0x1
     e00:	02df0403          	lb	s0,45(t5)
     e04:	00090003          	lb	zero,0(s2)
     e08:	0100                	.2byte	0x100
     e0a:	0300                	.2byte	0x300
     e0c:	c004                	.2byte	0xc004
     e0e:	0301                	.2byte	0x301
     e10:	0900                	.2byte	0x900
     e12:	000c                	.2byte	0xc
     e14:	0001                	.2byte	0x1
     e16:	01da0403          	lb	s0,29(s4)
     e1a:	08090003          	lb	zero,128(s2)
     e1e:	0100                	.2byte	0x100
     e20:	0300                	.2byte	0x300
     e22:	be04                	.2byte	0xbe04
     e24:	0301                	.2byte	0x301
     e26:	0900                	.2byte	0x900
     e28:	0010                	.2byte	0x10
     e2a:	0001                	.2byte	0x1
     e2c:	01f10403          	lb	s0,31(sp)
     e30:	04090003          	lb	zero,64(s2)
     e34:	0100                	.2byte	0x100
     e36:	0300                	.2byte	0x300
     e38:	f104                	.2byte	0xf104
     e3a:	0301                	.2byte	0x301
     e3c:	0900                	.2byte	0x900
     e3e:	0004                	.2byte	0x4
     e40:	0001                	.2byte	0x1
     e42:	01f10403          	lb	s0,31(sp)
     e46:	00090003          	lb	zero,0(s2)
     e4a:	0100                	.2byte	0x100
     e4c:	0300                	.2byte	0x300
     e4e:	f104                	.2byte	0xf104
     e50:	0301                	.2byte	0x301
     e52:	0900                	.2byte	0x900
     e54:	0000                	.2byte	0x0
     e56:	0001                	.2byte	0x1
     e58:	01f30403          	lb	s0,31(t1)
     e5c:	04090003          	lb	zero,64(s2)
     e60:	0100                	.2byte	0x100
     e62:	0300                	.2byte	0x300
     e64:	f604                	.2byte	0xf604
     e66:	0301                	.2byte	0x301
     e68:	0900                	.2byte	0x900
     e6a:	0004                	.2byte	0x4
     e6c:	0001                	.2byte	0x1
     e6e:	01f60403          	lb	s0,31(a2) # 300113d <__global_pointer$+0x2fed6f5>
     e72:	00090003          	lb	zero,0(s2)
     e76:	0100                	.2byte	0x100
     e78:	0300                	.2byte	0x300
     e7a:	f604                	.2byte	0xf604
     e7c:	0301                	.2byte	0x301
     e7e:	0900                	.2byte	0x900
     e80:	0004                	.2byte	0x4
     e82:	0001                	.2byte	0x1
     e84:	01ff0403          	lb	s0,31(t5)
     e88:	04090003          	lb	zero,64(s2)
     e8c:	0100                	.2byte	0x100
     e8e:	0300                	.2byte	0x300
     e90:	ff04                	.2byte	0xff04
     e92:	0301                	.2byte	0x301
     e94:	0900                	.2byte	0x900
     e96:	0004                	.2byte	0x4
     e98:	0001                	.2byte	0x1
     e9a:	02800403          	lb	s0,40(zero) # 28 <exit-0x1006c>
     e9e:	08090003          	lb	zero,128(s2)
     ea2:	0100                	.2byte	0x100
     ea4:	0306                	.2byte	0x306
     ea6:	097f                	.2byte	0x97f
     ea8:	0008                	.2byte	0x8
     eaa:	0301                	.2byte	0x301
     eac:	0901                	.2byte	0x901
     eae:	0004                	.2byte	0x4
     eb0:	0001                	.2byte	0x1
     eb2:	01f40403          	lb	s0,31(s0)
     eb6:	0306                	.2byte	0x306
     eb8:	0900                	.2byte	0x900
     eba:	0008                	.2byte	0x8
     ebc:	0001                	.2byte	0x1
     ebe:	028e0403          	lb	s0,40(t3)
     ec2:	08090003          	lb	zero,128(s2)
     ec6:	0100                	.2byte	0x100
     ec8:	0300                	.2byte	0x300
     eca:	9704                	.2byte	0x9704
     ecc:	0302                	.2byte	0x302
     ece:	0900                	.2byte	0x900
     ed0:	000c                	.2byte	0xc
     ed2:	0001                	.2byte	0x1
     ed4:	02980403          	lb	s0,41(a6)
     ed8:	0c090003          	lb	zero,192(s2)
     edc:	0100                	.2byte	0x100
     ede:	0300                	.2byte	0x300
     ee0:	a304                	.2byte	0xa304
     ee2:	0302                	.2byte	0x302
     ee4:	0900                	.2byte	0x900
     ee6:	0018                	.2byte	0x18
     ee8:	0001                	.2byte	0x1
     eea:	02a30403          	lb	s0,42(t1)
     eee:	0306                	.2byte	0x306
     ef0:	097f                	.2byte	0x97f
     ef2:	0004                	.2byte	0x4
     ef4:	0001                	.2byte	0x1
     ef6:	01f20403          	lb	s0,31(tp) # 1f <exit-0x10075>
     efa:	0306                	.2byte	0x306
     efc:	0901                	.2byte	0x901
     efe:	000c                	.2byte	0xc
     f00:	0001                	.2byte	0x1
     f02:	02a50403          	lb	s0,42(a0)
     f06:	0c090003          	lb	zero,192(s2)
     f0a:	0100                	.2byte	0x100
     f0c:	0300                	.2byte	0x300
     f0e:	a704                	.2byte	0xa704
     f10:	0302                	.2byte	0x302
     f12:	0900                	.2byte	0x900
     f14:	0004                	.2byte	0x4
     f16:	0001                	.2byte	0x1
     f18:	02a70403          	lb	s0,42(a4)
     f1c:	00090003          	lb	zero,0(s2)
     f20:	0100                	.2byte	0x100
     f22:	0300                	.2byte	0x300
     f24:	a904                	.2byte	0xa904
     f26:	0302                	.2byte	0x302
     f28:	0900                	.2byte	0x900
     f2a:	0004                	.2byte	0x4
     f2c:	0001                	.2byte	0x1
     f2e:	02a90403          	lb	s0,42(s2)
     f32:	00090003          	lb	zero,0(s2)
     f36:	0100                	.2byte	0x100
     f38:	0306                	.2byte	0x306
     f3a:	0901                	.2byte	0x901
     f3c:	0008                	.2byte	0x8
     f3e:	0001                	.2byte	0x1
     f40:	02aa0403          	lb	s0,42(s4)
     f44:	0306                	.2byte	0x306
     f46:	097f                	.2byte	0x97f
     f48:	0008                	.2byte	0x8
     f4a:	0001                	.2byte	0x1
     f4c:	02b10403          	lb	s0,43(sp)
     f50:	04090003          	lb	zero,64(s2)
     f54:	0100                	.2byte	0x100
     f56:	0300                	.2byte	0x300
     f58:	b104                	.2byte	0xb104
     f5a:	0302                	.2byte	0x302
     f5c:	0900                	.2byte	0x900
     f5e:	0000                	.2byte	0x0
     f60:	0001                	.2byte	0x1
     f62:	02b10403          	lb	s0,43(sp)
     f66:	04090003          	lb	zero,64(s2)
     f6a:	0100                	.2byte	0x100
     f6c:	0300                	.2byte	0x300
     f6e:	b104                	.2byte	0xb104
     f70:	0302                	.2byte	0x302
     f72:	0900                	.2byte	0x900
     f74:	0000                	.2byte	0x0
     f76:	0001                	.2byte	0x1
     f78:	02b40403          	lb	s0,43(s0)
     f7c:	10090003          	lb	zero,256(s2)
     f80:	0100                	.2byte	0x100
     f82:	0306                	.2byte	0x306
     f84:	0900                	.2byte	0x900
     f86:	0008                	.2byte	0x8
     f88:	0001                	.2byte	0x1
     f8a:	02c70403          	lb	s0,44(a4)
     f8e:	0306                	.2byte	0x306
     f90:	0900                	.2byte	0x900
     f92:	0008                	.2byte	0x8
     f94:	0001                	.2byte	0x1
     f96:	02c70403          	lb	s0,44(a4)
     f9a:	00090003          	lb	zero,0(s2)
     f9e:	0100                	.2byte	0x100
     fa0:	0300                	.2byte	0x300
     fa2:	c704                	.2byte	0xc704
     fa4:	0302                	.2byte	0x302
     fa6:	0900                	.2byte	0x900
     fa8:	0000                	.2byte	0x0
     faa:	0001                	.2byte	0x1
     fac:	02c70403          	lb	s0,44(a4)
     fb0:	00090003          	lb	zero,0(s2)
     fb4:	0100                	.2byte	0x100
     fb6:	0300                	.2byte	0x300
     fb8:	c704                	.2byte	0xc704
     fba:	0302                	.2byte	0x302
     fbc:	0900                	.2byte	0x900
     fbe:	0000                	.2byte	0x0
     fc0:	0001                	.2byte	0x1
     fc2:	02c70403          	lb	s0,44(a4)
     fc6:	00090003          	lb	zero,0(s2)
     fca:	0100                	.2byte	0x100
     fcc:	0300                	.2byte	0x300
     fce:	c704                	.2byte	0xc704
     fd0:	0302                	.2byte	0x302
     fd2:	0900                	.2byte	0x900
     fd4:	0000                	.2byte	0x0
     fd6:	0001                	.2byte	0x1
     fd8:	02c70403          	lb	s0,44(a4)
     fdc:	00090003          	lb	zero,0(s2)
     fe0:	0100                	.2byte	0x100
     fe2:	0300                	.2byte	0x300
     fe4:	c804                	.2byte	0xc804
     fe6:	0302                	.2byte	0x302
     fe8:	0900                	.2byte	0x900
     fea:	0004                	.2byte	0x4
     fec:	0001                	.2byte	0x1
     fee:	02a60403          	lb	s0,42(a2)
     ff2:	10090003          	lb	zero,256(s2)
     ff6:	0100                	.2byte	0x100
     ff8:	0300                	.2byte	0x300
     ffa:	a604                	.2byte	0xa604
     ffc:	0302                	.2byte	0x302
     ffe:	0900                	.2byte	0x900
    1000:	0000                	.2byte	0x0
    1002:	0001                	.2byte	0x1
    1004:	02a60403          	lb	s0,42(a2)
    1008:	04090003          	lb	zero,64(s2)
    100c:	0100                	.2byte	0x100
    100e:	0300                	.2byte	0x300
    1010:	a604                	.2byte	0xa604
    1012:	0302                	.2byte	0x302
    1014:	0900                	.2byte	0x900
    1016:	0000                	.2byte	0x0
    1018:	0001                	.2byte	0x1
    101a:	02d80403          	lb	s0,45(a6)
    101e:	0c090003          	lb	zero,192(s2)
    1022:	0100                	.2byte	0x100
    1024:	0300                	.2byte	0x300
    1026:	d804                	.2byte	0xd804
    1028:	0302                	.2byte	0x302
    102a:	0900                	.2byte	0x900
    102c:	0004                	.2byte	0x4
    102e:	0001                	.2byte	0x1
    1030:	02e20403          	lb	s0,46(tp) # 2e <exit-0x10066>
    1034:	04090003          	lb	zero,64(s2)
    1038:	0100                	.2byte	0x100
    103a:	0300                	.2byte	0x300
    103c:	e204                	.2byte	0xe204
    103e:	0302                	.2byte	0x302
    1040:	0900                	.2byte	0x900
    1042:	0000                	.2byte	0x0
    1044:	0001                	.2byte	0x1
    1046:	02e20403          	lb	s0,46(tp) # 2e <exit-0x10066>
    104a:	00090003          	lb	zero,0(s2)
    104e:	0100                	.2byte	0x100
    1050:	0300                	.2byte	0x300
    1052:	e204                	.2byte	0xe204
    1054:	0302                	.2byte	0x302
    1056:	0900                	.2byte	0x900
    1058:	0000                	.2byte	0x0
    105a:	0001                	.2byte	0x1
    105c:	02e20403          	lb	s0,46(tp) # 2e <exit-0x10066>
    1060:	08090003          	lb	zero,128(s2)
    1064:	0100                	.2byte	0x100
    1066:	0300                	.2byte	0x300
    1068:	e204                	.2byte	0xe204
    106a:	0302                	.2byte	0x302
    106c:	0900                	.2byte	0x900
    106e:	0000                	.2byte	0x0
    1070:	0001                	.2byte	0x1
    1072:	02e20403          	lb	s0,46(tp) # 2e <exit-0x10066>
    1076:	04090003          	lb	zero,64(s2)
    107a:	0100                	.2byte	0x100
    107c:	0300                	.2byte	0x300
    107e:	e204                	.2byte	0xe204
    1080:	0302                	.2byte	0x302
    1082:	0900                	.2byte	0x900
    1084:	0000                	.2byte	0x0
    1086:	0001                	.2byte	0x1
    1088:	02e20403          	lb	s0,46(tp) # 2e <exit-0x10066>
    108c:	00090003          	lb	zero,0(s2)
    1090:	0100                	.2byte	0x100
    1092:	0300                	.2byte	0x300
    1094:	e204                	.2byte	0xe204
    1096:	0302                	.2byte	0x302
    1098:	0900                	.2byte	0x900
    109a:	0004                	.2byte	0x4
    109c:	0001                	.2byte	0x1
    109e:	02e20403          	lb	s0,46(tp) # 2e <exit-0x10066>
    10a2:	00090003          	lb	zero,0(s2)
    10a6:	0100                	.2byte	0x100
    10a8:	0300                	.2byte	0x300
    10aa:	ef04                	.2byte	0xef04
    10ac:	0302                	.2byte	0x302
    10ae:	0900                	.2byte	0x900
    10b0:	0004                	.2byte	0x4
    10b2:	0001                	.2byte	0x1
    10b4:	02ef0403          	lb	s0,46(t5)
    10b8:	08090003          	lb	zero,128(s2)
    10bc:	0100                	.2byte	0x100
    10be:	0300                	.2byte	0x300
    10c0:	ef04                	.2byte	0xef04
    10c2:	0302                	.2byte	0x302
    10c4:	0900                	.2byte	0x900
    10c6:	0018                	.2byte	0x18
    10c8:	0001                	.2byte	0x1
    10ca:	02d90403          	lb	s0,45(s2)
    10ce:	08090003          	lb	zero,128(s2)
    10d2:	0100                	.2byte	0x100
    10d4:	0306                	.2byte	0x306
    10d6:	0900                	.2byte	0x900
    10d8:	0004                	.2byte	0x4
    10da:	0001                	.2byte	0x1
    10dc:	02f00403          	lb	s0,47(zero) # 2f <exit-0x10065>
    10e0:	0306                	.2byte	0x306
    10e2:	0900                	.2byte	0x900
    10e4:	0008                	.2byte	0x8
    10e6:	0001                	.2byte	0x1
    10e8:	02f00403          	lb	s0,47(zero) # 2f <exit-0x10065>
    10ec:	0c090003          	lb	zero,192(s2)
    10f0:	0100                	.2byte	0x100
    10f2:	0306                	.2byte	0x306
    10f4:	097f                	.2byte	0x97f
    10f6:	0008                	.2byte	0x8
    10f8:	0001                	.2byte	0x1
    10fa:	0402                	.2byte	0x402
    10fc:	0203064f          	.4byte	0x203064f
    1100:	2009                	.2byte	0x2009
    1102:	0100                	.2byte	0x100
    1104:	0200                	.2byte	0x200
    1106:	4f04                	.2byte	0x4f04
    1108:	00090003          	lb	zero,0(s2)
    110c:	0100                	.2byte	0x100
    110e:	0200                	.2byte	0x200
    1110:	4f04                	.2byte	0x4f04
    1112:	04090003          	lb	zero,64(s2)
    1116:	0100                	.2byte	0x100
    1118:	0200                	.2byte	0x200
    111a:	5004                	.2byte	0x5004
    111c:	0306                	.2byte	0x306
    111e:	0900                	.2byte	0x900
    1120:	0008                	.2byte	0x8
    1122:	0301                	.2byte	0x301
    1124:	0900                	.2byte	0x900
    1126:	0004                	.2byte	0x4
    1128:	0901                	.2byte	0x901
    112a:	0014                	.2byte	0x14
    112c:	0100                	.2byte	0x100
    112e:	1401                	.2byte	0x1401
    1130:	0008                	.2byte	0x8
    1132:	0500                	.2byte	0x500
    1134:	0400                	.2byte	0x400
    1136:	3300                	.2byte	0x3300
    1138:	0000                	.2byte	0x0
    113a:	0100                	.2byte	0x100
    113c:	0101                	.2byte	0x101
    113e:	000d0efb          	.4byte	0xd0efb
    1142:	0101                	.2byte	0x101
    1144:	0101                	.2byte	0x101
    1146:	0000                	.2byte	0x0
    1148:	0100                	.2byte	0x100
    114a:	0000                	.2byte	0x0
    114c:	0101                	.2byte	0x101
    114e:	1f01                	.2byte	0x1f01
    1150:	3802                	.2byte	0x3802
    1152:	0000                	.2byte	0x0
    1154:	1200                	.2byte	0x1200
    1156:	0001                	.2byte	0x1
    1158:	0200                	.2byte	0x200
    115a:	1f01                	.2byte	0x1f01
    115c:	0f02                	.2byte	0xf02
    115e:	00018703          	lb	a4,0(gp) # 1aa <exit-0xfeea>
    1162:	0100                	.2byte	0x100
    1164:	00000187          	.4byte	0x187
    1168:	4801                	.2byte	0x4801
    116a:	0001                	.2byte	0x1
    116c:	0100                	.2byte	0x100
    116e:	0105                	.2byte	0x105
    1170:	0500                	.2byte	0x500
    1172:	0402                	.2byte	0x402
    1174:	0109                	.2byte	0x109
    1176:	0300                	.2byte	0x300
    1178:	03050123          	sb	a6,34(a0)
    117c:	00090103          	lb	sp,0(s2)
    1180:	0100                	.2byte	0x100
    1182:	00090003          	lb	zero,0(s2)
    1186:	0100                	.2byte	0x100
    1188:	0d05                	.2byte	0xd05
    118a:	00090003          	lb	zero,0(s2)
    118e:	0100                	.2byte	0x100
    1190:	0305                	.2byte	0x305
    1192:	00090103          	lb	sp,0(s2)
    1196:	0100                	.2byte	0x100
    1198:	00090003          	lb	zero,0(s2)
    119c:	0100                	.2byte	0x100
    119e:	00090003          	lb	zero,0(s2)
    11a2:	0100                	.2byte	0x100
    11a4:	00090003          	lb	zero,0(s2)
    11a8:	0100                	.2byte	0x100
    11aa:	00090103          	lb	sp,0(s2)
    11ae:	0100                	.2byte	0x100
    11b0:	00090003          	lb	zero,0(s2)
    11b4:	0100                	.2byte	0x100
    11b6:	00090003          	lb	zero,0(s2)
    11ba:	0100                	.2byte	0x100
    11bc:	00090003          	lb	zero,0(s2)
    11c0:	0100                	.2byte	0x100
    11c2:	00090103          	lb	sp,0(s2)
    11c6:	0100                	.2byte	0x100
    11c8:	00090003          	lb	zero,0(s2)
    11cc:	0100                	.2byte	0x100
    11ce:	00090003          	lb	zero,0(s2)
    11d2:	0100                	.2byte	0x100
    11d4:	00090003          	lb	zero,0(s2)
    11d8:	0100                	.2byte	0x100
    11da:	00090103          	lb	sp,0(s2)
    11de:	0100                	.2byte	0x100
    11e0:	00090203          	lb	tp,0(s2)
    11e4:	0100                	.2byte	0x100
    11e6:	00090103          	lb	sp,0(s2)
    11ea:	0100                	.2byte	0x100
    11ec:	00090003          	lb	zero,0(s2)
    11f0:	0100                	.2byte	0x100
    11f2:	00090003          	lb	zero,0(s2)
    11f6:	0100                	.2byte	0x100
    11f8:	00090003          	lb	zero,0(s2)
    11fc:	0100                	.2byte	0x100
    11fe:	00090003          	lb	zero,0(s2)
    1202:	0100                	.2byte	0x100
    1204:	0105                	.2byte	0x105
    1206:	0306                	.2byte	0x306
    1208:	0978                	.2byte	0x978
    120a:	0000                	.2byte	0x0
    120c:	0501                	.2byte	0x501
    120e:	09080303          	lb	t1,144(a6)
    1212:	0018                	.2byte	0x18
    1214:	0501                	.2byte	0x501
    1216:	0301                	.2byte	0x301
    1218:	0978                	.2byte	0x978
    121a:	0004                	.2byte	0x4
    121c:	0301                	.2byte	0x301
    121e:	0900                	.2byte	0x900
    1220:	0010                	.2byte	0x10
    1222:	0501                	.2byte	0x501
    1224:	09080303          	lb	t1,144(a6)
    1228:	0004                	.2byte	0x4
    122a:	0601                	.2byte	0x601
    122c:	04090003          	lb	zero,64(s2)
    1230:	0100                	.2byte	0x100
    1232:	00090003          	lb	zero,0(s2)
    1236:	0100                	.2byte	0x100
    1238:	04090003          	lb	zero,64(s2)
    123c:	0100                	.2byte	0x100
    123e:	00090003          	lb	zero,0(s2)
    1242:	0100                	.2byte	0x100
    1244:	00090003          	lb	zero,0(s2)
    1248:	0100                	.2byte	0x100
    124a:	0200                	.2byte	0x200
    124c:	0104                	.2byte	0x104
    124e:	0c090003          	lb	zero,192(s2)
    1252:	0100                	.2byte	0x100
    1254:	0200                	.2byte	0x200
    1256:	0104                	.2byte	0x104
    1258:	00090003          	lb	zero,0(s2)
    125c:	0100                	.2byte	0x100
    125e:	0200                	.2byte	0x200
    1260:	0104                	.2byte	0x104
    1262:	00090003          	lb	zero,0(s2)
    1266:	0100                	.2byte	0x100
    1268:	0200                	.2byte	0x200
    126a:	0104                	.2byte	0x104
    126c:	00090003          	lb	zero,0(s2)
    1270:	0100                	.2byte	0x100
    1272:	0200                	.2byte	0x200
    1274:	0104                	.2byte	0x104
    1276:	0c090003          	lb	zero,192(s2)
    127a:	0100                	.2byte	0x100
    127c:	0200                	.2byte	0x200
    127e:	0104                	.2byte	0x104
    1280:	00090003          	lb	zero,0(s2)
    1284:	0100                	.2byte	0x100
    1286:	0200                	.2byte	0x200
    1288:	0104                	.2byte	0x104
    128a:	04090003          	lb	zero,64(s2)
    128e:	0100                	.2byte	0x100
    1290:	0200                	.2byte	0x200
    1292:	0104                	.2byte	0x104
    1294:	00090003          	lb	zero,0(s2)
    1298:	0100                	.2byte	0x100
    129a:	0200                	.2byte	0x200
    129c:	0f04                	.2byte	0xf04
    129e:	00090003          	lb	zero,0(s2)
    12a2:	0100                	.2byte	0x100
    12a4:	0200                	.2byte	0x200
    12a6:	0f04                	.2byte	0xf04
    12a8:	00090003          	lb	zero,0(s2)
    12ac:	0100                	.2byte	0x100
    12ae:	0200                	.2byte	0x200
    12b0:	0804                	.2byte	0x804
    12b2:	04090003          	lb	zero,64(s2)
    12b6:	0100                	.2byte	0x100
    12b8:	0200                	.2byte	0x200
    12ba:	0804                	.2byte	0x804
    12bc:	00090003          	lb	zero,0(s2)
    12c0:	0100                	.2byte	0x100
    12c2:	0200                	.2byte	0x200
    12c4:	0804                	.2byte	0x804
    12c6:	00090103          	lb	sp,0(s2)
    12ca:	0100                	.2byte	0x100
    12cc:	0200                	.2byte	0x200
    12ce:	0804                	.2byte	0x804
    12d0:	00090003          	lb	zero,0(s2)
    12d4:	0100                	.2byte	0x100
    12d6:	0200                	.2byte	0x200
    12d8:	0804                	.2byte	0x804
    12da:	00090003          	lb	zero,0(s2)
    12de:	0100                	.2byte	0x100
    12e0:	0200                	.2byte	0x200
    12e2:	0804                	.2byte	0x804
    12e4:	00090003          	lb	zero,0(s2)
    12e8:	0100                	.2byte	0x100
    12ea:	0200                	.2byte	0x200
    12ec:	0804                	.2byte	0x804
    12ee:	00090003          	lb	zero,0(s2)
    12f2:	0100                	.2byte	0x100
    12f4:	0200                	.2byte	0x200
    12f6:	0804                	.2byte	0x804
    12f8:	10090003          	lb	zero,256(s2)
    12fc:	0100                	.2byte	0x100
    12fe:	0200                	.2byte	0x200
    1300:	0804                	.2byte	0x804
    1302:	00090003          	lb	zero,0(s2)
    1306:	0100                	.2byte	0x100
    1308:	0200                	.2byte	0x200
    130a:	0804                	.2byte	0x804
    130c:	04090003          	lb	zero,64(s2)
    1310:	0100                	.2byte	0x100
    1312:	0200                	.2byte	0x200
    1314:	0804                	.2byte	0x804
    1316:	00090003          	lb	zero,0(s2)
    131a:	0100                	.2byte	0x100
    131c:	0200                	.2byte	0x200
    131e:	0804                	.2byte	0x804
    1320:	00090003          	lb	zero,0(s2)
    1324:	0100                	.2byte	0x100
    1326:	0306                	.2byte	0x306
    1328:	0900                	.2byte	0x900
    132a:	0004                	.2byte	0x4
    132c:	0001                	.2byte	0x1
    132e:	0402                	.2byte	0x402
    1330:	0601                	.2byte	0x601
    1332:	08090003          	lb	zero,128(s2)
    1336:	0100                	.2byte	0x100
    1338:	0200                	.2byte	0x200
    133a:	0104                	.2byte	0x104
    133c:	00090003          	lb	zero,0(s2)
    1340:	0100                	.2byte	0x100
    1342:	0200                	.2byte	0x200
    1344:	0104                	.2byte	0x104
    1346:	00090003          	lb	zero,0(s2)
    134a:	0100                	.2byte	0x100
    134c:	0200                	.2byte	0x200
    134e:	0104                	.2byte	0x104
    1350:	00090003          	lb	zero,0(s2)
    1354:	0100                	.2byte	0x100
    1356:	0200                	.2byte	0x200
    1358:	0104                	.2byte	0x104
    135a:	0c090003          	lb	zero,192(s2)
    135e:	0100                	.2byte	0x100
    1360:	0200                	.2byte	0x200
    1362:	0104                	.2byte	0x104
    1364:	00090003          	lb	zero,0(s2)
    1368:	0100                	.2byte	0x100
    136a:	0200                	.2byte	0x200
    136c:	0104                	.2byte	0x104
    136e:	04090003          	lb	zero,64(s2)
    1372:	0100                	.2byte	0x100
    1374:	0200                	.2byte	0x200
    1376:	0104                	.2byte	0x104
    1378:	00090003          	lb	zero,0(s2)
    137c:	0100                	.2byte	0x100
    137e:	0200                	.2byte	0x200
    1380:	0f04                	.2byte	0xf04
    1382:	00090003          	lb	zero,0(s2)
    1386:	0100                	.2byte	0x100
    1388:	0200                	.2byte	0x200
    138a:	0f04                	.2byte	0xf04
    138c:	00090003          	lb	zero,0(s2)
    1390:	0100                	.2byte	0x100
    1392:	0200                	.2byte	0x200
    1394:	0804                	.2byte	0x804
    1396:	04090003          	lb	zero,64(s2)
    139a:	0100                	.2byte	0x100
    139c:	0200                	.2byte	0x200
    139e:	0804                	.2byte	0x804
    13a0:	00090003          	lb	zero,0(s2)
    13a4:	0100                	.2byte	0x100
    13a6:	0200                	.2byte	0x200
    13a8:	0804                	.2byte	0x804
    13aa:	00090103          	lb	sp,0(s2)
    13ae:	0100                	.2byte	0x100
    13b0:	0200                	.2byte	0x200
    13b2:	0804                	.2byte	0x804
    13b4:	00090003          	lb	zero,0(s2)
    13b8:	0100                	.2byte	0x100
    13ba:	0200                	.2byte	0x200
    13bc:	0804                	.2byte	0x804
    13be:	18090003          	lb	zero,384(s2)
    13c2:	0100                	.2byte	0x100
    13c4:	0200                	.2byte	0x200
    13c6:	0804                	.2byte	0x804
    13c8:	00090003          	lb	zero,0(s2)
    13cc:	0100                	.2byte	0x100
    13ce:	0200                	.2byte	0x200
    13d0:	0204                	.2byte	0x204
    13d2:	1c097e03          	.4byte	0x1c097e03
    13d6:	0100                	.2byte	0x100
    13d8:	0200                	.2byte	0x200
    13da:	0f04                	.2byte	0xf04
    13dc:	04090003          	lb	zero,64(s2)
    13e0:	0100                	.2byte	0x100
    13e2:	0200                	.2byte	0x200
    13e4:	0f04                	.2byte	0xf04
    13e6:	00090003          	lb	zero,0(s2)
    13ea:	0100                	.2byte	0x100
    13ec:	0200                	.2byte	0x200
    13ee:	0f04                	.2byte	0xf04
    13f0:	00090003          	lb	zero,0(s2)
    13f4:	0100                	.2byte	0x100
    13f6:	0200                	.2byte	0x200
    13f8:	0f04                	.2byte	0xf04
    13fa:	00090003          	lb	zero,0(s2)
    13fe:	0100                	.2byte	0x100
    1400:	0200                	.2byte	0x200
    1402:	0f04                	.2byte	0xf04
    1404:	00090003          	lb	zero,0(s2)
    1408:	0100                	.2byte	0x100
    140a:	0200                	.2byte	0x200
    140c:	0f04                	.2byte	0xf04
    140e:	00090003          	lb	zero,0(s2)
    1412:	0100                	.2byte	0x100
    1414:	0200                	.2byte	0x200
    1416:	0f04                	.2byte	0xf04
    1418:	08090003          	lb	zero,128(s2)
    141c:	0100                	.2byte	0x100
    141e:	0200                	.2byte	0x200
    1420:	0f04                	.2byte	0xf04
    1422:	00090003          	lb	zero,0(s2)
    1426:	0100                	.2byte	0x100
    1428:	0200                	.2byte	0x200
    142a:	0f04                	.2byte	0xf04
    142c:	00090003          	lb	zero,0(s2)
    1430:	0100                	.2byte	0x100
    1432:	0200                	.2byte	0x200
    1434:	0f04                	.2byte	0xf04
    1436:	00090003          	lb	zero,0(s2)
    143a:	0100                	.2byte	0x100
    143c:	0200                	.2byte	0x200
    143e:	0f04                	.2byte	0xf04
    1440:	00090003          	lb	zero,0(s2)
    1444:	0100                	.2byte	0x100
    1446:	0200                	.2byte	0x200
    1448:	0f04                	.2byte	0xf04
    144a:	0c090003          	lb	zero,192(s2)
    144e:	0100                	.2byte	0x100
    1450:	0200                	.2byte	0x200
    1452:	0f04                	.2byte	0xf04
    1454:	00090003          	lb	zero,0(s2)
    1458:	0100                	.2byte	0x100
    145a:	0200                	.2byte	0x200
    145c:	0304                	.2byte	0x304
    145e:	08090003          	lb	zero,128(s2)
    1462:	0100                	.2byte	0x100
    1464:	0306                	.2byte	0x306
    1466:	0900                	.2byte	0x900
    1468:	000c                	.2byte	0xc
    146a:	0001                	.2byte	0x1
    146c:	0402                	.2byte	0x402
    146e:	0602                	.2byte	0x602
    1470:	14090103          	lb	sp,320(s2)
    1474:	0100                	.2byte	0x100
    1476:	0200                	.2byte	0x200
    1478:	0f04                	.2byte	0xf04
    147a:	04090003          	lb	zero,64(s2)
    147e:	0100                	.2byte	0x100
    1480:	0200                	.2byte	0x200
    1482:	0f04                	.2byte	0xf04
    1484:	00090003          	lb	zero,0(s2)
    1488:	0100                	.2byte	0x100
    148a:	0200                	.2byte	0x200
    148c:	0f04                	.2byte	0xf04
    148e:	00090003          	lb	zero,0(s2)
    1492:	0100                	.2byte	0x100
    1494:	0200                	.2byte	0x200
    1496:	0f04                	.2byte	0xf04
    1498:	00090003          	lb	zero,0(s2)
    149c:	0100                	.2byte	0x100
    149e:	0200                	.2byte	0x200
    14a0:	0f04                	.2byte	0xf04
    14a2:	00090003          	lb	zero,0(s2)
    14a6:	0100                	.2byte	0x100
    14a8:	0200                	.2byte	0x200
    14aa:	0f04                	.2byte	0xf04
    14ac:	00090003          	lb	zero,0(s2)
    14b0:	0100                	.2byte	0x100
    14b2:	0200                	.2byte	0x200
    14b4:	0f04                	.2byte	0xf04
    14b6:	08090003          	lb	zero,128(s2)
    14ba:	0100                	.2byte	0x100
    14bc:	0200                	.2byte	0x200
    14be:	0f04                	.2byte	0xf04
    14c0:	00090003          	lb	zero,0(s2)
    14c4:	0100                	.2byte	0x100
    14c6:	0200                	.2byte	0x200
    14c8:	0f04                	.2byte	0xf04
    14ca:	00090003          	lb	zero,0(s2)
    14ce:	0100                	.2byte	0x100
    14d0:	0200                	.2byte	0x200
    14d2:	0f04                	.2byte	0xf04
    14d4:	00090003          	lb	zero,0(s2)
    14d8:	0100                	.2byte	0x100
    14da:	0200                	.2byte	0x200
    14dc:	0f04                	.2byte	0xf04
    14de:	00090003          	lb	zero,0(s2)
    14e2:	0100                	.2byte	0x100
    14e4:	0200                	.2byte	0x200
    14e6:	0f04                	.2byte	0xf04
    14e8:	08090003          	lb	zero,128(s2)
    14ec:	0100                	.2byte	0x100
    14ee:	0200                	.2byte	0x200
    14f0:	0f04                	.2byte	0xf04
    14f2:	00090003          	lb	zero,0(s2)
    14f6:	0100                	.2byte	0x100
    14f8:	0200                	.2byte	0x200
    14fa:	0304                	.2byte	0x304
    14fc:	0c090003          	lb	zero,192(s2)
    1500:	0100                	.2byte	0x100
    1502:	0306                	.2byte	0x306
    1504:	0900                	.2byte	0x900
    1506:	000c                	.2byte	0xc
    1508:	0301                	.2byte	0x301
    150a:	097f                	.2byte	0x97f
    150c:	0014                	.2byte	0x14
    150e:	0301                	.2byte	0x301
    1510:	0902                	.2byte	0x902
    1512:	0008                	.2byte	0x8
    1514:	0001                	.2byte	0x1
    1516:	0402                	.2byte	0x402
    1518:	00030623          	sb	zero,12(t1)
    151c:	0409                	.2byte	0x409
    151e:	0100                	.2byte	0x100
    1520:	0200                	.2byte	0x200
    1522:	2304                	.2byte	0x2304
    1524:	00090103          	lb	sp,0(s2)
    1528:	0100                	.2byte	0x100
    152a:	0200                	.2byte	0x200
    152c:	2304                	.2byte	0x2304
    152e:	00090003          	lb	zero,0(s2)
    1532:	0100                	.2byte	0x100
    1534:	0200                	.2byte	0x200
    1536:	2304                	.2byte	0x2304
    1538:	00090003          	lb	zero,0(s2)
    153c:	0100                	.2byte	0x100
    153e:	0306                	.2byte	0x306
    1540:	0900                	.2byte	0x900
    1542:	0008                	.2byte	0x8
    1544:	0001                	.2byte	0x1
    1546:	0402                	.2byte	0x402
    1548:	0602                	.2byte	0x602
    154a:	1c097f03          	.4byte	0x1c097f03
    154e:	0100                	.2byte	0x100
    1550:	0200                	.2byte	0x200
    1552:	0204                	.2byte	0x204
    1554:	00090003          	lb	zero,0(s2)
    1558:	0100                	.2byte	0x100
    155a:	0200                	.2byte	0x200
    155c:	0204                	.2byte	0x204
    155e:	00090003          	lb	zero,0(s2)
    1562:	0100                	.2byte	0x100
    1564:	0200                	.2byte	0x200
    1566:	0204                	.2byte	0x204
    1568:	00090003          	lb	zero,0(s2)
    156c:	0100                	.2byte	0x100
    156e:	0200                	.2byte	0x200
    1570:	0204                	.2byte	0x204
    1572:	00090003          	lb	zero,0(s2)
    1576:	0100                	.2byte	0x100
    1578:	0200                	.2byte	0x200
    157a:	0204                	.2byte	0x204
    157c:	00090003          	lb	zero,0(s2)
    1580:	0100                	.2byte	0x100
    1582:	0200                	.2byte	0x200
    1584:	0204                	.2byte	0x204
    1586:	00090003          	lb	zero,0(s2)
    158a:	0100                	.2byte	0x100
    158c:	0200                	.2byte	0x200
    158e:	0204                	.2byte	0x204
    1590:	00090003          	lb	zero,0(s2)
    1594:	0100                	.2byte	0x100
    1596:	0200                	.2byte	0x200
    1598:	0204                	.2byte	0x204
    159a:	04090003          	lb	zero,64(s2)
    159e:	0100                	.2byte	0x100
    15a0:	0200                	.2byte	0x200
    15a2:	0a04                	.2byte	0xa04
    15a4:	04090003          	lb	zero,64(s2)
    15a8:	0100                	.2byte	0x100
    15aa:	0200                	.2byte	0x200
    15ac:	0a04                	.2byte	0xa04
    15ae:	04090003          	lb	zero,64(s2)
    15b2:	0100                	.2byte	0x100
    15b4:	0200                	.2byte	0x200
    15b6:	0a04                	.2byte	0xa04
    15b8:	00090003          	lb	zero,0(s2)
    15bc:	0100                	.2byte	0x100
    15be:	0200                	.2byte	0x200
    15c0:	0d04                	.2byte	0xd04
    15c2:	04090003          	lb	zero,64(s2)
    15c6:	0100                	.2byte	0x100
    15c8:	0200                	.2byte	0x200
    15ca:	0d04                	.2byte	0xd04
    15cc:	00090003          	lb	zero,0(s2)
    15d0:	0100                	.2byte	0x100
    15d2:	0200                	.2byte	0x200
    15d4:	0d04                	.2byte	0xd04
    15d6:	00090003          	lb	zero,0(s2)
    15da:	0100                	.2byte	0x100
    15dc:	0200                	.2byte	0x200
    15de:	0d04                	.2byte	0xd04
    15e0:	00090003          	lb	zero,0(s2)
    15e4:	0100                	.2byte	0x100
    15e6:	0200                	.2byte	0x200
    15e8:	0d04                	.2byte	0xd04
    15ea:	04090003          	lb	zero,64(s2)
    15ee:	0100                	.2byte	0x100
    15f0:	0200                	.2byte	0x200
    15f2:	0d04                	.2byte	0xd04
    15f4:	10090003          	lb	zero,256(s2)
    15f8:	0100                	.2byte	0x100
    15fa:	0200                	.2byte	0x200
    15fc:	0d04                	.2byte	0xd04
    15fe:	00090003          	lb	zero,0(s2)
    1602:	0100                	.2byte	0x100
    1604:	0200                	.2byte	0x200
    1606:	0d04                	.2byte	0xd04
    1608:	00090003          	lb	zero,0(s2)
    160c:	0100                	.2byte	0x100
    160e:	0200                	.2byte	0x200
    1610:	0d04                	.2byte	0xd04
    1612:	10090003          	lb	zero,256(s2)
    1616:	0100                	.2byte	0x100
    1618:	0200                	.2byte	0x200
    161a:	0d04                	.2byte	0xd04
    161c:	08090003          	lb	zero,128(s2)
    1620:	0100                	.2byte	0x100
    1622:	0200                	.2byte	0x200
    1624:	0e04                	.2byte	0xe04
    1626:	04090003          	lb	zero,64(s2)
    162a:	0100                	.2byte	0x100
    162c:	0200                	.2byte	0x200
    162e:	0e04                	.2byte	0xe04
    1630:	08090003          	lb	zero,128(s2)
    1634:	0100                	.2byte	0x100
    1636:	0200                	.2byte	0x200
    1638:	1004                	.2byte	0x1004
    163a:	04090003          	lb	zero,64(s2)
    163e:	0100                	.2byte	0x100
    1640:	0200                	.2byte	0x200
    1642:	1204                	.2byte	0x1204
    1644:	04090003          	lb	zero,64(s2)
    1648:	0100                	.2byte	0x100
    164a:	0200                	.2byte	0x200
    164c:	1404                	.2byte	0x1404
    164e:	08090003          	lb	zero,128(s2)
    1652:	0100                	.2byte	0x100
    1654:	0200                	.2byte	0x200
    1656:	1404                	.2byte	0x1404
    1658:	04090003          	lb	zero,64(s2)
    165c:	0100                	.2byte	0x100
    165e:	0200                	.2byte	0x200
    1660:	1404                	.2byte	0x1404
    1662:	00090003          	lb	zero,0(s2)
    1666:	0100                	.2byte	0x100
    1668:	0200                	.2byte	0x200
    166a:	1404                	.2byte	0x1404
    166c:	04090003          	lb	zero,64(s2)
    1670:	0100                	.2byte	0x100
    1672:	0200                	.2byte	0x200
    1674:	1404                	.2byte	0x1404
    1676:	08090003          	lb	zero,128(s2)
    167a:	0100                	.2byte	0x100
    167c:	0200                	.2byte	0x200
    167e:	1404                	.2byte	0x1404
    1680:	04090003          	lb	zero,64(s2)
    1684:	0100                	.2byte	0x100
    1686:	0200                	.2byte	0x200
    1688:	1504                	.2byte	0x1504
    168a:	08090003          	lb	zero,128(s2)
    168e:	0100                	.2byte	0x100
    1690:	0200                	.2byte	0x200
    1692:	1504                	.2byte	0x1504
    1694:	10090003          	lb	zero,256(s2)
    1698:	0100                	.2byte	0x100
    169a:	0200                	.2byte	0x200
    169c:	1704                	.2byte	0x1704
    169e:	04090003          	lb	zero,64(s2)
    16a2:	0100                	.2byte	0x100
    16a4:	0200                	.2byte	0x200
    16a6:	1904                	.2byte	0x1904
    16a8:	04090003          	lb	zero,64(s2)
    16ac:	0100                	.2byte	0x100
    16ae:	0200                	.2byte	0x200
    16b0:	1b04                	.2byte	0x1b04
    16b2:	08090003          	lb	zero,128(s2)
    16b6:	0100                	.2byte	0x100
    16b8:	0200                	.2byte	0x200
    16ba:	1b04                	.2byte	0x1b04
    16bc:	00090003          	lb	zero,0(s2)
    16c0:	0100                	.2byte	0x100
    16c2:	0200                	.2byte	0x200
    16c4:	1b04                	.2byte	0x1b04
    16c6:	00090003          	lb	zero,0(s2)
    16ca:	0100                	.2byte	0x100
    16cc:	0200                	.2byte	0x200
    16ce:	1b04                	.2byte	0x1b04
    16d0:	00090003          	lb	zero,0(s2)
    16d4:	0100                	.2byte	0x100
    16d6:	0200                	.2byte	0x200
    16d8:	1b04                	.2byte	0x1b04
    16da:	00090003          	lb	zero,0(s2)
    16de:	0100                	.2byte	0x100
    16e0:	0200                	.2byte	0x200
    16e2:	1b04                	.2byte	0x1b04
    16e4:	14090003          	lb	zero,320(s2)
    16e8:	0100                	.2byte	0x100
    16ea:	0200                	.2byte	0x200
    16ec:	1b04                	.2byte	0x1b04
    16ee:	00090003          	lb	zero,0(s2)
    16f2:	0100                	.2byte	0x100
    16f4:	0200                	.2byte	0x200
    16f6:	1b04                	.2byte	0x1b04
    16f8:	00090003          	lb	zero,0(s2)
    16fc:	0100                	.2byte	0x100
    16fe:	0200                	.2byte	0x200
    1700:	1b04                	.2byte	0x1b04
    1702:	00090103          	lb	sp,0(s2)
    1706:	0100                	.2byte	0x100
    1708:	0200                	.2byte	0x200
    170a:	1b04                	.2byte	0x1b04
    170c:	00090003          	lb	zero,0(s2)
    1710:	0100                	.2byte	0x100
    1712:	0200                	.2byte	0x200
    1714:	1b04                	.2byte	0x1b04
    1716:	00090003          	lb	zero,0(s2)
    171a:	0100                	.2byte	0x100
    171c:	0200                	.2byte	0x200
    171e:	0204                	.2byte	0x204
    1720:	00090003          	lb	zero,0(s2)
    1724:	0100                	.2byte	0x100
    1726:	0200                	.2byte	0x200
    1728:	0204                	.2byte	0x204
    172a:	04090003          	lb	zero,64(s2)
    172e:	0100                	.2byte	0x100
    1730:	0200                	.2byte	0x200
    1732:	0604                	.2byte	0x604
    1734:	04090003          	lb	zero,64(s2)
    1738:	0100                	.2byte	0x100
    173a:	0200                	.2byte	0x200
    173c:	0604                	.2byte	0x604
    173e:	00090003          	lb	zero,0(s2)
    1742:	0100                	.2byte	0x100
    1744:	0200                	.2byte	0x200
    1746:	0804                	.2byte	0x804
    1748:	08090003          	lb	zero,128(s2)
    174c:	0100                	.2byte	0x100
    174e:	0200                	.2byte	0x200
    1750:	0804                	.2byte	0x804
    1752:	00090003          	lb	zero,0(s2)
    1756:	0100                	.2byte	0x100
    1758:	0200                	.2byte	0x200
    175a:	0804                	.2byte	0x804
    175c:	00090003          	lb	zero,0(s2)
    1760:	0100                	.2byte	0x100
    1762:	0200                	.2byte	0x200
    1764:	0804                	.2byte	0x804
    1766:	00090003          	lb	zero,0(s2)
    176a:	0100                	.2byte	0x100
    176c:	0200                	.2byte	0x200
    176e:	0a04                	.2byte	0xa04
    1770:	0c090003          	lb	zero,192(s2)
    1774:	0100                	.2byte	0x100
    1776:	0200                	.2byte	0x200
    1778:	0904                	.2byte	0x904
    177a:	04090003          	lb	zero,64(s2)
    177e:	0100                	.2byte	0x100
    1780:	0200                	.2byte	0x200
    1782:	0904                	.2byte	0x904
    1784:	00090003          	lb	zero,0(s2)
    1788:	0100                	.2byte	0x100
    178a:	0200                	.2byte	0x200
    178c:	1804                	.2byte	0x1804
    178e:	0c090003          	lb	zero,192(s2)
    1792:	0100                	.2byte	0x100
    1794:	0200                	.2byte	0x200
    1796:	1804                	.2byte	0x1804
    1798:	0c090003          	lb	zero,192(s2)
    179c:	0100                	.2byte	0x100
    179e:	0200                	.2byte	0x200
    17a0:	1a04                	.2byte	0x1a04
    17a2:	04090003          	lb	zero,64(s2)
    17a6:	0100                	.2byte	0x100
    17a8:	0200                	.2byte	0x200
    17aa:	1a04                	.2byte	0x1a04
    17ac:	00090003          	lb	zero,0(s2)
    17b0:	0100                	.2byte	0x100
    17b2:	0306                	.2byte	0x306
    17b4:	0900                	.2byte	0x900
    17b6:	0008                	.2byte	0x8
    17b8:	0001                	.2byte	0x1
    17ba:	0402                	.2byte	0x402
    17bc:	0003066f          	jal	a2,317bc <__global_pointer$+0x1dd74>
    17c0:	0409                	.2byte	0x409
    17c2:	0100                	.2byte	0x100
    17c4:	0200                	.2byte	0x200
    17c6:	6f04                	.2byte	0x6f04
    17c8:	00090003          	lb	zero,0(s2)
    17cc:	0100                	.2byte	0x100
    17ce:	0200                	.2byte	0x200
    17d0:	6f04                	.2byte	0x6f04
    17d2:	00090003          	lb	zero,0(s2)
    17d6:	0100                	.2byte	0x100
    17d8:	0200                	.2byte	0x200
    17da:	6f04                	.2byte	0x6f04
    17dc:	00090003          	lb	zero,0(s2)
    17e0:	0100                	.2byte	0x100
    17e2:	0200                	.2byte	0x200
    17e4:	6f04                	.2byte	0x6f04
    17e6:	00090003          	lb	zero,0(s2)
    17ea:	0100                	.2byte	0x100
    17ec:	0200                	.2byte	0x200
    17ee:	6f04                	.2byte	0x6f04
    17f0:	00090003          	lb	zero,0(s2)
    17f4:	0100                	.2byte	0x100
    17f6:	0105                	.2byte	0x105
    17f8:	0200                	.2byte	0x200
    17fa:	6f04                	.2byte	0x6f04
    17fc:	0306                	.2byte	0x306
    17fe:	0904                	.2byte	0x904
    1800:	0000                	.2byte	0x0
    1802:	0501                	.2byte	0x501
    1804:	04020003          	lb	zero,64(tp) # 40 <exit-0x10054>
    1808:	097c036f          	jal	t1,c209e <__global_pointer$+0xae656>
    180c:	0008                	.2byte	0x8
    180e:	0001                	.2byte	0x1
    1810:	0402                	.2byte	0x402
    1812:	0003066f          	jal	a2,31812 <__global_pointer$+0x1ddca>
    1816:	1409                	.2byte	0x1409
    1818:	0100                	.2byte	0x100
    181a:	0200                	.2byte	0x200
    181c:	6f04                	.2byte	0x6f04
    181e:	00090003          	lb	zero,0(s2)
    1822:	0100                	.2byte	0x100
    1824:	0200                	.2byte	0x200
    1826:	6f04                	.2byte	0x6f04
    1828:	00090003          	lb	zero,0(s2)
    182c:	0100                	.2byte	0x100
    182e:	0200                	.2byte	0x200
    1830:	6f04                	.2byte	0x6f04
    1832:	00090103          	lb	sp,0(s2)
    1836:	0100                	.2byte	0x100
    1838:	0200                	.2byte	0x200
    183a:	6f04                	.2byte	0x6f04
    183c:	00090003          	lb	zero,0(s2)
    1840:	0100                	.2byte	0x100
    1842:	0200                	.2byte	0x200
    1844:	6f04                	.2byte	0x6f04
    1846:	00090003          	lb	zero,0(s2)
    184a:	0100                	.2byte	0x100
    184c:	0200                	.2byte	0x200
    184e:	6f04                	.2byte	0x6f04
    1850:	00090203          	lb	tp,0(s2)
    1854:	0100                	.2byte	0x100
    1856:	0105                	.2byte	0x105
    1858:	0200                	.2byte	0x200
    185a:	6f04                	.2byte	0x6f04
    185c:	0306                	.2byte	0x306
    185e:	0901                	.2byte	0x901
    1860:	0000                	.2byte	0x0
    1862:	0501                	.2byte	0x501
    1864:	04020003          	lb	zero,64(tp) # 40 <exit-0x10054>
    1868:	7b03060b          	.4byte	0x7b03060b
    186c:	2009                	.2byte	0x2009
    186e:	0100                	.2byte	0x100
    1870:	0200                	.2byte	0x200
    1872:	0b04                	.2byte	0xb04
    1874:	04090003          	lb	zero,64(s2)
    1878:	0100                	.2byte	0x100
    187a:	0200                	.2byte	0x200
    187c:	0504                	.2byte	0x504
    187e:	0306                	.2byte	0x306
    1880:	097f                	.2byte	0x97f
    1882:	0008                	.2byte	0x8
    1884:	0001                	.2byte	0x1
    1886:	0402                	.2byte	0x402
    1888:	0605                	.2byte	0x605
    188a:	04090103          	lb	sp,64(s2)
    188e:	0100                	.2byte	0x100
    1890:	0200                	.2byte	0x200
    1892:	0504                	.2byte	0x504
    1894:	00090003          	lb	zero,0(s2)
    1898:	0100                	.2byte	0x100
    189a:	0200                	.2byte	0x200
    189c:	0504                	.2byte	0x504
    189e:	00090003          	lb	zero,0(s2)
    18a2:	0100                	.2byte	0x100
    18a4:	0200                	.2byte	0x200
    18a6:	0504                	.2byte	0x504
    18a8:	00090003          	lb	zero,0(s2)
    18ac:	0100                	.2byte	0x100
    18ae:	0200                	.2byte	0x200
    18b0:	0704                	.2byte	0x704
    18b2:	04090103          	lb	sp,64(s2)
    18b6:	0100                	.2byte	0x100
    18b8:	0200                	.2byte	0x200
    18ba:	0704                	.2byte	0x704
    18bc:	00090003          	lb	zero,0(s2)
    18c0:	0100                	.2byte	0x100
    18c2:	0200                	.2byte	0x200
    18c4:	3b04                	.2byte	0x3b04
    18c6:	08090003          	lb	zero,128(s2)
    18ca:	0100                	.2byte	0x100
    18cc:	0200                	.2byte	0x200
    18ce:	3b04                	.2byte	0x3b04
    18d0:	04090003          	lb	zero,64(s2)
    18d4:	0100                	.2byte	0x100
    18d6:	0200                	.2byte	0x200
    18d8:	3c04                	.2byte	0x3c04
    18da:	10090003          	lb	zero,256(s2)
    18de:	0100                	.2byte	0x100
    18e0:	0200                	.2byte	0x200
    18e2:	3c04                	.2byte	0x3c04
    18e4:	14090003          	lb	zero,320(s2)
    18e8:	0100                	.2byte	0x100
    18ea:	0200                	.2byte	0x200
    18ec:	3c04                	.2byte	0x3c04
    18ee:	00090003          	lb	zero,0(s2)
    18f2:	0100                	.2byte	0x100
    18f4:	0200                	.2byte	0x200
    18f6:	4404                	.2byte	0x4404
    18f8:	08090003          	lb	zero,128(s2)
    18fc:	0100                	.2byte	0x100
    18fe:	0200                	.2byte	0x200
    1900:	4404                	.2byte	0x4404
    1902:	00090003          	lb	zero,0(s2)
    1906:	0100                	.2byte	0x100
    1908:	0200                	.2byte	0x200
    190a:	4404                	.2byte	0x4404
    190c:	00090003          	lb	zero,0(s2)
    1910:	0100                	.2byte	0x100
    1912:	0200                	.2byte	0x200
    1914:	4404                	.2byte	0x4404
    1916:	00090003          	lb	zero,0(s2)
    191a:	0100                	.2byte	0x100
    191c:	0200                	.2byte	0x200
    191e:	4604                	.2byte	0x4604
    1920:	0c090003          	lb	zero,192(s2)
    1924:	0100                	.2byte	0x100
    1926:	0200                	.2byte	0x200
    1928:	4504                	.2byte	0x4504
    192a:	04090003          	lb	zero,64(s2)
    192e:	0100                	.2byte	0x100
    1930:	0200                	.2byte	0x200
    1932:	4504                	.2byte	0x4504
    1934:	00090003          	lb	zero,0(s2)
    1938:	0100                	.2byte	0x100
    193a:	0306                	.2byte	0x306
    193c:	0900                	.2byte	0x900
    193e:	0010                	.2byte	0x10
    1940:	0901                	.2byte	0x901
    1942:	0028                	.2byte	0x28
    1944:	0100                	.2byte	0x100
    1946:	f201                	.2byte	0xf201
    1948:	0002                	.2byte	0x2
    194a:	0500                	.2byte	0x500
    194c:	0400                	.2byte	0x400
    194e:	3c00                	.2byte	0x3c00
    1950:	0000                	.2byte	0x0
    1952:	0100                	.2byte	0x100
    1954:	0101                	.2byte	0x101
    1956:	000d0efb          	.4byte	0xd0efb
    195a:	0101                	.2byte	0x101
    195c:	0101                	.2byte	0x101
    195e:	0000                	.2byte	0x0
    1960:	0100                	.2byte	0x100
    1962:	0000                	.2byte	0x0
    1964:	0101                	.2byte	0x101
    1966:	1f01                	.2byte	0x1f01
    1968:	00003803          	.4byte	0x3803
    196c:	1200                	.2byte	0x1200
    196e:	0001                	.2byte	0x1
    1970:	ce00                	.2byte	0xce00
    1972:	0001                	.2byte	0x1
    1974:	0200                	.2byte	0x200
    1976:	1f01                	.2byte	0x1f01
    1978:	0f02                	.2byte	0xf02
    197a:	c604                	.2byte	0xc604
    197c:	0001                	.2byte	0x1
    197e:	0100                	.2byte	0x100
    1980:	01c6                	.2byte	0x1c6
    1982:	0000                	.2byte	0x0
    1984:	d001                	.2byte	0xd001
    1986:	0001                	.2byte	0x1
    1988:	0200                	.2byte	0x200
    198a:	0148                	.2byte	0x148
    198c:	0000                	.2byte	0x0
    198e:	0501                	.2byte	0x501
    1990:	0001                	.2byte	0x1
    1992:	0205                	.2byte	0x205
    1994:	0c34                	.2byte	0xc34
    1996:	0001                	.2byte	0x1
    1998:	05012303          	lw	t1,80(sp)
    199c:	09010303          	lb	t1,144(sp)
    19a0:	0000                	.2byte	0x0
    19a2:	0301                	.2byte	0x301
    19a4:	0900                	.2byte	0x900
    19a6:	0000                	.2byte	0x0
    19a8:	0501                	.2byte	0x501
    19aa:	030d                	.2byte	0x30d
    19ac:	0900                	.2byte	0x900
    19ae:	0000                	.2byte	0x0
    19b0:	0501                	.2byte	0x501
    19b2:	09010303          	lb	t1,144(sp)
    19b6:	0000                	.2byte	0x0
    19b8:	0301                	.2byte	0x301
    19ba:	0900                	.2byte	0x900
    19bc:	0000                	.2byte	0x0
    19be:	0301                	.2byte	0x301
    19c0:	0900                	.2byte	0x900
    19c2:	0000                	.2byte	0x0
    19c4:	0301                	.2byte	0x301
    19c6:	0900                	.2byte	0x900
    19c8:	0000                	.2byte	0x0
    19ca:	0301                	.2byte	0x301
    19cc:	0901                	.2byte	0x901
    19ce:	0000                	.2byte	0x0
    19d0:	0301                	.2byte	0x301
    19d2:	0900                	.2byte	0x900
    19d4:	0000                	.2byte	0x0
    19d6:	0301                	.2byte	0x301
    19d8:	0900                	.2byte	0x900
    19da:	0000                	.2byte	0x0
    19dc:	0301                	.2byte	0x301
    19de:	0900                	.2byte	0x900
    19e0:	0000                	.2byte	0x0
    19e2:	0301                	.2byte	0x301
    19e4:	0901                	.2byte	0x901
    19e6:	0000                	.2byte	0x0
    19e8:	0301                	.2byte	0x301
    19ea:	0902                	.2byte	0x902
    19ec:	0000                	.2byte	0x0
    19ee:	0301                	.2byte	0x301
    19f0:	0901                	.2byte	0x901
    19f2:	0000                	.2byte	0x0
    19f4:	0301                	.2byte	0x301
    19f6:	0900                	.2byte	0x900
    19f8:	0000                	.2byte	0x0
    19fa:	0301                	.2byte	0x301
    19fc:	0900                	.2byte	0x900
    19fe:	0000                	.2byte	0x0
    1a00:	0301                	.2byte	0x301
    1a02:	0900                	.2byte	0x900
    1a04:	0000                	.2byte	0x0
    1a06:	0301                	.2byte	0x301
    1a08:	0900                	.2byte	0x900
    1a0a:	0010                	.2byte	0x10
    1a0c:	0301                	.2byte	0x301
    1a0e:	0900                	.2byte	0x900
    1a10:	0008                	.2byte	0x8
    1a12:	0301                	.2byte	0x301
    1a14:	0900                	.2byte	0x900
    1a16:	0000                	.2byte	0x0
    1a18:	0301                	.2byte	0x301
    1a1a:	0901                	.2byte	0x901
    1a1c:	0000                	.2byte	0x0
    1a1e:	0301                	.2byte	0x301
    1a20:	0900                	.2byte	0x900
    1a22:	0000                	.2byte	0x0
    1a24:	0301                	.2byte	0x301
    1a26:	0900                	.2byte	0x900
    1a28:	0000                	.2byte	0x0
    1a2a:	0301                	.2byte	0x301
    1a2c:	0900                	.2byte	0x900
    1a2e:	0000                	.2byte	0x0
    1a30:	0601                	.2byte	0x601
    1a32:	04090103          	lb	sp,64(s2)
    1a36:	0100                	.2byte	0x100
    1a38:	04097f03          	.4byte	0x4097f03
    1a3c:	0100                	.2byte	0x100
    1a3e:	0306                	.2byte	0x306
    1a40:	0900                	.2byte	0x900
    1a42:	0004                	.2byte	0x4
    1a44:	0301                	.2byte	0x301
    1a46:	0900                	.2byte	0x900
    1a48:	0004                	.2byte	0x4
    1a4a:	0301                	.2byte	0x301
    1a4c:	0900                	.2byte	0x900
    1a4e:	0004                	.2byte	0x4
    1a50:	0301                	.2byte	0x301
    1a52:	0901                	.2byte	0x901
    1a54:	0000                	.2byte	0x0
    1a56:	0301                	.2byte	0x301
    1a58:	0900                	.2byte	0x900
    1a5a:	0000                	.2byte	0x0
    1a5c:	0301                	.2byte	0x301
    1a5e:	0900                	.2byte	0x900
    1a60:	0000                	.2byte	0x0
    1a62:	0301                	.2byte	0x301
    1a64:	0900                	.2byte	0x900
    1a66:	0000                	.2byte	0x0
    1a68:	0301                	.2byte	0x301
    1a6a:	0900                	.2byte	0x900
    1a6c:	0000                	.2byte	0x0
    1a6e:	0001                	.2byte	0x1
    1a70:	0402                	.2byte	0x402
    1a72:	0614                	.2byte	0x614
    1a74:	04090003          	lb	zero,64(s2)
    1a78:	0100                	.2byte	0x100
    1a7a:	04090003          	lb	zero,64(s2)
    1a7e:	0100                	.2byte	0x100
    1a80:	0200                	.2byte	0x200
    1a82:	7304                	.2byte	0x7304
    1a84:	0306                	.2byte	0x306
    1a86:	0900                	.2byte	0x900
    1a88:	0004                	.2byte	0x4
    1a8a:	0601                	.2byte	0x601
    1a8c:	08090003          	lb	zero,128(s2)
    1a90:	0100                	.2byte	0x100
    1a92:	0306                	.2byte	0x306
    1a94:	0900                	.2byte	0x900
    1a96:	0010                	.2byte	0x10
    1a98:	0301                	.2byte	0x301
    1a9a:	0900                	.2byte	0x900
    1a9c:	0000                	.2byte	0x0
    1a9e:	0001                	.2byte	0x1
    1aa0:	0402                	.2byte	0x402
    1aa2:	00030617          	auipc	a2,0x30
    1aa6:	0c09                	.2byte	0xc09
    1aa8:	0100                	.2byte	0x100
    1aaa:	0200                	.2byte	0x200
    1aac:	1804                	.2byte	0x1804
    1aae:	04090003          	lb	zero,64(s2)
    1ab2:	0100                	.2byte	0x100
    1ab4:	0306                	.2byte	0x306
    1ab6:	0900                	.2byte	0x900
    1ab8:	0008                	.2byte	0x8
    1aba:	0301                	.2byte	0x301
    1abc:	0900                	.2byte	0x900
    1abe:	0000                	.2byte	0x0
    1ac0:	0301                	.2byte	0x301
    1ac2:	0900                	.2byte	0x900
    1ac4:	0000                	.2byte	0x0
    1ac6:	0301                	.2byte	0x301
    1ac8:	0900                	.2byte	0x900
    1aca:	0000                	.2byte	0x0
    1acc:	0301                	.2byte	0x301
    1ace:	0900                	.2byte	0x900
    1ad0:	0000                	.2byte	0x0
    1ad2:	0301                	.2byte	0x301
    1ad4:	0900                	.2byte	0x900
    1ad6:	0000                	.2byte	0x0
    1ad8:	0301                	.2byte	0x301
    1ada:	0900                	.2byte	0x900
    1adc:	0000                	.2byte	0x0
    1ade:	0301                	.2byte	0x301
    1ae0:	0900                	.2byte	0x900
    1ae2:	0000                	.2byte	0x0
    1ae4:	0301                	.2byte	0x301
    1ae6:	0900                	.2byte	0x900
    1ae8:	0000                	.2byte	0x0
    1aea:	0301                	.2byte	0x301
    1aec:	0900                	.2byte	0x900
    1aee:	0000                	.2byte	0x0
    1af0:	0301                	.2byte	0x301
    1af2:	0900                	.2byte	0x900
    1af4:	0000                	.2byte	0x0
    1af6:	0301                	.2byte	0x301
    1af8:	0900                	.2byte	0x900
    1afa:	0000                	.2byte	0x0
    1afc:	0301                	.2byte	0x301
    1afe:	0900                	.2byte	0x900
    1b00:	0004                	.2byte	0x4
    1b02:	0301                	.2byte	0x301
    1b04:	0900                	.2byte	0x900
    1b06:	0004                	.2byte	0x4
    1b08:	0301                	.2byte	0x301
    1b0a:	0900                	.2byte	0x900
    1b0c:	0000                	.2byte	0x0
    1b0e:	0301                	.2byte	0x301
    1b10:	0900                	.2byte	0x900
    1b12:	0000                	.2byte	0x0
    1b14:	0001                	.2byte	0x1
    1b16:	0402                	.2byte	0x402
    1b18:	037a                	.2byte	0x37a
    1b1a:	0900                	.2byte	0x900
    1b1c:	0004                	.2byte	0x4
    1b1e:	0601                	.2byte	0x601
    1b20:	08090003          	lb	zero,128(s2)
    1b24:	0100                	.2byte	0x100
    1b26:	0200                	.2byte	0x200
    1b28:	3e04                	.2byte	0x3e04
    1b2a:	0306                	.2byte	0x306
    1b2c:	0900                	.2byte	0x900
    1b2e:	0008                	.2byte	0x8
    1b30:	0001                	.2byte	0x1
    1b32:	0402                	.2byte	0x402
    1b34:	033e                	.2byte	0x33e
    1b36:	0900                	.2byte	0x900
    1b38:	0000                	.2byte	0x0
    1b3a:	0001                	.2byte	0x1
    1b3c:	0402                	.2byte	0x402
    1b3e:	033e                	.2byte	0x33e
    1b40:	0900                	.2byte	0x900
    1b42:	0000                	.2byte	0x0
    1b44:	0001                	.2byte	0x1
    1b46:	0402                	.2byte	0x402
    1b48:	033e                	.2byte	0x33e
    1b4a:	0900                	.2byte	0x900
    1b4c:	0000                	.2byte	0x0
    1b4e:	0001                	.2byte	0x1
    1b50:	0402                	.2byte	0x402
    1b52:	033e                	.2byte	0x33e
    1b54:	0900                	.2byte	0x900
    1b56:	0000                	.2byte	0x0
    1b58:	0001                	.2byte	0x1
    1b5a:	0402                	.2byte	0x402
    1b5c:	033e                	.2byte	0x33e
    1b5e:	0900                	.2byte	0x900
    1b60:	0000                	.2byte	0x0
    1b62:	0001                	.2byte	0x1
    1b64:	0402                	.2byte	0x402
    1b66:	033e                	.2byte	0x33e
    1b68:	0900                	.2byte	0x900
    1b6a:	0000                	.2byte	0x0
    1b6c:	0001                	.2byte	0x1
    1b6e:	0402                	.2byte	0x402
    1b70:	033e                	.2byte	0x33e
    1b72:	0900                	.2byte	0x900
    1b74:	0000                	.2byte	0x0
    1b76:	0001                	.2byte	0x1
    1b78:	0402                	.2byte	0x402
    1b7a:	033e                	.2byte	0x33e
    1b7c:	0900                	.2byte	0x900
    1b7e:	0000                	.2byte	0x0
    1b80:	0001                	.2byte	0x1
    1b82:	0402                	.2byte	0x402
    1b84:	033e                	.2byte	0x33e
    1b86:	0900                	.2byte	0x900
    1b88:	0000                	.2byte	0x0
    1b8a:	0001                	.2byte	0x1
    1b8c:	0402                	.2byte	0x402
    1b8e:	033e                	.2byte	0x33e
    1b90:	0900                	.2byte	0x900
    1b92:	0000                	.2byte	0x0
    1b94:	0001                	.2byte	0x1
    1b96:	0402                	.2byte	0x402
    1b98:	033e                	.2byte	0x33e
    1b9a:	0900                	.2byte	0x900
    1b9c:	0000                	.2byte	0x0
    1b9e:	0301                	.2byte	0x301
    1ba0:	0900                	.2byte	0x900
    1ba2:	0004                	.2byte	0x4
    1ba4:	0001                	.2byte	0x1
    1ba6:	0402                	.2byte	0x402
    1ba8:	0358                	.2byte	0x358
    1baa:	0900                	.2byte	0x900
    1bac:	0004                	.2byte	0x4
    1bae:	0001                	.2byte	0x1
    1bb0:	0402                	.2byte	0x402
    1bb2:	0358                	.2byte	0x358
    1bb4:	0900                	.2byte	0x900
    1bb6:	0000                	.2byte	0x0
    1bb8:	0001                	.2byte	0x1
    1bba:	0402                	.2byte	0x402
    1bbc:	035f 0900 0004      	.byte	0x5f, 0x03, 0x00, 0x09, 0x04, 0x00
    1bc2:	0001                	.2byte	0x1
    1bc4:	0402                	.2byte	0x402
    1bc6:	0366                	.2byte	0x366
    1bc8:	0900                	.2byte	0x900
    1bca:	0004                	.2byte	0x4
    1bcc:	0001                	.2byte	0x1
    1bce:	0402                	.2byte	0x402
    1bd0:	036d                	.2byte	0x36d
    1bd2:	0900                	.2byte	0x900
    1bd4:	0004                	.2byte	0x4
    1bd6:	0001                	.2byte	0x1
    1bd8:	0402                	.2byte	0x402
    1bda:	0374                	.2byte	0x374
    1bdc:	0900                	.2byte	0x900
    1bde:	0004                	.2byte	0x4
    1be0:	0301                	.2byte	0x301
    1be2:	0900                	.2byte	0x900
    1be4:	000c                	.2byte	0xc
    1be6:	0001                	.2byte	0x1
    1be8:	0402                	.2byte	0x402
    1bea:	0645                	.2byte	0x645
    1bec:	04090003          	lb	zero,64(s2)
    1bf0:	0100                	.2byte	0x100
    1bf2:	0306                	.2byte	0x306
    1bf4:	0900                	.2byte	0x900
    1bf6:	0004                	.2byte	0x4
    1bf8:	0501                	.2byte	0x501
    1bfa:	0601                	.2byte	0x601
    1bfc:	04090403          	lb	s0,64(s2)
    1c00:	0100                	.2byte	0x100
    1c02:	0305                	.2byte	0x305
    1c04:	0200                	.2byte	0x200
    1c06:	4804                	.2byte	0x4804
    1c08:	0306                	.2byte	0x306
    1c0a:	097c                	.2byte	0x97c
    1c0c:	0004                	.2byte	0x4
    1c0e:	0001                	.2byte	0x1
    1c10:	0402                	.2byte	0x402
    1c12:	0350                	.2byte	0x350
    1c14:	0900                	.2byte	0x900
    1c16:	0004                	.2byte	0x4
    1c18:	0001                	.2byte	0x1
    1c1a:	0402                	.2byte	0x402
    1c1c:	0350                	.2byte	0x350
    1c1e:	0900                	.2byte	0x900
    1c20:	0000                	.2byte	0x0
    1c22:	0601                	.2byte	0x601
    1c24:	08090003          	lb	zero,128(s2)
    1c28:	0100                	.2byte	0x100
    1c2a:	0306                	.2byte	0x306
    1c2c:	0900                	.2byte	0x900
    1c2e:	0010                	.2byte	0x10
    1c30:	0301                	.2byte	0x301
    1c32:	0900                	.2byte	0x900
    1c34:	0000                	.2byte	0x0
    1c36:	0901                	.2byte	0x901
    1c38:	0008                	.2byte	0x8
    1c3a:	0100                	.2byte	0x100
    1c3c:	7701                	.2byte	0x7701
    1c3e:	05000007          	.4byte	0x5000007
    1c42:	0400                	.2byte	0x400
    1c44:	3800                	.2byte	0x3800
    1c46:	0000                	.2byte	0x0
    1c48:	0100                	.2byte	0x100
    1c4a:	0101                	.2byte	0x101
    1c4c:	000d0efb          	.4byte	0xd0efb
    1c50:	0101                	.2byte	0x101
    1c52:	0101                	.2byte	0x101
    1c54:	0000                	.2byte	0x0
    1c56:	0100                	.2byte	0x100
    1c58:	0000                	.2byte	0x0
    1c5a:	0101                	.2byte	0x101
    1c5c:	1f01                	.2byte	0x1f01
    1c5e:	3802                	.2byte	0x3802
    1c60:	0000                	.2byte	0x0
    1c62:	1200                	.2byte	0x1200
    1c64:	0001                	.2byte	0x1
    1c66:	0200                	.2byte	0x200
    1c68:	1f01                	.2byte	0x1f01
    1c6a:	0f02                	.2byte	0xf02
    1c6c:	1404                	.2byte	0x1404
    1c6e:	0002                	.2byte	0x2
    1c70:	0100                	.2byte	0x100
    1c72:	0214                	.2byte	0x214
    1c74:	0000                	.2byte	0x0
    1c76:	1d01                	.2byte	0x1d01
    1c78:	0002                	.2byte	0x2
    1c7a:	0100                	.2byte	0x100
    1c7c:	0148                	.2byte	0x148
    1c7e:	0000                	.2byte	0x0
    1c80:	0501                	.2byte	0x501
    1c82:	0001                	.2byte	0x1
    1c84:	0205                	.2byte	0x205
    1c86:	0d10                	.2byte	0xd10
    1c88:	0001                	.2byte	0x1
    1c8a:	05012303          	lw	t1,80(sp)
    1c8e:	09010303          	lb	t1,144(sp)
    1c92:	0000                	.2byte	0x0
    1c94:	0301                	.2byte	0x301
    1c96:	0900                	.2byte	0x900
    1c98:	0000                	.2byte	0x0
    1c9a:	0501                	.2byte	0x501
    1c9c:	030d                	.2byte	0x30d
    1c9e:	0900                	.2byte	0x900
    1ca0:	0000                	.2byte	0x0
    1ca2:	0501                	.2byte	0x501
    1ca4:	09010303          	lb	t1,144(sp)
    1ca8:	0000                	.2byte	0x0
    1caa:	0301                	.2byte	0x301
    1cac:	0900                	.2byte	0x900
    1cae:	0000                	.2byte	0x0
    1cb0:	0301                	.2byte	0x301
    1cb2:	0900                	.2byte	0x900
    1cb4:	0000                	.2byte	0x0
    1cb6:	0301                	.2byte	0x301
    1cb8:	0900                	.2byte	0x900
    1cba:	0000                	.2byte	0x0
    1cbc:	0301                	.2byte	0x301
    1cbe:	0901                	.2byte	0x901
    1cc0:	0000                	.2byte	0x0
    1cc2:	0301                	.2byte	0x301
    1cc4:	0900                	.2byte	0x900
    1cc6:	0000                	.2byte	0x0
    1cc8:	0301                	.2byte	0x301
    1cca:	0900                	.2byte	0x900
    1ccc:	0000                	.2byte	0x0
    1cce:	0301                	.2byte	0x301
    1cd0:	0900                	.2byte	0x900
    1cd2:	0000                	.2byte	0x0
    1cd4:	0301                	.2byte	0x301
    1cd6:	0901                	.2byte	0x901
    1cd8:	0000                	.2byte	0x0
    1cda:	0301                	.2byte	0x301
    1cdc:	0900                	.2byte	0x900
    1cde:	0000                	.2byte	0x0
    1ce0:	0301                	.2byte	0x301
    1ce2:	0900                	.2byte	0x900
    1ce4:	0000                	.2byte	0x0
    1ce6:	0301                	.2byte	0x301
    1ce8:	0900                	.2byte	0x900
    1cea:	0000                	.2byte	0x0
    1cec:	0301                	.2byte	0x301
    1cee:	0901                	.2byte	0x901
    1cf0:	0000                	.2byte	0x0
    1cf2:	0301                	.2byte	0x301
    1cf4:	0902                	.2byte	0x902
    1cf6:	0000                	.2byte	0x0
    1cf8:	0301                	.2byte	0x301
    1cfa:	0901                	.2byte	0x901
    1cfc:	0000                	.2byte	0x0
    1cfe:	0301                	.2byte	0x301
    1d00:	0900                	.2byte	0x900
    1d02:	0000                	.2byte	0x0
    1d04:	0301                	.2byte	0x301
    1d06:	0900                	.2byte	0x900
    1d08:	0000                	.2byte	0x0
    1d0a:	0301                	.2byte	0x301
    1d0c:	0900                	.2byte	0x900
    1d0e:	0000                	.2byte	0x0
    1d10:	0301                	.2byte	0x301
    1d12:	0900                	.2byte	0x900
    1d14:	0000                	.2byte	0x0
    1d16:	0501                	.2byte	0x501
    1d18:	0601                	.2byte	0x601
    1d1a:	00097803          	.4byte	0x97803
    1d1e:	0100                	.2byte	0x100
    1d20:	0305                	.2byte	0x305
    1d22:	18090803          	lb	a6,384(s2)
    1d26:	0100                	.2byte	0x100
    1d28:	0105                	.2byte	0x105
    1d2a:	04097803          	.4byte	0x4097803
    1d2e:	0100                	.2byte	0x100
    1d30:	10090003          	lb	zero,256(s2)
    1d34:	0100                	.2byte	0x100
    1d36:	0305                	.2byte	0x305
    1d38:	04090803          	lb	a6,64(s2)
    1d3c:	0100                	.2byte	0x100
    1d3e:	0306                	.2byte	0x306
    1d40:	0900                	.2byte	0x900
    1d42:	0004                	.2byte	0x4
    1d44:	0301                	.2byte	0x301
    1d46:	0900                	.2byte	0x900
    1d48:	0000                	.2byte	0x0
    1d4a:	0301                	.2byte	0x301
    1d4c:	0900                	.2byte	0x900
    1d4e:	0004                	.2byte	0x4
    1d50:	0301                	.2byte	0x301
    1d52:	0900                	.2byte	0x900
    1d54:	0000                	.2byte	0x0
    1d56:	0301                	.2byte	0x301
    1d58:	0900                	.2byte	0x900
    1d5a:	0000                	.2byte	0x0
    1d5c:	0001                	.2byte	0x1
    1d5e:	0402                	.2byte	0x402
    1d60:	0301                	.2byte	0x301
    1d62:	0900                	.2byte	0x900
    1d64:	000c                	.2byte	0xc
    1d66:	0001                	.2byte	0x1
    1d68:	0402                	.2byte	0x402
    1d6a:	0301                	.2byte	0x301
    1d6c:	0900                	.2byte	0x900
    1d6e:	0000                	.2byte	0x0
    1d70:	0001                	.2byte	0x1
    1d72:	0402                	.2byte	0x402
    1d74:	0301                	.2byte	0x301
    1d76:	0900                	.2byte	0x900
    1d78:	0000                	.2byte	0x0
    1d7a:	0001                	.2byte	0x1
    1d7c:	0402                	.2byte	0x402
    1d7e:	0301                	.2byte	0x301
    1d80:	0900                	.2byte	0x900
    1d82:	0000                	.2byte	0x0
    1d84:	0001                	.2byte	0x1
    1d86:	0402                	.2byte	0x402
    1d88:	0301                	.2byte	0x301
    1d8a:	0900                	.2byte	0x900
    1d8c:	000c                	.2byte	0xc
    1d8e:	0001                	.2byte	0x1
    1d90:	0402                	.2byte	0x402
    1d92:	0301                	.2byte	0x301
    1d94:	0900                	.2byte	0x900
    1d96:	0000                	.2byte	0x0
    1d98:	0001                	.2byte	0x1
    1d9a:	0402                	.2byte	0x402
    1d9c:	0301                	.2byte	0x301
    1d9e:	0900                	.2byte	0x900
    1da0:	0004                	.2byte	0x4
    1da2:	0001                	.2byte	0x1
    1da4:	0402                	.2byte	0x402
    1da6:	0301                	.2byte	0x301
    1da8:	0900                	.2byte	0x900
    1daa:	0000                	.2byte	0x0
    1dac:	0001                	.2byte	0x1
    1dae:	0402                	.2byte	0x402
    1db0:	0900030f          	.4byte	0x900030f
    1db4:	0000                	.2byte	0x0
    1db6:	0001                	.2byte	0x1
    1db8:	0402                	.2byte	0x402
    1dba:	0900030f          	.4byte	0x900030f
    1dbe:	0000                	.2byte	0x0
    1dc0:	0001                	.2byte	0x1
    1dc2:	0402                	.2byte	0x402
    1dc4:	0308                	.2byte	0x308
    1dc6:	0900                	.2byte	0x900
    1dc8:	0004                	.2byte	0x4
    1dca:	0001                	.2byte	0x1
    1dcc:	0402                	.2byte	0x402
    1dce:	0308                	.2byte	0x308
    1dd0:	0900                	.2byte	0x900
    1dd2:	0000                	.2byte	0x0
    1dd4:	0001                	.2byte	0x1
    1dd6:	0402                	.2byte	0x402
    1dd8:	0308                	.2byte	0x308
    1dda:	0901                	.2byte	0x901
    1ddc:	0000                	.2byte	0x0
    1dde:	0001                	.2byte	0x1
    1de0:	0402                	.2byte	0x402
    1de2:	0308                	.2byte	0x308
    1de4:	0900                	.2byte	0x900
    1de6:	0000                	.2byte	0x0
    1de8:	0001                	.2byte	0x1
    1dea:	0402                	.2byte	0x402
    1dec:	0308                	.2byte	0x308
    1dee:	0900                	.2byte	0x900
    1df0:	0000                	.2byte	0x0
    1df2:	0001                	.2byte	0x1
    1df4:	0402                	.2byte	0x402
    1df6:	0308                	.2byte	0x308
    1df8:	0900                	.2byte	0x900
    1dfa:	0000                	.2byte	0x0
    1dfc:	0001                	.2byte	0x1
    1dfe:	0402                	.2byte	0x402
    1e00:	0308                	.2byte	0x308
    1e02:	0900                	.2byte	0x900
    1e04:	0000                	.2byte	0x0
    1e06:	0001                	.2byte	0x1
    1e08:	0402                	.2byte	0x402
    1e0a:	0308                	.2byte	0x308
    1e0c:	0900                	.2byte	0x900
    1e0e:	0010                	.2byte	0x10
    1e10:	0001                	.2byte	0x1
    1e12:	0402                	.2byte	0x402
    1e14:	0308                	.2byte	0x308
    1e16:	0900                	.2byte	0x900
    1e18:	0000                	.2byte	0x0
    1e1a:	0001                	.2byte	0x1
    1e1c:	0402                	.2byte	0x402
    1e1e:	0308                	.2byte	0x308
    1e20:	0900                	.2byte	0x900
    1e22:	0004                	.2byte	0x4
    1e24:	0001                	.2byte	0x1
    1e26:	0402                	.2byte	0x402
    1e28:	0308                	.2byte	0x308
    1e2a:	0900                	.2byte	0x900
    1e2c:	0000                	.2byte	0x0
    1e2e:	0001                	.2byte	0x1
    1e30:	0402                	.2byte	0x402
    1e32:	0308                	.2byte	0x308
    1e34:	0900                	.2byte	0x900
    1e36:	0000                	.2byte	0x0
    1e38:	0601                	.2byte	0x601
    1e3a:	04090003          	lb	zero,64(s2)
    1e3e:	0100                	.2byte	0x100
    1e40:	0200                	.2byte	0x200
    1e42:	0104                	.2byte	0x104
    1e44:	0306                	.2byte	0x306
    1e46:	0900                	.2byte	0x900
    1e48:	0008                	.2byte	0x8
    1e4a:	0001                	.2byte	0x1
    1e4c:	0402                	.2byte	0x402
    1e4e:	0301                	.2byte	0x301
    1e50:	0900                	.2byte	0x900
    1e52:	0000                	.2byte	0x0
    1e54:	0001                	.2byte	0x1
    1e56:	0402                	.2byte	0x402
    1e58:	0301                	.2byte	0x301
    1e5a:	0900                	.2byte	0x900
    1e5c:	0000                	.2byte	0x0
    1e5e:	0001                	.2byte	0x1
    1e60:	0402                	.2byte	0x402
    1e62:	0301                	.2byte	0x301
    1e64:	0900                	.2byte	0x900
    1e66:	0000                	.2byte	0x0
    1e68:	0001                	.2byte	0x1
    1e6a:	0402                	.2byte	0x402
    1e6c:	0301                	.2byte	0x301
    1e6e:	0900                	.2byte	0x900
    1e70:	000c                	.2byte	0xc
    1e72:	0001                	.2byte	0x1
    1e74:	0402                	.2byte	0x402
    1e76:	0301                	.2byte	0x301
    1e78:	0900                	.2byte	0x900
    1e7a:	0000                	.2byte	0x0
    1e7c:	0001                	.2byte	0x1
    1e7e:	0402                	.2byte	0x402
    1e80:	0301                	.2byte	0x301
    1e82:	0900                	.2byte	0x900
    1e84:	0004                	.2byte	0x4
    1e86:	0001                	.2byte	0x1
    1e88:	0402                	.2byte	0x402
    1e8a:	0301                	.2byte	0x301
    1e8c:	0900                	.2byte	0x900
    1e8e:	0000                	.2byte	0x0
    1e90:	0001                	.2byte	0x1
    1e92:	0402                	.2byte	0x402
    1e94:	0900030f          	.4byte	0x900030f
    1e98:	0000                	.2byte	0x0
    1e9a:	0001                	.2byte	0x1
    1e9c:	0402                	.2byte	0x402
    1e9e:	0900030f          	.4byte	0x900030f
    1ea2:	0000                	.2byte	0x0
    1ea4:	0001                	.2byte	0x1
    1ea6:	0402                	.2byte	0x402
    1ea8:	0308                	.2byte	0x308
    1eaa:	0900                	.2byte	0x900
    1eac:	0004                	.2byte	0x4
    1eae:	0001                	.2byte	0x1
    1eb0:	0402                	.2byte	0x402
    1eb2:	0308                	.2byte	0x308
    1eb4:	0900                	.2byte	0x900
    1eb6:	0000                	.2byte	0x0
    1eb8:	0001                	.2byte	0x1
    1eba:	0402                	.2byte	0x402
    1ebc:	0308                	.2byte	0x308
    1ebe:	0901                	.2byte	0x901
    1ec0:	0000                	.2byte	0x0
    1ec2:	0001                	.2byte	0x1
    1ec4:	0402                	.2byte	0x402
    1ec6:	0308                	.2byte	0x308
    1ec8:	0900                	.2byte	0x900
    1eca:	0000                	.2byte	0x0
    1ecc:	0001                	.2byte	0x1
    1ece:	0402                	.2byte	0x402
    1ed0:	0308                	.2byte	0x308
    1ed2:	0900                	.2byte	0x900
    1ed4:	0014                	.2byte	0x14
    1ed6:	0001                	.2byte	0x1
    1ed8:	0402                	.2byte	0x402
    1eda:	0308                	.2byte	0x308
    1edc:	0900                	.2byte	0x900
    1ede:	0004                	.2byte	0x4
    1ee0:	0601                	.2byte	0x601
    1ee2:	04090003          	lb	zero,64(s2)
    1ee6:	0100                	.2byte	0x100
    1ee8:	0200                	.2byte	0x200
    1eea:	0204                	.2byte	0x204
    1eec:	0306                	.2byte	0x306
    1eee:	0900                	.2byte	0x900
    1ef0:	0014                	.2byte	0x14
    1ef2:	0001                	.2byte	0x1
    1ef4:	0402                	.2byte	0x402
    1ef6:	0302                	.2byte	0x302
    1ef8:	0900                	.2byte	0x900
    1efa:	0000                	.2byte	0x0
    1efc:	0001                	.2byte	0x1
    1efe:	0402                	.2byte	0x402
    1f00:	0302                	.2byte	0x302
    1f02:	0900                	.2byte	0x900
    1f04:	0000                	.2byte	0x0
    1f06:	0001                	.2byte	0x1
    1f08:	0402                	.2byte	0x402
    1f0a:	0302                	.2byte	0x302
    1f0c:	0900                	.2byte	0x900
    1f0e:	0000                	.2byte	0x0
    1f10:	0001                	.2byte	0x1
    1f12:	0402                	.2byte	0x402
    1f14:	0302                	.2byte	0x302
    1f16:	0900                	.2byte	0x900
    1f18:	0000                	.2byte	0x0
    1f1a:	0001                	.2byte	0x1
    1f1c:	0402                	.2byte	0x402
    1f1e:	0302                	.2byte	0x302
    1f20:	0900                	.2byte	0x900
    1f22:	0000                	.2byte	0x0
    1f24:	0001                	.2byte	0x1
    1f26:	0402                	.2byte	0x402
    1f28:	0302                	.2byte	0x302
    1f2a:	0900                	.2byte	0x900
    1f2c:	0000                	.2byte	0x0
    1f2e:	0001                	.2byte	0x1
    1f30:	0402                	.2byte	0x402
    1f32:	0302                	.2byte	0x302
    1f34:	0900                	.2byte	0x900
    1f36:	0000                	.2byte	0x0
    1f38:	0001                	.2byte	0x1
    1f3a:	0402                	.2byte	0x402
    1f3c:	0302                	.2byte	0x302
    1f3e:	0900                	.2byte	0x900
    1f40:	0000                	.2byte	0x0
    1f42:	0001                	.2byte	0x1
    1f44:	0402                	.2byte	0x402
    1f46:	0302                	.2byte	0x302
    1f48:	0900                	.2byte	0x900
    1f4a:	000c                	.2byte	0xc
    1f4c:	0001                	.2byte	0x1
    1f4e:	0402                	.2byte	0x402
    1f50:	0302                	.2byte	0x302
    1f52:	0900                	.2byte	0x900
    1f54:	0000                	.2byte	0x0
    1f56:	0001                	.2byte	0x1
    1f58:	0402                	.2byte	0x402
    1f5a:	0302                	.2byte	0x302
    1f5c:	0900                	.2byte	0x900
    1f5e:	0004                	.2byte	0x4
    1f60:	0001                	.2byte	0x1
    1f62:	0402                	.2byte	0x402
    1f64:	0302                	.2byte	0x302
    1f66:	0900                	.2byte	0x900
    1f68:	000c                	.2byte	0xc
    1f6a:	0001                	.2byte	0x1
    1f6c:	0402                	.2byte	0x402
    1f6e:	0302                	.2byte	0x302
    1f70:	0900                	.2byte	0x900
    1f72:	0000                	.2byte	0x0
    1f74:	0001                	.2byte	0x1
    1f76:	0402                	.2byte	0x402
    1f78:	0302                	.2byte	0x302
    1f7a:	0900                	.2byte	0x900
    1f7c:	0004                	.2byte	0x4
    1f7e:	0001                	.2byte	0x1
    1f80:	0402                	.2byte	0x402
    1f82:	0302                	.2byte	0x302
    1f84:	0900                	.2byte	0x900
    1f86:	0008                	.2byte	0x8
    1f88:	0001                	.2byte	0x1
    1f8a:	0402                	.2byte	0x402
    1f8c:	0302                	.2byte	0x302
    1f8e:	0900                	.2byte	0x900
    1f90:	0008                	.2byte	0x8
    1f92:	0001                	.2byte	0x1
    1f94:	0402                	.2byte	0x402
    1f96:	0302                	.2byte	0x302
    1f98:	0900                	.2byte	0x900
    1f9a:	0004                	.2byte	0x4
    1f9c:	0001                	.2byte	0x1
    1f9e:	0402                	.2byte	0x402
    1fa0:	0309                	.2byte	0x309
    1fa2:	0900                	.2byte	0x900
    1fa4:	0004                	.2byte	0x4
    1fa6:	0001                	.2byte	0x1
    1fa8:	0402                	.2byte	0x402
    1faa:	0900030b          	.4byte	0x900030b
    1fae:	0004                	.2byte	0x4
    1fb0:	0001                	.2byte	0x1
    1fb2:	0402                	.2byte	0x402
    1fb4:	0900030b          	.4byte	0x900030b
    1fb8:	0000                	.2byte	0x0
    1fba:	0001                	.2byte	0x1
    1fbc:	0402                	.2byte	0x402
    1fbe:	0900030b          	.4byte	0x900030b
    1fc2:	0010                	.2byte	0x10
    1fc4:	0001                	.2byte	0x1
    1fc6:	0402                	.2byte	0x402
    1fc8:	0900030b          	.4byte	0x900030b
    1fcc:	0000                	.2byte	0x0
    1fce:	0001                	.2byte	0x1
    1fd0:	0402                	.2byte	0x402
    1fd2:	0900030b          	.4byte	0x900030b
    1fd6:	0000                	.2byte	0x0
    1fd8:	0001                	.2byte	0x1
    1fda:	0402                	.2byte	0x402
    1fdc:	0900030b          	.4byte	0x900030b
    1fe0:	0000                	.2byte	0x0
    1fe2:	0001                	.2byte	0x1
    1fe4:	0402                	.2byte	0x402
    1fe6:	0900030b          	.4byte	0x900030b
    1fea:	0020                	.2byte	0x20
    1fec:	0001                	.2byte	0x1
    1fee:	0402                	.2byte	0x402
    1ff0:	0900030b          	.4byte	0x900030b
    1ff4:	0000                	.2byte	0x0
    1ff6:	0001                	.2byte	0x1
    1ff8:	0402                	.2byte	0x402
    1ffa:	0900030b          	.4byte	0x900030b
    1ffe:	0000                	.2byte	0x0
    2000:	0001                	.2byte	0x1
    2002:	0402                	.2byte	0x402
    2004:	0900030b          	.4byte	0x900030b
    2008:	0000                	.2byte	0x0
    200a:	0001                	.2byte	0x1
    200c:	0402                	.2byte	0x402
    200e:	030c                	.2byte	0x30c
    2010:	0900                	.2byte	0x900
    2012:	000c                	.2byte	0xc
    2014:	0001                	.2byte	0x1
    2016:	0402                	.2byte	0x402
    2018:	030c                	.2byte	0x30c
    201a:	0900                	.2byte	0x900
    201c:	000c                	.2byte	0xc
    201e:	0001                	.2byte	0x1
    2020:	0402                	.2byte	0x402
    2022:	030c                	.2byte	0x30c
    2024:	0901                	.2byte	0x901
    2026:	0000                	.2byte	0x0
    2028:	0001                	.2byte	0x1
    202a:	0402                	.2byte	0x402
    202c:	030c                	.2byte	0x30c
    202e:	0900                	.2byte	0x900
    2030:	0000                	.2byte	0x0
    2032:	0001                	.2byte	0x1
    2034:	0402                	.2byte	0x402
    2036:	030c                	.2byte	0x30c
    2038:	0900                	.2byte	0x900
    203a:	0000                	.2byte	0x0
    203c:	0001                	.2byte	0x1
    203e:	0402                	.2byte	0x402
    2040:	0302                	.2byte	0x302
    2042:	0900                	.2byte	0x900
    2044:	0000                	.2byte	0x0
    2046:	0001                	.2byte	0x1
    2048:	0402                	.2byte	0x402
    204a:	0302                	.2byte	0x302
    204c:	0900                	.2byte	0x900
    204e:	0004                	.2byte	0x4
    2050:	0001                	.2byte	0x1
    2052:	0402                	.2byte	0x402
    2054:	0306                	.2byte	0x306
    2056:	0900                	.2byte	0x900
    2058:	0004                	.2byte	0x4
    205a:	0001                	.2byte	0x1
    205c:	0402                	.2byte	0x402
    205e:	0306                	.2byte	0x306
    2060:	0900                	.2byte	0x900
    2062:	0000                	.2byte	0x0
    2064:	0001                	.2byte	0x1
    2066:	0402                	.2byte	0x402
    2068:	0308                	.2byte	0x308
    206a:	0900                	.2byte	0x900
    206c:	0008                	.2byte	0x8
    206e:	0001                	.2byte	0x1
    2070:	0402                	.2byte	0x402
    2072:	0308                	.2byte	0x308
    2074:	0900                	.2byte	0x900
    2076:	0000                	.2byte	0x0
    2078:	0001                	.2byte	0x1
    207a:	0402                	.2byte	0x402
    207c:	0308                	.2byte	0x308
    207e:	0900                	.2byte	0x900
    2080:	0000                	.2byte	0x0
    2082:	0001                	.2byte	0x1
    2084:	0402                	.2byte	0x402
    2086:	0308                	.2byte	0x308
    2088:	0900                	.2byte	0x900
    208a:	0000                	.2byte	0x0
    208c:	0001                	.2byte	0x1
    208e:	0402                	.2byte	0x402
    2090:	030a                	.2byte	0x30a
    2092:	0900                	.2byte	0x900
    2094:	000c                	.2byte	0xc
    2096:	0001                	.2byte	0x1
    2098:	0402                	.2byte	0x402
    209a:	0309                	.2byte	0x309
    209c:	0900                	.2byte	0x900
    209e:	0004                	.2byte	0x4
    20a0:	0001                	.2byte	0x1
    20a2:	0402                	.2byte	0x402
    20a4:	0309                	.2byte	0x309
    20a6:	0900                	.2byte	0x900
    20a8:	0000                	.2byte	0x0
    20aa:	0001                	.2byte	0x1
    20ac:	0402                	.2byte	0x402
    20ae:	0318                	.2byte	0x318
    20b0:	0900                	.2byte	0x900
    20b2:	000c                	.2byte	0xc
    20b4:	0001                	.2byte	0x1
    20b6:	0402                	.2byte	0x402
    20b8:	0318                	.2byte	0x318
    20ba:	0900                	.2byte	0x900
    20bc:	000c                	.2byte	0xc
    20be:	0001                	.2byte	0x1
    20c0:	0402                	.2byte	0x402
    20c2:	031a                	.2byte	0x31a
    20c4:	0900                	.2byte	0x900
    20c6:	0004                	.2byte	0x4
    20c8:	0001                	.2byte	0x1
    20ca:	0402                	.2byte	0x402
    20cc:	031a                	.2byte	0x31a
    20ce:	0900                	.2byte	0x900
    20d0:	0000                	.2byte	0x0
    20d2:	0601                	.2byte	0x601
    20d4:	08090003          	lb	zero,128(s2)
    20d8:	0100                	.2byte	0x100
    20da:	0200                	.2byte	0x200
    20dc:	6f04                	.2byte	0x6f04
    20de:	0306                	.2byte	0x306
    20e0:	0900                	.2byte	0x900
    20e2:	0004                	.2byte	0x4
    20e4:	0001                	.2byte	0x1
    20e6:	0402                	.2byte	0x402
    20e8:	0900036f          	jal	t1,2178 <exit-0xdf1c>
    20ec:	0000                	.2byte	0x0
    20ee:	0001                	.2byte	0x1
    20f0:	0402                	.2byte	0x402
    20f2:	0900036f          	jal	t1,2182 <exit-0xdf12>
    20f6:	0000                	.2byte	0x0
    20f8:	0001                	.2byte	0x1
    20fa:	0402                	.2byte	0x402
    20fc:	0900036f          	jal	t1,218c <exit-0xdf08>
    2100:	0000                	.2byte	0x0
    2102:	0001                	.2byte	0x1
    2104:	0402                	.2byte	0x402
    2106:	0900036f          	jal	t1,2196 <exit-0xdefe>
    210a:	0000                	.2byte	0x0
    210c:	0001                	.2byte	0x1
    210e:	0402                	.2byte	0x402
    2110:	0900036f          	jal	t1,21a0 <exit-0xdef4>
    2114:	0000                	.2byte	0x0
    2116:	0501                	.2byte	0x501
    2118:	0001                	.2byte	0x1
    211a:	0402                	.2byte	0x402
    211c:	0403066f          	jal	a2,3215c <__global_pointer$+0x1e714>
    2120:	0009                	.2byte	0x9
    2122:	0100                	.2byte	0x100
    2124:	0305                	.2byte	0x305
    2126:	0200                	.2byte	0x200
    2128:	6f04                	.2byte	0x6f04
    212a:	08097c03          	.4byte	0x8097c03
    212e:	0100                	.2byte	0x100
    2130:	0200                	.2byte	0x200
    2132:	6f04                	.2byte	0x6f04
    2134:	0306                	.2byte	0x306
    2136:	0900                	.2byte	0x900
    2138:	0014                	.2byte	0x14
    213a:	0001                	.2byte	0x1
    213c:	0402                	.2byte	0x402
    213e:	0900036f          	jal	t1,21ce <exit-0xdec6>
    2142:	0000                	.2byte	0x0
    2144:	0001                	.2byte	0x1
    2146:	0402                	.2byte	0x402
    2148:	0900036f          	jal	t1,21d8 <exit-0xdebc>
    214c:	0000                	.2byte	0x0
    214e:	0001                	.2byte	0x1
    2150:	0402                	.2byte	0x402
    2152:	0901036f          	jal	t1,121e2 <__clz_tab+0x11e>
    2156:	0000                	.2byte	0x0
    2158:	0001                	.2byte	0x1
    215a:	0402                	.2byte	0x402
    215c:	0900036f          	jal	t1,21ec <exit-0xdea8>
    2160:	0000                	.2byte	0x0
    2162:	0001                	.2byte	0x1
    2164:	0402                	.2byte	0x402
    2166:	0900036f          	jal	t1,21f6 <exit-0xde9e>
    216a:	0000                	.2byte	0x0
    216c:	0001                	.2byte	0x1
    216e:	0402                	.2byte	0x402
    2170:	0902036f          	jal	t1,22200 <__global_pointer$+0xe7b8>
    2174:	0000                	.2byte	0x0
    2176:	0501                	.2byte	0x501
    2178:	0001                	.2byte	0x1
    217a:	0402                	.2byte	0x402
    217c:	0103066f          	jal	a2,3218c <__global_pointer$+0x1e744>
    2180:	0009                	.2byte	0x9
    2182:	0100                	.2byte	0x100
    2184:	0305                	.2byte	0x305
    2186:	0200                	.2byte	0x200
    2188:	0204                	.2byte	0x204
    218a:	0306                	.2byte	0x306
    218c:	0979                	.2byte	0x979
    218e:	0020                	.2byte	0x20
    2190:	0001                	.2byte	0x1
    2192:	0402                	.2byte	0x402
    2194:	0900030f          	.4byte	0x900030f
    2198:	0004                	.2byte	0x4
    219a:	0001                	.2byte	0x1
    219c:	0402                	.2byte	0x402
    219e:	0900030f          	.4byte	0x900030f
    21a2:	0000                	.2byte	0x0
    21a4:	0001                	.2byte	0x1
    21a6:	0402                	.2byte	0x402
    21a8:	0900030f          	.4byte	0x900030f
    21ac:	0000                	.2byte	0x0
    21ae:	0001                	.2byte	0x1
    21b0:	0402                	.2byte	0x402
    21b2:	0900030f          	.4byte	0x900030f
    21b6:	0000                	.2byte	0x0
    21b8:	0001                	.2byte	0x1
    21ba:	0402                	.2byte	0x402
    21bc:	0900030f          	.4byte	0x900030f
    21c0:	0000                	.2byte	0x0
    21c2:	0001                	.2byte	0x1
    21c4:	0402                	.2byte	0x402
    21c6:	0900030f          	.4byte	0x900030f
    21ca:	0000                	.2byte	0x0
    21cc:	0001                	.2byte	0x1
    21ce:	0402                	.2byte	0x402
    21d0:	0900030f          	.4byte	0x900030f
    21d4:	0008                	.2byte	0x8
    21d6:	0001                	.2byte	0x1
    21d8:	0402                	.2byte	0x402
    21da:	0900030f          	.4byte	0x900030f
    21de:	0000                	.2byte	0x0
    21e0:	0001                	.2byte	0x1
    21e2:	0402                	.2byte	0x402
    21e4:	0900030f          	.4byte	0x900030f
    21e8:	0000                	.2byte	0x0
    21ea:	0001                	.2byte	0x1
    21ec:	0402                	.2byte	0x402
    21ee:	0900030f          	.4byte	0x900030f
    21f2:	0000                	.2byte	0x0
    21f4:	0001                	.2byte	0x1
    21f6:	0402                	.2byte	0x402
    21f8:	0900030f          	.4byte	0x900030f
    21fc:	0000                	.2byte	0x0
    21fe:	0001                	.2byte	0x1
    2200:	0402                	.2byte	0x402
    2202:	0900030f          	.4byte	0x900030f
    2206:	000c                	.2byte	0xc
    2208:	0001                	.2byte	0x1
    220a:	0402                	.2byte	0x402
    220c:	0900030f          	.4byte	0x900030f
    2210:	0000                	.2byte	0x0
    2212:	0001                	.2byte	0x1
    2214:	0402                	.2byte	0x402
    2216:	09000303          	lb	t1,144(zero) # 90 <exit-0x10004>
    221a:	0008                	.2byte	0x8
    221c:	0601                	.2byte	0x601
    221e:	0c090003          	lb	zero,192(s2)
    2222:	0100                	.2byte	0x100
    2224:	0200                	.2byte	0x200
    2226:	0204                	.2byte	0x204
    2228:	0306                	.2byte	0x306
    222a:	0901                	.2byte	0x901
    222c:	0014                	.2byte	0x14
    222e:	0001                	.2byte	0x1
    2230:	0402                	.2byte	0x402
    2232:	0900030f          	.4byte	0x900030f
    2236:	0004                	.2byte	0x4
    2238:	0001                	.2byte	0x1
    223a:	0402                	.2byte	0x402
    223c:	0900030f          	.4byte	0x900030f
    2240:	0000                	.2byte	0x0
    2242:	0001                	.2byte	0x1
    2244:	0402                	.2byte	0x402
    2246:	0900030f          	.4byte	0x900030f
    224a:	0000                	.2byte	0x0
    224c:	0001                	.2byte	0x1
    224e:	0402                	.2byte	0x402
    2250:	0900030f          	.4byte	0x900030f
    2254:	0000                	.2byte	0x0
    2256:	0001                	.2byte	0x1
    2258:	0402                	.2byte	0x402
    225a:	0900030f          	.4byte	0x900030f
    225e:	0000                	.2byte	0x0
    2260:	0001                	.2byte	0x1
    2262:	0402                	.2byte	0x402
    2264:	0900030f          	.4byte	0x900030f
    2268:	0000                	.2byte	0x0
    226a:	0001                	.2byte	0x1
    226c:	0402                	.2byte	0x402
    226e:	0900030f          	.4byte	0x900030f
    2272:	0008                	.2byte	0x8
    2274:	0001                	.2byte	0x1
    2276:	0402                	.2byte	0x402
    2278:	0900030f          	.4byte	0x900030f
    227c:	0000                	.2byte	0x0
    227e:	0001                	.2byte	0x1
    2280:	0402                	.2byte	0x402
    2282:	0900030f          	.4byte	0x900030f
    2286:	0000                	.2byte	0x0
    2288:	0001                	.2byte	0x1
    228a:	0402                	.2byte	0x402
    228c:	0900030f          	.4byte	0x900030f
    2290:	0000                	.2byte	0x0
    2292:	0001                	.2byte	0x1
    2294:	0402                	.2byte	0x402
    2296:	0900030f          	.4byte	0x900030f
    229a:	0000                	.2byte	0x0
    229c:	0001                	.2byte	0x1
    229e:	0402                	.2byte	0x402
    22a0:	0900030f          	.4byte	0x900030f
    22a4:	0008                	.2byte	0x8
    22a6:	0001                	.2byte	0x1
    22a8:	0402                	.2byte	0x402
    22aa:	0900030f          	.4byte	0x900030f
    22ae:	0000                	.2byte	0x0
    22b0:	0001                	.2byte	0x1
    22b2:	0402                	.2byte	0x402
    22b4:	09000303          	lb	t1,144(zero) # 90 <exit-0x10004>
    22b8:	000c                	.2byte	0xc
    22ba:	0601                	.2byte	0x601
    22bc:	0c090003          	lb	zero,192(s2)
    22c0:	0100                	.2byte	0x100
    22c2:	1c090103          	lb	sp,448(s2)
    22c6:	0100                	.2byte	0x100
    22c8:	0200                	.2byte	0x200
    22ca:	0404                	.2byte	0x404
    22cc:	18097f03          	.4byte	0x18097f03
    22d0:	0100                	.2byte	0x100
    22d2:	0200                	.2byte	0x200
    22d4:	0404                	.2byte	0x404
    22d6:	0306                	.2byte	0x306
    22d8:	0901                	.2byte	0x901
    22da:	0004                	.2byte	0x4
    22dc:	0001                	.2byte	0x1
    22de:	0402                	.2byte	0x402
    22e0:	0315                	.2byte	0x315
    22e2:	0900                	.2byte	0x900
    22e4:	0000                	.2byte	0x0
    22e6:	0001                	.2byte	0x1
    22e8:	0402                	.2byte	0x402
    22ea:	0315                	.2byte	0x315
    22ec:	0901                	.2byte	0x901
    22ee:	0000                	.2byte	0x0
    22f0:	0001                	.2byte	0x1
    22f2:	0402                	.2byte	0x402
    22f4:	0315                	.2byte	0x315
    22f6:	0900                	.2byte	0x900
    22f8:	0000                	.2byte	0x0
    22fa:	0001                	.2byte	0x1
    22fc:	0402                	.2byte	0x402
    22fe:	0315                	.2byte	0x315
    2300:	0900                	.2byte	0x900
    2302:	0000                	.2byte	0x0
    2304:	0601                	.2byte	0x601
    2306:	08090003          	lb	zero,128(s2)
    230a:	0100                	.2byte	0x100
    230c:	1c097f03          	.4byte	0x1c097f03
    2310:	0100                	.2byte	0x100
    2312:	0c097e03          	.4byte	0xc097e03
    2316:	0100                	.2byte	0x100
    2318:	04090203          	lb	tp,64(s2)
    231c:	0100                	.2byte	0x100
    231e:	0200                	.2byte	0x200
    2320:	0704                	.2byte	0x704
    2322:	0306                	.2byte	0x306
    2324:	0901                	.2byte	0x901
    2326:	0018                	.2byte	0x18
    2328:	0001                	.2byte	0x1
    232a:	0402                	.2byte	0x402
    232c:	09000307          	.4byte	0x9000307
    2330:	0000                	.2byte	0x0
    2332:	0001                	.2byte	0x1
    2334:	0402                	.2byte	0x402
    2336:	0900033b          	.4byte	0x900033b
    233a:	0008                	.2byte	0x8
    233c:	0001                	.2byte	0x1
    233e:	0402                	.2byte	0x402
    2340:	0900033b          	.4byte	0x900033b
    2344:	0004                	.2byte	0x4
    2346:	0001                	.2byte	0x1
    2348:	0402                	.2byte	0x402
    234a:	033c                	.2byte	0x33c
    234c:	0900                	.2byte	0x900
    234e:	0010                	.2byte	0x10
    2350:	0001                	.2byte	0x1
    2352:	0402                	.2byte	0x402
    2354:	033c                	.2byte	0x33c
    2356:	0900                	.2byte	0x900
    2358:	0014                	.2byte	0x14
    235a:	0001                	.2byte	0x1
    235c:	0402                	.2byte	0x402
    235e:	033c                	.2byte	0x33c
    2360:	0900                	.2byte	0x900
    2362:	0000                	.2byte	0x0
    2364:	0001                	.2byte	0x1
    2366:	0402                	.2byte	0x402
    2368:	0344                	.2byte	0x344
    236a:	0900                	.2byte	0x900
    236c:	0008                	.2byte	0x8
    236e:	0001                	.2byte	0x1
    2370:	0402                	.2byte	0x402
    2372:	0344                	.2byte	0x344
    2374:	0900                	.2byte	0x900
    2376:	0000                	.2byte	0x0
    2378:	0001                	.2byte	0x1
    237a:	0402                	.2byte	0x402
    237c:	0344                	.2byte	0x344
    237e:	0900                	.2byte	0x900
    2380:	0000                	.2byte	0x0
    2382:	0001                	.2byte	0x1
    2384:	0402                	.2byte	0x402
    2386:	0344                	.2byte	0x344
    2388:	0900                	.2byte	0x900
    238a:	0000                	.2byte	0x0
    238c:	0001                	.2byte	0x1
    238e:	0402                	.2byte	0x402
    2390:	0346                	.2byte	0x346
    2392:	0900                	.2byte	0x900
    2394:	000c                	.2byte	0xc
    2396:	0001                	.2byte	0x1
    2398:	0402                	.2byte	0x402
    239a:	0345                	.2byte	0x345
    239c:	0900                	.2byte	0x900
    239e:	0004                	.2byte	0x4
    23a0:	0001                	.2byte	0x1
    23a2:	0402                	.2byte	0x402
    23a4:	0345                	.2byte	0x345
    23a6:	0900                	.2byte	0x900
    23a8:	0000                	.2byte	0x0
    23aa:	0601                	.2byte	0x601
    23ac:	10090003          	lb	zero,256(s2)
    23b0:	0100                	.2byte	0x100
    23b2:	2809                	.2byte	0x2809
    23b4:	0000                	.2byte	0x0
    23b6:	0101                	.2byte	0x101
    23b8:	0b51                	.2byte	0xb51
    23ba:	0000                	.2byte	0x0
    23bc:	0005                	.2byte	0x5
    23be:	0004                	.2byte	0x4
    23c0:	00000033          	add	zero,zero,zero
    23c4:	0101                	.2byte	0x101
    23c6:	fb01                	.2byte	0xfb01
    23c8:	0d0e                	.2byte	0xd0e
    23ca:	0100                	.2byte	0x100
    23cc:	0101                	.2byte	0x101
    23ce:	0001                	.2byte	0x1
    23d0:	0000                	.2byte	0x0
    23d2:	0001                	.2byte	0x1
    23d4:	0100                	.2byte	0x100
    23d6:	0101                	.2byte	0x101
    23d8:	021f 0038 0000      	.byte	0x1f, 0x02, 0x38, 0x00, 0x00, 0x00
    23de:	0112                	.2byte	0x112
    23e0:	0000                	.2byte	0x0
    23e2:	0102                	.2byte	0x102
    23e4:	021f 030f 025d      	.byte	0x1f, 0x02, 0x0f, 0x03, 0x5d, 0x02
    23ea:	0000                	.2byte	0x0
    23ec:	5d01                	.2byte	0x5d01
    23ee:	0002                	.2byte	0x2
    23f0:	0100                	.2byte	0x100
    23f2:	0148                	.2byte	0x148
    23f4:	0000                	.2byte	0x0
    23f6:	0501                	.2byte	0x501
    23f8:	0001                	.2byte	0x1
    23fa:	0205                	.2byte	0x205
    23fc:	1044                	.2byte	0x1044
    23fe:	0001                	.2byte	0x1
    2400:	05012303          	lw	t1,80(sp)
    2404:	09010303          	lb	t1,144(sp)
    2408:	0000                	.2byte	0x0
    240a:	0301                	.2byte	0x301
    240c:	0900                	.2byte	0x900
    240e:	0000                	.2byte	0x0
    2410:	0501                	.2byte	0x501
    2412:	030d                	.2byte	0x30d
    2414:	0900                	.2byte	0x900
    2416:	0000                	.2byte	0x0
    2418:	0501                	.2byte	0x501
    241a:	09010303          	lb	t1,144(sp)
    241e:	0000                	.2byte	0x0
    2420:	0301                	.2byte	0x301
    2422:	0900                	.2byte	0x900
    2424:	0000                	.2byte	0x0
    2426:	0301                	.2byte	0x301
    2428:	0900                	.2byte	0x900
    242a:	0000                	.2byte	0x0
    242c:	0301                	.2byte	0x301
    242e:	0900                	.2byte	0x900
    2430:	0000                	.2byte	0x0
    2432:	0301                	.2byte	0x301
    2434:	0901                	.2byte	0x901
    2436:	0000                	.2byte	0x0
    2438:	0301                	.2byte	0x301
    243a:	0900                	.2byte	0x900
    243c:	0000                	.2byte	0x0
    243e:	0301                	.2byte	0x301
    2440:	0900                	.2byte	0x900
    2442:	0000                	.2byte	0x0
    2444:	0301                	.2byte	0x301
    2446:	0900                	.2byte	0x900
    2448:	0000                	.2byte	0x0
    244a:	0301                	.2byte	0x301
    244c:	0901                	.2byte	0x901
    244e:	0000                	.2byte	0x0
    2450:	0301                	.2byte	0x301
    2452:	0900                	.2byte	0x900
    2454:	0000                	.2byte	0x0
    2456:	0301                	.2byte	0x301
    2458:	0900                	.2byte	0x900
    245a:	0000                	.2byte	0x0
    245c:	0301                	.2byte	0x301
    245e:	0900                	.2byte	0x900
    2460:	0000                	.2byte	0x0
    2462:	0301                	.2byte	0x301
    2464:	0901                	.2byte	0x901
    2466:	0000                	.2byte	0x0
    2468:	0301                	.2byte	0x301
    246a:	0902                	.2byte	0x902
    246c:	0000                	.2byte	0x0
    246e:	0301                	.2byte	0x301
    2470:	0901                	.2byte	0x901
    2472:	0000                	.2byte	0x0
    2474:	0301                	.2byte	0x301
    2476:	0900                	.2byte	0x900
    2478:	0000                	.2byte	0x0
    247a:	0301                	.2byte	0x301
    247c:	0900                	.2byte	0x900
    247e:	0000                	.2byte	0x0
    2480:	0301                	.2byte	0x301
    2482:	0900                	.2byte	0x900
    2484:	0000                	.2byte	0x0
    2486:	0301                	.2byte	0x301
    2488:	0900                	.2byte	0x900
    248a:	0000                	.2byte	0x0
    248c:	0501                	.2byte	0x501
    248e:	0601                	.2byte	0x601
    2490:	04097803          	.4byte	0x4097803
    2494:	0100                	.2byte	0x100
    2496:	0305                	.2byte	0x305
    2498:	04090803          	lb	a6,64(s2)
    249c:	0100                	.2byte	0x100
    249e:	08090103          	lb	sp,128(s2)
    24a2:	0100                	.2byte	0x100
    24a4:	0105                	.2byte	0x105
    24a6:	04097703          	.4byte	0x4097703
    24aa:	0100                	.2byte	0x100
    24ac:	0305                	.2byte	0x305
    24ae:	08090803          	lb	a6,128(s2)
    24b2:	0100                	.2byte	0x100
    24b4:	0306                	.2byte	0x306
    24b6:	0900                	.2byte	0x900
    24b8:	0004                	.2byte	0x4
    24ba:	0301                	.2byte	0x301
    24bc:	0900                	.2byte	0x900
    24be:	0004                	.2byte	0x4
    24c0:	0501                	.2byte	0x501
    24c2:	0601                	.2byte	0x601
    24c4:	00097803          	.4byte	0x97803
    24c8:	0100                	.2byte	0x100
    24ca:	0305                	.2byte	0x305
    24cc:	04090903          	lb	s2,64(s2)
    24d0:	0100                	.2byte	0x100
    24d2:	0105                	.2byte	0x105
    24d4:	04097703          	.4byte	0x4097703
    24d8:	0100                	.2byte	0x100
    24da:	0305                	.2byte	0x305
    24dc:	04090903          	lb	s2,64(s2)
    24e0:	0100                	.2byte	0x100
    24e2:	04090103          	lb	sp,64(s2)
    24e6:	0100                	.2byte	0x100
    24e8:	04097e03          	.4byte	0x4097e03
    24ec:	0100                	.2byte	0x100
    24ee:	0306                	.2byte	0x306
    24f0:	0900                	.2byte	0x900
    24f2:	0004                	.2byte	0x4
    24f4:	0301                	.2byte	0x301
    24f6:	0900                	.2byte	0x900
    24f8:	0000                	.2byte	0x0
    24fa:	0301                	.2byte	0x301
    24fc:	0900                	.2byte	0x900
    24fe:	0000                	.2byte	0x0
    2500:	0301                	.2byte	0x301
    2502:	0900                	.2byte	0x900
    2504:	0000                	.2byte	0x0
    2506:	0601                	.2byte	0x601
    2508:	00090103          	lb	sp,0(s2)
    250c:	0100                	.2byte	0x100
    250e:	04097f03          	.4byte	0x4097f03
    2512:	0100                	.2byte	0x100
    2514:	0306                	.2byte	0x306
    2516:	0900                	.2byte	0x900
    2518:	0004                	.2byte	0x4
    251a:	0301                	.2byte	0x301
    251c:	0900                	.2byte	0x900
    251e:	0000                	.2byte	0x0
    2520:	0301                	.2byte	0x301
    2522:	0901                	.2byte	0x901
    2524:	0000                	.2byte	0x0
    2526:	0301                	.2byte	0x301
    2528:	0900                	.2byte	0x900
    252a:	0000                	.2byte	0x0
    252c:	0301                	.2byte	0x301
    252e:	0900                	.2byte	0x900
    2530:	0000                	.2byte	0x0
    2532:	0301                	.2byte	0x301
    2534:	0900                	.2byte	0x900
    2536:	0000                	.2byte	0x0
    2538:	0301                	.2byte	0x301
    253a:	0900                	.2byte	0x900
    253c:	0000                	.2byte	0x0
    253e:	0301                	.2byte	0x301
    2540:	0900                	.2byte	0x900
    2542:	0000                	.2byte	0x0
    2544:	0301                	.2byte	0x301
    2546:	0900                	.2byte	0x900
    2548:	0000                	.2byte	0x0
    254a:	0301                	.2byte	0x301
    254c:	0900                	.2byte	0x900
    254e:	0000                	.2byte	0x0
    2550:	0301                	.2byte	0x301
    2552:	0900                	.2byte	0x900
    2554:	0000                	.2byte	0x0
    2556:	0301                	.2byte	0x301
    2558:	0900                	.2byte	0x900
    255a:	0000                	.2byte	0x0
    255c:	0301                	.2byte	0x301
    255e:	0900                	.2byte	0x900
    2560:	0000                	.2byte	0x0
    2562:	0301                	.2byte	0x301
    2564:	0900                	.2byte	0x900
    2566:	0004                	.2byte	0x4
    2568:	0301                	.2byte	0x301
    256a:	0900                	.2byte	0x900
    256c:	0000                	.2byte	0x0
    256e:	0301                	.2byte	0x301
    2570:	0901                	.2byte	0x901
    2572:	0000                	.2byte	0x0
    2574:	0301                	.2byte	0x301
    2576:	0900                	.2byte	0x900
    2578:	0000                	.2byte	0x0
    257a:	0001                	.2byte	0x1
    257c:	0402                	.2byte	0x402
    257e:	0602                	.2byte	0x602
    2580:	04090003          	lb	zero,64(s2)
    2584:	0100                	.2byte	0x100
    2586:	08097f03          	.4byte	0x8097f03
    258a:	0100                	.2byte	0x100
    258c:	0306                	.2byte	0x306
    258e:	0901                	.2byte	0x901
    2590:	0004                	.2byte	0x4
    2592:	0301                	.2byte	0x301
    2594:	0900                	.2byte	0x900
    2596:	0000                	.2byte	0x0
    2598:	0301                	.2byte	0x301
    259a:	0900                	.2byte	0x900
    259c:	0000                	.2byte	0x0
    259e:	0301                	.2byte	0x301
    25a0:	0900                	.2byte	0x900
    25a2:	0000                	.2byte	0x0
    25a4:	0301                	.2byte	0x301
    25a6:	0900                	.2byte	0x900
    25a8:	0000                	.2byte	0x0
    25aa:	0301                	.2byte	0x301
    25ac:	0900                	.2byte	0x900
    25ae:	0000                	.2byte	0x0
    25b0:	0301                	.2byte	0x301
    25b2:	0900                	.2byte	0x900
    25b4:	0000                	.2byte	0x0
    25b6:	0301                	.2byte	0x301
    25b8:	0900                	.2byte	0x900
    25ba:	0000                	.2byte	0x0
    25bc:	0301                	.2byte	0x301
    25be:	0900                	.2byte	0x900
    25c0:	0004                	.2byte	0x4
    25c2:	0301                	.2byte	0x301
    25c4:	0900                	.2byte	0x900
    25c6:	0004                	.2byte	0x4
    25c8:	0301                	.2byte	0x301
    25ca:	0900                	.2byte	0x900
    25cc:	0000                	.2byte	0x0
    25ce:	0301                	.2byte	0x301
    25d0:	0900                	.2byte	0x900
    25d2:	0000                	.2byte	0x0
    25d4:	0301                	.2byte	0x301
    25d6:	0900                	.2byte	0x900
    25d8:	000c                	.2byte	0xc
    25da:	0301                	.2byte	0x301
    25dc:	0900                	.2byte	0x900
    25de:	0004                	.2byte	0x4
    25e0:	0301                	.2byte	0x301
    25e2:	0900                	.2byte	0x900
    25e4:	0000                	.2byte	0x0
    25e6:	0301                	.2byte	0x301
    25e8:	0900                	.2byte	0x900
    25ea:	0000                	.2byte	0x0
    25ec:	0301                	.2byte	0x301
    25ee:	0900                	.2byte	0x900
    25f0:	0000                	.2byte	0x0
    25f2:	0301                	.2byte	0x301
    25f4:	0900                	.2byte	0x900
    25f6:	0000                	.2byte	0x0
    25f8:	0301                	.2byte	0x301
    25fa:	0900                	.2byte	0x900
    25fc:	0000                	.2byte	0x0
    25fe:	0301                	.2byte	0x301
    2600:	0900                	.2byte	0x900
    2602:	0000                	.2byte	0x0
    2604:	0301                	.2byte	0x301
    2606:	0900                	.2byte	0x900
    2608:	0000                	.2byte	0x0
    260a:	0301                	.2byte	0x301
    260c:	0900                	.2byte	0x900
    260e:	0004                	.2byte	0x4
    2610:	0301                	.2byte	0x301
    2612:	0900                	.2byte	0x900
    2614:	0004                	.2byte	0x4
    2616:	0301                	.2byte	0x301
    2618:	0900                	.2byte	0x900
    261a:	0000                	.2byte	0x0
    261c:	0301                	.2byte	0x301
    261e:	0900                	.2byte	0x900
    2620:	0000                	.2byte	0x0
    2622:	0001                	.2byte	0x1
    2624:	0402                	.2byte	0x402
    2626:	0901032f          	.4byte	0x901032f
    262a:	0008                	.2byte	0x8
    262c:	0001                	.2byte	0x1
    262e:	0402                	.2byte	0x402
    2630:	0900032f          	.4byte	0x900032f
    2634:	0000                	.2byte	0x0
    2636:	0001                	.2byte	0x1
    2638:	0402                	.2byte	0x402
    263a:	0900032f          	.4byte	0x900032f
    263e:	0000                	.2byte	0x0
    2640:	0001                	.2byte	0x1
    2642:	0402                	.2byte	0x402
    2644:	0900033f 0001000c 	.8byte	0x1000c0900033f
    264c:	0402                	.2byte	0x402
    264e:	0900033f 00010000 	.8byte	0x100000900033f
    2656:	0402                	.2byte	0x402
    2658:	0900033f 03010004 	.8byte	0x30100040900033f
    2660:	0900                	.2byte	0x900
    2662:	000c                	.2byte	0xc
    2664:	0301                	.2byte	0x301
    2666:	0900                	.2byte	0x900
    2668:	0000                	.2byte	0x0
    266a:	0301                	.2byte	0x301
    266c:	0900                	.2byte	0x900
    266e:	0010                	.2byte	0x10
    2670:	0001                	.2byte	0x1
    2672:	0402                	.2byte	0x402
    2674:	035a                	.2byte	0x35a
    2676:	0900                	.2byte	0x900
    2678:	0000                	.2byte	0x0
    267a:	0001                	.2byte	0x1
    267c:	0402                	.2byte	0x402
    267e:	035a                	.2byte	0x35a
    2680:	0900                	.2byte	0x900
    2682:	0000                	.2byte	0x0
    2684:	0001                	.2byte	0x1
    2686:	0402                	.2byte	0x402
    2688:	035a                	.2byte	0x35a
    268a:	0900                	.2byte	0x900
    268c:	0000                	.2byte	0x0
    268e:	0001                	.2byte	0x1
    2690:	0402                	.2byte	0x402
    2692:	035a                	.2byte	0x35a
    2694:	0900                	.2byte	0x900
    2696:	0000                	.2byte	0x0
    2698:	0001                	.2byte	0x1
    269a:	0402                	.2byte	0x402
    269c:	035a                	.2byte	0x35a
    269e:	0900                	.2byte	0x900
    26a0:	0000                	.2byte	0x0
    26a2:	0001                	.2byte	0x1
    26a4:	0402                	.2byte	0x402
    26a6:	035a                	.2byte	0x35a
    26a8:	0900                	.2byte	0x900
    26aa:	0000                	.2byte	0x0
    26ac:	0001                	.2byte	0x1
    26ae:	0402                	.2byte	0x402
    26b0:	035a                	.2byte	0x35a
    26b2:	0900                	.2byte	0x900
    26b4:	0000                	.2byte	0x0
    26b6:	0501                	.2byte	0x501
    26b8:	0001                	.2byte	0x1
    26ba:	0402                	.2byte	0x402
    26bc:	065a                	.2byte	0x65a
    26be:	14090403          	lb	s0,320(s2)
    26c2:	0100                	.2byte	0x100
    26c4:	0305                	.2byte	0x305
    26c6:	0200                	.2byte	0x200
    26c8:	5a04                	.2byte	0x5a04
    26ca:	04097c03          	.4byte	0x4097c03
    26ce:	0100                	.2byte	0x100
    26d0:	0105                	.2byte	0x105
    26d2:	0200                	.2byte	0x200
    26d4:	5a04                	.2byte	0x5a04
    26d6:	04090403          	lb	s0,64(s2)
    26da:	0100                	.2byte	0x100
    26dc:	0305                	.2byte	0x305
    26de:	0200                	.2byte	0x200
    26e0:	5a04                	.2byte	0x5a04
    26e2:	04097c03          	.4byte	0x4097c03
    26e6:	0100                	.2byte	0x100
    26e8:	0200                	.2byte	0x200
    26ea:	5a04                	.2byte	0x5a04
    26ec:	0306                	.2byte	0x306
    26ee:	0900                	.2byte	0x900
    26f0:	0004                	.2byte	0x4
    26f2:	0001                	.2byte	0x1
    26f4:	0402                	.2byte	0x402
    26f6:	035a                	.2byte	0x35a
    26f8:	0900                	.2byte	0x900
    26fa:	0000                	.2byte	0x0
    26fc:	0001                	.2byte	0x1
    26fe:	0402                	.2byte	0x402
    2700:	035a                	.2byte	0x35a
    2702:	0900                	.2byte	0x900
    2704:	0000                	.2byte	0x0
    2706:	0001                	.2byte	0x1
    2708:	0402                	.2byte	0x402
    270a:	035a                	.2byte	0x35a
    270c:	0901                	.2byte	0x901
    270e:	0000                	.2byte	0x0
    2710:	0001                	.2byte	0x1
    2712:	0402                	.2byte	0x402
    2714:	035a                	.2byte	0x35a
    2716:	0900                	.2byte	0x900
    2718:	0000                	.2byte	0x0
    271a:	0001                	.2byte	0x1
    271c:	0402                	.2byte	0x402
    271e:	035a                	.2byte	0x35a
    2720:	0900                	.2byte	0x900
    2722:	0000                	.2byte	0x0
    2724:	0001                	.2byte	0x1
    2726:	0402                	.2byte	0x402
    2728:	035a                	.2byte	0x35a
    272a:	0902                	.2byte	0x902
    272c:	0000                	.2byte	0x0
    272e:	0501                	.2byte	0x501
    2730:	0001                	.2byte	0x1
    2732:	0402                	.2byte	0x402
    2734:	065a                	.2byte	0x65a
    2736:	00090103          	lb	sp,0(s2)
    273a:	0100                	.2byte	0x100
    273c:	0305                	.2byte	0x305
    273e:	0200                	.2byte	0x200
    2740:	0304                	.2byte	0x304
    2742:	0306                	.2byte	0x306
    2744:	0014097b          	.4byte	0x14097b
    2748:	0001                	.2byte	0x1
    274a:	0402                	.2byte	0x402
    274c:	09000303          	lb	t1,144(zero) # 90 <exit-0x10004>
    2750:	0004                	.2byte	0x4
    2752:	0001                	.2byte	0x1
    2754:	0402                	.2byte	0x402
    2756:	09000303          	lb	t1,144(zero) # 90 <exit-0x10004>
    275a:	0000                	.2byte	0x0
    275c:	0001                	.2byte	0x1
    275e:	0402                	.2byte	0x402
    2760:	09000303          	lb	t1,144(zero) # 90 <exit-0x10004>
    2764:	0000                	.2byte	0x0
    2766:	0001                	.2byte	0x1
    2768:	0402                	.2byte	0x402
    276a:	09000303          	lb	t1,144(zero) # 90 <exit-0x10004>
    276e:	0000                	.2byte	0x0
    2770:	0001                	.2byte	0x1
    2772:	0402                	.2byte	0x402
    2774:	09000303          	lb	t1,144(zero) # 90 <exit-0x10004>
    2778:	0000                	.2byte	0x0
    277a:	0001                	.2byte	0x1
    277c:	0402                	.2byte	0x402
    277e:	09000303          	lb	t1,144(zero) # 90 <exit-0x10004>
    2782:	0000                	.2byte	0x0
    2784:	0001                	.2byte	0x1
    2786:	0402                	.2byte	0x402
    2788:	09000303          	lb	t1,144(zero) # 90 <exit-0x10004>
    278c:	0000                	.2byte	0x0
    278e:	0001                	.2byte	0x1
    2790:	0402                	.2byte	0x402
    2792:	09000303          	lb	t1,144(zero) # 90 <exit-0x10004>
    2796:	0000                	.2byte	0x0
    2798:	0001                	.2byte	0x1
    279a:	0402                	.2byte	0x402
    279c:	030c                	.2byte	0x30c
    279e:	0900                	.2byte	0x900
    27a0:	0008                	.2byte	0x8
    27a2:	0001                	.2byte	0x1
    27a4:	0402                	.2byte	0x402
    27a6:	030c                	.2byte	0x30c
    27a8:	0900                	.2byte	0x900
    27aa:	0000                	.2byte	0x0
    27ac:	0001                	.2byte	0x1
    27ae:	0402                	.2byte	0x402
    27b0:	030c                	.2byte	0x30c
    27b2:	0900                	.2byte	0x900
    27b4:	0000                	.2byte	0x0
    27b6:	0001                	.2byte	0x1
    27b8:	0402                	.2byte	0x402
    27ba:	030e                	.2byte	0x30e
    27bc:	0900                	.2byte	0x900
    27be:	0004                	.2byte	0x4
    27c0:	0001                	.2byte	0x1
    27c2:	0402                	.2byte	0x402
    27c4:	030e                	.2byte	0x30e
    27c6:	0900                	.2byte	0x900
    27c8:	0000                	.2byte	0x0
    27ca:	0001                	.2byte	0x1
    27cc:	0402                	.2byte	0x402
    27ce:	0310                	.2byte	0x310
    27d0:	0900                	.2byte	0x900
    27d2:	0004                	.2byte	0x4
    27d4:	0001                	.2byte	0x1
    27d6:	0402                	.2byte	0x402
    27d8:	09000313          	li	t1,144
    27dc:	0004                	.2byte	0x4
    27de:	0001                	.2byte	0x1
    27e0:	0402                	.2byte	0x402
    27e2:	09000313          	li	t1,144
    27e6:	0000                	.2byte	0x0
    27e8:	0001                	.2byte	0x1
    27ea:	0402                	.2byte	0x402
    27ec:	09000313          	li	t1,144
    27f0:	0004                	.2byte	0x4
    27f2:	0301                	.2byte	0x301
    27f4:	0900                	.2byte	0x900
    27f6:	0004                	.2byte	0x4
    27f8:	0301                	.2byte	0x301
    27fa:	0900                	.2byte	0x900
    27fc:	0004                	.2byte	0x4
    27fe:	0301                	.2byte	0x301
    2800:	0900                	.2byte	0x900
    2802:	0000                	.2byte	0x0
    2804:	0001                	.2byte	0x1
    2806:	01830403          	lb	s0,24(t1)
    280a:	10090003          	lb	zero,256(s2)
    280e:	0100                	.2byte	0x100
    2810:	0200                	.2byte	0x200
    2812:	1d04                	.2byte	0x1d04
    2814:	08090003          	lb	zero,128(s2)
    2818:	0100                	.2byte	0x100
    281a:	0306                	.2byte	0x306
    281c:	0900                	.2byte	0x900
    281e:	0008                	.2byte	0x8
    2820:	0001                	.2byte	0x1
    2822:	0402                	.2byte	0x402
    2824:	0611                	.2byte	0x611
    2826:	08090003          	lb	zero,128(s2)
    282a:	0100                	.2byte	0x100
    282c:	0200                	.2byte	0x200
    282e:	2b04                	.2byte	0x2b04
    2830:	04090003          	lb	zero,64(s2)
    2834:	0100                	.2byte	0x100
    2836:	0200                	.2byte	0x200
    2838:	3404                	.2byte	0x3404
    283a:	0c090003          	lb	zero,192(s2)
    283e:	0100                	.2byte	0x100
    2840:	08090003          	lb	zero,128(s2)
    2844:	0100                	.2byte	0x100
    2846:	04090003          	lb	zero,64(s2)
    284a:	0100                	.2byte	0x100
    284c:	0300                	.2byte	0x300
    284e:	fe04                	.2byte	0xfe04
    2850:	0302                	.2byte	0x302
    2852:	0900                	.2byte	0x900
    2854:	0000                	.2byte	0x0
    2856:	0001                	.2byte	0x1
    2858:	02fe0403          	lb	s0,47(t3)
    285c:	00090003          	lb	zero,0(s2)
    2860:	0100                	.2byte	0x100
    2862:	0300                	.2byte	0x300
    2864:	fe04                	.2byte	0xfe04
    2866:	0302                	.2byte	0x302
    2868:	0900                	.2byte	0x900
    286a:	0000                	.2byte	0x0
    286c:	0001                	.2byte	0x1
    286e:	02fe0403          	lb	s0,47(t3)
    2872:	00090103          	lb	sp,0(s2)
    2876:	0100                	.2byte	0x100
    2878:	0300                	.2byte	0x300
    287a:	fe04                	.2byte	0xfe04
    287c:	0302                	.2byte	0x302
    287e:	0900                	.2byte	0x900
    2880:	0000                	.2byte	0x0
    2882:	0001                	.2byte	0x1
    2884:	02fe0403          	lb	s0,47(t3)
    2888:	00090003          	lb	zero,0(s2)
    288c:	0100                	.2byte	0x100
    288e:	0300                	.2byte	0x300
    2890:	fe04                	.2byte	0xfe04
    2892:	0302                	.2byte	0x302
    2894:	0900                	.2byte	0x900
    2896:	0000                	.2byte	0x0
    2898:	0001                	.2byte	0x1
    289a:	02fe0403          	lb	s0,47(t3)
    289e:	00090003          	lb	zero,0(s2)
    28a2:	0100                	.2byte	0x100
    28a4:	0200                	.2byte	0x200
    28a6:	2504                	.2byte	0x2504
    28a8:	08090003          	lb	zero,128(s2)
    28ac:	0100                	.2byte	0x100
    28ae:	0200                	.2byte	0x200
    28b0:	2504                	.2byte	0x2504
    28b2:	00090003          	lb	zero,0(s2)
    28b6:	0100                	.2byte	0x100
    28b8:	0200                	.2byte	0x200
    28ba:	2504                	.2byte	0x2504
    28bc:	00090003          	lb	zero,0(s2)
    28c0:	0100                	.2byte	0x100
    28c2:	0200                	.2byte	0x200
    28c4:	2504                	.2byte	0x2504
    28c6:	00090003          	lb	zero,0(s2)
    28ca:	0100                	.2byte	0x100
    28cc:	0200                	.2byte	0x200
    28ce:	2c04                	.2byte	0x2c04
    28d0:	0c090003          	lb	zero,192(s2)
    28d4:	0100                	.2byte	0x100
    28d6:	0200                	.2byte	0x200
    28d8:	3504                	.2byte	0x3504
    28da:	08097f03          	.4byte	0x8097f03
    28de:	0100                	.2byte	0x100
    28e0:	0200                	.2byte	0x200
    28e2:	3504                	.2byte	0x3504
    28e4:	14090003          	lb	zero,320(s2)
    28e8:	0100                	.2byte	0x100
    28ea:	0200                	.2byte	0x200
    28ec:	7504                	.2byte	0x7504
    28ee:	08090003          	lb	zero,128(s2)
    28f2:	0100                	.2byte	0x100
    28f4:	0300                	.2byte	0x300
    28f6:	b004                	.2byte	0xb004
    28f8:	0301                	.2byte	0x301
    28fa:	0900                	.2byte	0x900
    28fc:	000c                	.2byte	0xc
    28fe:	0001                	.2byte	0x1
    2900:	01b00403          	lb	s0,27(zero) # 1b <exit-0x10079>
    2904:	00090003          	lb	zero,0(s2)
    2908:	0100                	.2byte	0x100
    290a:	0300                	.2byte	0x300
    290c:	b004                	.2byte	0xb004
    290e:	0301                	.2byte	0x301
    2910:	0900                	.2byte	0x900
    2912:	0004                	.2byte	0x4
    2914:	0001                	.2byte	0x1
    2916:	01b00403          	lb	s0,27(zero) # 1b <exit-0x10079>
    291a:	00090003          	lb	zero,0(s2)
    291e:	0100                	.2byte	0x100
    2920:	0300                	.2byte	0x300
    2922:	b004                	.2byte	0xb004
    2924:	0601                	.2byte	0x601
    2926:	04090103          	lb	sp,64(s2)
    292a:	0100                	.2byte	0x100
    292c:	0300                	.2byte	0x300
    292e:	b004                	.2byte	0xb004
    2930:	0301                	.2byte	0x301
    2932:	097f                	.2byte	0x97f
    2934:	0004                	.2byte	0x4
    2936:	0301                	.2byte	0x301
    2938:	0900                	.2byte	0x900
    293a:	0004                	.2byte	0x4
    293c:	0601                	.2byte	0x601
    293e:	1c090003          	lb	zero,448(s2)
    2942:	0100                	.2byte	0x100
    2944:	04090003          	lb	zero,64(s2)
    2948:	0100                	.2byte	0x100
    294a:	04090003          	lb	zero,64(s2)
    294e:	0100                	.2byte	0x100
    2950:	00090003          	lb	zero,0(s2)
    2954:	0100                	.2byte	0x100
    2956:	0200                	.2byte	0x200
    2958:	5f04                	.2byte	0x5f04
    295a:	04090003          	lb	zero,64(s2)
    295e:	0100                	.2byte	0x100
    2960:	0200                	.2byte	0x200
    2962:	5f04                	.2byte	0x5f04
    2964:	00090003          	lb	zero,0(s2)
    2968:	0100                	.2byte	0x100
    296a:	0306                	.2byte	0x306
    296c:	0900                	.2byte	0x900
    296e:	000c                	.2byte	0xc
    2970:	0001                	.2byte	0x1
    2972:	0402                	.2byte	0x402
    2974:	0644                	.2byte	0x644
    2976:	04090003          	lb	zero,64(s2)
    297a:	0100                	.2byte	0x100
    297c:	0200                	.2byte	0x200
    297e:	4704                	.2byte	0x4704
    2980:	04090003          	lb	zero,64(s2)
    2984:	0100                	.2byte	0x100
    2986:	0200                	.2byte	0x200
    2988:	4704                	.2byte	0x4704
    298a:	00090003          	lb	zero,0(s2)
    298e:	0100                	.2byte	0x100
    2990:	0200                	.2byte	0x200
    2992:	4704                	.2byte	0x4704
    2994:	04090003          	lb	zero,64(s2)
    2998:	0100                	.2byte	0x100
    299a:	0200                	.2byte	0x200
    299c:	5104                	.2byte	0x5104
    299e:	04090003          	lb	zero,64(s2)
    29a2:	0100                	.2byte	0x100
    29a4:	0200                	.2byte	0x200
    29a6:	6804                	.2byte	0x6804
    29a8:	08090003          	lb	zero,128(s2)
    29ac:	0100                	.2byte	0x100
    29ae:	08090003          	lb	zero,128(s2)
    29b2:	0100                	.2byte	0x100
    29b4:	04090003          	lb	zero,64(s2)
    29b8:	0100                	.2byte	0x100
    29ba:	0306                	.2byte	0x306
    29bc:	097f                	.2byte	0x97f
    29be:	0000                	.2byte	0x0
    29c0:	0001                	.2byte	0x1
    29c2:	0402                	.2byte	0x402
    29c4:	0669                	.2byte	0x669
    29c6:	08090103          	lb	sp,128(s2)
    29ca:	0100                	.2byte	0x100
    29cc:	0200                	.2byte	0x200
    29ce:	6904                	.2byte	0x6904
    29d0:	14090003          	lb	zero,320(s2)
    29d4:	0100                	.2byte	0x100
    29d6:	0200                	.2byte	0x200
    29d8:	6904                	.2byte	0x6904
    29da:	0306                	.2byte	0x306
    29dc:	097f                	.2byte	0x97f
    29de:	0008                	.2byte	0x8
    29e0:	0001                	.2byte	0x1
    29e2:	0402                	.2byte	0x402
    29e4:	01030643          	.4byte	0x1030643
    29e8:	0809                	.2byte	0x809
    29ea:	0100                	.2byte	0x100
    29ec:	0200                	.2byte	0x200
    29ee:	7604                	.2byte	0x7604
    29f0:	0c090003          	lb	zero,192(s2)
    29f4:	0100                	.2byte	0x100
    29f6:	0200                	.2byte	0x200
    29f8:	7804                	.2byte	0x7804
    29fa:	04090003          	lb	zero,64(s2)
    29fe:	0100                	.2byte	0x100
    2a00:	0200                	.2byte	0x200
    2a02:	7804                	.2byte	0x7804
    2a04:	00090003          	lb	zero,0(s2)
    2a08:	0100                	.2byte	0x100
    2a0a:	0200                	.2byte	0x200
    2a0c:	7b04                	.2byte	0x7b04
    2a0e:	04090003          	lb	zero,64(s2)
    2a12:	0100                	.2byte	0x100
    2a14:	0300                	.2byte	0x300
    2a16:	8104                	.2byte	0x8104
    2a18:	0301                	.2byte	0x301
    2a1a:	0900                	.2byte	0x900
    2a1c:	0004                	.2byte	0x4
    2a1e:	0001                	.2byte	0x1
    2a20:	01810403          	lb	s0,24(sp)
    2a24:	00090003          	lb	zero,0(s2)
    2a28:	0100                	.2byte	0x100
    2a2a:	0300                	.2byte	0x300
    2a2c:	8104                	.2byte	0x8104
    2a2e:	0301                	.2byte	0x301
    2a30:	0900                	.2byte	0x900
    2a32:	0004                	.2byte	0x4
    2a34:	0001                	.2byte	0x1
    2a36:	01830403          	lb	s0,24(t1)
    2a3a:	0c090003          	lb	zero,192(s2)
    2a3e:	0100                	.2byte	0x100
    2a40:	0300                	.2byte	0x300
    2a42:	9404                	.2byte	0x9404
    2a44:	0301                	.2byte	0x301
    2a46:	0900                	.2byte	0x900
    2a48:	0010                	.2byte	0x10
    2a4a:	0001                	.2byte	0x1
    2a4c:	01940403          	lb	s0,25(s0)
    2a50:	00090003          	lb	zero,0(s2)
    2a54:	0100                	.2byte	0x100
    2a56:	0300                	.2byte	0x300
    2a58:	9404                	.2byte	0x9404
    2a5a:	0301                	.2byte	0x301
    2a5c:	0900                	.2byte	0x900
    2a5e:	0000                	.2byte	0x0
    2a60:	0001                	.2byte	0x1
    2a62:	01940403          	lb	s0,25(s0)
    2a66:	00090003          	lb	zero,0(s2)
    2a6a:	0100                	.2byte	0x100
    2a6c:	0300                	.2byte	0x300
    2a6e:	9404                	.2byte	0x9404
    2a70:	0301                	.2byte	0x301
    2a72:	0900                	.2byte	0x900
    2a74:	0000                	.2byte	0x0
    2a76:	0001                	.2byte	0x1
    2a78:	01940403          	lb	s0,25(s0)
    2a7c:	00090003          	lb	zero,0(s2)
    2a80:	0100                	.2byte	0x100
    2a82:	0300                	.2byte	0x300
    2a84:	9404                	.2byte	0x9404
    2a86:	0301                	.2byte	0x301
    2a88:	0900                	.2byte	0x900
    2a8a:	0000                	.2byte	0x0
    2a8c:	0001                	.2byte	0x1
    2a8e:	01940403          	lb	s0,25(s0)
    2a92:	00090003          	lb	zero,0(s2)
    2a96:	0100                	.2byte	0x100
    2a98:	0300                	.2byte	0x300
    2a9a:	ce04                	.2byte	0xce04
    2a9c:	0302                	.2byte	0x302
    2a9e:	0900                	.2byte	0x900
    2aa0:	0004                	.2byte	0x4
    2aa2:	0001                	.2byte	0x1
    2aa4:	0402                	.2byte	0x402
    2aa6:	09000377          	.4byte	0x9000377
    2aaa:	0008                	.2byte	0x8
    2aac:	0001                	.2byte	0x1
    2aae:	0402                	.2byte	0x402
    2ab0:	09000377          	.4byte	0x9000377
    2ab4:	0000                	.2byte	0x0
    2ab6:	0001                	.2byte	0x1
    2ab8:	0402                	.2byte	0x402
    2aba:	09000377          	.4byte	0x9000377
    2abe:	0000                	.2byte	0x0
    2ac0:	0001                	.2byte	0x1
    2ac2:	0402                	.2byte	0x402
    2ac4:	09000377          	.4byte	0x9000377
    2ac8:	0000                	.2byte	0x0
    2aca:	0601                	.2byte	0x601
    2acc:	08090003          	lb	zero,128(s2)
    2ad0:	0100                	.2byte	0x100
    2ad2:	08097e03          	.4byte	0x8097e03
    2ad6:	0100                	.2byte	0x100
    2ad8:	0200                	.2byte	0x200
    2ada:	0d04                	.2byte	0xd04
    2adc:	0306                	.2byte	0x306
    2ade:	0902                	.2byte	0x902
    2ae0:	0008                	.2byte	0x8
    2ae2:	0001                	.2byte	0x1
    2ae4:	0402                	.2byte	0x402
    2ae6:	030d                	.2byte	0x30d
    2ae8:	0900                	.2byte	0x900
    2aea:	0000                	.2byte	0x0
    2aec:	0001                	.2byte	0x1
    2aee:	01c20403          	lb	s0,28(tp) # 1c <exit-0x10078>
    2af2:	04090003          	lb	zero,64(s2)
    2af6:	0100                	.2byte	0x100
    2af8:	0300                	.2byte	0x300
    2afa:	c204                	.2byte	0xc204
    2afc:	0301                	.2byte	0x301
    2afe:	0900                	.2byte	0x900
    2b00:	0000                	.2byte	0x0
    2b02:	0001                	.2byte	0x1
    2b04:	01c20403          	lb	s0,28(tp) # 1c <exit-0x10078>
    2b08:	00090003          	lb	zero,0(s2)
    2b0c:	0100                	.2byte	0x100
    2b0e:	0300                	.2byte	0x300
    2b10:	c404                	.2byte	0xc404
    2b12:	0301                	.2byte	0x301
    2b14:	0900                	.2byte	0x900
    2b16:	0004                	.2byte	0x4
    2b18:	0001                	.2byte	0x1
    2b1a:	01c70403          	lb	s0,28(a4)
    2b1e:	04090003          	lb	zero,64(s2)
    2b22:	0100                	.2byte	0x100
    2b24:	0300                	.2byte	0x300
    2b26:	c704                	.2byte	0xc704
    2b28:	0301                	.2byte	0x301
    2b2a:	0900                	.2byte	0x900
    2b2c:	0000                	.2byte	0x0
    2b2e:	0001                	.2byte	0x1
    2b30:	01c70403          	lb	s0,28(a4)
    2b34:	04090003          	lb	zero,64(s2)
    2b38:	0100                	.2byte	0x100
    2b3a:	0300                	.2byte	0x300
    2b3c:	d004                	.2byte	0xd004
    2b3e:	0301                	.2byte	0x301
    2b40:	0900                	.2byte	0x900
    2b42:	0004                	.2byte	0x4
    2b44:	0001                	.2byte	0x1
    2b46:	01d00403          	lb	s0,29(zero) # 1d <exit-0x10077>
    2b4a:	04090003          	lb	zero,64(s2)
    2b4e:	0100                	.2byte	0x100
    2b50:	0300                	.2byte	0x300
    2b52:	8404                	.2byte	0x8404
    2b54:	0302                	.2byte	0x302
    2b56:	0900                	.2byte	0x900
    2b58:	0000                	.2byte	0x0
    2b5a:	0001                	.2byte	0x1
    2b5c:	02840403          	lb	s0,40(s0)
    2b60:	0306                	.2byte	0x306
    2b62:	097f                	.2byte	0x97f
    2b64:	0000                	.2byte	0x0
    2b66:	0001                	.2byte	0x1
    2b68:	02840403          	lb	s0,40(s0)
    2b6c:	04090103          	lb	sp,64(s2)
    2b70:	0100                	.2byte	0x100
    2b72:	0300                	.2byte	0x300
    2b74:	d104                	.2byte	0xd104
    2b76:	0601                	.2byte	0x601
    2b78:	04090003          	lb	zero,64(s2)
    2b7c:	0100                	.2byte	0x100
    2b7e:	0300                	.2byte	0x300
    2b80:	e804                	.2byte	0xe804
    2b82:	0301                	.2byte	0x301
    2b84:	0900                	.2byte	0x900
    2b86:	0004                	.2byte	0x4
    2b88:	0001                	.2byte	0x1
    2b8a:	01e90403          	lb	s0,30(s2)
    2b8e:	0c090003          	lb	zero,192(s2)
    2b92:	0100                	.2byte	0x100
    2b94:	0300                	.2byte	0x300
    2b96:	f404                	.2byte	0xf404
    2b98:	0301                	.2byte	0x301
    2b9a:	0900                	.2byte	0x900
    2b9c:	0018                	.2byte	0x18
    2b9e:	0001                	.2byte	0x1
    2ba0:	02a90403          	lb	s0,42(s2)
    2ba4:	04090003          	lb	zero,64(s2)
    2ba8:	0100                	.2byte	0x100
    2baa:	0300                	.2byte	0x300
    2bac:	e404                	.2byte	0xe404
    2bae:	0302                	.2byte	0x302
    2bb0:	0900                	.2byte	0x900
    2bb2:	000c                	.2byte	0xc
    2bb4:	0001                	.2byte	0x1
    2bb6:	02e40403          	lb	s0,46(s0)
    2bba:	00090003          	lb	zero,0(s2)
    2bbe:	0100                	.2byte	0x100
    2bc0:	0300                	.2byte	0x300
    2bc2:	c504                	.2byte	0xc504
    2bc4:	0301                	.2byte	0x301
    2bc6:	0900                	.2byte	0x900
    2bc8:	000c                	.2byte	0xc
    2bca:	0001                	.2byte	0x1
    2bcc:	01df0403          	lb	s0,29(t5)
    2bd0:	04090003          	lb	zero,64(s2)
    2bd4:	0100                	.2byte	0x100
    2bd6:	10090003          	lb	zero,256(s2)
    2bda:	0100                	.2byte	0x100
    2bdc:	04090003          	lb	zero,64(s2)
    2be0:	0100                	.2byte	0x100
    2be2:	00090003          	lb	zero,0(s2)
    2be6:	0100                	.2byte	0x100
    2be8:	00090003          	lb	zero,0(s2)
    2bec:	0100                	.2byte	0x100
    2bee:	00090003          	lb	zero,0(s2)
    2bf2:	0100                	.2byte	0x100
    2bf4:	10090003          	lb	zero,256(s2)
    2bf8:	0100                	.2byte	0x100
    2bfa:	04090003          	lb	zero,64(s2)
    2bfe:	0100                	.2byte	0x100
    2c00:	00090003          	lb	zero,0(s2)
    2c04:	0100                	.2byte	0x100
    2c06:	00090003          	lb	zero,0(s2)
    2c0a:	0100                	.2byte	0x100
    2c0c:	00090003          	lb	zero,0(s2)
    2c10:	0100                	.2byte	0x100
    2c12:	10090003          	lb	zero,256(s2)
    2c16:	0100                	.2byte	0x100
    2c18:	04090003          	lb	zero,64(s2)
    2c1c:	0100                	.2byte	0x100
    2c1e:	04090003          	lb	zero,64(s2)
    2c22:	0100                	.2byte	0x100
    2c24:	00090003          	lb	zero,0(s2)
    2c28:	0100                	.2byte	0x100
    2c2a:	00090003          	lb	zero,0(s2)
    2c2e:	0100                	.2byte	0x100
    2c30:	0300                	.2byte	0x300
    2c32:	f804                	.2byte	0xf804
    2c34:	0301                	.2byte	0x301
    2c36:	0900                	.2byte	0x900
    2c38:	000c                	.2byte	0xc
    2c3a:	0001                	.2byte	0x1
    2c3c:	01fb0403          	lb	s0,31(s6)
    2c40:	04090003          	lb	zero,64(s2)
    2c44:	0100                	.2byte	0x100
    2c46:	0300                	.2byte	0x300
    2c48:	fb04                	.2byte	0xfb04
    2c4a:	0301                	.2byte	0x301
    2c4c:	0900                	.2byte	0x900
    2c4e:	0000                	.2byte	0x0
    2c50:	0001                	.2byte	0x1
    2c52:	01fb0403          	lb	s0,31(s6)
    2c56:	04090003          	lb	zero,64(s2)
    2c5a:	0100                	.2byte	0x100
    2c5c:	0300                	.2byte	0x300
    2c5e:	8404                	.2byte	0x8404
    2c60:	0302                	.2byte	0x302
    2c62:	0900                	.2byte	0x900
    2c64:	0004                	.2byte	0x4
    2c66:	0601                	.2byte	0x601
    2c68:	08090003          	lb	zero,128(s2)
    2c6c:	0100                	.2byte	0x100
    2c6e:	0300                	.2byte	0x300
    2c70:	8504                	.2byte	0x8504
    2c72:	0602                	.2byte	0x602
    2c74:	14090003          	lb	zero,320(s2)
    2c78:	0100                	.2byte	0x100
    2c7a:	0300                	.2byte	0x300
    2c7c:	9c04                	.2byte	0x9c04
    2c7e:	0302                	.2byte	0x302
    2c80:	0900                	.2byte	0x900
    2c82:	0008                	.2byte	0x8
    2c84:	0001                	.2byte	0x1
    2c86:	029d0403          	lb	s0,41(s10)
    2c8a:	0c090003          	lb	zero,192(s2)
    2c8e:	0100                	.2byte	0x100
    2c90:	0300                	.2byte	0x300
    2c92:	a804                	.2byte	0xa804
    2c94:	0302                	.2byte	0x302
    2c96:	0900                	.2byte	0x900
    2c98:	0018                	.2byte	0x18
    2c9a:	0001                	.2byte	0x1
    2c9c:	02a80403          	lb	s0,42(a6)
    2ca0:	0306                	.2byte	0x306
    2ca2:	097f                	.2byte	0x97f
    2ca4:	0004                	.2byte	0x4
    2ca6:	0001                	.2byte	0x1
    2ca8:	02930403          	lb	s0,41(t1)
    2cac:	0306                	.2byte	0x306
    2cae:	0901                	.2byte	0x901
    2cb0:	0008                	.2byte	0x8
    2cb2:	0001                	.2byte	0x1
    2cb4:	02930403          	lb	s0,41(t1)
    2cb8:	00090003          	lb	zero,0(s2)
    2cbc:	0100                	.2byte	0x100
    2cbe:	0300                	.2byte	0x300
    2cc0:	f704                	.2byte	0xf704
    2cc2:	0301                	.2byte	0x301
    2cc4:	0900                	.2byte	0x900
    2cc6:	0010                	.2byte	0x10
    2cc8:	0001                	.2byte	0x1
    2cca:	02aa0403          	lb	s0,42(s4)
    2cce:	0c090003          	lb	zero,192(s2)
    2cd2:	0100                	.2byte	0x100
    2cd4:	0300                	.2byte	0x300
    2cd6:	ac04                	.2byte	0xac04
    2cd8:	0302                	.2byte	0x302
    2cda:	0900                	.2byte	0x900
    2cdc:	0004                	.2byte	0x4
    2cde:	0001                	.2byte	0x1
    2ce0:	02ac0403          	lb	s0,42(s8)
    2ce4:	00090003          	lb	zero,0(s2)
    2ce8:	0100                	.2byte	0x100
    2cea:	0300                	.2byte	0x300
    2cec:	ae04                	.2byte	0xae04
    2cee:	0302                	.2byte	0x302
    2cf0:	0900                	.2byte	0x900
    2cf2:	0004                	.2byte	0x4
    2cf4:	0001                	.2byte	0x1
    2cf6:	02ae0403          	lb	s0,42(t3)
    2cfa:	00090003          	lb	zero,0(s2)
    2cfe:	0100                	.2byte	0x100
    2d00:	0300                	.2byte	0x300
    2d02:	b804                	.2byte	0xb804
    2d04:	0302                	.2byte	0x302
    2d06:	0900                	.2byte	0x900
    2d08:	0004                	.2byte	0x4
    2d0a:	0001                	.2byte	0x1
    2d0c:	02af0403          	lb	s0,42(t5)
    2d10:	08090003          	lb	zero,128(s2)
    2d14:	0100                	.2byte	0x100
    2d16:	0300                	.2byte	0x300
    2d18:	b604                	.2byte	0xb604
    2d1a:	0302                	.2byte	0x302
    2d1c:	0900                	.2byte	0x900
    2d1e:	0004                	.2byte	0x4
    2d20:	0001                	.2byte	0x1
    2d22:	02b60403          	lb	s0,43(a2) # 31acd <__global_pointer$+0x1e085>
    2d26:	00090003          	lb	zero,0(s2)
    2d2a:	0100                	.2byte	0x100
    2d2c:	0300                	.2byte	0x300
    2d2e:	b604                	.2byte	0xb604
    2d30:	0302                	.2byte	0x302
    2d32:	0900                	.2byte	0x900
    2d34:	0004                	.2byte	0x4
    2d36:	0001                	.2byte	0x1
    2d38:	02b60403          	lb	s0,43(a2)
    2d3c:	00090003          	lb	zero,0(s2)
    2d40:	0100                	.2byte	0x100
    2d42:	0300                	.2byte	0x300
    2d44:	b804                	.2byte	0xb804
    2d46:	0302                	.2byte	0x302
    2d48:	0900                	.2byte	0x900
    2d4a:	000c                	.2byte	0xc
    2d4c:	0001                	.2byte	0x1
    2d4e:	02b90403          	lb	s0,43(s2)
    2d52:	08090003          	lb	zero,128(s2)
    2d56:	0100                	.2byte	0x100
    2d58:	0306                	.2byte	0x306
    2d5a:	0900                	.2byte	0x900
    2d5c:	0008                	.2byte	0x8
    2d5e:	0001                	.2byte	0x1
    2d60:	02cc0403          	lb	s0,44(s8)
    2d64:	0306                	.2byte	0x306
    2d66:	0900                	.2byte	0x900
    2d68:	0008                	.2byte	0x8
    2d6a:	0001                	.2byte	0x1
    2d6c:	02cc0403          	lb	s0,44(s8)
    2d70:	00090003          	lb	zero,0(s2)
    2d74:	0100                	.2byte	0x100
    2d76:	0300                	.2byte	0x300
    2d78:	cc04                	.2byte	0xcc04
    2d7a:	0302                	.2byte	0x302
    2d7c:	0900                	.2byte	0x900
    2d7e:	0000                	.2byte	0x0
    2d80:	0001                	.2byte	0x1
    2d82:	02cc0403          	lb	s0,44(s8)
    2d86:	00090003          	lb	zero,0(s2)
    2d8a:	0100                	.2byte	0x100
    2d8c:	0300                	.2byte	0x300
    2d8e:	cc04                	.2byte	0xcc04
    2d90:	0302                	.2byte	0x302
    2d92:	0900                	.2byte	0x900
    2d94:	0000                	.2byte	0x0
    2d96:	0001                	.2byte	0x1
    2d98:	02cc0403          	lb	s0,44(s8)
    2d9c:	00090003          	lb	zero,0(s2)
    2da0:	0100                	.2byte	0x100
    2da2:	0300                	.2byte	0x300
    2da4:	cc04                	.2byte	0xcc04
    2da6:	0302                	.2byte	0x302
    2da8:	0900                	.2byte	0x900
    2daa:	0000                	.2byte	0x0
    2dac:	0001                	.2byte	0x1
    2dae:	02cc0403          	lb	s0,44(s8)
    2db2:	00090003          	lb	zero,0(s2)
    2db6:	0100                	.2byte	0x100
    2db8:	0300                	.2byte	0x300
    2dba:	cd04                	.2byte	0xcd04
    2dbc:	0302                	.2byte	0x302
    2dbe:	0900                	.2byte	0x900
    2dc0:	0004                	.2byte	0x4
    2dc2:	0601                	.2byte	0x601
    2dc4:	08090103          	lb	sp,128(s2)
    2dc8:	0100                	.2byte	0x100
    2dca:	0300                	.2byte	0x300
    2dcc:	ab04                	.2byte	0xab04
    2dce:	0602                	.2byte	0x602
    2dd0:	10097f03          	.4byte	0x10097f03
    2dd4:	0100                	.2byte	0x100
    2dd6:	0300                	.2byte	0x300
    2dd8:	ab04                	.2byte	0xab04
    2dda:	0302                	.2byte	0x302
    2ddc:	0900                	.2byte	0x900
    2dde:	0000                	.2byte	0x0
    2de0:	0001                	.2byte	0x1
    2de2:	02ab0403          	lb	s0,42(s6)
    2de6:	04090003          	lb	zero,64(s2)
    2dea:	0100                	.2byte	0x100
    2dec:	0300                	.2byte	0x300
    2dee:	ab04                	.2byte	0xab04
    2df0:	0302                	.2byte	0x302
    2df2:	0900                	.2byte	0x900
    2df4:	0000                	.2byte	0x0
    2df6:	0001                	.2byte	0x1
    2df8:	02dd0403          	lb	s0,45(s10)
    2dfc:	0c090003          	lb	zero,192(s2)
    2e00:	0100                	.2byte	0x100
    2e02:	0300                	.2byte	0x300
    2e04:	dd04                	.2byte	0xdd04
    2e06:	0302                	.2byte	0x302
    2e08:	0900                	.2byte	0x900
    2e0a:	0004                	.2byte	0x4
    2e0c:	0001                	.2byte	0x1
    2e0e:	02e70403          	lb	s0,46(a4)
    2e12:	04090003          	lb	zero,64(s2)
    2e16:	0100                	.2byte	0x100
    2e18:	0300                	.2byte	0x300
    2e1a:	e704                	.2byte	0xe704
    2e1c:	0302                	.2byte	0x302
    2e1e:	0900                	.2byte	0x900
    2e20:	0000                	.2byte	0x0
    2e22:	0001                	.2byte	0x1
    2e24:	02e70403          	lb	s0,46(a4)
    2e28:	00090003          	lb	zero,0(s2)
    2e2c:	0100                	.2byte	0x100
    2e2e:	0300                	.2byte	0x300
    2e30:	e704                	.2byte	0xe704
    2e32:	0302                	.2byte	0x302
    2e34:	0900                	.2byte	0x900
    2e36:	0000                	.2byte	0x0
    2e38:	0001                	.2byte	0x1
    2e3a:	02e70403          	lb	s0,46(a4)
    2e3e:	08090003          	lb	zero,128(s2)
    2e42:	0100                	.2byte	0x100
    2e44:	0300                	.2byte	0x300
    2e46:	e704                	.2byte	0xe704
    2e48:	0302                	.2byte	0x302
    2e4a:	0900                	.2byte	0x900
    2e4c:	0000                	.2byte	0x0
    2e4e:	0001                	.2byte	0x1
    2e50:	02e70403          	lb	s0,46(a4)
    2e54:	04090003          	lb	zero,64(s2)
    2e58:	0100                	.2byte	0x100
    2e5a:	0300                	.2byte	0x300
    2e5c:	e704                	.2byte	0xe704
    2e5e:	0302                	.2byte	0x302
    2e60:	0900                	.2byte	0x900
    2e62:	0000                	.2byte	0x0
    2e64:	0001                	.2byte	0x1
    2e66:	02e70403          	lb	s0,46(a4)
    2e6a:	00090003          	lb	zero,0(s2)
    2e6e:	0100                	.2byte	0x100
    2e70:	0300                	.2byte	0x300
    2e72:	e704                	.2byte	0xe704
    2e74:	0302                	.2byte	0x302
    2e76:	0900                	.2byte	0x900
    2e78:	0004                	.2byte	0x4
    2e7a:	0001                	.2byte	0x1
    2e7c:	02e70403          	lb	s0,46(a4)
    2e80:	00090003          	lb	zero,0(s2)
    2e84:	0100                	.2byte	0x100
    2e86:	0300                	.2byte	0x300
    2e88:	f404                	.2byte	0xf404
    2e8a:	0302                	.2byte	0x302
    2e8c:	0900                	.2byte	0x900
    2e8e:	0004                	.2byte	0x4
    2e90:	0001                	.2byte	0x1
    2e92:	02f40403          	lb	s0,47(s0)
    2e96:	08090003          	lb	zero,128(s2)
    2e9a:	0100                	.2byte	0x100
    2e9c:	0300                	.2byte	0x300
    2e9e:	f404                	.2byte	0xf404
    2ea0:	0302                	.2byte	0x302
    2ea2:	0900                	.2byte	0x900
    2ea4:	0018                	.2byte	0x18
    2ea6:	0001                	.2byte	0x1
    2ea8:	02de0403          	lb	s0,45(t3)
    2eac:	08090003          	lb	zero,128(s2)
    2eb0:	0100                	.2byte	0x100
    2eb2:	0306                	.2byte	0x306
    2eb4:	0900                	.2byte	0x900
    2eb6:	0004                	.2byte	0x4
    2eb8:	0001                	.2byte	0x1
    2eba:	02f50403          	lb	s0,47(a0)
    2ebe:	0306                	.2byte	0x306
    2ec0:	0900                	.2byte	0x900
    2ec2:	0008                	.2byte	0x8
    2ec4:	0001                	.2byte	0x1
    2ec6:	02f50403          	lb	s0,47(a0)
    2eca:	0c090003          	lb	zero,192(s2)
    2ece:	0100                	.2byte	0x100
    2ed0:	0306                	.2byte	0x306
    2ed2:	097e                	.2byte	0x97e
    2ed4:	0008                	.2byte	0x8
    2ed6:	0001                	.2byte	0x1
    2ed8:	0402                	.2byte	0x402
    2eda:	0303064f          	.4byte	0x303064f
    2ede:	1009                	.2byte	0x1009
    2ee0:	0100                	.2byte	0x100
    2ee2:	0200                	.2byte	0x200
    2ee4:	4f04                	.2byte	0x4f04
    2ee6:	00090003          	lb	zero,0(s2)
    2eea:	0100                	.2byte	0x100
    2eec:	0200                	.2byte	0x200
    2eee:	4f04                	.2byte	0x4f04
    2ef0:	04090003          	lb	zero,64(s2)
    2ef4:	0100                	.2byte	0x100
    2ef6:	0200                	.2byte	0x200
    2ef8:	5004                	.2byte	0x5004
    2efa:	0306                	.2byte	0x306
    2efc:	0900                	.2byte	0x900
    2efe:	0008                	.2byte	0x8
    2f00:	0301                	.2byte	0x301
    2f02:	0900                	.2byte	0x900
    2f04:	0004                	.2byte	0x4
    2f06:	0901                	.2byte	0x901
    2f08:	001c                	.2byte	0x1c
    2f0a:	0100                	.2byte	0x100
    2f0c:	d701                	.2byte	0xd701
    2f0e:	0001                	.2byte	0x1
    2f10:	0500                	.2byte	0x500
    2f12:	0400                	.2byte	0x400
    2f14:	3800                	.2byte	0x3800
    2f16:	0000                	.2byte	0x0
    2f18:	0100                	.2byte	0x100
    2f1a:	0101                	.2byte	0x101
    2f1c:	000d0efb          	.4byte	0xd0efb
    2f20:	0101                	.2byte	0x101
    2f22:	0101                	.2byte	0x101
    2f24:	0000                	.2byte	0x0
    2f26:	0100                	.2byte	0x100
    2f28:	0000                	.2byte	0x0
    2f2a:	0101                	.2byte	0x101
    2f2c:	1f01                	.2byte	0x1f01
    2f2e:	3802                	.2byte	0x3802
    2f30:	0000                	.2byte	0x0
    2f32:	1200                	.2byte	0x1200
    2f34:	0001                	.2byte	0x1
    2f36:	0200                	.2byte	0x200
    2f38:	1f01                	.2byte	0x1f01
    2f3a:	0f02                	.2byte	0xf02
    2f3c:	9c04                	.2byte	0x9c04
    2f3e:	0002                	.2byte	0x2
    2f40:	0100                	.2byte	0x100
    2f42:	029c                	.2byte	0x29c
    2f44:	0000                	.2byte	0x0
    2f46:	1d01                	.2byte	0x1d01
    2f48:	0002                	.2byte	0x2
    2f4a:	0100                	.2byte	0x100
    2f4c:	0148                	.2byte	0x148
    2f4e:	0000                	.2byte	0x0
    2f50:	0501                	.2byte	0x501
    2f52:	0001                	.2byte	0x1
    2f54:	0205                	.2byte	0x205
    2f56:	1500                	.2byte	0x1500
    2f58:	0001                	.2byte	0x1
    2f5a:	05012303          	lw	t1,80(sp)
    2f5e:	09010303          	lb	t1,144(sp)
    2f62:	0000                	.2byte	0x0
    2f64:	0301                	.2byte	0x301
    2f66:	0900                	.2byte	0x900
    2f68:	0000                	.2byte	0x0
    2f6a:	0501                	.2byte	0x501
    2f6c:	030d                	.2byte	0x30d
    2f6e:	0900                	.2byte	0x900
    2f70:	0000                	.2byte	0x0
    2f72:	0501                	.2byte	0x501
    2f74:	09010303          	lb	t1,144(sp)
    2f78:	0000                	.2byte	0x0
    2f7a:	0301                	.2byte	0x301
    2f7c:	0900                	.2byte	0x900
    2f7e:	0000                	.2byte	0x0
    2f80:	0301                	.2byte	0x301
    2f82:	0900                	.2byte	0x900
    2f84:	0000                	.2byte	0x0
    2f86:	0301                	.2byte	0x301
    2f88:	0900                	.2byte	0x900
    2f8a:	0000                	.2byte	0x0
    2f8c:	0301                	.2byte	0x301
    2f8e:	0901                	.2byte	0x901
    2f90:	0000                	.2byte	0x0
    2f92:	0301                	.2byte	0x301
    2f94:	0902                	.2byte	0x902
    2f96:	0000                	.2byte	0x0
    2f98:	0301                	.2byte	0x301
    2f9a:	0901                	.2byte	0x901
    2f9c:	0000                	.2byte	0x0
    2f9e:	0301                	.2byte	0x301
    2fa0:	0900                	.2byte	0x900
    2fa2:	0000                	.2byte	0x0
    2fa4:	0301                	.2byte	0x301
    2fa6:	0900                	.2byte	0x900
    2fa8:	0000                	.2byte	0x0
    2faa:	0301                	.2byte	0x301
    2fac:	0900                	.2byte	0x900
    2fae:	0000                	.2byte	0x0
    2fb0:	0601                	.2byte	0x601
    2fb2:	10090103          	lb	sp,256(s2)
    2fb6:	0100                	.2byte	0x100
    2fb8:	04097f03          	.4byte	0x4097f03
    2fbc:	0100                	.2byte	0x100
    2fbe:	0306                	.2byte	0x306
    2fc0:	0900                	.2byte	0x900
    2fc2:	0004                	.2byte	0x4
    2fc4:	0301                	.2byte	0x301
    2fc6:	0900                	.2byte	0x900
    2fc8:	0000                	.2byte	0x0
    2fca:	0301                	.2byte	0x301
    2fcc:	0900                	.2byte	0x900
    2fce:	0004                	.2byte	0x4
    2fd0:	0301                	.2byte	0x301
    2fd2:	0901                	.2byte	0x901
    2fd4:	0000                	.2byte	0x0
    2fd6:	0301                	.2byte	0x301
    2fd8:	0900                	.2byte	0x900
    2fda:	0000                	.2byte	0x0
    2fdc:	0001                	.2byte	0x1
    2fde:	0402                	.2byte	0x402
    2fe0:	030a                	.2byte	0x30a
    2fe2:	0900                	.2byte	0x900
    2fe4:	0004                	.2byte	0x4
    2fe6:	0001                	.2byte	0x1
    2fe8:	0402                	.2byte	0x402
    2fea:	030a                	.2byte	0x30a
    2fec:	0900                	.2byte	0x900
    2fee:	0000                	.2byte	0x0
    2ff0:	0001                	.2byte	0x1
    2ff2:	0402                	.2byte	0x402
    2ff4:	030e                	.2byte	0x30e
    2ff6:	0900                	.2byte	0x900
    2ff8:	0008                	.2byte	0x8
    2ffa:	0001                	.2byte	0x1
    2ffc:	0402                	.2byte	0x402
    2ffe:	030e                	.2byte	0x30e
    3000:	0900                	.2byte	0x900
    3002:	0000                	.2byte	0x0
    3004:	0001                	.2byte	0x1
    3006:	0402                	.2byte	0x402
    3008:	030e                	.2byte	0x30e
    300a:	0900                	.2byte	0x900
    300c:	0000                	.2byte	0x0
    300e:	0001                	.2byte	0x1
    3010:	0402                	.2byte	0x402
    3012:	030e                	.2byte	0x30e
    3014:	0900                	.2byte	0x900
    3016:	0000                	.2byte	0x0
    3018:	0001                	.2byte	0x1
    301a:	0402                	.2byte	0x402
    301c:	030e                	.2byte	0x30e
    301e:	0900                	.2byte	0x900
    3020:	000c                	.2byte	0xc
    3022:	0001                	.2byte	0x1
    3024:	0402                	.2byte	0x402
    3026:	030d                	.2byte	0x30d
    3028:	0900                	.2byte	0x900
    302a:	0004                	.2byte	0x4
    302c:	0001                	.2byte	0x1
    302e:	0402                	.2byte	0x402
    3030:	030d                	.2byte	0x30d
    3032:	0900                	.2byte	0x900
    3034:	0000                	.2byte	0x0
    3036:	0001                	.2byte	0x1
    3038:	0402                	.2byte	0x402
    303a:	030d                	.2byte	0x30d
    303c:	0900                	.2byte	0x900
    303e:	0004                	.2byte	0x4
    3040:	0001                	.2byte	0x1
    3042:	0402                	.2byte	0x402
    3044:	0900031b          	.4byte	0x900031b
    3048:	0008                	.2byte	0x8
    304a:	0001                	.2byte	0x1
    304c:	0402                	.2byte	0x402
    304e:	0900031b          	.4byte	0x900031b
    3052:	0000                	.2byte	0x0
    3054:	0001                	.2byte	0x1
    3056:	0402                	.2byte	0x402
    3058:	0324                	.2byte	0x324
    305a:	0900                	.2byte	0x900
    305c:	0008                	.2byte	0x8
    305e:	0001                	.2byte	0x1
    3060:	0402                	.2byte	0x402
    3062:	0325                	.2byte	0x325
    3064:	0900                	.2byte	0x900
    3066:	0004                	.2byte	0x4
    3068:	0001                	.2byte	0x1
    306a:	0402                	.2byte	0x402
    306c:	031c                	.2byte	0x31c
    306e:	0900                	.2byte	0x900
    3070:	0008                	.2byte	0x8
    3072:	0001                	.2byte	0x1
    3074:	0402                	.2byte	0x402
    3076:	031c                	.2byte	0x31c
    3078:	0900                	.2byte	0x900
    307a:	0000                	.2byte	0x0
    307c:	0001                	.2byte	0x1
    307e:	0402                	.2byte	0x402
    3080:	031c                	.2byte	0x31c
    3082:	0900                	.2byte	0x900
    3084:	0000                	.2byte	0x0
    3086:	0001                	.2byte	0x1
    3088:	0402                	.2byte	0x402
    308a:	031c                	.2byte	0x31c
    308c:	0900                	.2byte	0x900
    308e:	000c                	.2byte	0xc
    3090:	0001                	.2byte	0x1
    3092:	0402                	.2byte	0x402
    3094:	031c                	.2byte	0x31c
    3096:	0900                	.2byte	0x900
    3098:	0000                	.2byte	0x0
    309a:	0601                	.2byte	0x601
    309c:	04090003          	lb	zero,64(s2)
    30a0:	0100                	.2byte	0x100
    30a2:	0200                	.2byte	0x200
    30a4:	3304                	.2byte	0x3304
    30a6:	0306                	.2byte	0x306
    30a8:	0900                	.2byte	0x900
    30aa:	0004                	.2byte	0x4
    30ac:	0001                	.2byte	0x1
    30ae:	0402                	.2byte	0x402
    30b0:	09010333          	.4byte	0x9010333
    30b4:	0000                	.2byte	0x0
    30b6:	0001                	.2byte	0x1
    30b8:	0402                	.2byte	0x402
    30ba:	09000333          	.4byte	0x9000333
    30be:	0000                	.2byte	0x0
    30c0:	0001                	.2byte	0x1
    30c2:	0402                	.2byte	0x402
    30c4:	09000333          	.4byte	0x9000333
    30c8:	0000                	.2byte	0x0
    30ca:	0001                	.2byte	0x1
    30cc:	0402                	.2byte	0x402
    30ce:	09020333          	.4byte	0x9020333
    30d2:	0000                	.2byte	0x0
    30d4:	0501                	.2byte	0x501
    30d6:	0001                	.2byte	0x1
    30d8:	0402                	.2byte	0x402
    30da:	01030633          	add	a2,t1,a6
    30de:	0009                	.2byte	0x9
    30e0:	0100                	.2byte	0x100
    30e2:	0409                	.2byte	0x409
    30e4:	0000                	.2byte	0x0
    30e6:	0101                	.2byte	0x101
    30e8:	035d                	.2byte	0x35d
    30ea:	0000                	.2byte	0x0
    30ec:	0005                	.2byte	0x5
    30ee:	0004                	.2byte	0x4
    30f0:	0038                	.2byte	0x38
    30f2:	0000                	.2byte	0x0
    30f4:	0101                	.2byte	0x101
    30f6:	fb01                	.2byte	0xfb01
    30f8:	0d0e                	.2byte	0xd0e
    30fa:	0100                	.2byte	0x100
    30fc:	0101                	.2byte	0x101
    30fe:	0001                	.2byte	0x1
    3100:	0000                	.2byte	0x0
    3102:	0001                	.2byte	0x1
    3104:	0100                	.2byte	0x100
    3106:	0101                	.2byte	0x101
    3108:	021f 0038 0000      	.byte	0x1f, 0x02, 0x38, 0x00, 0x00, 0x00
    310e:	0112                	.2byte	0x112
    3110:	0000                	.2byte	0x0
    3112:	0102                	.2byte	0x102
    3114:	021f 040f 02dc      	.byte	0x1f, 0x02, 0x0f, 0x04, 0xdc, 0x02
    311a:	0000                	.2byte	0x0
    311c:	dc01                	.2byte	0xdc01
    311e:	0002                	.2byte	0x2
    3120:	0100                	.2byte	0x100
    3122:	021d                	.2byte	0x21d
    3124:	0000                	.2byte	0x0
    3126:	4801                	.2byte	0x4801
    3128:	0001                	.2byte	0x1
    312a:	0100                	.2byte	0x100
    312c:	0105                	.2byte	0x105
    312e:	0500                	.2byte	0x500
    3130:	7002                	.2byte	0x7002
    3132:	0115                	.2byte	0x115
    3134:	0300                	.2byte	0x300
    3136:	03050123          	sb	a6,34(a0)
    313a:	00090103          	lb	sp,0(s2)
    313e:	0100                	.2byte	0x100
    3140:	00090003          	lb	zero,0(s2)
    3144:	0100                	.2byte	0x100
    3146:	0d05                	.2byte	0xd05
    3148:	00090003          	lb	zero,0(s2)
    314c:	0100                	.2byte	0x100
    314e:	0305                	.2byte	0x305
    3150:	00090103          	lb	sp,0(s2)
    3154:	0100                	.2byte	0x100
    3156:	00090003          	lb	zero,0(s2)
    315a:	0100                	.2byte	0x100
    315c:	00090003          	lb	zero,0(s2)
    3160:	0100                	.2byte	0x100
    3162:	00090003          	lb	zero,0(s2)
    3166:	0100                	.2byte	0x100
    3168:	00090103          	lb	sp,0(s2)
    316c:	0100                	.2byte	0x100
    316e:	00090203          	lb	tp,0(s2)
    3172:	0100                	.2byte	0x100
    3174:	00090103          	lb	sp,0(s2)
    3178:	0100                	.2byte	0x100
    317a:	00090003          	lb	zero,0(s2)
    317e:	0100                	.2byte	0x100
    3180:	0105                	.2byte	0x105
    3182:	0306                	.2byte	0x306
    3184:	097a                	.2byte	0x97a
    3186:	0000                	.2byte	0x0
    3188:	0301                	.2byte	0x301
    318a:	0900                	.2byte	0x900
    318c:	0010                	.2byte	0x10
    318e:	0501                	.2byte	0x501
    3190:	09060303          	lb	t1,144(a2)
    3194:	0004                	.2byte	0x4
    3196:	0001                	.2byte	0x1
    3198:	0402                	.2byte	0x402
    319a:	0601                	.2byte	0x601
    319c:	04090003          	lb	zero,64(s2)
    31a0:	0100                	.2byte	0x100
    31a2:	0200                	.2byte	0x200
    31a4:	0104                	.2byte	0x104
    31a6:	00090003          	lb	zero,0(s2)
    31aa:	0100                	.2byte	0x100
    31ac:	0200                	.2byte	0x200
    31ae:	0104                	.2byte	0x104
    31b0:	10090003          	lb	zero,256(s2)
    31b4:	0100                	.2byte	0x100
    31b6:	0200                	.2byte	0x200
    31b8:	0104                	.2byte	0x104
    31ba:	00090003          	lb	zero,0(s2)
    31be:	0100                	.2byte	0x100
    31c0:	0200                	.2byte	0x200
    31c2:	0104                	.2byte	0x104
    31c4:	00090003          	lb	zero,0(s2)
    31c8:	0100                	.2byte	0x100
    31ca:	0200                	.2byte	0x200
    31cc:	0104                	.2byte	0x104
    31ce:	00090003          	lb	zero,0(s2)
    31d2:	0100                	.2byte	0x100
    31d4:	0200                	.2byte	0x200
    31d6:	0104                	.2byte	0x104
    31d8:	00090003          	lb	zero,0(s2)
    31dc:	0100                	.2byte	0x100
    31de:	0200                	.2byte	0x200
    31e0:	0104                	.2byte	0x104
    31e2:	00090003          	lb	zero,0(s2)
    31e6:	0100                	.2byte	0x100
    31e8:	0200                	.2byte	0x200
    31ea:	0104                	.2byte	0x104
    31ec:	00090003          	lb	zero,0(s2)
    31f0:	0100                	.2byte	0x100
    31f2:	0200                	.2byte	0x200
    31f4:	0104                	.2byte	0x104
    31f6:	08090003          	lb	zero,128(s2)
    31fa:	0100                	.2byte	0x100
    31fc:	0200                	.2byte	0x200
    31fe:	0104                	.2byte	0x104
    3200:	00090003          	lb	zero,0(s2)
    3204:	0100                	.2byte	0x100
    3206:	0200                	.2byte	0x200
    3208:	0104                	.2byte	0x104
    320a:	08090003          	lb	zero,128(s2)
    320e:	0100                	.2byte	0x100
    3210:	0200                	.2byte	0x200
    3212:	0104                	.2byte	0x104
    3214:	00090003          	lb	zero,0(s2)
    3218:	0100                	.2byte	0x100
    321a:	0200                	.2byte	0x200
    321c:	1c04                	.2byte	0x1c04
    321e:	08090003          	lb	zero,128(s2)
    3222:	0100                	.2byte	0x100
    3224:	0200                	.2byte	0x200
    3226:	1c04                	.2byte	0x1c04
    3228:	00090003          	lb	zero,0(s2)
    322c:	0100                	.2byte	0x100
    322e:	0200                	.2byte	0x200
    3230:	2304                	.2byte	0x2304
    3232:	08090003          	lb	zero,128(s2)
    3236:	0100                	.2byte	0x100
    3238:	0200                	.2byte	0x200
    323a:	2304                	.2byte	0x2304
    323c:	00090003          	lb	zero,0(s2)
    3240:	0100                	.2byte	0x100
    3242:	0200                	.2byte	0x200
    3244:	2304                	.2byte	0x2304
    3246:	00090003          	lb	zero,0(s2)
    324a:	0100                	.2byte	0x100
    324c:	0300                	.2byte	0x300
    324e:	8c04                	.2byte	0x8c04
    3250:	0301                	.2byte	0x301
    3252:	0900                	.2byte	0x900
    3254:	0008                	.2byte	0x8
    3256:	0001                	.2byte	0x1
    3258:	018c0403          	lb	s0,24(s8)
    325c:	00090103          	lb	sp,0(s2)
    3260:	0100                	.2byte	0x100
    3262:	0300                	.2byte	0x300
    3264:	8c04                	.2byte	0x8c04
    3266:	0301                	.2byte	0x301
    3268:	0900                	.2byte	0x900
    326a:	0000                	.2byte	0x0
    326c:	0001                	.2byte	0x1
    326e:	018c0403          	lb	s0,24(s8)
    3272:	00090003          	lb	zero,0(s2)
    3276:	0100                	.2byte	0x100
    3278:	0300                	.2byte	0x300
    327a:	8c04                	.2byte	0x8c04
    327c:	0301                	.2byte	0x301
    327e:	0900                	.2byte	0x900
    3280:	0000                	.2byte	0x0
    3282:	0001                	.2byte	0x1
    3284:	018c0403          	lb	s0,24(s8)
    3288:	00090003          	lb	zero,0(s2)
    328c:	0100                	.2byte	0x100
    328e:	0105                	.2byte	0x105
    3290:	0300                	.2byte	0x300
    3292:	8c04                	.2byte	0x8c04
    3294:	0601                	.2byte	0x601
    3296:	0c090403          	lb	s0,192(s2)
    329a:	0100                	.2byte	0x100
    329c:	0305                	.2byte	0x305
    329e:	0300                	.2byte	0x300
    32a0:	8c04                	.2byte	0x8c04
    32a2:	0301                	.2byte	0x301
    32a4:	097c                	.2byte	0x97c
    32a6:	0004                	.2byte	0x4
    32a8:	0501                	.2byte	0x501
    32aa:	0001                	.2byte	0x1
    32ac:	018c0403          	lb	s0,24(s8)
    32b0:	04090403          	lb	s0,64(s2)
    32b4:	0100                	.2byte	0x100
    32b6:	0305                	.2byte	0x305
    32b8:	0300                	.2byte	0x300
    32ba:	8c04                	.2byte	0x8c04
    32bc:	0301                	.2byte	0x301
    32be:	097c                	.2byte	0x97c
    32c0:	0004                	.2byte	0x4
    32c2:	0001                	.2byte	0x1
    32c4:	018c0403          	lb	s0,24(s8)
    32c8:	0306                	.2byte	0x306
    32ca:	0900                	.2byte	0x900
    32cc:	0004                	.2byte	0x4
    32ce:	0001                	.2byte	0x1
    32d0:	018c0403          	lb	s0,24(s8)
    32d4:	00090003          	lb	zero,0(s2)
    32d8:	0100                	.2byte	0x100
    32da:	0300                	.2byte	0x300
    32dc:	8c04                	.2byte	0x8c04
    32de:	0301                	.2byte	0x301
    32e0:	0901                	.2byte	0x901
    32e2:	0000                	.2byte	0x0
    32e4:	0001                	.2byte	0x1
    32e6:	018c0403          	lb	s0,24(s8)
    32ea:	00090003          	lb	zero,0(s2)
    32ee:	0100                	.2byte	0x100
    32f0:	0300                	.2byte	0x300
    32f2:	8c04                	.2byte	0x8c04
    32f4:	0301                	.2byte	0x301
    32f6:	0900                	.2byte	0x900
    32f8:	0000                	.2byte	0x0
    32fa:	0001                	.2byte	0x1
    32fc:	018c0403          	lb	s0,24(s8)
    3300:	00090203          	lb	tp,0(s2)
    3304:	0100                	.2byte	0x100
    3306:	0105                	.2byte	0x105
    3308:	0300                	.2byte	0x300
    330a:	8c04                	.2byte	0x8c04
    330c:	0601                	.2byte	0x601
    330e:	00090103          	lb	sp,0(s2)
    3312:	0100                	.2byte	0x100
    3314:	0305                	.2byte	0x305
    3316:	0200                	.2byte	0x200
    3318:	1d04                	.2byte	0x1d04
    331a:	0306                	.2byte	0x306
    331c:	0010097b          	.4byte	0x10097b
    3320:	0001                	.2byte	0x1
    3322:	0402                	.2byte	0x402
    3324:	0326                	.2byte	0x326
    3326:	0900                	.2byte	0x900
    3328:	0008                	.2byte	0x8
    332a:	0001                	.2byte	0x1
    332c:	0402                	.2byte	0x402
    332e:	0326                	.2byte	0x326
    3330:	0900                	.2byte	0x900
    3332:	001c                	.2byte	0x1c
    3334:	0001                	.2byte	0x1
    3336:	0402                	.2byte	0x402
    3338:	0326                	.2byte	0x326
    333a:	0900                	.2byte	0x900
    333c:	0000                	.2byte	0x0
    333e:	0001                	.2byte	0x1
    3340:	0402                	.2byte	0x402
    3342:	0330                	.2byte	0x330
    3344:	0900                	.2byte	0x900
    3346:	0000                	.2byte	0x0
    3348:	0001                	.2byte	0x1
    334a:	0402                	.2byte	0x402
    334c:	0330                	.2byte	0x330
    334e:	0900                	.2byte	0x900
    3350:	0000                	.2byte	0x0
    3352:	0001                	.2byte	0x1
    3354:	0402                	.2byte	0x402
    3356:	0330                	.2byte	0x330
    3358:	0900                	.2byte	0x900
    335a:	0010                	.2byte	0x10
    335c:	0001                	.2byte	0x1
    335e:	0402                	.2byte	0x402
    3360:	0330                	.2byte	0x330
    3362:	0900                	.2byte	0x900
    3364:	0000                	.2byte	0x0
    3366:	0001                	.2byte	0x1
    3368:	0402                	.2byte	0x402
    336a:	0330                	.2byte	0x330
    336c:	0900                	.2byte	0x900
    336e:	0000                	.2byte	0x0
    3370:	0001                	.2byte	0x1
    3372:	0402                	.2byte	0x402
    3374:	0330                	.2byte	0x330
    3376:	0900                	.2byte	0x900
    3378:	0000                	.2byte	0x0
    337a:	0001                	.2byte	0x1
    337c:	0402                	.2byte	0x402
    337e:	0359                	.2byte	0x359
    3380:	0900                	.2byte	0x900
    3382:	0004                	.2byte	0x4
    3384:	0001                	.2byte	0x1
    3386:	0402                	.2byte	0x402
    3388:	0359                	.2byte	0x359
    338a:	0900                	.2byte	0x900
    338c:	0000                	.2byte	0x0
    338e:	0001                	.2byte	0x1
    3390:	0402                	.2byte	0x402
    3392:	0359                	.2byte	0x359
    3394:	0900                	.2byte	0x900
    3396:	0000                	.2byte	0x0
    3398:	0001                	.2byte	0x1
    339a:	0402                	.2byte	0x402
    339c:	0359                	.2byte	0x359
    339e:	0900                	.2byte	0x900
    33a0:	0000                	.2byte	0x0
    33a2:	0001                	.2byte	0x1
    33a4:	0402                	.2byte	0x402
    33a6:	035d                	.2byte	0x35d
    33a8:	0900                	.2byte	0x900
    33aa:	000c                	.2byte	0xc
    33ac:	0001                	.2byte	0x1
    33ae:	0402                	.2byte	0x402
    33b0:	0360                	.2byte	0x360
    33b2:	0900                	.2byte	0x900
    33b4:	0004                	.2byte	0x4
    33b6:	0001                	.2byte	0x1
    33b8:	0402                	.2byte	0x402
    33ba:	0360                	.2byte	0x360
    33bc:	0900                	.2byte	0x900
    33be:	0000                	.2byte	0x0
    33c0:	0001                	.2byte	0x1
    33c2:	0402                	.2byte	0x402
    33c4:	0360                	.2byte	0x360
    33c6:	0900                	.2byte	0x900
    33c8:	0000                	.2byte	0x0
    33ca:	0001                	.2byte	0x1
    33cc:	0402                	.2byte	0x402
    33ce:	0370                	.2byte	0x370
    33d0:	0900                	.2byte	0x900
    33d2:	000c                	.2byte	0xc
    33d4:	0001                	.2byte	0x1
    33d6:	0402                	.2byte	0x402
    33d8:	0370                	.2byte	0x370
    33da:	0900                	.2byte	0x900
    33dc:	000c                	.2byte	0xc
    33de:	0001                	.2byte	0x1
    33e0:	0402                	.2byte	0x402
    33e2:	0370                	.2byte	0x370
    33e4:	0900                	.2byte	0x900
    33e6:	0008                	.2byte	0x8
    33e8:	0001                	.2byte	0x1
    33ea:	01800403          	lb	s0,24(zero) # 18 <exit-0x1007c>
    33ee:	00090003          	lb	zero,0(s2)
    33f2:	0100                	.2byte	0x100
    33f4:	0300                	.2byte	0x300
    33f6:	8004                	.2byte	0x8004
    33f8:	0301                	.2byte	0x301
    33fa:	0900                	.2byte	0x900
    33fc:	0000                	.2byte	0x0
    33fe:	0001                	.2byte	0x1
    3400:	01800403          	lb	s0,24(zero) # 18 <exit-0x1007c>
    3404:	04090003          	lb	zero,64(s2)
    3408:	0100                	.2byte	0x100
    340a:	0200                	.2byte	0x200
    340c:	2804                	.2byte	0x2804
    340e:	04090003          	lb	zero,64(s2)
    3412:	0100                	.2byte	0x100
    3414:	0200                	.2byte	0x200
    3416:	2804                	.2byte	0x2804
    3418:	00090003          	lb	zero,0(s2)
    341c:	0100                	.2byte	0x100
    341e:	0200                	.2byte	0x200
    3420:	2e04                	.2byte	0x2e04
    3422:	0c090003          	lb	zero,192(s2)
    3426:	0100                	.2byte	0x100
    3428:	0200                	.2byte	0x200
    342a:	2e04                	.2byte	0x2e04
    342c:	00090003          	lb	zero,0(s2)
    3430:	0100                	.2byte	0x100
    3432:	0200                	.2byte	0x200
    3434:	2e04                	.2byte	0x2e04
    3436:	00090003          	lb	zero,0(s2)
    343a:	0100                	.2byte	0x100
    343c:	0306                	.2byte	0x306
    343e:	0900                	.2byte	0x900
    3440:	0008                	.2byte	0x8
    3442:	0901                	.2byte	0x901
    3444:	0014                	.2byte	0x14
    3446:	0100                	.2byte	0x100
    3448:	3b01                	.2byte	0x3b01
    344a:	0000                	.2byte	0x0
    344c:	0500                	.2byte	0x500
    344e:	0400                	.2byte	0x400
    3450:	3300                	.2byte	0x3300
    3452:	0000                	.2byte	0x0
    3454:	0100                	.2byte	0x100
    3456:	0101                	.2byte	0x101
    3458:	000d0efb          	.4byte	0xd0efb
    345c:	0101                	.2byte	0x101
    345e:	0101                	.2byte	0x101
    3460:	0000                	.2byte	0x0
    3462:	0100                	.2byte	0x100
    3464:	0000                	.2byte	0x0
    3466:	0101                	.2byte	0x101
    3468:	1f01                	.2byte	0x1f01
    346a:	3802                	.2byte	0x3802
    346c:	0000                	.2byte	0x0
    346e:	9b00                	.2byte	0x9b00
    3470:	0000                	.2byte	0x0
    3472:	0200                	.2byte	0x200
    3474:	1f01                	.2byte	0x1f01
    3476:	0f02                	.2byte	0xf02
    3478:	00002e03          	lw	t3,0(zero) # 0 <exit-0x10094>
    347c:	0100                	.2byte	0x100
    347e:	00c9                	.2byte	0xc9
    3480:	0000                	.2byte	0x0
    3482:	2e01                	.2byte	0x2e01
    3484:	0000                	.2byte	0x0
    3486:	0100                	.2byte	0x100
    3488:	000000c7          	.4byte	0xc7
    348c:	0005                	.2byte	0x5
    348e:	0004                	.2byte	0x4
    3490:	00000033          	add	zero,zero,zero
    3494:	0101                	.2byte	0x101
    3496:	fb01                	.2byte	0xfb01
    3498:	0d0e                	.2byte	0xd0e
    349a:	0100                	.2byte	0x100
    349c:	0101                	.2byte	0x101
    349e:	0001                	.2byte	0x1
    34a0:	0000                	.2byte	0x0
    34a2:	0001                	.2byte	0x1
    34a4:	0100                	.2byte	0x100
    34a6:	0101                	.2byte	0x101
    34a8:	021f 0038 0000      	.byte	0x1f, 0x02, 0x38, 0x00, 0x00, 0x00
    34ae:	0000009b          	.4byte	0x9b
    34b2:	0102                	.2byte	0x102
    34b4:	021f 030f 002e      	.byte	0x1f, 0x02, 0x0f, 0x03, 0x2e, 0x00
    34ba:	0000                	.2byte	0x0
    34bc:	2e01                	.2byte	0x2e01
    34be:	0000                	.2byte	0x0
    34c0:	0100                	.2byte	0x100
    34c2:	00c9                	.2byte	0xc9
    34c4:	0000                	.2byte	0x0
    34c6:	0501                	.2byte	0x501
    34c8:	0001                	.2byte	0x1
    34ca:	0205                	.2byte	0x205
    34cc:	1684                	.2byte	0x1684
    34ce:	0001                	.2byte	0x1
    34d0:	0105ae03          	lw	t3,16(a1)
    34d4:	0305                	.2byte	0x305
    34d6:	00090103          	lb	sp,0(s2)
    34da:	0100                	.2byte	0x100
    34dc:	00090203          	lb	tp,0(s2)
    34e0:	0100                	.2byte	0x100
    34e2:	00090003          	lb	zero,0(s2)
    34e6:	0100                	.2byte	0x100
    34e8:	00090003          	lb	zero,0(s2)
    34ec:	0100                	.2byte	0x100
    34ee:	00090003          	lb	zero,0(s2)
    34f2:	0100                	.2byte	0x100
    34f4:	00090003          	lb	zero,0(s2)
    34f8:	0100                	.2byte	0x100
    34fa:	0200                	.2byte	0x200
    34fc:	0304                	.2byte	0x304
    34fe:	0306                	.2byte	0x306
    3500:	0900                	.2byte	0x900
    3502:	0008                	.2byte	0x8
    3504:	0001                	.2byte	0x1
    3506:	0402                	.2byte	0x402
    3508:	060e                	.2byte	0x60e
    350a:	0c090003          	lb	zero,192(s2)
    350e:	0100                	.2byte	0x100
    3510:	0200                	.2byte	0x200
    3512:	0e04                	.2byte	0xe04
    3514:	00090003          	lb	zero,0(s2)
    3518:	0100                	.2byte	0x100
    351a:	0200                	.2byte	0x200
    351c:	0e04                	.2byte	0xe04
    351e:	00090203          	lb	tp,0(s2)
    3522:	0100                	.2byte	0x100
    3524:	0200                	.2byte	0x200
    3526:	0e04                	.2byte	0xe04
    3528:	0306                	.2byte	0x306
    352a:	097e                	.2byte	0x97e
    352c:	0000                	.2byte	0x0
    352e:	0501                	.2byte	0x501
    3530:	0001                	.2byte	0x1
    3532:	0402                	.2byte	0x402
    3534:	030e                	.2byte	0x30e
    3536:	001c0903          	lb	s2,1(s8)
    353a:	0501                	.2byte	0x501
    353c:	04020003          	lb	zero,64(tp) # 40 <exit-0x10054>
    3540:	0304                	.2byte	0x304
    3542:	097d                	.2byte	0x97d
    3544:	0008                	.2byte	0x8
    3546:	0301                	.2byte	0x301
    3548:	0900                	.2byte	0x900
    354a:	000c                	.2byte	0xc
    354c:	0901                	.2byte	0x901
    354e:	0008                	.2byte	0x8
    3550:	0100                	.2byte	0x100
    3552:	1901                	.2byte	0x1901
    3554:	0002                	.2byte	0x2
    3556:	0500                	.2byte	0x500
    3558:	0400                	.2byte	0x400
    355a:	3c00                	.2byte	0x3c00
    355c:	0000                	.2byte	0x0
    355e:	0100                	.2byte	0x100
    3560:	0101                	.2byte	0x101
    3562:	000d0efb          	.4byte	0xd0efb
    3566:	0101                	.2byte	0x101
    3568:	0101                	.2byte	0x101
    356a:	0000                	.2byte	0x0
    356c:	0100                	.2byte	0x100
    356e:	0000                	.2byte	0x0
    3570:	0101                	.2byte	0x101
    3572:	1f01                	.2byte	0x1f01
    3574:	00003803          	.4byte	0x3803
    3578:	1200                	.2byte	0x1200
    357a:	0001                	.2byte	0x1
    357c:	ce00                	.2byte	0xce00
    357e:	0001                	.2byte	0x1
    3580:	0200                	.2byte	0x200
    3582:	1f01                	.2byte	0x1f01
    3584:	0f02                	.2byte	0xf02
    3586:	1e04                	.2byte	0x1e04
    3588:	01000003          	lb	zero,16(zero) # 10 <exit-0x10084>
    358c:	031e                	.2byte	0x31e
    358e:	0000                	.2byte	0x0
    3590:	d001                	.2byte	0xd001
    3592:	0001                	.2byte	0x1
    3594:	0200                	.2byte	0x200
    3596:	0148                	.2byte	0x148
    3598:	0000                	.2byte	0x0
    359a:	0501                	.2byte	0x501
    359c:	0001                	.2byte	0x1
    359e:	0205                	.2byte	0x205
    35a0:	1ae0                	.2byte	0x1ae0
    35a2:	0001                	.2byte	0x1
    35a4:	05012303          	lw	t1,80(sp)
    35a8:	09010303          	lb	t1,144(sp)
    35ac:	0000                	.2byte	0x0
    35ae:	0301                	.2byte	0x301
    35b0:	0900                	.2byte	0x900
    35b2:	0000                	.2byte	0x0
    35b4:	0501                	.2byte	0x501
    35b6:	030d                	.2byte	0x30d
    35b8:	0900                	.2byte	0x900
    35ba:	0000                	.2byte	0x0
    35bc:	0501                	.2byte	0x501
    35be:	09010303          	lb	t1,144(sp)
    35c2:	0000                	.2byte	0x0
    35c4:	0301                	.2byte	0x301
    35c6:	0900                	.2byte	0x900
    35c8:	0000                	.2byte	0x0
    35ca:	0301                	.2byte	0x301
    35cc:	0900                	.2byte	0x900
    35ce:	0000                	.2byte	0x0
    35d0:	0301                	.2byte	0x301
    35d2:	0900                	.2byte	0x900
    35d4:	0000                	.2byte	0x0
    35d6:	0301                	.2byte	0x301
    35d8:	0901                	.2byte	0x901
    35da:	0000                	.2byte	0x0
    35dc:	0301                	.2byte	0x301
    35de:	0900                	.2byte	0x900
    35e0:	0000                	.2byte	0x0
    35e2:	0301                	.2byte	0x301
    35e4:	0900                	.2byte	0x900
    35e6:	0000                	.2byte	0x0
    35e8:	0301                	.2byte	0x301
    35ea:	0900                	.2byte	0x900
    35ec:	0000                	.2byte	0x0
    35ee:	0301                	.2byte	0x301
    35f0:	0901                	.2byte	0x901
    35f2:	0000                	.2byte	0x0
    35f4:	0301                	.2byte	0x301
    35f6:	0902                	.2byte	0x902
    35f8:	0000                	.2byte	0x0
    35fa:	0301                	.2byte	0x301
    35fc:	0901                	.2byte	0x901
    35fe:	0000                	.2byte	0x0
    3600:	0301                	.2byte	0x301
    3602:	0900                	.2byte	0x900
    3604:	0000                	.2byte	0x0
    3606:	0301                	.2byte	0x301
    3608:	0900                	.2byte	0x900
    360a:	0000                	.2byte	0x0
    360c:	0301                	.2byte	0x301
    360e:	0900                	.2byte	0x900
    3610:	0000                	.2byte	0x0
    3612:	0601                	.2byte	0x601
    3614:	0c090103          	lb	sp,192(s2)
    3618:	0100                	.2byte	0x100
    361a:	04097f03          	.4byte	0x4097f03
    361e:	0100                	.2byte	0x100
    3620:	04090203          	lb	tp,64(s2)
    3624:	0100                	.2byte	0x100
    3626:	04097e03          	.4byte	0x4097e03
    362a:	0100                	.2byte	0x100
    362c:	0306                	.2byte	0x306
    362e:	0900                	.2byte	0x900
    3630:	0004                	.2byte	0x4
    3632:	0301                	.2byte	0x301
    3634:	0900                	.2byte	0x900
    3636:	0000                	.2byte	0x0
    3638:	0301                	.2byte	0x301
    363a:	0900                	.2byte	0x900
    363c:	0004                	.2byte	0x4
    363e:	0301                	.2byte	0x301
    3640:	0901                	.2byte	0x901
    3642:	0000                	.2byte	0x0
    3644:	0301                	.2byte	0x301
    3646:	0900                	.2byte	0x900
    3648:	0000                	.2byte	0x0
    364a:	0301                	.2byte	0x301
    364c:	0900                	.2byte	0x900
    364e:	0000                	.2byte	0x0
    3650:	0301                	.2byte	0x301
    3652:	0900                	.2byte	0x900
    3654:	0000                	.2byte	0x0
    3656:	0301                	.2byte	0x301
    3658:	0900                	.2byte	0x900
    365a:	0004                	.2byte	0x4
    365c:	0301                	.2byte	0x301
    365e:	0900                	.2byte	0x900
    3660:	0004                	.2byte	0x4
    3662:	0301                	.2byte	0x301
    3664:	0900                	.2byte	0x900
    3666:	0004                	.2byte	0x4
    3668:	0301                	.2byte	0x301
    366a:	0901                	.2byte	0x901
    366c:	0000                	.2byte	0x0
    366e:	0301                	.2byte	0x301
    3670:	0900                	.2byte	0x900
    3672:	0000                	.2byte	0x0
    3674:	0301                	.2byte	0x301
    3676:	0900                	.2byte	0x900
    3678:	0000                	.2byte	0x0
    367a:	0301                	.2byte	0x301
    367c:	0900                	.2byte	0x900
    367e:	0000                	.2byte	0x0
    3680:	0301                	.2byte	0x301
    3682:	0900                	.2byte	0x900
    3684:	0000                	.2byte	0x0
    3686:	0001                	.2byte	0x1
    3688:	0402                	.2byte	0x402
    368a:	0618                	.2byte	0x618
    368c:	14090003          	lb	zero,320(s2)
    3690:	0100                	.2byte	0x100
    3692:	0306                	.2byte	0x306
    3694:	0900                	.2byte	0x900
    3696:	0008                	.2byte	0x8
    3698:	0301                	.2byte	0x301
    369a:	0900                	.2byte	0x900
    369c:	0000                	.2byte	0x0
    369e:	0301                	.2byte	0x301
    36a0:	0900                	.2byte	0x900
    36a2:	0000                	.2byte	0x0
    36a4:	0301                	.2byte	0x301
    36a6:	0900                	.2byte	0x900
    36a8:	0000                	.2byte	0x0
    36aa:	0301                	.2byte	0x301
    36ac:	0900                	.2byte	0x900
    36ae:	0000                	.2byte	0x0
    36b0:	0301                	.2byte	0x301
    36b2:	0900                	.2byte	0x900
    36b4:	0000                	.2byte	0x0
    36b6:	0301                	.2byte	0x301
    36b8:	0900                	.2byte	0x900
    36ba:	0000                	.2byte	0x0
    36bc:	0301                	.2byte	0x301
    36be:	0900                	.2byte	0x900
    36c0:	0000                	.2byte	0x0
    36c2:	0301                	.2byte	0x301
    36c4:	0900                	.2byte	0x900
    36c6:	0000                	.2byte	0x0
    36c8:	0301                	.2byte	0x301
    36ca:	0900                	.2byte	0x900
    36cc:	0000                	.2byte	0x0
    36ce:	0001                	.2byte	0x1
    36d0:	0402                	.2byte	0x402
    36d2:	034e                	.2byte	0x34e
    36d4:	0900                	.2byte	0x900
    36d6:	0008                	.2byte	0x8
    36d8:	0001                	.2byte	0x1
    36da:	0402                	.2byte	0x402
    36dc:	034e                	.2byte	0x34e
    36de:	0900                	.2byte	0x900
    36e0:	0000                	.2byte	0x0
    36e2:	0001                	.2byte	0x1
    36e4:	0402                	.2byte	0x402
    36e6:	034e                	.2byte	0x34e
    36e8:	0900                	.2byte	0x900
    36ea:	0000                	.2byte	0x0
    36ec:	0001                	.2byte	0x1
    36ee:	0402                	.2byte	0x402
    36f0:	034e                	.2byte	0x34e
    36f2:	0900                	.2byte	0x900
    36f4:	0000                	.2byte	0x0
    36f6:	0001                	.2byte	0x1
    36f8:	0402                	.2byte	0x402
    36fa:	034e                	.2byte	0x34e
    36fc:	0900                	.2byte	0x900
    36fe:	0000                	.2byte	0x0
    3700:	0001                	.2byte	0x1
    3702:	0402                	.2byte	0x402
    3704:	034e                	.2byte	0x34e
    3706:	0900                	.2byte	0x900
    3708:	0000                	.2byte	0x0
    370a:	0001                	.2byte	0x1
    370c:	0402                	.2byte	0x402
    370e:	034e                	.2byte	0x34e
    3710:	0900                	.2byte	0x900
    3712:	0000                	.2byte	0x0
    3714:	0001                	.2byte	0x1
    3716:	0402                	.2byte	0x402
    3718:	034e                	.2byte	0x34e
    371a:	0900                	.2byte	0x900
    371c:	0000                	.2byte	0x0
    371e:	0001                	.2byte	0x1
    3720:	0402                	.2byte	0x402
    3722:	034e                	.2byte	0x34e
    3724:	0900                	.2byte	0x900
    3726:	0000                	.2byte	0x0
    3728:	0001                	.2byte	0x1
    372a:	0402                	.2byte	0x402
    372c:	034e                	.2byte	0x34e
    372e:	0900                	.2byte	0x900
    3730:	0000                	.2byte	0x0
    3732:	0001                	.2byte	0x1
    3734:	0402                	.2byte	0x402
    3736:	0650                	.2byte	0x650
    3738:	08090003          	lb	zero,128(s2)
    373c:	0100                	.2byte	0x100
    373e:	0200                	.2byte	0x200
    3740:	5204                	.2byte	0x5204
    3742:	04090003          	lb	zero,64(s2)
    3746:	0100                	.2byte	0x100
    3748:	0200                	.2byte	0x200
    374a:	5304                	.2byte	0x5304
    374c:	04090003          	lb	zero,64(s2)
    3750:	0100                	.2byte	0x100
    3752:	0200                	.2byte	0x200
    3754:	5604                	.2byte	0x5604
    3756:	04090003          	lb	zero,64(s2)
    375a:	0100                	.2byte	0x100
    375c:	08090003          	lb	zero,128(s2)
    3760:	0100                	.2byte	0x100
    3762:	0105                	.2byte	0x105
    3764:	04090403          	lb	s0,64(s2)
    3768:	0100                	.2byte	0x100
    376a:	0409                	.2byte	0x409
    376c:	0000                	.2byte	0x0
    376e:	0101                	.2byte	0x101
    3770:	02f2                	.2byte	0x2f2
    3772:	0000                	.2byte	0x0
    3774:	0005                	.2byte	0x5
    3776:	0004                	.2byte	0x4
    3778:	003c                	.2byte	0x3c
    377a:	0000                	.2byte	0x0
    377c:	0101                	.2byte	0x101
    377e:	fb01                	.2byte	0xfb01
    3780:	0d0e                	.2byte	0xd0e
    3782:	0100                	.2byte	0x100
    3784:	0101                	.2byte	0x101
    3786:	0001                	.2byte	0x1
    3788:	0000                	.2byte	0x0
    378a:	0001                	.2byte	0x1
    378c:	0100                	.2byte	0x100
    378e:	0101                	.2byte	0x101
    3790:	031f 0038 0000      	.byte	0x1f, 0x03, 0x38, 0x00, 0x00, 0x00
    3796:	0112                	.2byte	0x112
    3798:	0000                	.2byte	0x0
    379a:	01ce                	.2byte	0x1ce
    379c:	0000                	.2byte	0x0
    379e:	0102                	.2byte	0x102
    37a0:	021f 040f 035c      	.byte	0x1f, 0x02, 0x0f, 0x04, 0x5c, 0x03
    37a6:	0000                	.2byte	0x0
    37a8:	5c01                	.2byte	0x5c01
    37aa:	01000003          	lb	zero,16(zero) # 10 <exit-0x10084>
    37ae:	01d0                	.2byte	0x1d0
    37b0:	0000                	.2byte	0x0
    37b2:	4802                	.2byte	0x4802
    37b4:	0001                	.2byte	0x1
    37b6:	0100                	.2byte	0x100
    37b8:	0105                	.2byte	0x105
    37ba:	0500                	.2byte	0x500
    37bc:	5402                	.2byte	0x5402
    37be:	0300011b          	.4byte	0x300011b
    37c2:	03050123          	sb	a6,34(a0)
    37c6:	00090103          	lb	sp,0(s2)
    37ca:	0100                	.2byte	0x100
    37cc:	00090003          	lb	zero,0(s2)
    37d0:	0100                	.2byte	0x100
    37d2:	0d05                	.2byte	0xd05
    37d4:	00090003          	lb	zero,0(s2)
    37d8:	0100                	.2byte	0x100
    37da:	0305                	.2byte	0x305
    37dc:	00090103          	lb	sp,0(s2)
    37e0:	0100                	.2byte	0x100
    37e2:	00090003          	lb	zero,0(s2)
    37e6:	0100                	.2byte	0x100
    37e8:	00090003          	lb	zero,0(s2)
    37ec:	0100                	.2byte	0x100
    37ee:	00090003          	lb	zero,0(s2)
    37f2:	0100                	.2byte	0x100
    37f4:	00090103          	lb	sp,0(s2)
    37f8:	0100                	.2byte	0x100
    37fa:	00090003          	lb	zero,0(s2)
    37fe:	0100                	.2byte	0x100
    3800:	00090003          	lb	zero,0(s2)
    3804:	0100                	.2byte	0x100
    3806:	00090003          	lb	zero,0(s2)
    380a:	0100                	.2byte	0x100
    380c:	00090103          	lb	sp,0(s2)
    3810:	0100                	.2byte	0x100
    3812:	00090203          	lb	tp,0(s2)
    3816:	0100                	.2byte	0x100
    3818:	00090103          	lb	sp,0(s2)
    381c:	0100                	.2byte	0x100
    381e:	00090003          	lb	zero,0(s2)
    3822:	0100                	.2byte	0x100
    3824:	00090003          	lb	zero,0(s2)
    3828:	0100                	.2byte	0x100
    382a:	00090003          	lb	zero,0(s2)
    382e:	0100                	.2byte	0x100
    3830:	10090003          	lb	zero,256(s2)
    3834:	0100                	.2byte	0x100
    3836:	08090003          	lb	zero,128(s2)
    383a:	0100                	.2byte	0x100
    383c:	00090003          	lb	zero,0(s2)
    3840:	0100                	.2byte	0x100
    3842:	00090103          	lb	sp,0(s2)
    3846:	0100                	.2byte	0x100
    3848:	00090003          	lb	zero,0(s2)
    384c:	0100                	.2byte	0x100
    384e:	00090003          	lb	zero,0(s2)
    3852:	0100                	.2byte	0x100
    3854:	00090003          	lb	zero,0(s2)
    3858:	0100                	.2byte	0x100
    385a:	0306                	.2byte	0x306
    385c:	0901                	.2byte	0x901
    385e:	0004                	.2byte	0x4
    3860:	0301                	.2byte	0x301
    3862:	097f                	.2byte	0x97f
    3864:	0004                	.2byte	0x4
    3866:	0601                	.2byte	0x601
    3868:	04090003          	lb	zero,64(s2)
    386c:	0100                	.2byte	0x100
    386e:	04090003          	lb	zero,64(s2)
    3872:	0100                	.2byte	0x100
    3874:	04090003          	lb	zero,64(s2)
    3878:	0100                	.2byte	0x100
    387a:	00090103          	lb	sp,0(s2)
    387e:	0100                	.2byte	0x100
    3880:	00090003          	lb	zero,0(s2)
    3884:	0100                	.2byte	0x100
    3886:	00090003          	lb	zero,0(s2)
    388a:	0100                	.2byte	0x100
    388c:	00090003          	lb	zero,0(s2)
    3890:	0100                	.2byte	0x100
    3892:	00090003          	lb	zero,0(s2)
    3896:	0100                	.2byte	0x100
    3898:	0200                	.2byte	0x200
    389a:	1404                	.2byte	0x1404
    389c:	0306                	.2byte	0x306
    389e:	0900                	.2byte	0x900
    38a0:	0004                	.2byte	0x4
    38a2:	0301                	.2byte	0x301
    38a4:	0900                	.2byte	0x900
    38a6:	0004                	.2byte	0x4
    38a8:	0001                	.2byte	0x1
    38aa:	0402                	.2byte	0x402
    38ac:	00030673          	.4byte	0x30673
    38b0:	0409                	.2byte	0x409
    38b2:	0100                	.2byte	0x100
    38b4:	0306                	.2byte	0x306
    38b6:	0900                	.2byte	0x900
    38b8:	0008                	.2byte	0x8
    38ba:	0601                	.2byte	0x601
    38bc:	10090003          	lb	zero,256(s2)
    38c0:	0100                	.2byte	0x100
    38c2:	00090003          	lb	zero,0(s2)
    38c6:	0100                	.2byte	0x100
    38c8:	0200                	.2byte	0x200
    38ca:	1704                	.2byte	0x1704
    38cc:	0306                	.2byte	0x306
    38ce:	0900                	.2byte	0x900
    38d0:	000c                	.2byte	0xc
    38d2:	0001                	.2byte	0x1
    38d4:	0402                	.2byte	0x402
    38d6:	0318                	.2byte	0x318
    38d8:	0900                	.2byte	0x900
    38da:	0004                	.2byte	0x4
    38dc:	0601                	.2byte	0x601
    38de:	08090003          	lb	zero,128(s2)
    38e2:	0100                	.2byte	0x100
    38e4:	00090003          	lb	zero,0(s2)
    38e8:	0100                	.2byte	0x100
    38ea:	00090003          	lb	zero,0(s2)
    38ee:	0100                	.2byte	0x100
    38f0:	00090003          	lb	zero,0(s2)
    38f4:	0100                	.2byte	0x100
    38f6:	00090003          	lb	zero,0(s2)
    38fa:	0100                	.2byte	0x100
    38fc:	00090003          	lb	zero,0(s2)
    3900:	0100                	.2byte	0x100
    3902:	00090003          	lb	zero,0(s2)
    3906:	0100                	.2byte	0x100
    3908:	00090003          	lb	zero,0(s2)
    390c:	0100                	.2byte	0x100
    390e:	00090003          	lb	zero,0(s2)
    3912:	0100                	.2byte	0x100
    3914:	00090003          	lb	zero,0(s2)
    3918:	0100                	.2byte	0x100
    391a:	00090003          	lb	zero,0(s2)
    391e:	0100                	.2byte	0x100
    3920:	00090003          	lb	zero,0(s2)
    3924:	0100                	.2byte	0x100
    3926:	04090003          	lb	zero,64(s2)
    392a:	0100                	.2byte	0x100
    392c:	04090003          	lb	zero,64(s2)
    3930:	0100                	.2byte	0x100
    3932:	00090003          	lb	zero,0(s2)
    3936:	0100                	.2byte	0x100
    3938:	00090003          	lb	zero,0(s2)
    393c:	0100                	.2byte	0x100
    393e:	0200                	.2byte	0x200
    3940:	7a04                	.2byte	0x7a04
    3942:	04090003          	lb	zero,64(s2)
    3946:	0100                	.2byte	0x100
    3948:	0306                	.2byte	0x306
    394a:	0900                	.2byte	0x900
    394c:	0008                	.2byte	0x8
    394e:	0001                	.2byte	0x1
    3950:	0402                	.2byte	0x402
    3952:	063e                	.2byte	0x63e
    3954:	08090003          	lb	zero,128(s2)
    3958:	0100                	.2byte	0x100
    395a:	0200                	.2byte	0x200
    395c:	3e04                	.2byte	0x3e04
    395e:	00090003          	lb	zero,0(s2)
    3962:	0100                	.2byte	0x100
    3964:	0200                	.2byte	0x200
    3966:	3e04                	.2byte	0x3e04
    3968:	00090003          	lb	zero,0(s2)
    396c:	0100                	.2byte	0x100
    396e:	0200                	.2byte	0x200
    3970:	3e04                	.2byte	0x3e04
    3972:	00090003          	lb	zero,0(s2)
    3976:	0100                	.2byte	0x100
    3978:	0200                	.2byte	0x200
    397a:	3e04                	.2byte	0x3e04
    397c:	00090003          	lb	zero,0(s2)
    3980:	0100                	.2byte	0x100
    3982:	0200                	.2byte	0x200
    3984:	3e04                	.2byte	0x3e04
    3986:	00090003          	lb	zero,0(s2)
    398a:	0100                	.2byte	0x100
    398c:	0200                	.2byte	0x200
    398e:	3e04                	.2byte	0x3e04
    3990:	00090003          	lb	zero,0(s2)
    3994:	0100                	.2byte	0x100
    3996:	0200                	.2byte	0x200
    3998:	3e04                	.2byte	0x3e04
    399a:	00090003          	lb	zero,0(s2)
    399e:	0100                	.2byte	0x100
    39a0:	0200                	.2byte	0x200
    39a2:	3e04                	.2byte	0x3e04
    39a4:	00090003          	lb	zero,0(s2)
    39a8:	0100                	.2byte	0x100
    39aa:	0200                	.2byte	0x200
    39ac:	3e04                	.2byte	0x3e04
    39ae:	00090003          	lb	zero,0(s2)
    39b2:	0100                	.2byte	0x100
    39b4:	0200                	.2byte	0x200
    39b6:	3e04                	.2byte	0x3e04
    39b8:	00090003          	lb	zero,0(s2)
    39bc:	0100                	.2byte	0x100
    39be:	0200                	.2byte	0x200
    39c0:	3e04                	.2byte	0x3e04
    39c2:	00090003          	lb	zero,0(s2)
    39c6:	0100                	.2byte	0x100
    39c8:	04090003          	lb	zero,64(s2)
    39cc:	0100                	.2byte	0x100
    39ce:	0200                	.2byte	0x200
    39d0:	5804                	.2byte	0x5804
    39d2:	04090003          	lb	zero,64(s2)
    39d6:	0100                	.2byte	0x100
    39d8:	0200                	.2byte	0x200
    39da:	5804                	.2byte	0x5804
    39dc:	00090003          	lb	zero,0(s2)
    39e0:	0100                	.2byte	0x100
    39e2:	0200                	.2byte	0x200
    39e4:	5f04                	.2byte	0x5f04
    39e6:	04090003          	lb	zero,64(s2)
    39ea:	0100                	.2byte	0x100
    39ec:	0200                	.2byte	0x200
    39ee:	6604                	.2byte	0x6604
    39f0:	04090003          	lb	zero,64(s2)
    39f4:	0100                	.2byte	0x100
    39f6:	0200                	.2byte	0x200
    39f8:	6d04                	.2byte	0x6d04
    39fa:	04090003          	lb	zero,64(s2)
    39fe:	0100                	.2byte	0x100
    3a00:	0200                	.2byte	0x200
    3a02:	7404                	.2byte	0x7404
    3a04:	04090003          	lb	zero,64(s2)
    3a08:	0100                	.2byte	0x100
    3a0a:	0c090003          	lb	zero,192(s2)
    3a0e:	0100                	.2byte	0x100
    3a10:	0200                	.2byte	0x200
    3a12:	4504                	.2byte	0x4504
    3a14:	0306                	.2byte	0x306
    3a16:	0900                	.2byte	0x900
    3a18:	0004                	.2byte	0x4
    3a1a:	0601                	.2byte	0x601
    3a1c:	04090003          	lb	zero,64(s2)
    3a20:	0100                	.2byte	0x100
    3a22:	0105                	.2byte	0x105
    3a24:	0306                	.2byte	0x306
    3a26:	0904                	.2byte	0x904
    3a28:	0004                	.2byte	0x4
    3a2a:	0501                	.2byte	0x501
    3a2c:	04020003          	lb	zero,64(tp) # 40 <exit-0x10054>
    3a30:	0648                	.2byte	0x648
    3a32:	04097c03          	.4byte	0x4097c03
    3a36:	0100                	.2byte	0x100
    3a38:	0200                	.2byte	0x200
    3a3a:	5004                	.2byte	0x5004
    3a3c:	04090003          	lb	zero,64(s2)
    3a40:	0100                	.2byte	0x100
    3a42:	0200                	.2byte	0x200
    3a44:	5004                	.2byte	0x5004
    3a46:	00090003          	lb	zero,0(s2)
    3a4a:	0100                	.2byte	0x100
    3a4c:	0306                	.2byte	0x306
    3a4e:	0900                	.2byte	0x900
    3a50:	0008                	.2byte	0x8
    3a52:	0601                	.2byte	0x601
    3a54:	10090003          	lb	zero,256(s2)
    3a58:	0100                	.2byte	0x100
    3a5a:	00090003          	lb	zero,0(s2)
    3a5e:	0100                	.2byte	0x100
    3a60:	0809                	.2byte	0x809
    3a62:	0000                	.2byte	0x0
    3a64:	0101                	.2byte	0x101
    3a66:	0159                	.2byte	0x159
    3a68:	0000                	.2byte	0x0
    3a6a:	0005                	.2byte	0x5
    3a6c:	0004                	.2byte	0x4
    3a6e:	003c                	.2byte	0x3c
    3a70:	0000                	.2byte	0x0
    3a72:	0101                	.2byte	0x101
    3a74:	fb01                	.2byte	0xfb01
    3a76:	0d0e                	.2byte	0xd0e
    3a78:	0100                	.2byte	0x100
    3a7a:	0101                	.2byte	0x101
    3a7c:	0001                	.2byte	0x1
    3a7e:	0000                	.2byte	0x0
    3a80:	0001                	.2byte	0x1
    3a82:	0100                	.2byte	0x100
    3a84:	0101                	.2byte	0x101
    3a86:	031f 0038 0000      	.byte	0x1f, 0x03, 0x38, 0x00, 0x00, 0x00
    3a8c:	0112                	.2byte	0x112
    3a8e:	0000                	.2byte	0x0
    3a90:	01ce                	.2byte	0x1ce
    3a92:	0000                	.2byte	0x0
    3a94:	0102                	.2byte	0x102
    3a96:	021f 040f 039a      	.byte	0x1f, 0x02, 0x0f, 0x04, 0x9a, 0x03
    3a9c:	0000                	.2byte	0x0
    3a9e:	9a01                	.2byte	0x9a01
    3aa0:	01000003          	lb	zero,16(zero) # 10 <exit-0x10084>
    3aa4:	01d0                	.2byte	0x1d0
    3aa6:	0000                	.2byte	0x0
    3aa8:	4802                	.2byte	0x4802
    3aaa:	0001                	.2byte	0x1
    3aac:	0100                	.2byte	0x100
    3aae:	0105                	.2byte	0x105
    3ab0:	0500                	.2byte	0x500
    3ab2:	3002                	.2byte	0x3002
    3ab4:	011c                	.2byte	0x11c
    3ab6:	0300                	.2byte	0x300
    3ab8:	0122                	.2byte	0x122
    3aba:	0305                	.2byte	0x305
    3abc:	00090103          	lb	sp,0(s2)
    3ac0:	0100                	.2byte	0x100
    3ac2:	00090003          	lb	zero,0(s2)
    3ac6:	0100                	.2byte	0x100
    3ac8:	0d05                	.2byte	0xd05
    3aca:	00090003          	lb	zero,0(s2)
    3ace:	0100                	.2byte	0x100
    3ad0:	0305                	.2byte	0x305
    3ad2:	00090103          	lb	sp,0(s2)
    3ad6:	0100                	.2byte	0x100
    3ad8:	00090003          	lb	zero,0(s2)
    3adc:	0100                	.2byte	0x100
    3ade:	00090003          	lb	zero,0(s2)
    3ae2:	0100                	.2byte	0x100
    3ae4:	00090003          	lb	zero,0(s2)
    3ae8:	0100                	.2byte	0x100
    3aea:	00090103          	lb	sp,0(s2)
    3aee:	0100                	.2byte	0x100
    3af0:	00090003          	lb	zero,0(s2)
    3af4:	0100                	.2byte	0x100
    3af6:	00090003          	lb	zero,0(s2)
    3afa:	0100                	.2byte	0x100
    3afc:	00090003          	lb	zero,0(s2)
    3b00:	0100                	.2byte	0x100
    3b02:	00090103          	lb	sp,0(s2)
    3b06:	0100                	.2byte	0x100
    3b08:	00090203          	lb	tp,0(s2)
    3b0c:	0100                	.2byte	0x100
    3b0e:	00090103          	lb	sp,0(s2)
    3b12:	0100                	.2byte	0x100
    3b14:	00090003          	lb	zero,0(s2)
    3b18:	0100                	.2byte	0x100
    3b1a:	00090003          	lb	zero,0(s2)
    3b1e:	0100                	.2byte	0x100
    3b20:	00090003          	lb	zero,0(s2)
    3b24:	0100                	.2byte	0x100
    3b26:	0c090003          	lb	zero,192(s2)
    3b2a:	0100                	.2byte	0x100
    3b2c:	00090003          	lb	zero,0(s2)
    3b30:	0100                	.2byte	0x100
    3b32:	00090003          	lb	zero,0(s2)
    3b36:	0100                	.2byte	0x100
    3b38:	00090103          	lb	sp,0(s2)
    3b3c:	0100                	.2byte	0x100
    3b3e:	00090003          	lb	zero,0(s2)
    3b42:	0100                	.2byte	0x100
    3b44:	00090003          	lb	zero,0(s2)
    3b48:	0100                	.2byte	0x100
    3b4a:	00090003          	lb	zero,0(s2)
    3b4e:	0100                	.2byte	0x100
    3b50:	0306                	.2byte	0x306
    3b52:	0901                	.2byte	0x901
    3b54:	0000                	.2byte	0x0
    3b56:	0301                	.2byte	0x301
    3b58:	097f                	.2byte	0x97f
    3b5a:	0004                	.2byte	0x4
    3b5c:	0601                	.2byte	0x601
    3b5e:	04090003          	lb	zero,64(s2)
    3b62:	0100                	.2byte	0x100
    3b64:	0306                	.2byte	0x306
    3b66:	0901                	.2byte	0x901
    3b68:	0000                	.2byte	0x0
    3b6a:	0601                	.2byte	0x601
    3b6c:	10097f03          	.4byte	0x10097f03
    3b70:	0100                	.2byte	0x100
    3b72:	00090003          	lb	zero,0(s2)
    3b76:	0100                	.2byte	0x100
    3b78:	00090103          	lb	sp,0(s2)
    3b7c:	0100                	.2byte	0x100
    3b7e:	00090003          	lb	zero,0(s2)
    3b82:	0100                	.2byte	0x100
    3b84:	00090003          	lb	zero,0(s2)
    3b88:	0100                	.2byte	0x100
    3b8a:	00090003          	lb	zero,0(s2)
    3b8e:	0100                	.2byte	0x100
    3b90:	00090003          	lb	zero,0(s2)
    3b94:	0100                	.2byte	0x100
    3b96:	0200                	.2byte	0x200
    3b98:	1404                	.2byte	0x1404
    3b9a:	0306                	.2byte	0x306
    3b9c:	0900                	.2byte	0x900
    3b9e:	0008                	.2byte	0x8
    3ba0:	0001                	.2byte	0x1
    3ba2:	0402                	.2byte	0x402
    3ba4:	09000317          	auipc	t1,0x9000
    3ba8:	0004                	.2byte	0x4
    3baa:	0001                	.2byte	0x1
    3bac:	0402                	.2byte	0x402
    3bae:	0318                	.2byte	0x318
    3bb0:	0900                	.2byte	0x900
    3bb2:	000c                	.2byte	0xc
    3bb4:	0501                	.2byte	0x501
    3bb6:	0301                	.2byte	0x301
    3bb8:	0904                	.2byte	0x904
    3bba:	0004                	.2byte	0x4
    3bbc:	0901                	.2byte	0x901
    3bbe:	0004                	.2byte	0x4
    3bc0:	0100                	.2byte	0x100
    3bc2:	01              	Address 0x0000000000003bc2 is out of bounds.


Disassembly of section .debug_frame:

00000000 <.debug_frame>:
   0:	000c                	.2byte	0xc
   2:	0000                	.2byte	0x0
   4:	ffff                	.2byte	0xffff
   6:	ffff                	.2byte	0xffff
   8:	7c010003          	lb	zero,1984(sp)
   c:	0d01                	.2byte	0xd01
   e:	0002                	.2byte	0x2
  10:	0028                	.2byte	0x28
  12:	0000                	.2byte	0x0
  14:	0000                	.2byte	0x0
  16:	0000                	.2byte	0x0
  18:	0494                	.2byte	0x494
  1a:	0001                	.2byte	0x1
  1c:	0470                	.2byte	0x470
  1e:	0000                	.2byte	0x0
  20:	0e44                	.2byte	0xe44
  22:	5010                	.2byte	0x5010
  24:	0288                	.2byte	0x288
  26:	9260                	.2byte	0x9260
  28:	8104                	.2byte	0x8104
  2a:	8901                	.2byte	0x8901
  2c:	0adc0203          	lb	tp,173(s8)
  30:	48c1                	.2byte	0x48c1
  32:	44c8                	.2byte	0x44c8
  34:	44c9                	.2byte	0x44c9
  36:	44d2                	.2byte	0x44d2
  38:	000e                	.2byte	0xe
  3a:	0b44                	.2byte	0xb44
  3c:	000c                	.2byte	0xc
  3e:	0000                	.2byte	0x0
  40:	ffff                	.2byte	0xffff
  42:	ffff                	.2byte	0xffff
  44:	7c010003          	lb	zero,1984(sp)
  48:	0d01                	.2byte	0xd01
  4a:	0002                	.2byte	0x2
  4c:	0038                	.2byte	0x38
  4e:	0000                	.2byte	0x0
  50:	003c                	.2byte	0x3c
  52:	0000                	.2byte	0x0
  54:	0904                	.2byte	0x904
  56:	0001                	.2byte	0x1
  58:	0330                	.2byte	0x330
  5a:	0000                	.2byte	0x0
  5c:	0e44                	.2byte	0xe44
  5e:	4420                	.2byte	0x4420
  60:	0389                	.2byte	0x389
  62:	9260                	.2byte	0x9260
  64:	9304                	.2byte	0x9304
  66:	9405                	.2byte	0x9405
  68:	8106                	.2byte	0x8106
  6a:	8801                	.2byte	0x8801
  6c:	9502                	.2byte	0x9502
  6e:	023c0307          	.4byte	0x23c0307
  72:	c10a                	.2byte	0xc10a
  74:	c844                	.2byte	0xc844
  76:	c958                	.2byte	0xc958
  78:	d244                	.2byte	0xd244
  7a:	d344                	.2byte	0xd344
  7c:	d444                	.2byte	0xd444
  7e:	d544                	.2byte	0xd544
  80:	0e48                	.2byte	0xe48
  82:	4400                	.2byte	0x4400
  84:	0000000b          	.4byte	0xb
  88:	000c                	.2byte	0xc
  8a:	0000                	.2byte	0x0
  8c:	ffff                	.2byte	0xffff
  8e:	ffff                	.2byte	0xffff
  90:	7c010003          	lb	zero,1984(sp)
  94:	0d01                	.2byte	0xd01
  96:	0002                	.2byte	0x2
  98:	000c                	.2byte	0xc
  9a:	0000                	.2byte	0x0
  9c:	0088                	.2byte	0x88
  9e:	0000                	.2byte	0x0
  a0:	0c34                	.2byte	0xc34
  a2:	0001                	.2byte	0x1
  a4:	00dc                	.2byte	0xdc
  a6:	0000                	.2byte	0x0
  a8:	000c                	.2byte	0xc
  aa:	0000                	.2byte	0x0
  ac:	ffff                	.2byte	0xffff
  ae:	ffff                	.2byte	0xffff
  b0:	7c010003          	lb	zero,1984(sp)
  b4:	0d01                	.2byte	0xd01
  b6:	0002                	.2byte	0x2
  b8:	0038                	.2byte	0x38
  ba:	0000                	.2byte	0x0
  bc:	00a8                	.2byte	0xa8
  be:	0000                	.2byte	0x0
  c0:	0d10                	.2byte	0xd10
  c2:	0001                	.2byte	0x1
  c4:	0334                	.2byte	0x334
  c6:	0000                	.2byte	0x0
  c8:	0e44                	.2byte	0xe44
  ca:	4420                	.2byte	0x4420
  cc:	0492                	.2byte	0x492
  ce:	8950                	.2byte	0x8950
  d0:	95059303          	lh	t1,-1712(a1)
  d4:	01815007          	.4byte	0x1815007
  d8:	0288                	.2byte	0x288
  da:	0694                	.2byte	0x694
  dc:	0a016403          	.4byte	0xa016403
  e0:	44c1                	.2byte	0x44c1
  e2:	58c8                	.2byte	0x58c8
  e4:	44c9                	.2byte	0x44c9
  e6:	44d2                	.2byte	0x44d2
  e8:	44d444d3          	.4byte	0x44d444d3
  ec:	48d5                	.2byte	0x48d5
  ee:	000e                	.2byte	0xe
  f0:	0b44                	.2byte	0xb44
  f2:	0000                	.2byte	0x0
  f4:	000c                	.2byte	0xc
  f6:	0000                	.2byte	0x0
  f8:	ffff                	.2byte	0xffff
  fa:	ffff                	.2byte	0xffff
  fc:	7c010003          	lb	zero,1984(sp)
 100:	0d01                	.2byte	0xd01
 102:	0002                	.2byte	0x2
 104:	0028                	.2byte	0x28
 106:	0000                	.2byte	0x0
 108:	00f4                	.2byte	0xf4
 10a:	0000                	.2byte	0x0
 10c:	1044                	.2byte	0x1044
 10e:	0001                	.2byte	0x1
 110:	04bc                	.2byte	0x4bc
 112:	0000                	.2byte	0x0
 114:	0e48                	.2byte	0xe48
 116:	5810                	.2byte	0x5810
 118:	0389                	.2byte	0x389
 11a:	0492                	.2byte	0x492
 11c:	8150                	.2byte	0x8150
 11e:	8801                	.2byte	0x8801
 120:	0202                	.2byte	0x202
 122:	0a94                	.2byte	0xa94
 124:	48c1                	.2byte	0x48c1
 126:	48c8                	.2byte	0x48c8
 128:	44d2                	.2byte	0x44d2
 12a:	48c9                	.2byte	0x48c9
 12c:	000e                	.2byte	0xe
 12e:	0b44                	.2byte	0xb44
 130:	000c                	.2byte	0xc
 132:	0000                	.2byte	0x0
 134:	ffff                	.2byte	0xffff
 136:	ffff                	.2byte	0xffff
 138:	7c010003          	lb	zero,1984(sp)
 13c:	0d01                	.2byte	0xd01
 13e:	0002                	.2byte	0x2
 140:	000c                	.2byte	0xc
 142:	0000                	.2byte	0x0
 144:	0130                	.2byte	0x130
 146:	0000                	.2byte	0x0
 148:	1500                	.2byte	0x1500
 14a:	0001                	.2byte	0x1
 14c:	0070                	.2byte	0x70
 14e:	0000                	.2byte	0x0
 150:	000c                	.2byte	0xc
 152:	0000                	.2byte	0x0
 154:	ffff                	.2byte	0xffff
 156:	ffff                	.2byte	0xffff
 158:	7c010003          	lb	zero,1984(sp)
 15c:	0d01                	.2byte	0xd01
 15e:	0002                	.2byte	0x2
 160:	0024                	.2byte	0x24
 162:	0000                	.2byte	0x0
 164:	0150                	.2byte	0x150
 166:	0000                	.2byte	0x0
 168:	1570                	.2byte	0x1570
 16a:	0001                	.2byte	0x1
 16c:	0114                	.2byte	0x114
 16e:	0000                	.2byte	0x0
 170:	0e44                	.2byte	0xe44
 172:	4c10                	.2byte	0x4c10
 174:	0181                	.2byte	0x181
 176:	0288                	.2byte	0x288
 178:	0389                	.2byte	0x389
 17a:	5002                	.2byte	0x5002
 17c:	c10a                	.2byte	0xc10a
 17e:	c848                	.2byte	0xc848
 180:	c94c                	.2byte	0xc94c
 182:	0e44                	.2byte	0xe44
 184:	4400                	.2byte	0x4400
 186:	000c000b          	.4byte	0xc000b
 18a:	0000                	.2byte	0x0
 18c:	ffff                	.2byte	0xffff
 18e:	ffff                	.2byte	0xffff
 190:	7c010003          	lb	zero,1984(sp)
 194:	0d01                	.2byte	0xd01
 196:	0002                	.2byte	0x2
 198:	000c                	.2byte	0xc
 19a:	0000                	.2byte	0x0
 19c:	0188                	.2byte	0x188
 19e:	0000                	.2byte	0x0
 1a0:	1684                	.2byte	0x1684
 1a2:	0001                	.2byte	0x1
 1a4:	004c                	.2byte	0x4c
 1a6:	0000                	.2byte	0x0
 1a8:	000c                	.2byte	0xc
 1aa:	0000                	.2byte	0x0
 1ac:	ffff                	.2byte	0xffff
 1ae:	ffff                	.2byte	0xffff
 1b0:	7c010003          	lb	zero,1984(sp)
 1b4:	0d01                	.2byte	0xd01
 1b6:	0002                	.2byte	0x2
 1b8:	000c                	.2byte	0xc
 1ba:	0000                	.2byte	0x0
 1bc:	01a8                	.2byte	0x1a8
 1be:	0000                	.2byte	0x0
 1c0:	1ae0                	.2byte	0x1ae0
 1c2:	0001                	.2byte	0x1
 1c4:	0074                	.2byte	0x74
 1c6:	0000                	.2byte	0x0
 1c8:	000c                	.2byte	0xc
 1ca:	0000                	.2byte	0x0
 1cc:	ffff                	.2byte	0xffff
 1ce:	ffff                	.2byte	0xffff
 1d0:	7c010003          	lb	zero,1984(sp)
 1d4:	0d01                	.2byte	0xd01
 1d6:	0002                	.2byte	0x2
 1d8:	000c                	.2byte	0xc
 1da:	0000                	.2byte	0x0
 1dc:	01c8                	.2byte	0x1c8
 1de:	0000                	.2byte	0x0
 1e0:	1b54                	.2byte	0x1b54
 1e2:	0001                	.2byte	0x1
 1e4:	00dc                	.2byte	0xdc
 1e6:	0000                	.2byte	0x0
 1e8:	000c                	.2byte	0xc
 1ea:	0000                	.2byte	0x0
 1ec:	ffff                	.2byte	0xffff
 1ee:	ffff                	.2byte	0xffff
 1f0:	7c010003          	lb	zero,1984(sp)
 1f4:	0d01                	.2byte	0xd01
 1f6:	0002                	.2byte	0x2
 1f8:	000c                	.2byte	0xc
 1fa:	0000                	.2byte	0x0
 1fc:	01e8                	.2byte	0x1e8
 1fe:	0000                	.2byte	0x0
 200:	1c30                	.2byte	0x1c30
 202:	0001                	.2byte	0x1
 204:	0044                	.2byte	0x44
	...

Disassembly of section .debug_str:

00000000 <.debug_str>:
   0:	5744                	.2byte	0x5744
   2:	6e75                	.2byte	0x6e75
   4:	6f69                	.2byte	0x6f69
   6:	006e                	.2byte	0x6e
   8:	5f5f 6475 7669      	.byte	0x5f, 0x5f, 0x75, 0x64, 0x69, 0x76
   e:	6964                	.2byte	0x6964
  10:	6f630033          	.4byte	0x6f630033
  14:	706d                	.2byte	0x706d
  16:	656c                	.2byte	0x656c
  18:	2078                	.2byte	0x2078
  1a:	6c66                	.2byte	0x6c66
  1c:	0074616f          	jal	sp,46822 <__global_pointer$+0x32dda>
  20:	726f6873          	csrrsi	a6,mhpmevent6h,30
  24:	2074                	.2byte	0x2074
  26:	6e69                	.2byte	0x6e69
  28:	0074                	.2byte	0x74
  2a:	5f5f 3064 5f00      	.byte	0x5f, 0x5f, 0x64, 0x30, 0x00, 0x5f
  30:	645f 0031 5f5f      	.byte	0x5f, 0x64, 0x31, 0x00, 0x5f, 0x5f
  36:	6876                	.2byte	0x6876
  38:	5f00                	.2byte	0x5f00
  3a:	765f 006c 6f6c      	.byte	0x5f, 0x76, 0x6c, 0x00, 0x6c, 0x6f
  40:	676e                	.2byte	0x676e
  42:	6c20                	.2byte	0x6c20
  44:	20676e6f          	jal	t3,7624a <__global_pointer$+0x62802>
  48:	6e69                	.2byte	0x6e69
  4a:	0074                	.2byte	0x74
  4c:	6f6c                	.2byte	0x6f6c
  4e:	676e                	.2byte	0x676e
  50:	6c20                	.2byte	0x6c20
  52:	20676e6f          	jal	t3,76258 <__global_pointer$+0x62810>
  56:	6e75                	.2byte	0x6e75
  58:	6e676973          	csrrsi	s2,0x6e6,14
  5c:	6465                	.2byte	0x6465
  5e:	6920                	.2byte	0x6920
  60:	746e                	.2byte	0x746e
  62:	6800                	.2byte	0x6800
  64:	6769                	.2byte	0x6769
  66:	0068                	.2byte	0x68
  68:	5f5f 6c63 5f7a      	.byte	0x5f, 0x5f, 0x63, 0x6c, 0x7a, 0x5f
  6e:	6174                	.2byte	0x6174
  70:	0062                	.2byte	0x62
  72:	6e75                	.2byte	0x6e75
  74:	6e676973          	csrrsi	s2,0x6e6,14
  78:	6465                	.2byte	0x6465
  7a:	6320                	.2byte	0x6320
  7c:	6168                	.2byte	0x6168
  7e:	0072                	.2byte	0x72
  80:	5f5f 3078 5f00      	.byte	0x5f, 0x5f, 0x78, 0x30, 0x00, 0x5f
  86:	785f 0031 5f5f      	.byte	0x5f, 0x78, 0x31, 0x00, 0x5f, 0x5f
  8c:	3278                	.2byte	0x3278
  8e:	5f00                	.2byte	0x5f00
  90:	785f 0033 5155      	.byte	0x5f, 0x78, 0x33, 0x00, 0x55, 0x51
  96:	7449                	.2byte	0x7449
  98:	7079                	.2byte	0x7079
  9a:	0065                	.2byte	0x65
  9c:	5744                	.2byte	0x5744
  9e:	75727473          	csrrci	s0,0x757,4
  a2:	73007463          	bgeu	zero,a6,7ca <exit-0xf8ca>
  a6:	6f68                	.2byte	0x6f68
  a8:	7472                	.2byte	0x7472
  aa:	7520                	.2byte	0x7520
  ac:	736e                	.2byte	0x736e
  ae:	6769                	.2byte	0x6769
  b0:	656e                	.2byte	0x656e
  b2:	2064                	.2byte	0x2064
  b4:	6e69                	.2byte	0x6e69
  b6:	0074                	.2byte	0x74
  b8:	4455                	.2byte	0x4455
  ba:	7449                	.2byte	0x7449
  bc:	7079                	.2byte	0x7079
  be:	0065                	.2byte	0x65
  c0:	5f5f 3071 5f00      	.byte	0x5f, 0x5f, 0x71, 0x30, 0x00, 0x5f
  c6:	715f 0031 6f63      	.byte	0x5f, 0x71, 0x31, 0x00, 0x63, 0x6f
  cc:	706d                	.2byte	0x706d
  ce:	656c                	.2byte	0x656c
  d0:	2078                	.2byte	0x2078
  d2:	6f64                	.2byte	0x6f64
  d4:	6275                	.2byte	0x6275
  d6:	656c                	.2byte	0x656c
  d8:	5f00                	.2byte	0x5f00
  da:	785f 0072 5f5f      	.byte	0x5f, 0x78, 0x72, 0x00, 0x5f, 0x5f
  e0:	6475                	.2byte	0x6475
  e2:	7669                	.2byte	0x7669
  e4:	6f6d                	.2byte	0x6f6d
  e6:	6464                	.2byte	0x6464
  e8:	3469                	.2byte	0x3469
  ea:	6300                	.2byte	0x6300
  ec:	6c706d6f          	jal	s10,6fb2 <exit-0x90e2>
  f0:	7865                	.2byte	0x7865
  f2:	6c20                	.2byte	0x6c20
  f4:	20676e6f          	jal	t3,762fa <__global_pointer$+0x628b2>
  f8:	6f64                	.2byte	0x6f64
  fa:	6275                	.2byte	0x6275
  fc:	656c                	.2byte	0x656c
  fe:	5500                	.2byte	0x5500
 100:	79744953          	.4byte	0x79744953
 104:	6570                	.2byte	0x6570
 106:	5f00                	.2byte	0x5f00
 108:	725f 0030 5f5f      	.byte	0x5f, 0x72, 0x30, 0x00, 0x5f, 0x5f
 10e:	3172                	.2byte	0x3172
 110:	5f00                	.2byte	0x5f00
 112:	755f 0068 5f5f      	.byte	0x5f, 0x75, 0x68, 0x00, 0x5f, 0x5f
 118:	6c75                	.2byte	0x6c75
 11a:	4700                	.2byte	0x4700
 11c:	554e                	.2byte	0x554e
 11e:	4320                	.2byte	0x4320
 120:	3731                	.2byte	0x3731
 122:	3120                	.2byte	0x3120
 124:	2e32                	.2byte	0x2e32
 126:	2e31                	.2byte	0x2e31
 128:	2030                	.2byte	0x2030
 12a:	6d2d                	.2byte	0x6d2d
 12c:	646f6d63          	bltu	t5,t1,786 <exit-0xf90e>
 130:	6c65                	.2byte	0x6c65
 132:	6d3d                	.2byte	0x6d3d
 134:	6465                	.2byte	0x6465
 136:	6f6c                	.2byte	0x6f6c
 138:	6d2d2077          	.4byte	0x6d2d2077
 13c:	6261                	.2byte	0x6261
 13e:	3d69                	.2byte	0x3d69
 140:	6c69                	.2byte	0x6c69
 142:	3370                	.2byte	0x3370
 144:	2032                	.2byte	0x2032
 146:	6d2d                	.2byte	0x6d2d
 148:	646f6d63          	bltu	t5,t1,7a2 <exit-0xf8f2>
 14c:	6c65                	.2byte	0x6c65
 14e:	6d3d                	.2byte	0x6d3d
 150:	6465                	.2byte	0x6465
 152:	6f6c                	.2byte	0x6f6c
 154:	6d2d2077          	.4byte	0x6d2d2077
 158:	7574                	.2byte	0x7574
 15a:	656e                	.2byte	0x656e
 15c:	723d                	.2byte	0x723d
 15e:	656b636f          	jal	t1,b67b4 <__global_pointer$+0xa2d6c>
 162:	2074                	.2byte	0x2074
 164:	6d2d                	.2byte	0x6d2d
 166:	7369                	.2byte	0x7369
 168:	2d61                	.2byte	0x2d61
 16a:	63657073          	csrci	0x636,10
 16e:	323d                	.2byte	0x323d
 170:	322e                	.2byte	0x322e
 172:	2d20                	.2byte	0x2d20
 174:	616d                	.2byte	0x616d
 176:	6372                	.2byte	0x6372
 178:	3d68                	.2byte	0x3d68
 17a:	7672                	.2byte	0x7672
 17c:	6d693233          	.4byte	0x6d693233
 180:	2d20                	.2byte	0x2d20
 182:	4f2d2067          	.4byte	0x4f2d2067
 186:	4f2d2073          	csrs	0x4f2,s10
 18a:	2032                	.2byte	0x2032
 18c:	4f2d                	.2byte	0x4f2d
 18e:	662d2073          	csrs	0x662,s10
 192:	7562                	.2byte	0x7562
 194:	6c69                	.2byte	0x6c69
 196:	6964                	.2byte	0x6964
 198:	676e                	.2byte	0x676e
 19a:	6c2d                	.2byte	0x6c2d
 19c:	6269                	.2byte	0x6269
 19e:	20636367          	.4byte	0x20636367
 1a2:	662d                	.2byte	0x662d
 1a4:	6f6e                	.2byte	0x6f6e
 1a6:	732d                	.2byte	0x732d
 1a8:	6174                	.2byte	0x6174
 1aa:	702d6b63          	bltu	s10,sp,8c0 <exit-0xf7d4>
 1ae:	6f72                	.2byte	0x6f72
 1b0:	6574                	.2byte	0x6574
 1b2:	726f7463          	bgeu	t5,t1,8da <exit-0xf7ba>
 1b6:	2d20                	.2byte	0x2d20
 1b8:	6166                	.2byte	0x6166
 1ba:	636e7973          	csrrci	s2,0x636,28
 1be:	7268                	.2byte	0x7268
 1c0:	756f6e6f          	jal	t3,f6916 <__global_pointer$+0xe2ece>
 1c4:	6e752d73          	csrrs	s10,0x6e7,a0
 1c8:	646e6977          	.4byte	0x646e6977
 1cc:	742d                	.2byte	0x742d
 1ce:	6261                	.2byte	0x6261
 1d0:	656c                	.2byte	0x656c
 1d2:	662d2073          	csrs	0x662,s10
 1d6:	6976                	.2byte	0x6976
 1d8:	69626973          	csrrsi	s2,0x696,4
 1dc:	696c                	.2byte	0x696c
 1de:	7974                	.2byte	0x7974
 1e0:	683d                	.2byte	0x683d
 1e2:	6469                	.2byte	0x6469
 1e4:	6564                	.2byte	0x6564
 1e6:	006e                	.2byte	0x6e
 1e8:	465f 5f50 4150      	.byte	0x5f, 0x46, 0x50, 0x5f, 0x50, 0x41
 1ee:	525f4b43          	.4byte	0x525f4b43
 1f2:	5741                	.2byte	0x5741
 1f4:	315f 665f 6f6c      	.byte	0x5f, 0x31, 0x5f, 0x66, 0x6c, 0x6f
 1fa:	5f00                	.2byte	0x5f00
 1fc:	5046                	.2byte	0x5046
 1fe:	505f 4341 5f4b      	.byte	0x5f, 0x50, 0x41, 0x43, 0x4b, 0x5f
 204:	494d4553          	.4byte	0x494d4553
 208:	4152                	.2byte	0x4152
 20a:	5f545f57          	.4byte	0x5f545f57
 20e:	665f0073          	.4byte	0x665f0073
 212:	7865                	.2byte	0x7865
 214:	5f00                	.2byte	0x5f00
 216:	5046                	.2byte	0x5046
 218:	505f 4341 5f4b      	.byte	0x5f, 0x50, 0x41, 0x43, 0x4b, 0x5f
 21e:	494d4553          	.4byte	0x494d4553
 222:	4152                	.2byte	0x4152
 224:	5f545f57          	.4byte	0x5f545f57
 228:	465f0063          	beq	t5,t0,688 <exit-0xfa0c>
 22c:	5f50                	.2byte	0x5f50
 22e:	4150                	.2byte	0x4150
 230:	535f4b43          	.4byte	0x535f4b43
 234:	4d45                	.2byte	0x4d45
 236:	5249                	.2byte	0x5249
 238:	5741                	.2byte	0x5741
 23a:	545f 665f 5300      	.byte	0x5f, 0x54, 0x5f, 0x66, 0x00, 0x53
 240:	7446                	.2byte	0x7446
 242:	7079                	.2byte	0x7079
 244:	0065                	.2byte	0x65
 246:	6461                	.2byte	0x6461
 248:	5f64                	.2byte	0x5f64
 24a:	6f64                	.2byte	0x6f64
 24c:	656e                	.2byte	0x656e
 24e:	5f00                	.2byte	0x5f00
 250:	5046                	.2byte	0x5046
 252:	555f 504e 4341      	.byte	0x5f, 0x55, 0x4e, 0x50, 0x41, 0x43
 258:	41525f4b          	.4byte	0x41525f4b
 25c:	5f315f57          	.4byte	0x5f315f57
 260:	6c66                	.2byte	0x6c66
 262:	5f5f006f          	j	f1056 <__global_pointer$+0xdd60e>
 266:	6461                	.2byte	0x6461
 268:	7364                	.2byte	0x7364
 26a:	3366                	.2byte	0x3366
 26c:	7300                	.2byte	0x7300
 26e:	6769                	.2byte	0x6769
 270:	006e                	.2byte	0x6e
 272:	31627573          	csrrci	a0,0x316,4
 276:	7300                	.2byte	0x7300
 278:	6275                	.2byte	0x6275
 27a:	0032                	.2byte	0x32
 27c:	33627573          	csrrci	a0,mhpmevent22,4
 280:	5f00                	.2byte	0x5f00
 282:	5046                	.2byte	0x5046
 284:	505f 4341 5f4b      	.byte	0x5f, 0x50, 0x41, 0x43, 0x4b, 0x5f
 28a:	494d4553          	.4byte	0x494d4553
 28e:	4152                	.2byte	0x4152
 290:	5f545f57          	.4byte	0x5f545f57
 294:	0065                	.2byte	0x65
 296:	6f6e                	.2byte	0x6f6e
 298:	6d72                	.2byte	0x6d72
 29a:	6600                	.2byte	0x6600
 29c:	6172                	.2byte	0x6172
 29e:	465f0063          	beq	t5,t0,6fe <exit-0xf996>
 2a2:	5f50                	.2byte	0x5f50
 2a4:	4150                	.2byte	0x4150
 2a6:	535f4b43          	.4byte	0x535f4b43
 2aa:	4d45                	.2byte	0x4d45
 2ac:	5249                	.2byte	0x5249
 2ae:	5741                	.2byte	0x5741
 2b0:	695f 5f73 6974      	.byte	0x5f, 0x69, 0x73, 0x5f, 0x74, 0x69
 2b6:	796e                	.2byte	0x796e
 2b8:	5f00                	.2byte	0x5f00
 2ba:	5046                	.2byte	0x5046
 2bc:	415f 4444 495f      	.byte	0x5f, 0x41, 0x44, 0x44, 0x5f, 0x49
 2c2:	544e                	.2byte	0x544e
 2c4:	5245                	.2byte	0x5245
 2c6:	414e                	.2byte	0x414e
 2c8:	5f4c                	.2byte	0x5f4c
 2ca:	6964                	.2byte	0x6964
 2cc:	6666                	.2byte	0x6666
 2ce:	5f00                	.2byte	0x5f00
 2d0:	5046                	.2byte	0x5046
 2d2:	415f 4444 495f      	.byte	0x5f, 0x41, 0x44, 0x44, 0x5f, 0x49
 2d8:	544e                	.2byte	0x544e
 2da:	5245                	.2byte	0x5245
 2dc:	414e                	.2byte	0x414e
 2de:	5f4c                	.2byte	0x5f4c
 2e0:	6465                	.2byte	0x6465
 2e2:	6669                	.2byte	0x6669
 2e4:	0066                	.2byte	0x66
 2e6:	6962                	.2byte	0x6962
 2e8:	7374                	.2byte	0x7374
 2ea:	7300                	.2byte	0x7300
 2ec:	6275                	.2byte	0x6275
 2ee:	645f 6e6f 0065      	.byte	0x5f, 0x64, 0x6f, 0x6e, 0x65, 0x00
 2f4:	6461                	.2byte	0x6461
 2f6:	3164                	.2byte	0x3164
 2f8:	6100                	.2byte	0x6100
 2fa:	6464                	.2byte	0x6464
 2fc:	0032                	.2byte	0x32
 2fe:	6461                	.2byte	0x6461
 300:	3364                	.2byte	0x3364
 302:	5f00                	.2byte	0x5f00
 304:	5046                	.2byte	0x5046
 306:	555f 494e 4e4f      	.byte	0x5f, 0x55, 0x4e, 0x49, 0x4f, 0x4e
 30c:	535f 4700 554e      	.byte	0x5f, 0x53, 0x00, 0x47, 0x4e, 0x55
 312:	4320                	.2byte	0x4320
 314:	3731                	.2byte	0x3731
 316:	3120                	.2byte	0x3120
 318:	2e32                	.2byte	0x2e32
 31a:	2e31                	.2byte	0x2e31
 31c:	2030                	.2byte	0x2030
 31e:	6d2d                	.2byte	0x6d2d
 320:	646f6d63          	bltu	t5,t1,97a <exit-0xf71a>
 324:	6c65                	.2byte	0x6c65
 326:	6d3d                	.2byte	0x6d3d
 328:	6465                	.2byte	0x6465
 32a:	6f6c                	.2byte	0x6f6c
 32c:	6d2d2077          	.4byte	0x6d2d2077
 330:	6261                	.2byte	0x6261
 332:	3d69                	.2byte	0x3d69
 334:	6c69                	.2byte	0x6c69
 336:	3370                	.2byte	0x3370
 338:	2032                	.2byte	0x2032
 33a:	6d2d                	.2byte	0x6d2d
 33c:	646f6d63          	bltu	t5,t1,996 <exit-0xf6fe>
 340:	6c65                	.2byte	0x6c65
 342:	6d3d                	.2byte	0x6d3d
 344:	6465                	.2byte	0x6465
 346:	6f6c                	.2byte	0x6f6c
 348:	6d2d2077          	.4byte	0x6d2d2077
 34c:	7574                	.2byte	0x7574
 34e:	656e                	.2byte	0x656e
 350:	723d                	.2byte	0x723d
 352:	656b636f          	jal	t1,b69a8 <__global_pointer$+0xa2f60>
 356:	2074                	.2byte	0x2074
 358:	6d2d                	.2byte	0x6d2d
 35a:	7369                	.2byte	0x7369
 35c:	2d61                	.2byte	0x2d61
 35e:	63657073          	csrci	0x636,10
 362:	323d                	.2byte	0x323d
 364:	322e                	.2byte	0x322e
 366:	2d20                	.2byte	0x2d20
 368:	616d                	.2byte	0x616d
 36a:	6372                	.2byte	0x6372
 36c:	3d68                	.2byte	0x3d68
 36e:	7672                	.2byte	0x7672
 370:	6d693233          	.4byte	0x6d693233
 374:	2d20                	.2byte	0x2d20
 376:	4f2d2067          	.4byte	0x4f2d2067
 37a:	4f2d2073          	csrs	0x4f2,s10
 37e:	2032                	.2byte	0x2032
 380:	4f2d                	.2byte	0x4f2d
 382:	662d2073          	csrs	0x662,s10
 386:	7562                	.2byte	0x7562
 388:	6c69                	.2byte	0x6c69
 38a:	6964                	.2byte	0x6964
 38c:	676e                	.2byte	0x676e
 38e:	6c2d                	.2byte	0x6c2d
 390:	6269                	.2byte	0x6269
 392:	20636367          	.4byte	0x20636367
 396:	662d                	.2byte	0x662d
 398:	6f6e                	.2byte	0x6f6e
 39a:	732d                	.2byte	0x732d
 39c:	6174                	.2byte	0x6174
 39e:	702d6b63          	bltu	s10,sp,ab4 <exit-0xf5e0>
 3a2:	6f72                	.2byte	0x6f72
 3a4:	6574                	.2byte	0x6574
 3a6:	726f7463          	bgeu	t5,t1,ace <exit-0xf5c6>
 3aa:	2d20                	.2byte	0x2d20
 3ac:	7666                	.2byte	0x7666
 3ae:	7369                	.2byte	0x7369
 3b0:	6269                	.2byte	0x6269
 3b2:	6c69                	.2byte	0x6c69
 3b4:	7469                	.2byte	0x7469
 3b6:	3d79                	.2byte	0x3d79
 3b8:	6968                	.2byte	0x6968
 3ba:	6464                	.2byte	0x6464
 3bc:	6e65                	.2byte	0x6e65
 3be:	5f00                	.2byte	0x5f00
 3c0:	635f 7a6c 6973      	.byte	0x5f, 0x63, 0x6c, 0x7a, 0x73, 0x69
 3c6:	0032                	.2byte	0x32
 3c8:	665f 6d72 5f00      	.byte	0x5f, 0x66, 0x72, 0x6d, 0x00, 0x5f
 3ce:	5046                	.2byte	0x5046
 3d0:	505f 4341 5f4b      	.byte	0x5f, 0x50, 0x41, 0x43, 0x4b, 0x5f
 3d6:	4f4e4143          	.4byte	0x4f4e4143
 3da:	494e                	.2byte	0x494e
 3dc:	5f4c4143          	.4byte	0x5f4c4143
 3e0:	7369                	.2byte	0x7369
 3e2:	745f 6e69 0079      	.byte	0x5f, 0x74, 0x69, 0x6e, 0x79, 0x00
 3e8:	465f 5f50 4150      	.byte	0x5f, 0x46, 0x50, 0x5f, 0x50, 0x41
 3ee:	435f4b43          	.4byte	0x435f4b43
 3f2:	4e41                	.2byte	0x4e41
 3f4:	43494e4f          	.4byte	0x43494e4f
 3f8:	4c41                	.2byte	0x4c41
 3fa:	545f 665f 5f00      	.byte	0x5f, 0x54, 0x5f, 0x66, 0x00, 0x5f
 400:	645f 7669 6673      	.byte	0x5f, 0x64, 0x69, 0x76, 0x73, 0x66
 406:	465f0033          	.4byte	0x465f0033
 40a:	5f50                	.2byte	0x5f50
 40c:	4150                	.2byte	0x4150
 40e:	435f4b43          	.4byte	0x435f4b43
 412:	4e41                	.2byte	0x4e41
 414:	43494e4f          	.4byte	0x43494e4f
 418:	4c41                	.2byte	0x4c41
 41a:	545f 655f 5f00      	.byte	0x5f, 0x54, 0x5f, 0x65, 0x00, 0x5f
 420:	5046                	.2byte	0x5046
 422:	445f 5649 4d5f      	.byte	0x5f, 0x44, 0x49, 0x56, 0x5f, 0x4d
 428:	4145                	.2byte	0x4145
 42a:	5f54                	.2byte	0x5f54
 42c:	5f31                	.2byte	0x5f31
 42e:	6475                	.2byte	0x6475
 430:	7669                	.2byte	0x7669
 432:	6e5f 726f 5f6d      	.byte	0x5f, 0x6e, 0x6f, 0x72, 0x6d, 0x5f
 438:	686e                	.2byte	0x686e
 43a:	5f00                	.2byte	0x5f00
 43c:	5046                	.2byte	0x5046
 43e:	445f 5649 4d5f      	.byte	0x5f, 0x44, 0x49, 0x56, 0x5f, 0x4d
 444:	4145                	.2byte	0x4145
 446:	5f54                	.2byte	0x5f54
 448:	5f31                	.2byte	0x5f31
 44a:	6475                	.2byte	0x6475
 44c:	7669                	.2byte	0x7669
 44e:	6e5f 726f 5f6d      	.byte	0x5f, 0x6e, 0x6f, 0x72, 0x6d, 0x5f
 454:	0072                	.2byte	0x72
 456:	465f 5f50 4150      	.byte	0x5f, 0x46, 0x50, 0x5f, 0x50, 0x41
 45c:	435f4b43          	.4byte	0x435f4b43
 460:	4e41                	.2byte	0x4e41
 462:	43494e4f          	.4byte	0x43494e4f
 466:	4c41                	.2byte	0x4c41
 468:	545f 635f 5f00      	.byte	0x5f, 0x54, 0x5f, 0x63, 0x00, 0x5f
 46e:	5046                	.2byte	0x5046
 470:	505f 4341 5f4b      	.byte	0x5f, 0x50, 0x41, 0x43, 0x4b, 0x5f
 476:	4f4e4143          	.4byte	0x4f4e4143
 47a:	494e                	.2byte	0x494e
 47c:	5f4c4143          	.4byte	0x5f4c4143
 480:	5f54                	.2byte	0x5f54
 482:	465f0073          	.4byte	0x465f0073
 486:	5f50                	.2byte	0x5f50
 488:	4944                	.2byte	0x4944
 48a:	5f56                	.2byte	0x5f56
 48c:	454d                	.2byte	0x454d
 48e:	5441                	.2byte	0x5441
 490:	315f 755f 6964      	.byte	0x5f, 0x31, 0x5f, 0x75, 0x64, 0x69
 496:	5f76                	.2byte	0x5f76
 498:	6f6e                	.2byte	0x6f6e
 49a:	6d72                	.2byte	0x6d72
 49c:	715f 5f00 5046      	.byte	0x5f, 0x71, 0x00, 0x5f, 0x46, 0x50
 4a2:	445f 5649 4d5f      	.byte	0x5f, 0x44, 0x49, 0x56, 0x5f, 0x4d
 4a8:	4145                	.2byte	0x4145
 4aa:	5f54                	.2byte	0x5f54
 4ac:	5f31                	.2byte	0x5f31
 4ae:	6475                	.2byte	0x6475
 4b0:	7669                	.2byte	0x7669
 4b2:	6e5f 726f 5f6d      	.byte	0x5f, 0x6e, 0x6f, 0x72, 0x6d, 0x5f
 4b8:	0079                	.2byte	0x79
 4ba:	465f 5f50 4944      	.byte	0x5f, 0x46, 0x50, 0x5f, 0x44, 0x49
 4c0:	5f56                	.2byte	0x5f56
 4c2:	454d                	.2byte	0x454d
 4c4:	5441                	.2byte	0x5441
 4c6:	315f 755f 6964      	.byte	0x5f, 0x31, 0x5f, 0x75, 0x64, 0x69
 4cc:	5f76                	.2byte	0x5f76
 4ce:	6f6e                	.2byte	0x6f6e
 4d0:	6d72                	.2byte	0x6d72
 4d2:	6e5f 006c 465f      	.byte	0x5f, 0x6e, 0x6c, 0x00, 0x5f, 0x46
 4d8:	5f50                	.2byte	0x5f50
 4da:	4e55                	.2byte	0x4e55
 4dc:	4150                	.2byte	0x4150
 4de:	435f4b43          	.4byte	0x435f4b43
 4e2:	4e41                	.2byte	0x4e41
 4e4:	43494e4f          	.4byte	0x43494e4f
 4e8:	4c41                	.2byte	0x4c41
 4ea:	735f 6968 7466      	.byte	0x5f, 0x73, 0x68, 0x69, 0x66, 0x74
 4f0:	5f00                	.2byte	0x5f00
 4f2:	5046                	.2byte	0x5046
 4f4:	495f 5353 4749      	.byte	0x5f, 0x49, 0x53, 0x53, 0x49, 0x47
 4fa:	414e                	.2byte	0x414e
 4fc:	5f4e                	.2byte	0x5f4e
 4fe:	6572                	.2byte	0x6572
 500:	0074                	.2byte	0x74
 502:	5f5f 656c 6673      	.byte	0x5f, 0x5f, 0x6c, 0x65, 0x73, 0x66
 508:	0032                	.2byte	0x32
 50a:	465f 5f50 4d43      	.byte	0x5f, 0x46, 0x50, 0x5f, 0x43, 0x4d
 510:	5f50                	.2byte	0x5f50
 512:	7369                	.2byte	0x7369
 514:	7a5f 7265 5f6f      	.byte	0x5f, 0x7a, 0x65, 0x72, 0x6f, 0x5f
 51a:	0078                	.2byte	0x78
 51c:	5f5f 6367 5f63      	.byte	0x5f, 0x5f, 0x67, 0x63, 0x63, 0x5f
 522:	74504d43          	.4byte	0x74504d43
 526:	7079                	.2byte	0x7079
 528:	0065                	.2byte	0x65
 52a:	465f 5f50 4d43      	.byte	0x5f, 0x46, 0x50, 0x5f, 0x43, 0x4d
 530:	5f50                	.2byte	0x5f50
 532:	7369                	.2byte	0x7369
 534:	7a5f 7265 5f6f      	.byte	0x5f, 0x7a, 0x65, 0x72, 0x6f, 0x5f
 53a:	0079                	.2byte	0x79
 53c:	465f 5f50 554d      	.byte	0x5f, 0x46, 0x50, 0x5f, 0x4d, 0x55
 542:	5f4c                	.2byte	0x5f4c
 544:	454d                	.2byte	0x454d
 546:	5441                	.2byte	0x5441
 548:	315f 775f 6469      	.byte	0x5f, 0x31, 0x5f, 0x77, 0x69, 0x64
 54e:	5f65                	.2byte	0x5f65
 550:	5f5a                	.2byte	0x5f5a
 552:	3066                	.2byte	0x3066
 554:	5f00                	.2byte	0x5f00
 556:	5046                	.2byte	0x5046
 558:	4d5f 4c55 4d5f      	.byte	0x5f, 0x4d, 0x55, 0x4c, 0x5f, 0x4d
 55e:	4145                	.2byte	0x4145
 560:	5f54                	.2byte	0x5f54
 562:	5f31                	.2byte	0x5f31
 564:	65646977          	.4byte	0x65646977
 568:	5a5f 665f 0031      	.byte	0x5f, 0x5a, 0x5f, 0x66, 0x31, 0x00
 56e:	4855                	.2byte	0x4855
 570:	70797457          	.4byte	0x70797457
 574:	0065                	.2byte	0x65
 576:	5f5f 756d 736c      	.byte	0x5f, 0x5f, 0x6d, 0x75, 0x6c, 0x73
 57c:	3366                	.2byte	0x3366
 57e:	5f00                	.2byte	0x5f00
 580:	735f 6275 6673      	.byte	0x5f, 0x73, 0x75, 0x62, 0x73, 0x66
 586:	5f5f0033          	.4byte	0x5f5f0033
 58a:	6966                	.2byte	0x6966
 58c:	7378                	.2byte	0x7378
 58e:	7366                	.2byte	0x7366
 590:	0069                	.2byte	0x69
 592:	465f 5f50 4f54      	.byte	0x5f, 0x46, 0x50, 0x5f, 0x54, 0x4f
 598:	495f 544e 695f      	.byte	0x5f, 0x49, 0x4e, 0x54, 0x5f, 0x69
 59e:	656e                	.2byte	0x656e
 5a0:	6178                	.2byte	0x6178
 5a2:	5f007463          	bgeu	zero,a6,b8a <exit-0xf50a>
 5a6:	5046                	.2byte	0x5046
 5a8:	465f 4f52 5f4d      	.byte	0x5f, 0x46, 0x52, 0x4f, 0x4d, 0x5f
 5ae:	4e49                	.2byte	0x4e49
 5b0:	5f54                	.2byte	0x5f54
 5b2:	7275                	.2byte	0x7275
 5b4:	7000                	.2byte	0x7000
 5b6:	6361                	.2byte	0x6361
 5b8:	65735f6b          	.4byte	0x65735f6b
 5bc:	696d                	.2byte	0x696d
 5be:	6172                	.2byte	0x6172
 5c0:	5f5f0077          	.4byte	0x5f5f0077
 5c4:	6c66                	.2byte	0x6c66
 5c6:	7374616f          	jal	sp,474fc <__global_pointer$+0x33ab4>
 5ca:	7369                	.2byte	0x7369
 5cc:	0066                	.2byte	0x66
 5ce:	465f 5f50 5246      	.byte	0x5f, 0x46, 0x50, 0x5f, 0x46, 0x52
 5d4:	495f4d4f          	.4byte	0x495f4d4f
 5d8:	544e                	.2byte	0x544e
 5da:	6c5f 007a 5f5f      	.byte	0x5f, 0x6c, 0x7a, 0x00, 0x5f, 0x5f
 5e0:	7165                	.2byte	0x7165
 5e2:	00326673          	csrrsi	a2,fcsr,4
 5e6:	5f5f 6567 6673      	.byte	0x5f, 0x5f, 0x67, 0x65, 0x73, 0x66
 5ec:	0032                	.2byte	0x32
 5ee:	5f5f 6e75 726f      	.byte	0x5f, 0x5f, 0x75, 0x6e, 0x6f, 0x72
 5f4:	7364                	.2byte	0x7364
 5f6:	3266                	.2byte	0x3266
	...

Disassembly of section .debug_line_str:

00000000 <.debug_line_str>:
   0:	6d6f682f          	.4byte	0x6d6f682f
   4:	2f65                	.2byte	0x2f65
   6:	6365                	.2byte	0x6365
   8:	6c69                	.2byte	0x6c69
   a:	7361                	.2byte	0x7361
   c:	6e75                	.2byte	0x6e75
   e:	7369722f          	.4byte	0x7369722f
  12:	672d7663          	bgeu	s10,s2,67e <exit-0xfa16>
  16:	756e                	.2byte	0x756e
  18:	742d                	.2byte	0x742d
  1a:	636c6f6f          	jal	t5,c6650 <__global_pointer$+0xb2c08>
  1e:	6168                	.2byte	0x6168
  20:	6e69                	.2byte	0x6e69
  22:	6363672f          	.4byte	0x6363672f
  26:	62696c2f          	.4byte	0x62696c2f
  2a:	2f636367          	.4byte	0x2f636367
  2e:	696c                	.2byte	0x696c
  30:	6762                	.2byte	0x6762
  32:	2e326363          	bltu	tp,gp,318 <exit-0xfd7c>
  36:	682f0063          	beq	t5,sp,6b6 <exit-0xf9de>
  3a:	2f656d6f          	jal	s10,56330 <__global_pointer$+0x428e8>
  3e:	6365                	.2byte	0x6365
  40:	6c69                	.2byte	0x6c69
  42:	7361                	.2byte	0x7361
  44:	6e75                	.2byte	0x6e75
  46:	7369722f          	.4byte	0x7369722f
  4a:	672d7663          	bgeu	s10,s2,6b6 <exit-0xf9de>
  4e:	756e                	.2byte	0x756e
  50:	742d                	.2byte	0x742d
  52:	636c6f6f          	jal	t5,c6688 <__global_pointer$+0xb2c40>
  56:	6168                	.2byte	0x6168
  58:	6e69                	.2byte	0x6e69
  5a:	6975622f          	.4byte	0x6975622f
  5e:	646c                	.2byte	0x646c
  60:	672d                	.2byte	0x672d
  62:	6e2d6363          	bltu	s10,sp,748 <exit-0xf94c>
  66:	7765                	.2byte	0x7765
  68:	696c                	.2byte	0x696c
  6a:	2d62                	.2byte	0x2d62
  6c:	67617473          	csrrci	s0,0x676,2
  70:	3265                	.2byte	0x3265
  72:	7369722f          	.4byte	0x7369722f
  76:	34367663          	bgeu	a2,gp,3c2 <exit-0xfcd2>
  7a:	752d                	.2byte	0x752d
  7c:	6b6e                	.2byte	0x6b6e
  7e:	6f6e                	.2byte	0x6f6e
  80:	652d6e77          	.4byte	0x652d6e77
  84:	666c                	.2byte	0x666c
  86:	3376722f          	.4byte	0x3376722f
  8a:	6932                	.2byte	0x6932
  8c:	2f6d                	.2byte	0x2f6d
  8e:	6c69                	.2byte	0x6c69
  90:	3370                	.2byte	0x3370
  92:	2f32                	.2byte	0x2f32
  94:	696c                	.2byte	0x696c
  96:	6762                	.2byte	0x6762
  98:	2f006363          	bltu	zero,a6,37e <exit-0xfd16>
  9c:	6f68                	.2byte	0x6f68
  9e:	656d                	.2byte	0x656d
  a0:	6963652f          	.4byte	0x6963652f
  a4:	616c                	.2byte	0x616c
  a6:	2f6e7573          	csrrci	a0,0x2f6,28
  aa:	6972                	.2byte	0x6972
  ac:	2d766373          	csrrsi	t1,0x2d7,12
  b0:	2d756e67          	.4byte	0x2d756e67
  b4:	6f74                	.2byte	0x6f74
  b6:	68636c6f          	jal	s8,3673c <__global_pointer$+0x22cf4>
  ba:	6961                	.2byte	0x6961
  bc:	2f6e                	.2byte	0x2f6e
  be:	2f636367          	.4byte	0x2f636367
  c2:	696c                	.2byte	0x696c
  c4:	6762                	.2byte	0x6762
  c6:	6c006363          	bltu	zero,zero,78c <exit-0xf908>
  ca:	6269                	.2byte	0x6269
  cc:	32636367          	.4byte	0x32636367
  d0:	682e                	.2byte	0x682e
  d2:	2f00                	.2byte	0x2f00
  d4:	6f68                	.2byte	0x6f68
  d6:	656d                	.2byte	0x656d
  d8:	6963652f          	.4byte	0x6963652f
  dc:	616c                	.2byte	0x616c
  de:	2f6e7573          	csrrci	a0,0x2f6,28
  e2:	6972                	.2byte	0x6972
  e4:	2d766373          	csrrsi	t1,0x2d7,12
  e8:	2d756e67          	.4byte	0x2d756e67
  ec:	6f74                	.2byte	0x6f74
  ee:	68636c6f          	jal	s8,36774 <__global_pointer$+0x22d2c>
  f2:	6961                	.2byte	0x6961
  f4:	2f6e                	.2byte	0x2f6e
  f6:	2f636367          	.4byte	0x2f636367
  fa:	696c                	.2byte	0x696c
  fc:	6762                	.2byte	0x6762
  fe:	732f6363          	bltu	t5,s2,824 <exit-0xf870>
 102:	2d74666f          	jal	a2,46bd8 <__global_pointer$+0x33190>
 106:	7066                	.2byte	0x7066
 108:	6464612f          	.4byte	0x6464612f
 10c:	2e336673          	csrrsi	a2,0x2e3,6
 110:	682f0063          	beq	t5,sp,790 <exit-0xf904>
 114:	2f656d6f          	jal	s10,5640a <__global_pointer$+0x429c2>
 118:	6365                	.2byte	0x6365
 11a:	6c69                	.2byte	0x6c69
 11c:	7361                	.2byte	0x7361
 11e:	6e75                	.2byte	0x6e75
 120:	7369722f          	.4byte	0x7369722f
 124:	672d7663          	bgeu	s10,s2,790 <exit-0xf904>
 128:	756e                	.2byte	0x756e
 12a:	742d                	.2byte	0x742d
 12c:	636c6f6f          	jal	t5,c6762 <__global_pointer$+0xb2d1a>
 130:	6168                	.2byte	0x6168
 132:	6e69                	.2byte	0x6e69
 134:	6363672f          	.4byte	0x6363672f
 138:	62696c2f          	.4byte	0x62696c2f
 13c:	2f636367          	.4byte	0x2f636367
 140:	74666f73          	csrrsi	t5,0x746,12
 144:	662d                	.2byte	0x662d
 146:	0070                	.2byte	0x70
 148:	676e6973          	csrrsi	s2,0x676,28
 14c:	656c                	.2byte	0x656c
 14e:	682e                	.2byte	0x682e
 150:	2f00                	.2byte	0x2f00
 152:	6f68                	.2byte	0x6f68
 154:	656d                	.2byte	0x656d
 156:	6963652f          	.4byte	0x6963652f
 15a:	616c                	.2byte	0x616c
 15c:	2f6e7573          	csrrci	a0,0x2f6,28
 160:	6972                	.2byte	0x6972
 162:	2d766373          	csrrsi	t1,0x2d7,12
 166:	2d756e67          	.4byte	0x2d756e67
 16a:	6f74                	.2byte	0x6f74
 16c:	68636c6f          	jal	s8,367f2 <__global_pointer$+0x22daa>
 170:	6961                	.2byte	0x6961
 172:	2f6e                	.2byte	0x2f6e
 174:	2f636367          	.4byte	0x2f636367
 178:	696c                	.2byte	0x696c
 17a:	6762                	.2byte	0x6762
 17c:	732f6363          	bltu	t5,s2,8a2 <exit-0xf7f2>
 180:	2d74666f          	jal	a2,46c56 <__global_pointer$+0x3320e>
 184:	7066                	.2byte	0x7066
 186:	7669642f          	.4byte	0x7669642f
 18a:	2e336673          	csrrsi	a2,0x2e3,6
 18e:	682f0063          	beq	t5,sp,80e <exit-0xf886>
 192:	2f656d6f          	jal	s10,56488 <__global_pointer$+0x42a40>
 196:	6365                	.2byte	0x6365
 198:	6c69                	.2byte	0x6c69
 19a:	7361                	.2byte	0x7361
 19c:	6e75                	.2byte	0x6e75
 19e:	7369722f          	.4byte	0x7369722f
 1a2:	672d7663          	bgeu	s10,s2,80e <exit-0xf886>
 1a6:	756e                	.2byte	0x756e
 1a8:	742d                	.2byte	0x742d
 1aa:	636c6f6f          	jal	t5,c67e0 <__global_pointer$+0xb2d98>
 1ae:	6168                	.2byte	0x6168
 1b0:	6e69                	.2byte	0x6e69
 1b2:	6363672f          	.4byte	0x6363672f
 1b6:	62696c2f          	.4byte	0x62696c2f
 1ba:	2f636367          	.4byte	0x2f636367
 1be:	74666f73          	csrrsi	t5,0x746,12
 1c2:	662d                	.2byte	0x662d
 1c4:	2f70                	.2byte	0x2f70
 1c6:	656c                	.2byte	0x656c
 1c8:	2e326673          	csrrsi	a2,0x2e3,4
 1cc:	002e0063          	beq	t3,sp,1cc <exit-0xfec8>
 1d0:	2d706673          	csrrsi	a2,0x2d7,0
 1d4:	616d                	.2byte	0x616d
 1d6:	6e696863          	bltu	s2,t1,8c6 <exit-0xf7ce>
 1da:	2e65                	.2byte	0x2e65
 1dc:	0068                	.2byte	0x68
 1de:	6d6f682f          	.4byte	0x6d6f682f
 1e2:	2f65                	.2byte	0x2f65
 1e4:	6365                	.2byte	0x6365
 1e6:	6c69                	.2byte	0x6c69
 1e8:	7361                	.2byte	0x7361
 1ea:	6e75                	.2byte	0x6e75
 1ec:	7369722f          	.4byte	0x7369722f
 1f0:	672d7663          	bgeu	s10,s2,85c <exit-0xf838>
 1f4:	756e                	.2byte	0x756e
 1f6:	742d                	.2byte	0x742d
 1f8:	636c6f6f          	jal	t5,c682e <__global_pointer$+0xb2de6>
 1fc:	6168                	.2byte	0x6168
 1fe:	6e69                	.2byte	0x6e69
 200:	6363672f          	.4byte	0x6363672f
 204:	62696c2f          	.4byte	0x62696c2f
 208:	2f636367          	.4byte	0x2f636367
 20c:	74666f73          	csrrsi	t5,0x746,12
 210:	662d                	.2byte	0x662d
 212:	2f70                	.2byte	0x2f70
 214:	756d                	.2byte	0x756d
 216:	736c                	.2byte	0x736c
 218:	3366                	.2byte	0x3366
 21a:	632e                	.2byte	0x632e
 21c:	7300                	.2byte	0x7300
 21e:	2d74666f          	jal	a2,46cf4 <__global_pointer$+0x332ac>
 222:	7066                	.2byte	0x7066
 224:	682e                	.2byte	0x682e
 226:	2f00                	.2byte	0x2f00
 228:	6f68                	.2byte	0x6f68
 22a:	656d                	.2byte	0x656d
 22c:	6963652f          	.4byte	0x6963652f
 230:	616c                	.2byte	0x616c
 232:	2f6e7573          	csrrci	a0,0x2f6,28
 236:	6972                	.2byte	0x6972
 238:	2d766373          	csrrsi	t1,0x2d7,12
 23c:	2d756e67          	.4byte	0x2d756e67
 240:	6f74                	.2byte	0x6f74
 242:	68636c6f          	jal	s8,368c8 <__global_pointer$+0x22e80>
 246:	6961                	.2byte	0x6961
 248:	2f6e                	.2byte	0x2f6e
 24a:	2f636367          	.4byte	0x2f636367
 24e:	696c                	.2byte	0x696c
 250:	6762                	.2byte	0x6762
 252:	732f6363          	bltu	t5,s2,978 <exit-0xf71c>
 256:	2d74666f          	jal	a2,46d2c <__global_pointer$+0x332e4>
 25a:	7066                	.2byte	0x7066
 25c:	6275732f          	.4byte	0x6275732f
 260:	2e336673          	csrrsi	a2,0x2e3,6
 264:	682f0063          	beq	t5,sp,8e4 <exit-0xf7b0>
 268:	2f656d6f          	jal	s10,5655e <__global_pointer$+0x42b16>
 26c:	6365                	.2byte	0x6365
 26e:	6c69                	.2byte	0x6c69
 270:	7361                	.2byte	0x7361
 272:	6e75                	.2byte	0x6e75
 274:	7369722f          	.4byte	0x7369722f
 278:	672d7663          	bgeu	s10,s2,8e4 <exit-0xf7b0>
 27c:	756e                	.2byte	0x756e
 27e:	742d                	.2byte	0x742d
 280:	636c6f6f          	jal	t5,c68b6 <__global_pointer$+0xb2e6e>
 284:	6168                	.2byte	0x6168
 286:	6e69                	.2byte	0x6e69
 288:	6363672f          	.4byte	0x6363672f
 28c:	62696c2f          	.4byte	0x62696c2f
 290:	2f636367          	.4byte	0x2f636367
 294:	74666f73          	csrrsi	t5,0x746,12
 298:	662d                	.2byte	0x662d
 29a:	2f70                	.2byte	0x2f70
 29c:	6966                	.2byte	0x6966
 29e:	7378                	.2byte	0x7378
 2a0:	7366                	.2byte	0x7366
 2a2:	2e69                	.2byte	0x2e69
 2a4:	682f0063          	beq	t5,sp,924 <exit-0xf770>
 2a8:	2f656d6f          	jal	s10,5659e <__global_pointer$+0x42b56>
 2ac:	6365                	.2byte	0x6365
 2ae:	6c69                	.2byte	0x6c69
 2b0:	7361                	.2byte	0x7361
 2b2:	6e75                	.2byte	0x6e75
 2b4:	7369722f          	.4byte	0x7369722f
 2b8:	672d7663          	bgeu	s10,s2,924 <exit-0xf770>
 2bc:	756e                	.2byte	0x756e
 2be:	742d                	.2byte	0x742d
 2c0:	636c6f6f          	jal	t5,c68f6 <__global_pointer$+0xb2eae>
 2c4:	6168                	.2byte	0x6168
 2c6:	6e69                	.2byte	0x6e69
 2c8:	6363672f          	.4byte	0x6363672f
 2cc:	62696c2f          	.4byte	0x62696c2f
 2d0:	2f636367          	.4byte	0x2f636367
 2d4:	74666f73          	csrrsi	t5,0x746,12
 2d8:	662d                	.2byte	0x662d
 2da:	2f70                	.2byte	0x2f70
 2dc:	6c66                	.2byte	0x6c66
 2de:	7374616f          	jal	sp,47214 <__global_pointer$+0x337cc>
 2e2:	7369                	.2byte	0x7369
 2e4:	2e66                	.2byte	0x2e66
 2e6:	682f0063          	beq	t5,sp,966 <exit-0xf72e>
 2ea:	2f656d6f          	jal	s10,565e0 <__global_pointer$+0x42b98>
 2ee:	6365                	.2byte	0x6365
 2f0:	6c69                	.2byte	0x6c69
 2f2:	7361                	.2byte	0x7361
 2f4:	6e75                	.2byte	0x6e75
 2f6:	7369722f          	.4byte	0x7369722f
 2fa:	672d7663          	bgeu	s10,s2,966 <exit-0xf72e>
 2fe:	756e                	.2byte	0x756e
 300:	742d                	.2byte	0x742d
 302:	636c6f6f          	jal	t5,c6938 <__global_pointer$+0xb2ef0>
 306:	6168                	.2byte	0x6168
 308:	6e69                	.2byte	0x6e69
 30a:	6363672f          	.4byte	0x6363672f
 30e:	62696c2f          	.4byte	0x62696c2f
 312:	2f636367          	.4byte	0x2f636367
 316:	74666f73          	csrrsi	t5,0x746,12
 31a:	662d                	.2byte	0x662d
 31c:	2f70                	.2byte	0x2f70
 31e:	7165                	.2byte	0x7165
 320:	2e326673          	csrrsi	a2,0x2e3,4
 324:	682f0063          	beq	t5,sp,9a4 <exit-0xf6f0>
 328:	2f656d6f          	jal	s10,5661e <__global_pointer$+0x42bd6>
 32c:	6365                	.2byte	0x6365
 32e:	6c69                	.2byte	0x6c69
 330:	7361                	.2byte	0x7361
 332:	6e75                	.2byte	0x6e75
 334:	7369722f          	.4byte	0x7369722f
 338:	672d7663          	bgeu	s10,s2,9a4 <exit-0xf6f0>
 33c:	756e                	.2byte	0x756e
 33e:	742d                	.2byte	0x742d
 340:	636c6f6f          	jal	t5,c6976 <__global_pointer$+0xb2f2e>
 344:	6168                	.2byte	0x6168
 346:	6e69                	.2byte	0x6e69
 348:	6363672f          	.4byte	0x6363672f
 34c:	62696c2f          	.4byte	0x62696c2f
 350:	2f636367          	.4byte	0x2f636367
 354:	74666f73          	csrrsi	t5,0x746,12
 358:	662d                	.2byte	0x662d
 35a:	2f70                	.2byte	0x2f70
 35c:	66736567          	.4byte	0x66736567
 360:	2e32                	.2byte	0x2e32
 362:	682f0063          	beq	t5,sp,9e2 <exit-0xf6b2>
 366:	2f656d6f          	jal	s10,5665c <__global_pointer$+0x42c14>
 36a:	6365                	.2byte	0x6365
 36c:	6c69                	.2byte	0x6c69
 36e:	7361                	.2byte	0x7361
 370:	6e75                	.2byte	0x6e75
 372:	7369722f          	.4byte	0x7369722f
 376:	672d7663          	bgeu	s10,s2,9e2 <exit-0xf6b2>
 37a:	756e                	.2byte	0x756e
 37c:	742d                	.2byte	0x742d
 37e:	636c6f6f          	jal	t5,c69b4 <__global_pointer$+0xb2f6c>
 382:	6168                	.2byte	0x6168
 384:	6e69                	.2byte	0x6e69
 386:	6363672f          	.4byte	0x6363672f
 38a:	62696c2f          	.4byte	0x62696c2f
 38e:	2f636367          	.4byte	0x2f636367
 392:	74666f73          	csrrsi	t5,0x746,12
 396:	662d                	.2byte	0x662d
 398:	2f70                	.2byte	0x2f70
 39a:	6e75                	.2byte	0x6e75
 39c:	7364726f          	jal	tp,47ad2 <__global_pointer$+0x3408a>
 3a0:	3266                	.2byte	0x3266
 3a2:	632e                	.2byte	0x632e
	...

Disassembly of section .debug_loclists:

00000000 <.debug_loclists>:
       0:	0a48                	.2byte	0xa48
       2:	0000                	.2byte	0x0
       4:	0005                	.2byte	0x5
       6:	0004                	.2byte	0x4
       8:	0000                	.2byte	0x0
       a:	0000                	.2byte	0x0
       c:	00000007          	.4byte	0x7
      10:	0000                	.2byte	0x0
      12:	0000                	.2byte	0x0
      14:	0600                	.2byte	0x600
      16:	935a                	.2byte	0x935a
      18:	5b04                	.2byte	0x5b04
      1a:	00070493          	mv	s1,a4
      1e:	0000                	.2byte	0x0
      20:	0000                	.2byte	0x0
      22:	0000                	.2byte	0x0
      24:	0600                	.2byte	0x600
      26:	0aa503a3          	sb	a0,167(a0)
      2a:	9f26                	.2byte	0x9f26
      2c:	00000007          	.4byte	0x7
      30:	0000                	.2byte	0x0
      32:	0000                	.2byte	0x0
      34:	0600                	.2byte	0x600
      36:	935a                	.2byte	0x935a
      38:	5b04                	.2byte	0x5b04
      3a:	00070493          	mv	s1,a4
      3e:	0000                	.2byte	0x0
      40:	0000                	.2byte	0x0
      42:	0000                	.2byte	0x0
      44:	0600                	.2byte	0x600
      46:	0aa503a3          	sb	a0,167(a0)
      4a:	9f26                	.2byte	0x9f26
      4c:	00000007          	.4byte	0x7
      50:	0000                	.2byte	0x0
      52:	0000                	.2byte	0x0
      54:	0600                	.2byte	0x600
      56:	935a                	.2byte	0x935a
      58:	5b04                	.2byte	0x5b04
      5a:	00070493          	mv	s1,a4
      5e:	0000                	.2byte	0x0
      60:	0000                	.2byte	0x0
      62:	0000                	.2byte	0x0
      64:	0600                	.2byte	0x600
      66:	0aa503a3          	sb	a0,167(a0)
      6a:	9f26                	.2byte	0x9f26
      6c:	00000007          	.4byte	0x7
      70:	0000                	.2byte	0x0
      72:	0000                	.2byte	0x0
      74:	0600                	.2byte	0x600
      76:	935a                	.2byte	0x935a
      78:	5b04                	.2byte	0x5b04
      7a:	00070493          	mv	s1,a4
      7e:	0000                	.2byte	0x0
      80:	0000                	.2byte	0x0
      82:	0000                	.2byte	0x0
      84:	0600                	.2byte	0x600
      86:	0aa503a3          	sb	a0,167(a0)
      8a:	9f26                	.2byte	0x9f26
      8c:	00000007          	.4byte	0x7
      90:	0000                	.2byte	0x0
      92:	0000                	.2byte	0x0
      94:	0600                	.2byte	0x600
      96:	935a                	.2byte	0x935a
      98:	5b04                	.2byte	0x5b04
      9a:	00070493          	mv	s1,a4
      9e:	0000                	.2byte	0x0
      a0:	0000                	.2byte	0x0
      a2:	0000                	.2byte	0x0
      a4:	0600                	.2byte	0x600
      a6:	0aa503a3          	sb	a0,167(a0)
      aa:	9f26                	.2byte	0x9f26
      ac:	00000007          	.4byte	0x7
      b0:	0000                	.2byte	0x0
      b2:	0000                	.2byte	0x0
      b4:	0600                	.2byte	0x600
      b6:	935a                	.2byte	0x935a
      b8:	5b04                	.2byte	0x5b04
      ba:	00070493          	mv	s1,a4
      be:	0000                	.2byte	0x0
      c0:	0000                	.2byte	0x0
      c2:	0000                	.2byte	0x0
      c4:	0600                	.2byte	0x600
      c6:	0aa503a3          	sb	a0,167(a0)
      ca:	9f26                	.2byte	0x9f26
      cc:	00000007          	.4byte	0x7
      d0:	0000                	.2byte	0x0
      d2:	0000                	.2byte	0x0
      d4:	0600                	.2byte	0x600
      d6:	935a                	.2byte	0x935a
      d8:	5b04                	.2byte	0x5b04
      da:	00070493          	mv	s1,a4
      de:	0000                	.2byte	0x0
      e0:	0000                	.2byte	0x0
      e2:	0000                	.2byte	0x0
      e4:	0600                	.2byte	0x600
      e6:	0aa503a3          	sb	a0,167(a0)
      ea:	9f26                	.2byte	0x9f26
      ec:	0700                	.2byte	0x700
	...
      f6:	5c06                	.2byte	0x5c06
      f8:	935d0493          	addi	s1,s10,-1739
      fc:	0704                	.2byte	0x704
	...
     106:	a306                	.2byte	0xa306
     108:	260ca503          	lw	a0,608(s9)
     10c:	079f 0000 0000      	.byte	0x9f, 0x07, 0x00, 0x00, 0x00, 0x00
     112:	0000                	.2byte	0x0
     114:	0000                	.2byte	0x0
     116:	5c06                	.2byte	0x5c06
     118:	935d0493          	addi	s1,s10,-1739
     11c:	0704                	.2byte	0x704
	...
     126:	a306                	.2byte	0xa306
     128:	260ca503          	lw	a0,608(s9)
     12c:	079f 0000 0000      	.byte	0x9f, 0x07, 0x00, 0x00, 0x00, 0x00
     132:	0000                	.2byte	0x0
     134:	0000                	.2byte	0x0
     136:	5c06                	.2byte	0x5c06
     138:	935d0493          	addi	s1,s10,-1739
     13c:	0704                	.2byte	0x704
	...
     146:	a306                	.2byte	0xa306
     148:	260ca503          	lw	a0,608(s9)
     14c:	079f 0000 0000      	.byte	0x9f, 0x07, 0x00, 0x00, 0x00, 0x00
     152:	0000                	.2byte	0x0
     154:	0000                	.2byte	0x0
     156:	5c06                	.2byte	0x5c06
     158:	935d0493          	addi	s1,s10,-1739
     15c:	0704                	.2byte	0x704
	...
     166:	a306                	.2byte	0xa306
     168:	260ca503          	lw	a0,608(s9)
     16c:	079f 0000 0000      	.byte	0x9f, 0x07, 0x00, 0x00, 0x00, 0x00
     172:	0000                	.2byte	0x0
     174:	0000                	.2byte	0x0
     176:	5c06                	.2byte	0x5c06
     178:	935d0493          	addi	s1,s10,-1739
     17c:	0004                	.2byte	0x4
     17e:	00000007          	.4byte	0x7
     182:	0000                	.2byte	0x0
     184:	0000                	.2byte	0x0
     186:	0200                	.2byte	0x200
     188:	9f30                	.2byte	0x9f30
     18a:	00000007          	.4byte	0x7
     18e:	0000                	.2byte	0x0
     190:	0000                	.2byte	0x0
     192:	0200                	.2byte	0x200
     194:	9f30                	.2byte	0x9f30
     196:	0700                	.2byte	0x700
	...
     1a0:	5c06                	.2byte	0x5c06
     1a2:	935d0493          	addi	s1,s10,-1739
     1a6:	0704                	.2byte	0x704
	...
     1b0:	5c06                	.2byte	0x5c06
     1b2:	935d0493          	addi	s1,s10,-1739
     1b6:	0704                	.2byte	0x704
	...
     1c0:	5c06                	.2byte	0x5c06
     1c2:	935d0493          	addi	s1,s10,-1739
     1c6:	0704                	.2byte	0x704
	...
     1d0:	5c06                	.2byte	0x5c06
     1d2:	935d0493          	addi	s1,s10,-1739
     1d6:	0004                	.2byte	0x4
     1d8:	00000007          	.4byte	0x7
     1dc:	0000                	.2byte	0x0
     1de:	0000                	.2byte	0x0
     1e0:	0600                	.2byte	0x600
     1e2:	935a                	.2byte	0x935a
     1e4:	5b04                	.2byte	0x5b04
     1e6:	00070493          	mv	s1,a4
     1ea:	0000                	.2byte	0x0
     1ec:	0000                	.2byte	0x0
     1ee:	0000                	.2byte	0x0
     1f0:	0600                	.2byte	0x600
     1f2:	935a                	.2byte	0x935a
     1f4:	5604                	.2byte	0x5604
     1f6:	00070493          	mv	s1,a4
     1fa:	0000                	.2byte	0x0
     1fc:	0000                	.2byte	0x0
     1fe:	0000                	.2byte	0x0
     200:	0600                	.2byte	0x600
     202:	9360                	.2byte	0x9360
     204:	5604                	.2byte	0x5604
     206:	00070493          	mv	s1,a4
     20a:	0000                	.2byte	0x0
     20c:	0000                	.2byte	0x0
     20e:	0000                	.2byte	0x0
     210:	0600                	.2byte	0x600
     212:	9361                	.2byte	0x9361
     214:	5604                	.2byte	0x5604
     216:	00070493          	mv	s1,a4
     21a:	0000                	.2byte	0x0
     21c:	0000                	.2byte	0x0
     21e:	0000                	.2byte	0x0
     220:	0600                	.2byte	0x600
     222:	935a                	.2byte	0x935a
     224:	5604                	.2byte	0x5604
     226:	00070493          	mv	s1,a4
     22a:	0000                	.2byte	0x0
     22c:	0000                	.2byte	0x0
     22e:	0000                	.2byte	0x0
     230:	0600                	.2byte	0x600
     232:	9360                	.2byte	0x9360
     234:	5604                	.2byte	0x5604
     236:	00070493          	mv	s1,a4
     23a:	0000                	.2byte	0x0
     23c:	0000                	.2byte	0x0
     23e:	0000                	.2byte	0x0
     240:	0600                	.2byte	0x600
     242:	935a                	.2byte	0x935a
     244:	5604                	.2byte	0x5604
     246:	00070493          	mv	s1,a4
     24a:	0000                	.2byte	0x0
     24c:	0000                	.2byte	0x0
     24e:	0000                	.2byte	0x0
     250:	0600                	.2byte	0x600
     252:	935a                	.2byte	0x935a
     254:	5604                	.2byte	0x5604
     256:	00070493          	mv	s1,a4
     25a:	0000                	.2byte	0x0
     25c:	0000                	.2byte	0x0
     25e:	0000                	.2byte	0x0
     260:	0600                	.2byte	0x600
     262:	9360                	.2byte	0x9360
     264:	5604                	.2byte	0x5604
     266:	00070493          	mv	s1,a4
     26a:	0000                	.2byte	0x0
     26c:	0000                	.2byte	0x0
     26e:	0000                	.2byte	0x0
     270:	0600                	.2byte	0x600
     272:	935a                	.2byte	0x935a
     274:	5604                	.2byte	0x5604
     276:	00070493          	mv	s1,a4
     27a:	0000                	.2byte	0x0
     27c:	0000                	.2byte	0x0
     27e:	0000                	.2byte	0x0
     280:	0600                	.2byte	0x600
     282:	9360                	.2byte	0x9360
     284:	5604                	.2byte	0x5604
     286:	00070493          	mv	s1,a4
     28a:	0000                	.2byte	0x0
     28c:	0000                	.2byte	0x0
     28e:	0000                	.2byte	0x0
     290:	0600                	.2byte	0x600
     292:	935a                	.2byte	0x935a
     294:	5604                	.2byte	0x5604
     296:	00070493          	mv	s1,a4
     29a:	0000                	.2byte	0x0
     29c:	0000                	.2byte	0x0
     29e:	0000                	.2byte	0x0
     2a0:	0600                	.2byte	0x600
     2a2:	935a                	.2byte	0x935a
     2a4:	5604                	.2byte	0x5604
     2a6:	00070493          	mv	s1,a4
     2aa:	0000                	.2byte	0x0
     2ac:	0000                	.2byte	0x0
     2ae:	0000                	.2byte	0x0
     2b0:	0600                	.2byte	0x600
     2b2:	9360                	.2byte	0x9360
     2b4:	5604                	.2byte	0x5604
     2b6:	07000493          	li	s1,112
	...
     2c2:	5c01                	.2byte	0x5c01
     2c4:	00000007          	.4byte	0x7
     2c8:	0000                	.2byte	0x0
     2ca:	0000                	.2byte	0x0
     2cc:	0900                	.2byte	0x900
     2ce:	007c                	.2byte	0x7c
     2d0:	ff08007b          	.4byte	0xff08007b
     2d4:	241a                	.2byte	0x241a
     2d6:	079f 0000 0000      	.byte	0x9f, 0x07, 0x00, 0x00, 0x00, 0x00
     2dc:	0000                	.2byte	0x0
     2de:	0000                	.2byte	0x0
     2e0:	5e01                	.2byte	0x5e01
     2e2:	00000007          	.4byte	0x7
     2e6:	0000                	.2byte	0x0
     2e8:	0000                	.2byte	0x0
     2ea:	0100                	.2byte	0x100
     2ec:	075c                	.2byte	0x75c
	...
     2f6:	5e01                	.2byte	0x5e01
     2f8:	00000007          	.4byte	0x7
     2fc:	0000                	.2byte	0x0
     2fe:	0000                	.2byte	0x0
     300:	0100                	.2byte	0x100
     302:	075c                	.2byte	0x75c
	...
     30c:	5e01                	.2byte	0x5e01
     30e:	00000007          	.4byte	0x7
     312:	0000                	.2byte	0x0
     314:	0000                	.2byte	0x0
     316:	0100                	.2byte	0x100
     318:	075c                	.2byte	0x75c
	...
     322:	5c01                	.2byte	0x5c01
     324:	0700                	.2byte	0x700
	...
     32e:	5d01                	.2byte	0x5d01
     330:	00000007          	.4byte	0x7
     334:	0000                	.2byte	0x0
     336:	0000                	.2byte	0x0
     338:	0100                	.2byte	0x100
     33a:	075d                	.2byte	0x75d
	...
     344:	5d01                	.2byte	0x5d01
     346:	00000007          	.4byte	0x7
     34a:	0000                	.2byte	0x0
     34c:	0000                	.2byte	0x0
     34e:	0100                	.2byte	0x100
     350:	075d                	.2byte	0x75d
	...
     35a:	5d01                	.2byte	0x5d01
     35c:	0700                	.2byte	0x700
	...
     366:	5a01                	.2byte	0x5a01
     368:	00000007          	.4byte	0x7
     36c:	0000                	.2byte	0x0
     36e:	0000                	.2byte	0x0
     370:	0100                	.2byte	0x100
     372:	0760                	.2byte	0x760
	...
     37c:	5a01                	.2byte	0x5a01
     37e:	00000007          	.4byte	0x7
     382:	0000                	.2byte	0x0
     384:	0000                	.2byte	0x0
     386:	0100                	.2byte	0x100
     388:	0760                	.2byte	0x760
	...
     392:	5a01                	.2byte	0x5a01
     394:	00000007          	.4byte	0x7
     398:	0000                	.2byte	0x0
     39a:	0000                	.2byte	0x0
     39c:	0100                	.2byte	0x100
     39e:	0760                	.2byte	0x760
	...
     3a8:	5a01                	.2byte	0x5a01
     3aa:	00000007          	.4byte	0x7
     3ae:	0000                	.2byte	0x0
     3b0:	0000                	.2byte	0x0
     3b2:	0100                	.2byte	0x100
     3b4:	0760                	.2byte	0x760
	...
     3be:	5a01                	.2byte	0x5a01
     3c0:	00000007          	.4byte	0x7
     3c4:	0000                	.2byte	0x0
     3c6:	0000                	.2byte	0x0
     3c8:	0100                	.2byte	0x100
     3ca:	0760                	.2byte	0x760
	...
     3d4:	5a01                	.2byte	0x5a01
     3d6:	00000007          	.4byte	0x7
     3da:	0000                	.2byte	0x0
     3dc:	0000                	.2byte	0x0
     3de:	0600                	.2byte	0x600
     3e0:	007a                	.2byte	0x7a
     3e2:	9f24007b          	.4byte	0x9f24007b
     3e6:	00000007          	.4byte	0x7
     3ea:	0000                	.2byte	0x0
     3ec:	0000                	.2byte	0x0
     3ee:	0600                	.2byte	0x600
     3f0:	0081                	.2byte	0x81
     3f2:	9f24007b          	.4byte	0x9f24007b
     3f6:	00000007          	.4byte	0x7
     3fa:	0000                	.2byte	0x0
     3fc:	0000                	.2byte	0x0
     3fe:	0100                	.2byte	0x100
     400:	075a                	.2byte	0x75a
	...
     40a:	6001                	.2byte	0x6001
     40c:	0700                	.2byte	0x700
	...
     416:	5b01                	.2byte	0x5b01
     418:	00000007          	.4byte	0x7
     41c:	0000                	.2byte	0x0
     41e:	0000                	.2byte	0x0
     420:	0100                	.2byte	0x100
     422:	0756                	.2byte	0x756
	...
     42c:	5f01                	.2byte	0x5f01
     42e:	00000007          	.4byte	0x7
     432:	0000                	.2byte	0x0
     434:	0000                	.2byte	0x0
     436:	0100                	.2byte	0x100
     438:	0756                	.2byte	0x756
	...
     442:	5f01                	.2byte	0x5f01
     444:	00000007          	.4byte	0x7
     448:	0000                	.2byte	0x0
     44a:	0000                	.2byte	0x0
     44c:	0100                	.2byte	0x100
     44e:	0756                	.2byte	0x756
	...
     458:	5f01                	.2byte	0x5f01
     45a:	00000007          	.4byte	0x7
     45e:	0000                	.2byte	0x0
     460:	0000                	.2byte	0x0
     462:	0100                	.2byte	0x100
     464:	075f 0000 0000      	.byte	0x5f, 0x07, 0x00, 0x00, 0x00, 0x00
     46a:	0000                	.2byte	0x0
     46c:	0000                	.2byte	0x0
     46e:	5601                	.2byte	0x5601
     470:	00000007          	.4byte	0x7
     474:	0000                	.2byte	0x0
     476:	0000                	.2byte	0x0
     478:	0100                	.2byte	0x100
     47a:	075f 0000 0000      	.byte	0x5f, 0x07, 0x00, 0x00, 0x00, 0x00
     480:	0000                	.2byte	0x0
     482:	0000                	.2byte	0x0
     484:	5f01                	.2byte	0x5f01
     486:	00000007          	.4byte	0x7
     48a:	0000                	.2byte	0x0
     48c:	0000                	.2byte	0x0
     48e:	0100                	.2byte	0x100
     490:	0056                	.2byte	0x56
     492:	00000007          	.4byte	0x7
     496:	0000                	.2byte	0x0
     498:	0000                	.2byte	0x0
     49a:	0100                	.2byte	0x100
     49c:	075d                	.2byte	0x75d
	...
     4a6:	5e01                	.2byte	0x5e01
     4a8:	0700                	.2byte	0x700
	...
     4b2:	5a01                	.2byte	0x5a01
     4b4:	00000007          	.4byte	0x7
     4b8:	0000                	.2byte	0x0
     4ba:	0000                	.2byte	0x0
     4bc:	0100                	.2byte	0x100
     4be:	075a                	.2byte	0x75a
	...
     4c8:	5a01                	.2byte	0x5a01
     4ca:	0700                	.2byte	0x700
	...
     4d4:	3102                	.2byte	0x3102
     4d6:	079f 0000 0000      	.byte	0x9f, 0x07, 0x00, 0x00, 0x00, 0x00
     4dc:	0000                	.2byte	0x0
     4de:	0000                	.2byte	0x0
     4e0:	5b01                	.2byte	0x5b01
     4e2:	00000007          	.4byte	0x7
     4e6:	0000                	.2byte	0x0
     4e8:	0000                	.2byte	0x0
     4ea:	0100                	.2byte	0x100
     4ec:	0007005b          	.4byte	0x7005b
     4f0:	0000                	.2byte	0x0
     4f2:	0000                	.2byte	0x0
     4f4:	0000                	.2byte	0x0
     4f6:	0100                	.2byte	0x100
     4f8:	075f 0000 0000      	.byte	0x5f, 0x07, 0x00, 0x00, 0x00, 0x00
     4fe:	0000                	.2byte	0x0
     500:	0000                	.2byte	0x0
     502:	5f01                	.2byte	0x5f01
     504:	0700                	.2byte	0x700
	...
     50e:	5b01                	.2byte	0x5b01
     510:	00000007          	.4byte	0x7
     514:	0000                	.2byte	0x0
     516:	0000                	.2byte	0x0
     518:	0100                	.2byte	0x100
     51a:	0000075b          	.4byte	0x75b
     51e:	0000                	.2byte	0x0
     520:	0000                	.2byte	0x0
     522:	0000                	.2byte	0x0
     524:	5b01                	.2byte	0x5b01
     526:	00000007          	.4byte	0x7
     52a:	0000                	.2byte	0x0
     52c:	0000                	.2byte	0x0
     52e:	0100                	.2byte	0x100
     530:	0000075b          	.4byte	0x75b
     534:	0000                	.2byte	0x0
     536:	0000                	.2byte	0x0
     538:	0000                	.2byte	0x0
     53a:	5b01                	.2byte	0x5b01
     53c:	0700                	.2byte	0x700
	...
     546:	5c01                	.2byte	0x5c01
     548:	00000007          	.4byte	0x7
     54c:	0000                	.2byte	0x0
     54e:	0000                	.2byte	0x0
     550:	0900                	.2byte	0x900
     552:	007c                	.2byte	0x7c
     554:	ff08007b          	.4byte	0xff08007b
     558:	241a                	.2byte	0x241a
     55a:	079f 0000 0000      	.byte	0x9f, 0x07, 0x00, 0x00, 0x00, 0x00
     560:	0000                	.2byte	0x0
     562:	0000                	.2byte	0x0
     564:	5e01                	.2byte	0x5e01
     566:	00000007          	.4byte	0x7
     56a:	0000                	.2byte	0x0
     56c:	0000                	.2byte	0x0
     56e:	0100                	.2byte	0x100
     570:	005c                	.2byte	0x5c
     572:	00000007          	.4byte	0x7
     576:	0000                	.2byte	0x0
     578:	0000                	.2byte	0x0
     57a:	0100                	.2byte	0x100
     57c:	005d                	.2byte	0x5d
     57e:	00000007          	.4byte	0x7
     582:	0000                	.2byte	0x0
     584:	0000                	.2byte	0x0
     586:	0100                	.2byte	0x100
     588:	0007005b          	.4byte	0x7005b
     58c:	0000                	.2byte	0x0
     58e:	0000                	.2byte	0x0
     590:	0000                	.2byte	0x0
     592:	0100                	.2byte	0x100
     594:	005c                	.2byte	0x5c
     596:	00000007          	.4byte	0x7
     59a:	0000                	.2byte	0x0
     59c:	0000                	.2byte	0x0
     59e:	0100                	.2byte	0x100
     5a0:	0756                	.2byte	0x756
	...
     5aa:	5a01                	.2byte	0x5a01
     5ac:	0700                	.2byte	0x700
	...
     5b6:	6101                	.2byte	0x6101
     5b8:	00000007          	.4byte	0x7
     5bc:	0000                	.2byte	0x0
     5be:	0000                	.2byte	0x0
     5c0:	0100                	.2byte	0x100
     5c2:	005f 0007 0000      	.byte	0x5f, 0x00, 0x07, 0x00, 0x00, 0x00
     5c8:	0000                	.2byte	0x0
     5ca:	0000                	.2byte	0x0
     5cc:	0600                	.2byte	0x600
     5ce:	007f                	.2byte	0x7f
     5d0:	9f1d007b          	.4byte	0x9f1d007b
     5d4:	00000007          	.4byte	0x7
     5d8:	0000                	.2byte	0x0
     5da:	0000                	.2byte	0x0
     5dc:	0100                	.2byte	0x100
     5de:	075f 0000 0000      	.byte	0x5f, 0x07, 0x00, 0x00, 0x00, 0x00
     5e4:	0000                	.2byte	0x0
     5e6:	0000                	.2byte	0x0
     5e8:	5f01                	.2byte	0x5f01
     5ea:	00000007          	.4byte	0x7
     5ee:	0000                	.2byte	0x0
     5f0:	0000                	.2byte	0x0
     5f2:	0800                	.2byte	0x800
     5f4:	0080                	.2byte	0x80
     5f6:	2540                	.2byte	0x2540
     5f8:	007d                	.2byte	0x7d
     5fa:	9f21                	.2byte	0x9f21
     5fc:	00000007          	.4byte	0x7
     600:	0000                	.2byte	0x0
     602:	0000                	.2byte	0x0
     604:	0100                	.2byte	0x100
     606:	005f 0007 0000      	.byte	0x5f, 0x00, 0x07, 0x00, 0x00, 0x00
     60c:	0000                	.2byte	0x0
     60e:	0000                	.2byte	0x0
     610:	0600                	.2byte	0x600
     612:	007f                	.2byte	0x7f
     614:	9f1d007b          	.4byte	0x9f1d007b
     618:	00000007          	.4byte	0x7
     61c:	0000                	.2byte	0x0
     61e:	0000                	.2byte	0x0
     620:	0100                	.2byte	0x100
     622:	075f 0000 0000      	.byte	0x5f, 0x07, 0x00, 0x00, 0x00, 0x00
     628:	0000                	.2byte	0x0
     62a:	0000                	.2byte	0x0
     62c:	6001                	.2byte	0x6001
     62e:	0700                	.2byte	0x700
	...
     638:	6101                	.2byte	0x6101
     63a:	00000007          	.4byte	0x7
     63e:	0000                	.2byte	0x0
     640:	0000                	.2byte	0x0
     642:	0600                	.2byte	0x600
     644:	007c                	.2byte	0x7c
     646:	0076                	.2byte	0x76
     648:	9f1e                	.2byte	0x9f1e
     64a:	00000007          	.4byte	0x7
     64e:	0000                	.2byte	0x0
     650:	0000                	.2byte	0x0
     652:	0100                	.2byte	0x100
     654:	005d                	.2byte	0x5d
     656:	00000007          	.4byte	0x7
     65a:	0000                	.2byte	0x0
     65c:	0000                	.2byte	0x0
     65e:	0100                	.2byte	0x100
     660:	005d                	.2byte	0x5d
     662:	00000007          	.4byte	0x7
     666:	0000                	.2byte	0x0
     668:	0000                	.2byte	0x0
     66a:	1000                	.2byte	0x1000
     66c:	0076                	.2byte	0x76
     66e:	ff0a                	.2byte	0xff0a
     670:	1aff                	.2byte	0x1aff
     672:	007e                	.2byte	0x7e
     674:	ff0a                	.2byte	0xff0a
     676:	1aff                	.2byte	0x1aff
     678:	2440                	.2byte	0x2440
     67a:	9f22                	.2byte	0x9f22
     67c:	00000007          	.4byte	0x7
     680:	0000                	.2byte	0x0
     682:	0000                	.2byte	0x0
     684:	1500                	.2byte	0x1500
     686:	0076                	.2byte	0x76
     688:	ff0a                	.2byte	0xff0a
     68a:	1aff                	.2byte	0x1aff
     68c:	0076                	.2byte	0x76
     68e:	2540                	.2byte	0x2540
     690:	007c                	.2byte	0x7c
     692:	0a22                	.2byte	0xa22
     694:	ffff                	.2byte	0xffff
     696:	401a                	.2byte	0x401a
     698:	2224                	.2byte	0x2224
     69a:	009f 0007 0000      	.byte	0x9f, 0x00, 0x07, 0x00, 0x00, 0x00
     6a0:	0000                	.2byte	0x0
     6a2:	0000                	.2byte	0x0
     6a4:	0100                	.2byte	0x100
     6a6:	0056                	.2byte	0x56
     6a8:	00000007          	.4byte	0x7
     6ac:	0000                	.2byte	0x0
     6ae:	0000                	.2byte	0x0
     6b0:	0100                	.2byte	0x100
     6b2:	0760                	.2byte	0x760
	...
     6bc:	40007d07          	.4byte	0x40007d07
     6c0:	4024                	.2byte	0x4024
     6c2:	9f25                	.2byte	0x9f25
     6c4:	0700                	.2byte	0x700
	...
     6ce:	6d01                	.2byte	0x6d01
     6d0:	00000007          	.4byte	0x7
     6d4:	0000                	.2byte	0x0
     6d6:	0000                	.2byte	0x0
     6d8:	0100                	.2byte	0x100
     6da:	005a                	.2byte	0x5a
     6dc:	00000007          	.4byte	0x7
     6e0:	0000                	.2byte	0x0
     6e2:	0000                	.2byte	0x0
     6e4:	0100                	.2byte	0x100
     6e6:	076c                	.2byte	0x76c
	...
     6f0:	5e01                	.2byte	0x5e01
     6f2:	0700                	.2byte	0x700
	...
     6fc:	7e06                	.2byte	0x7e06
     6fe:	7600                	.2byte	0x7600
     700:	1d00                	.2byte	0x1d00
     702:	079f 0000 0000      	.byte	0x9f, 0x07, 0x00, 0x00, 0x00, 0x00
     708:	0000                	.2byte	0x0
     70a:	0000                	.2byte	0x0
     70c:	5e01                	.2byte	0x5e01
     70e:	00000007          	.4byte	0x7
     712:	0000                	.2byte	0x0
     714:	0000                	.2byte	0x0
     716:	0100                	.2byte	0x100
     718:	075e                	.2byte	0x75e
	...
     722:	5e01                	.2byte	0x5e01
     724:	0700                	.2byte	0x700
	...
     72e:	7e06                	.2byte	0x7e06
     730:	7600                	.2byte	0x7600
     732:	1d00                	.2byte	0x1d00
     734:	079f 0000 0000      	.byte	0x9f, 0x07, 0x00, 0x00, 0x00, 0x00
     73a:	0000                	.2byte	0x0
     73c:	0000                	.2byte	0x0
     73e:	5e01                	.2byte	0x5e01
     740:	00000007          	.4byte	0x7
     744:	0000                	.2byte	0x0
     746:	0000                	.2byte	0x0
     748:	0100                	.2byte	0x100
     74a:	075f 0000 0000      	.byte	0x5f, 0x07, 0x00, 0x00, 0x00, 0x00
     750:	0000                	.2byte	0x0
     752:	0000                	.2byte	0x0
     754:	5f01                	.2byte	0x5f01
     756:	0700                	.2byte	0x700
	...
     760:	6c01                	.2byte	0x6c01
     762:	00000007          	.4byte	0x7
     766:	0000                	.2byte	0x0
     768:	0000                	.2byte	0x0
     76a:	0600                	.2byte	0x600
     76c:	0080                	.2byte	0x80
     76e:	008d                	.2byte	0x8d
     770:	9f1e                	.2byte	0x9f1e
     772:	00000007          	.4byte	0x7
     776:	0000                	.2byte	0x0
     778:	0000                	.2byte	0x0
     77a:	0100                	.2byte	0x100
     77c:	0060                	.2byte	0x60
     77e:	00000007          	.4byte	0x7
     782:	0000                	.2byte	0x0
     784:	0000                	.2byte	0x0
     786:	0100                	.2byte	0x100
     788:	0056                	.2byte	0x56
     78a:	00000007          	.4byte	0x7
     78e:	0000                	.2byte	0x0
     790:	0000                	.2byte	0x0
     792:	0600                	.2byte	0x600
     794:	007e                	.2byte	0x7e
     796:	007c                	.2byte	0x7c
     798:	9f1e                	.2byte	0x9f1e
     79a:	00000007          	.4byte	0x7
     79e:	0000                	.2byte	0x0
     7a0:	0000                	.2byte	0x0
     7a2:	0100                	.2byte	0x100
     7a4:	075e                	.2byte	0x75e
	...
     7ae:	5e01                	.2byte	0x5e01
     7b0:	00000007          	.4byte	0x7
     7b4:	0000                	.2byte	0x0
     7b6:	0000                	.2byte	0x0
     7b8:	0800                	.2byte	0x800
     7ba:	0076                	.2byte	0x76
     7bc:	2540                	.2byte	0x2540
     7be:	007c                	.2byte	0x7c
     7c0:	9f22                	.2byte	0x9f22
     7c2:	0700                	.2byte	0x700
	...
     7cc:	5d01                	.2byte	0x5d01
     7ce:	0700                	.2byte	0x700
	...
     7d8:	6001                	.2byte	0x6001
     7da:	0700                	.2byte	0x700
	...
     7e4:	5e01                	.2byte	0x5e01
     7e6:	00000007          	.4byte	0x7
     7ea:	0000                	.2byte	0x0
     7ec:	0000                	.2byte	0x0
     7ee:	0600                	.2byte	0x600
     7f0:	7f8c                	.2byte	0x7f8c
     7f2:	007a                	.2byte	0x7a
     7f4:	9f1a                	.2byte	0x9f1a
     7f6:	00000007          	.4byte	0x7
     7fa:	0000                	.2byte	0x0
     7fc:	0000                	.2byte	0x0
     7fe:	0600                	.2byte	0x600
     800:	007a                	.2byte	0x7a
     802:	007f                	.2byte	0x7f
     804:	9f1a                	.2byte	0x9f1a
     806:	00000007          	.4byte	0x7
     80a:	0000                	.2byte	0x0
     80c:	0000                	.2byte	0x0
     80e:	0600                	.2byte	0x600
     810:	7f8c                	.2byte	0x7f8c
     812:	007a                	.2byte	0x7a
     814:	9f1a                	.2byte	0x9f1a
     816:	00000007          	.4byte	0x7
     81a:	0000                	.2byte	0x0
     81c:	0000                	.2byte	0x0
     81e:	0600                	.2byte	0x600
     820:	017a                	.2byte	0x17a
     822:	7f8c                	.2byte	0x7f8c
     824:	9f1a                	.2byte	0x9f1a
     826:	0700                	.2byte	0x700
	...
     830:	5d01                	.2byte	0x5d01
     832:	0700                	.2byte	0x700
	...
     83c:	6001                	.2byte	0x6001
     83e:	00000007          	.4byte	0x7
     842:	0000                	.2byte	0x0
     844:	0000                	.2byte	0x0
     846:	0500                	.2byte	0x500
     848:	007a                	.2byte	0x7a
     84a:	2540                	.2byte	0x2540
     84c:	079f 0000 0000      	.byte	0x9f, 0x07, 0x00, 0x00, 0x00, 0x00
     852:	0000                	.2byte	0x0
     854:	0000                	.2byte	0x0
     856:	7a05                	.2byte	0x7a05
     858:	4001                	.2byte	0x4001
     85a:	9f25                	.2byte	0x9f25
     85c:	0700                	.2byte	0x700
	...
     866:	5c01                	.2byte	0x5c01
     868:	0700                	.2byte	0x700
	...
     872:	5c01                	.2byte	0x5c01
     874:	00000007          	.4byte	0x7
     878:	0000                	.2byte	0x0
     87a:	0000                	.2byte	0x0
     87c:	0100                	.2byte	0x100
     87e:	005c                	.2byte	0x5c
     880:	00000007          	.4byte	0x7
     884:	0000                	.2byte	0x0
     886:	0000                	.2byte	0x0
     888:	0100                	.2byte	0x100
     88a:	005d                	.2byte	0x5d
     88c:	00000007          	.4byte	0x7
     890:	0000                	.2byte	0x0
     892:	0000                	.2byte	0x0
     894:	0100                	.2byte	0x100
     896:	0061                	.2byte	0x61
     898:	00000007          	.4byte	0x7
     89c:	0000                	.2byte	0x0
     89e:	0000                	.2byte	0x0
     8a0:	0100                	.2byte	0x100
     8a2:	005c                	.2byte	0x5c
     8a4:	00000007          	.4byte	0x7
     8a8:	0000                	.2byte	0x0
     8aa:	0000                	.2byte	0x0
     8ac:	0100                	.2byte	0x100
     8ae:	076c                	.2byte	0x76c
	...
     8b8:	5a01                	.2byte	0x5a01
     8ba:	0700                	.2byte	0x700
	...
     8c4:	5601                	.2byte	0x5601
     8c6:	00000007          	.4byte	0x7
     8ca:	0000                	.2byte	0x0
     8cc:	0000                	.2byte	0x0
     8ce:	0100                	.2byte	0x100
     8d0:	005f 0007 0000      	.byte	0x5f, 0x00, 0x07, 0x00, 0x00, 0x00
     8d6:	0000                	.2byte	0x0
     8d8:	0000                	.2byte	0x0
     8da:	0600                	.2byte	0x600
     8dc:	007f                	.2byte	0x7f
     8de:	0081                	.2byte	0x81
     8e0:	9f1d                	.2byte	0x9f1d
     8e2:	00000007          	.4byte	0x7
     8e6:	0000                	.2byte	0x0
     8e8:	0000                	.2byte	0x0
     8ea:	0100                	.2byte	0x100
     8ec:	075f 0000 0000      	.byte	0x5f, 0x07, 0x00, 0x00, 0x00, 0x00
     8f2:	0000                	.2byte	0x0
     8f4:	0000                	.2byte	0x0
     8f6:	5f01                	.2byte	0x5f01
     8f8:	00000007          	.4byte	0x7
     8fc:	0000                	.2byte	0x0
     8fe:	0000                	.2byte	0x0
     900:	0100                	.2byte	0x100
     902:	005f 0007 0000      	.byte	0x5f, 0x00, 0x07, 0x00, 0x00, 0x00
     908:	0000                	.2byte	0x0
     90a:	0000                	.2byte	0x0
     90c:	0600                	.2byte	0x600
     90e:	007f                	.2byte	0x7f
     910:	0081                	.2byte	0x81
     912:	9f1d                	.2byte	0x9f1d
     914:	00000007          	.4byte	0x7
     918:	0000                	.2byte	0x0
     91a:	0000                	.2byte	0x0
     91c:	0100                	.2byte	0x100
     91e:	075f 0000 0000      	.byte	0x5f, 0x07, 0x00, 0x00, 0x00, 0x00
     924:	0000                	.2byte	0x0
     926:	0000                	.2byte	0x0
     928:	6001                	.2byte	0x6001
     92a:	0700                	.2byte	0x700
	...
     934:	5601                	.2byte	0x5601
     936:	00000007          	.4byte	0x7
     93a:	0000                	.2byte	0x0
     93c:	0000                	.2byte	0x0
     93e:	0600                	.2byte	0x600
     940:	007c                	.2byte	0x7c
     942:	008c                	.2byte	0x8c
     944:	9f1e                	.2byte	0x9f1e
     946:	00000007          	.4byte	0x7
     94a:	0000                	.2byte	0x0
     94c:	0000                	.2byte	0x0
     94e:	0100                	.2byte	0x100
     950:	005d                	.2byte	0x5d
     952:	00000007          	.4byte	0x7
     956:	0000                	.2byte	0x0
     958:	0000                	.2byte	0x0
     95a:	0100                	.2byte	0x100
     95c:	005a                	.2byte	0x5a
     95e:	00000007          	.4byte	0x7
     962:	0000                	.2byte	0x0
     964:	0000                	.2byte	0x0
     966:	0100                	.2byte	0x100
     968:	075c                	.2byte	0x75c
	...
     972:	40007e07          	.4byte	0x40007e07
     976:	4024                	.2byte	0x4024
     978:	9f25                	.2byte	0x9f25
     97a:	0700                	.2byte	0x700
	...
     984:	5601                	.2byte	0x5601
     986:	00000007          	.4byte	0x7
     98a:	0000                	.2byte	0x0
     98c:	0000                	.2byte	0x0
     98e:	0100                	.2byte	0x100
     990:	0007005b          	.4byte	0x7005b
     994:	0000                	.2byte	0x0
     996:	0000                	.2byte	0x0
     998:	0000                	.2byte	0x0
     99a:	0100                	.2byte	0x100
     99c:	0761                	.2byte	0x761
	...
     9a6:	5d01                	.2byte	0x5d01
     9a8:	0700                	.2byte	0x700
	...
     9b2:	7d06                	.2byte	0x7d06
     9b4:	7a00                	.2byte	0x7a00
     9b6:	1d00                	.2byte	0x1d00
     9b8:	079f 0000 0000      	.byte	0x9f, 0x07, 0x00, 0x00, 0x00, 0x00
     9be:	0000                	.2byte	0x0
     9c0:	0000                	.2byte	0x0
     9c2:	5d01                	.2byte	0x5d01
     9c4:	00000007          	.4byte	0x7
     9c8:	0000                	.2byte	0x0
     9ca:	0000                	.2byte	0x0
     9cc:	0100                	.2byte	0x100
     9ce:	075d                	.2byte	0x75d
	...
     9d8:	5d01                	.2byte	0x5d01
     9da:	0700                	.2byte	0x700
	...
     9e4:	7d06                	.2byte	0x7d06
     9e6:	7a00                	.2byte	0x7a00
     9e8:	1d00                	.2byte	0x1d00
     9ea:	079f 0000 0000      	.byte	0x9f, 0x07, 0x00, 0x00, 0x00, 0x00
     9f0:	0000                	.2byte	0x0
     9f2:	0000                	.2byte	0x0
     9f4:	5d01                	.2byte	0x5d01
     9f6:	00000007          	.4byte	0x7
     9fa:	0000                	.2byte	0x0
     9fc:	0000                	.2byte	0x0
     9fe:	0100                	.2byte	0x100
     a00:	075f 0000 0000      	.byte	0x5f, 0x07, 0x00, 0x00, 0x00, 0x00
     a06:	0000                	.2byte	0x0
     a08:	0000                	.2byte	0x0
     a0a:	5f01                	.2byte	0x5f01
     a0c:	0700                	.2byte	0x700
	...
     a16:	6101                	.2byte	0x6101
     a18:	00000007          	.4byte	0x7
     a1c:	0000                	.2byte	0x0
     a1e:	0000                	.2byte	0x0
     a20:	0600                	.2byte	0x600
     a22:	007c                	.2byte	0x7c
     a24:	0076                	.2byte	0x76
     a26:	9f1e                	.2byte	0x9f1e
     a28:	00000007          	.4byte	0x7
     a2c:	0000                	.2byte	0x0
     a2e:	0000                	.2byte	0x0
     a30:	0100                	.2byte	0x100
     a32:	005c                	.2byte	0x5c
     a34:	00000007          	.4byte	0x7
     a38:	0000                	.2byte	0x0
     a3a:	0000                	.2byte	0x0
     a3c:	0100                	.2byte	0x100
     a3e:	005d                	.2byte	0x5d
     a40:	00000007          	.4byte	0x7
     a44:	0000                	.2byte	0x0
     a46:	0000                	.2byte	0x0
     a48:	0100                	.2byte	0x100
     a4a:	005e                	.2byte	0x5e
     a4c:	00000bd7          	.4byte	0xbd7
     a50:	0005                	.2byte	0x5
     a52:	0004                	.2byte	0x4
     a54:	0000                	.2byte	0x0
     a56:	0000                	.2byte	0x0
     a58:	01049407          	.4byte	0x1049407
     a5c:	1800                	.2byte	0x1800
     a5e:	0105                	.2byte	0x105
     a60:	0100                	.2byte	0x100
     a62:	075a                	.2byte	0x75a
     a64:	0518                	.2byte	0x518
     a66:	0001                	.2byte	0x1
     a68:	0520                	.2byte	0x520
     a6a:	0001                	.2byte	0x1
     a6c:	a306                	.2byte	0xa306
     a6e:	260aa503          	lw	a0,608(s5)
     a72:	079f 0520 0001      	.byte	0x9f, 0x07, 0x20, 0x05, 0x01, 0x00
     a78:	0540                	.2byte	0x540
     a7a:	0001                	.2byte	0x1
     a7c:	5a01                	.2byte	0x5a01
     a7e:	01054007          	.4byte	0x1054007
     a82:	bc00                	.2byte	0xbc00
     a84:	0105                	.2byte	0x105
     a86:	0600                	.2byte	0x600
     a88:	0aa503a3          	sb	a0,167(a0)
     a8c:	9f26                	.2byte	0x9f26
     a8e:	0105bc07          	.4byte	0x105bc07
     a92:	d800                	.2byte	0xd800
     a94:	0105                	.2byte	0x105
     a96:	0100                	.2byte	0x100
     a98:	075a                	.2byte	0x75a
     a9a:	05d8                	.2byte	0x5d8
     a9c:	0001                	.2byte	0x1
     a9e:	0610                	.2byte	0x610
     aa0:	0001                	.2byte	0x1
     aa2:	a306                	.2byte	0xa306
     aa4:	260aa503          	lw	a0,608(s5)
     aa8:	079f 0610 0001      	.byte	0x9f, 0x07, 0x10, 0x06, 0x01, 0x00
     aae:	062c                	.2byte	0x62c
     ab0:	0001                	.2byte	0x1
     ab2:	5a01                	.2byte	0x5a01
     ab4:	01062c07          	.4byte	0x1062c07
     ab8:	3800                	.2byte	0x3800
     aba:	0106                	.2byte	0x106
     abc:	0600                	.2byte	0x600
     abe:	0aa503a3          	sb	a0,167(a0)
     ac2:	9f26                	.2byte	0x9f26
     ac4:	01063807          	.4byte	0x1063807
     ac8:	4c00                	.2byte	0x4c00
     aca:	0106                	.2byte	0x106
     acc:	0100                	.2byte	0x100
     ace:	075a                	.2byte	0x75a
     ad0:	064c                	.2byte	0x64c
     ad2:	0001                	.2byte	0x1
     ad4:	0684                	.2byte	0x684
     ad6:	0001                	.2byte	0x1
     ad8:	a306                	.2byte	0xa306
     ada:	260aa503          	lw	a0,608(s5)
     ade:	079f 0684 0001      	.byte	0x9f, 0x07, 0x84, 0x06, 0x01, 0x00
     ae4:	0704                	.2byte	0x704
     ae6:	0001                	.2byte	0x1
     ae8:	5a01                	.2byte	0x5a01
     aea:	01070407          	.4byte	0x1070407
     aee:	0c00                	.2byte	0xc00
     af0:	06000107          	.4byte	0x6000107
     af4:	0aa503a3          	sb	a0,167(a0)
     af8:	9f26                	.2byte	0x9f26
     afa:	01070c07          	.4byte	0x1070c07
     afe:	3c00                	.2byte	0x3c00
     b00:	01000107          	.4byte	0x1000107
     b04:	075a                	.2byte	0x75a
     b06:	073c                	.2byte	0x73c
     b08:	0001                	.2byte	0x1
     b0a:	0754                	.2byte	0x754
     b0c:	0001                	.2byte	0x1
     b0e:	a306                	.2byte	0xa306
     b10:	260aa503          	lw	a0,608(s5)
     b14:	079f 0754 0001      	.byte	0x9f, 0x07, 0x54, 0x07, 0x01, 0x00
     b1a:	0780                	.2byte	0x780
     b1c:	0001                	.2byte	0x1
     b1e:	5a01                	.2byte	0x5a01
     b20:	01078007          	.4byte	0x1078007
     b24:	a400                	.2byte	0xa400
     b26:	06000107          	.4byte	0x6000107
     b2a:	0aa503a3          	sb	a0,167(a0)
     b2e:	9f26                	.2byte	0x9f26
     b30:	0107a407          	.4byte	0x107a407
     b34:	a800                	.2byte	0xa800
     b36:	01000107          	.4byte	0x1000107
     b3a:	075a                	.2byte	0x75a
     b3c:	07a8                	.2byte	0x7a8
     b3e:	0001                	.2byte	0x1
     b40:	07ec                	.2byte	0x7ec
     b42:	0001                	.2byte	0x1
     b44:	a306                	.2byte	0xa306
     b46:	260aa503          	lw	a0,608(s5)
     b4a:	079f 07ec 0001      	.byte	0x9f, 0x07, 0xec, 0x07, 0x01, 0x00
     b50:	0830                	.2byte	0x830
     b52:	0001                	.2byte	0x1
     b54:	5a01                	.2byte	0x5a01
     b56:	01083007          	.4byte	0x1083007
     b5a:	3800                	.2byte	0x3800
     b5c:	0108                	.2byte	0x108
     b5e:	0600                	.2byte	0x600
     b60:	0aa503a3          	sb	a0,167(a0)
     b64:	9f26                	.2byte	0x9f26
     b66:	01083807          	.4byte	0x1083807
     b6a:	6400                	.2byte	0x6400
     b6c:	0108                	.2byte	0x108
     b6e:	0100                	.2byte	0x100
     b70:	075a                	.2byte	0x75a
     b72:	0864                	.2byte	0x864
     b74:	0001                	.2byte	0x1
     b76:	08a0                	.2byte	0x8a0
     b78:	0001                	.2byte	0x1
     b7a:	a306                	.2byte	0xa306
     b7c:	260aa503          	lw	a0,608(s5)
     b80:	079f 08a0 0001      	.byte	0x9f, 0x07, 0xa0, 0x08, 0x01, 0x00
     b86:	08ac                	.2byte	0x8ac
     b88:	0001                	.2byte	0x1
     b8a:	5a01                	.2byte	0x5a01
     b8c:	0108ac07          	.4byte	0x108ac07
     b90:	c000                	.2byte	0xc000
     b92:	0108                	.2byte	0x108
     b94:	0600                	.2byte	0x600
     b96:	0aa503a3          	sb	a0,167(a0)
     b9a:	9f26                	.2byte	0x9f26
     b9c:	0108c007          	.4byte	0x108c007
     ba0:	d800                	.2byte	0xd800
     ba2:	0108                	.2byte	0x108
     ba4:	0100                	.2byte	0x100
     ba6:	075a                	.2byte	0x75a
     ba8:	08d8                	.2byte	0x8d8
     baa:	0001                	.2byte	0x1
     bac:	08f8                	.2byte	0x8f8
     bae:	0001                	.2byte	0x1
     bb0:	a306                	.2byte	0xa306
     bb2:	260aa503          	lw	a0,608(s5)
     bb6:	079f 08f8 0001      	.byte	0x9f, 0x07, 0xf8, 0x08, 0x01, 0x00
     bbc:	0904                	.2byte	0x904
     bbe:	0001                	.2byte	0x1
     bc0:	5a01                	.2byte	0x5a01
     bc2:	0700                	.2byte	0x700
     bc4:	0494                	.2byte	0x494
     bc6:	0001                	.2byte	0x1
     bc8:	04d0                	.2byte	0x4d0
     bca:	0001                	.2byte	0x1
     bcc:	5b01                	.2byte	0x5b01
     bce:	0104d007          	.4byte	0x104d007
     bd2:	0400                	.2byte	0x400
     bd4:	0109                	.2byte	0x109
     bd6:	0600                	.2byte	0x600
     bd8:	0ba503a3          	sb	s10,167(a0)
     bdc:	9f26                	.2byte	0x9f26
     bde:	0700                	.2byte	0x700
     be0:	0494                	.2byte	0x494
     be2:	0001                	.2byte	0x1
     be4:	0518                	.2byte	0x518
     be6:	0001                	.2byte	0x1
     be8:	3002                	.2byte	0x3002
     bea:	079f 0520 0001      	.byte	0x9f, 0x07, 0x20, 0x05, 0x01, 0x00
     bf0:	0540                	.2byte	0x540
     bf2:	0001                	.2byte	0x1
     bf4:	3002                	.2byte	0x3002
     bf6:	079f 05bc 0001      	.byte	0x9f, 0x07, 0xbc, 0x05, 0x01, 0x00
     bfc:	0630                	.2byte	0x630
     bfe:	0001                	.2byte	0x1
     c00:	3002                	.2byte	0x3002
     c02:	079f 0638 0001      	.byte	0x9f, 0x07, 0x38, 0x06, 0x01, 0x00
     c08:	06bc                	.2byte	0x6bc
     c0a:	0001                	.2byte	0x1
     c0c:	3002                	.2byte	0x3002
     c0e:	079f 06d4 0001      	.byte	0x9f, 0x07, 0xd4, 0x06, 0x01, 0x00
     c14:	0830                	.2byte	0x830
     c16:	0001                	.2byte	0x1
     c18:	3002                	.2byte	0x3002
     c1a:	079f 084c 0001      	.byte	0x9f, 0x07, 0x4c, 0x08, 0x01, 0x00
     c20:	08e0                	.2byte	0x8e0
     c22:	0001                	.2byte	0x1
     c24:	3002                	.2byte	0x3002
     c26:	079f 08f8 0001      	.byte	0x9f, 0x07, 0xf8, 0x08, 0x01, 0x00
     c2c:	0904                	.2byte	0x904
     c2e:	0001                	.2byte	0x1
     c30:	3002                	.2byte	0x3002
     c32:	009f cc07 0104      	.byte	0x9f, 0x00, 0x07, 0xcc, 0x04, 0x01
     c38:	1800                	.2byte	0x1800
     c3a:	0105                	.2byte	0x105
     c3c:	0100                	.2byte	0x100
     c3e:	0762                	.2byte	0x762
     c40:	0520                	.2byte	0x520
     c42:	0001                	.2byte	0x1
     c44:	0540                	.2byte	0x540
     c46:	0001                	.2byte	0x1
     c48:	6201                	.2byte	0x6201
     c4a:	0105bc07          	.4byte	0x105bc07
     c4e:	c800                	.2byte	0xc800
     c50:	0106                	.2byte	0x106
     c52:	0100                	.2byte	0x100
     c54:	0762                	.2byte	0x762
     c56:	06c8                	.2byte	0x6c8
     c58:	0001                	.2byte	0x1
     c5a:	06d4                	.2byte	0x6d4
     c5c:	0001                	.2byte	0x1
     c5e:	7a05                	.2byte	0x7a05
     c60:	4f00                	.2byte	0x4f00
     c62:	9f25                	.2byte	0x9f25
     c64:	0106d407          	.4byte	0x106d407
     c68:	0400                	.2byte	0x400
     c6a:	01000107          	.4byte	0x1000107
     c6e:	0762                	.2byte	0x762
     c70:	070c                	.2byte	0x70c
     c72:	0001                	.2byte	0x1
     c74:	073c                	.2byte	0x73c
     c76:	0001                	.2byte	0x1
     c78:	6201                	.2byte	0x6201
     c7a:	01075407          	.4byte	0x1075407
     c7e:	8c00                	.2byte	0x8c00
     c80:	01000107          	.4byte	0x1000107
     c84:	0762                	.2byte	0x762
     c86:	0790                	.2byte	0x790
     c88:	0001                	.2byte	0x1
     c8a:	07e8                	.2byte	0x7e8
     c8c:	0001                	.2byte	0x1
     c8e:	6201                	.2byte	0x6201
     c90:	0107ec07          	.4byte	0x107ec07
     c94:	3000                	.2byte	0x3000
     c96:	0108                	.2byte	0x108
     c98:	0100                	.2byte	0x100
     c9a:	0762                	.2byte	0x762
     c9c:	0838                	.2byte	0x838
     c9e:	0001                	.2byte	0x1
     ca0:	0848                	.2byte	0x848
     ca2:	0001                	.2byte	0x1
     ca4:	6201                	.2byte	0x6201
     ca6:	01084807          	.4byte	0x1084807
     caa:	4c00                	.2byte	0x4c00
     cac:	0108                	.2byte	0x108
     cae:	0500                	.2byte	0x500
     cb0:	007a                	.2byte	0x7a
     cb2:	079f254f          	.4byte	0x79f254f
     cb6:	084c                	.2byte	0x84c
     cb8:	0001                	.2byte	0x1
     cba:	0864                	.2byte	0x864
     cbc:	0001                	.2byte	0x1
     cbe:	6201                	.2byte	0x6201
     cc0:	0108a007          	.4byte	0x108a007
     cc4:	ac00                	.2byte	0xac00
     cc6:	0108                	.2byte	0x108
     cc8:	0100                	.2byte	0x100
     cca:	0762                	.2byte	0x762
     ccc:	08c0                	.2byte	0x8c0
     cce:	0001                	.2byte	0x1
     cd0:	08dc                	.2byte	0x8dc
     cd2:	0001                	.2byte	0x1
     cd4:	6201                	.2byte	0x6201
     cd6:	0108f807          	.4byte	0x108f807
     cda:	0400                	.2byte	0x400
     cdc:	0109                	.2byte	0x109
     cde:	0100                	.2byte	0x100
     ce0:	0062                	.2byte	0x62
     ce2:	0104bc07          	.4byte	0x104bc07
     ce6:	0400                	.2byte	0x400
     ce8:	0105                	.2byte	0x105
     cea:	0100                	.2byte	0x100
     cec:	0758                	.2byte	0x758
     cee:	0504                	.2byte	0x504
     cf0:	0001                	.2byte	0x1
     cf2:	0510                	.2byte	0x510
     cf4:	0001                	.2byte	0x1
     cf6:	7a08                	.2byte	0x7a08
     cf8:	4700                	.2byte	0x4700
     cfa:	0825                	.2byte	0x825
     cfc:	1aff                	.2byte	0x1aff
     cfe:	079f 0510 0001      	.byte	0x9f, 0x07, 0x10, 0x05, 0x01, 0x00
     d04:	051c                	.2byte	0x51c
     d06:	0001                	.2byte	0x1
     d08:	5801                	.2byte	0x5801
     d0a:	01052007          	.4byte	0x1052007
     d0e:	4000                	.2byte	0x4000
     d10:	0105                	.2byte	0x105
     d12:	0100                	.2byte	0x100
     d14:	0758                	.2byte	0x758
     d16:	05bc                	.2byte	0x5bc
     d18:	0001                	.2byte	0x1
     d1a:	05d8                	.2byte	0x5d8
     d1c:	0001                	.2byte	0x1
     d1e:	5801                	.2byte	0x5801
     d20:	01061007          	.4byte	0x1061007
     d24:	5c00                	.2byte	0x5c00
     d26:	0106                	.2byte	0x106
     d28:	0100                	.2byte	0x100
     d2a:	0758                	.2byte	0x758
     d2c:	0660                	.2byte	0x660
     d2e:	0001                	.2byte	0x1
     d30:	0680                	.2byte	0x680
     d32:	0001                	.2byte	0x1
     d34:	5801                	.2byte	0x5801
     d36:	01068407          	.4byte	0x1068407
     d3a:	cc00                	.2byte	0xcc00
     d3c:	0106                	.2byte	0x106
     d3e:	0100                	.2byte	0x100
     d40:	0758                	.2byte	0x758
     d42:	06cc                	.2byte	0x6cc
     d44:	0001                	.2byte	0x1
     d46:	06d4                	.2byte	0x6d4
     d48:	0001                	.2byte	0x1
     d4a:	7a08                	.2byte	0x7a08
     d4c:	4700                	.2byte	0x4700
     d4e:	0825                	.2byte	0x825
     d50:	1aff                	.2byte	0x1aff
     d52:	079f 06d4 0001      	.byte	0x9f, 0x07, 0xd4, 0x06, 0x01, 0x00
     d58:	06e8                	.2byte	0x6e8
     d5a:	0001                	.2byte	0x1
     d5c:	5801                	.2byte	0x5801
     d5e:	0106e807          	.4byte	0x106e807
     d62:	ec00                	.2byte	0xec00
     d64:	0106                	.2byte	0x106
     d66:	0800                	.2byte	0x800
     d68:	007a                	.2byte	0x7a
     d6a:	ff082547          	.4byte	0xff082547
     d6e:	9f1a                	.2byte	0x9f1a
     d70:	0106ec07          	.4byte	0x106ec07
     d74:	0800                	.2byte	0x800
     d76:	01000107          	.4byte	0x1000107
     d7a:	0758                	.2byte	0x758
     d7c:	070c                	.2byte	0x70c
     d7e:	0001                	.2byte	0x1
     d80:	073c                	.2byte	0x73c
     d82:	0001                	.2byte	0x1
     d84:	5801                	.2byte	0x5801
     d86:	01075407          	.4byte	0x1075407
     d8a:	a000                	.2byte	0xa000
     d8c:	01000107          	.4byte	0x1000107
     d90:	0758                	.2byte	0x758
     d92:	07a4                	.2byte	0x7a4
     d94:	0001                	.2byte	0x1
     d96:	07e4                	.2byte	0x7e4
     d98:	0001                	.2byte	0x1
     d9a:	5801                	.2byte	0x5801
     d9c:	0107ec07          	.4byte	0x107ec07
     da0:	3000                	.2byte	0x3000
     da2:	0108                	.2byte	0x108
     da4:	0100                	.2byte	0x100
     da6:	0758                	.2byte	0x758
     da8:	0838                	.2byte	0x838
     daa:	0001                	.2byte	0x1
     dac:	0864                	.2byte	0x864
     dae:	0001                	.2byte	0x1
     db0:	5801                	.2byte	0x5801
     db2:	0108a007          	.4byte	0x108a007
     db6:	a800                	.2byte	0xa800
     db8:	0108                	.2byte	0x108
     dba:	0100                	.2byte	0x100
     dbc:	0758                	.2byte	0x758
     dbe:	08a8                	.2byte	0x8a8
     dc0:	0001                	.2byte	0x1
     dc2:	08ac                	.2byte	0x8ac
     dc4:	0001                	.2byte	0x1
     dc6:	7a08                	.2byte	0x7a08
     dc8:	4700                	.2byte	0x4700
     dca:	0825                	.2byte	0x825
     dcc:	1aff                	.2byte	0x1aff
     dce:	079f 08c0 0001      	.byte	0x9f, 0x07, 0xc0, 0x08, 0x01, 0x00
     dd4:	08d8                	.2byte	0x8d8
     dd6:	0001                	.2byte	0x1
     dd8:	5801                	.2byte	0x5801
     dda:	0108f807          	.4byte	0x108f807
     dde:	fc00                	.2byte	0xfc00
     de0:	0108                	.2byte	0x108
     de2:	0100                	.2byte	0x100
     de4:	0758                	.2byte	0x758
     de6:	08fc                	.2byte	0x8fc
     de8:	0001                	.2byte	0x1
     dea:	0904                	.2byte	0x904
     dec:	0001                	.2byte	0x1
     dee:	9f7f7d03          	.4byte	0x9f7f7d03
     df2:	0700                	.2byte	0x700
     df4:	04b0                	.2byte	0x4b0
     df6:	0001                	.2byte	0x1
     df8:	04f8                	.2byte	0x4f8
     dfa:	0001                	.2byte	0x1
     dfc:	5f01                	.2byte	0x5f01
     dfe:	0104f807          	.4byte	0x104f807
     e02:	1000                	.2byte	0x1000
     e04:	0105                	.2byte	0x105
     e06:	0b00                	.2byte	0xb00
     e08:	007a                	.2byte	0x7a
     e0a:	ff0c                	.2byte	0xff0c
     e0c:	7fff                	.2byte	0x7fff
     e0e:	1a00                	.2byte	0x1a00
     e10:	079f2433          	.4byte	0x79f2433
     e14:	0510                	.2byte	0x510
     e16:	0001                	.2byte	0x1
     e18:	0518                	.2byte	0x518
     e1a:	0001                	.2byte	0x1
     e1c:	5f01                	.2byte	0x5f01
     e1e:	01052007          	.4byte	0x1052007
     e22:	4000                	.2byte	0x4000
     e24:	0105                	.2byte	0x105
     e26:	0100                	.2byte	0x100
     e28:	075f 05bc 0001      	.byte	0x5f, 0x07, 0xbc, 0x05, 0x01, 0x00
     e2e:	05d8                	.2byte	0x5d8
     e30:	0001                	.2byte	0x1
     e32:	5f01                	.2byte	0x5f01
     e34:	01061007          	.4byte	0x1061007
     e38:	3400                	.2byte	0x3400
     e3a:	0106                	.2byte	0x106
     e3c:	0100                	.2byte	0x100
     e3e:	075f 0638 0001      	.byte	0x5f, 0x07, 0x38, 0x06, 0x01, 0x00
     e44:	0654                	.2byte	0x654
     e46:	0001                	.2byte	0x1
     e48:	5f01                	.2byte	0x5f01
     e4a:	01065407          	.4byte	0x1065407
     e4e:	6000                	.2byte	0x6000
     e50:	0106                	.2byte	0x106
     e52:	0200                	.2byte	0x200
     e54:	9f31                	.2byte	0x9f31
     e56:	01066007          	.4byte	0x1066007
     e5a:	7000                	.2byte	0x7000
     e5c:	0106                	.2byte	0x106
     e5e:	0100                	.2byte	0x100
     e60:	075f 0674 0001      	.byte	0x5f, 0x07, 0x74, 0x06, 0x01, 0x00
     e66:	0678                	.2byte	0x678
     e68:	0001                	.2byte	0x1
     e6a:	7a06                	.2byte	0x7a06
     e6c:	7f00                	.2byte	0x7f00
     e6e:	2100                	.2byte	0x2100
     e70:	079f 0678 0001      	.byte	0x9f, 0x07, 0x78, 0x06, 0x01, 0x00
     e76:	067c                	.2byte	0x67c
     e78:	0001                	.2byte	0x1
     e7a:	5f01                	.2byte	0x5f01
     e7c:	01068407          	.4byte	0x1068407
     e80:	a000                	.2byte	0xa000
     e82:	0106                	.2byte	0x106
     e84:	0100                	.2byte	0x100
     e86:	075f 06a0 0001      	.byte	0x5f, 0x07, 0xa0, 0x06, 0x01, 0x00
     e8c:	06bc                	.2byte	0x6bc
     e8e:	0001                	.2byte	0x1
     e90:	0c007a0b          	.4byte	0xc007a0b
     e94:	ffff                	.2byte	0xffff
     e96:	007f                	.2byte	0x7f
     e98:	331a                	.2byte	0x331a
     e9a:	9f24                	.2byte	0x9f24
     e9c:	0106bc07          	.4byte	0x106bc07
     ea0:	e400                	.2byte	0xe400
     ea2:	0106                	.2byte	0x106
     ea4:	0100                	.2byte	0x100
     ea6:	075f 06e4 0001      	.byte	0x5f, 0x07, 0xe4, 0x06, 0x01, 0x00
     eac:	06ec                	.2byte	0x6ec
     eae:	0001                	.2byte	0x1
     eb0:	0c007a0b          	.4byte	0xc007a0b
     eb4:	ffff                	.2byte	0xffff
     eb6:	007f                	.2byte	0x7f
     eb8:	331a                	.2byte	0x331a
     eba:	9f24                	.2byte	0x9f24
     ebc:	0106ec07          	.4byte	0x106ec07
     ec0:	0400                	.2byte	0x400
     ec2:	01000107          	.4byte	0x1000107
     ec6:	075f 070c 0001      	.byte	0x5f, 0x07, 0x0c, 0x07, 0x01, 0x00
     ecc:	073c                	.2byte	0x73c
     ece:	0001                	.2byte	0x1
     ed0:	5f01                	.2byte	0x5f01
     ed2:	01075407          	.4byte	0x1075407
     ed6:	8800                	.2byte	0x8800
     ed8:	01000107          	.4byte	0x1000107
     edc:	075f 0790 0001      	.byte	0x5f, 0x07, 0x90, 0x07, 0x01, 0x00
     ee2:	079c                	.2byte	0x79c
     ee4:	0001                	.2byte	0x1
     ee6:	5f01                	.2byte	0x5f01
     ee8:	0107a407          	.4byte	0x107a407
     eec:	d400                	.2byte	0xd400
     eee:	01000107          	.4byte	0x1000107
     ef2:	075f 07dc 0001      	.byte	0x5f, 0x07, 0xdc, 0x07, 0x01, 0x00
     ef8:	07ec                	.2byte	0x7ec
     efa:	0001                	.2byte	0x1
     efc:	5d01                	.2byte	0x5d01
     efe:	0107ec07          	.4byte	0x107ec07
     f02:	0400                	.2byte	0x400
     f04:	0108                	.2byte	0x108
     f06:	0100                	.2byte	0x100
     f08:	075f 0804 0001      	.byte	0x5f, 0x07, 0x04, 0x08, 0x01, 0x00
     f0e:	0810                	.2byte	0x810
     f10:	0001                	.2byte	0x1
     f12:	0c007a0b          	.4byte	0xc007a0b
     f16:	ffff                	.2byte	0xffff
     f18:	007f                	.2byte	0x7f
     f1a:	331a                	.2byte	0x331a
     f1c:	9f24                	.2byte	0x9f24
     f1e:	01081007          	.4byte	0x1081007
     f22:	2400                	.2byte	0x2400
     f24:	0108                	.2byte	0x108
     f26:	0100                	.2byte	0x100
     f28:	075f 0824 0001      	.byte	0x5f, 0x07, 0x24, 0x08, 0x01, 0x00
     f2e:	0830                	.2byte	0x830
     f30:	0001                	.2byte	0x1
     f32:	0c007a0b          	.4byte	0xc007a0b
     f36:	ffff                	.2byte	0xffff
     f38:	007f                	.2byte	0x7f
     f3a:	331a                	.2byte	0x331a
     f3c:	9f24                	.2byte	0x9f24
     f3e:	01083807          	.4byte	0x1083807
     f42:	4400                	.2byte	0x4400
     f44:	0108                	.2byte	0x108
     f46:	0100                	.2byte	0x100
     f48:	075f 0844 0001      	.byte	0x5f, 0x07, 0x44, 0x08, 0x01, 0x00
     f4e:	084c                	.2byte	0x84c
     f50:	0001                	.2byte	0x1
     f52:	0c007a0b          	.4byte	0xc007a0b
     f56:	ffff                	.2byte	0xffff
     f58:	007f                	.2byte	0x7f
     f5a:	331a                	.2byte	0x331a
     f5c:	9f24                	.2byte	0x9f24
     f5e:	01084c07          	.4byte	0x1084c07
     f62:	6400                	.2byte	0x6400
     f64:	0108                	.2byte	0x108
     f66:	0100                	.2byte	0x100
     f68:	075f 08a0 0001      	.byte	0x5f, 0x07, 0xa0, 0x08, 0x01, 0x00
     f6e:	08ac                	.2byte	0x8ac
     f70:	0001                	.2byte	0x1
     f72:	5f01                	.2byte	0x5f01
     f74:	0108c007          	.4byte	0x108c007
     f78:	c400                	.2byte	0xc400
     f7a:	0108                	.2byte	0x108
     f7c:	0100                	.2byte	0x100
     f7e:	075f 08c4 0001      	.byte	0x5f, 0x07, 0xc4, 0x08, 0x01, 0x00
     f84:	08c8                	.2byte	0x8c8
     f86:	0001                	.2byte	0x1
     f88:	0c007a0b          	.4byte	0xc007a0b
     f8c:	ffff                	.2byte	0xffff
     f8e:	007f                	.2byte	0x7f
     f90:	331a                	.2byte	0x331a
     f92:	9f24                	.2byte	0x9f24
     f94:	0108c807          	.4byte	0x108c807
     f98:	cc00                	.2byte	0xcc00
     f9a:	0108                	.2byte	0x108
     f9c:	0100                	.2byte	0x100
     f9e:	075f 08cc 0001      	.byte	0x5f, 0x07, 0xcc, 0x08, 0x01, 0x00
     fa4:	08d0                	.2byte	0x8d0
     fa6:	0001                	.2byte	0x1
     fa8:	0c007a0b          	.4byte	0xc007a0b
     fac:	ffff                	.2byte	0xffff
     fae:	007f                	.2byte	0x7f
     fb0:	331a                	.2byte	0x331a
     fb2:	9f24                	.2byte	0x9f24
     fb4:	0108d007          	.4byte	0x108d007
     fb8:	d400                	.2byte	0xd400
     fba:	0108                	.2byte	0x108
     fbc:	0100                	.2byte	0x100
     fbe:	075f 08d4 0001      	.byte	0x5f, 0x07, 0xd4, 0x08, 0x01, 0x00
     fc4:	08d8                	.2byte	0x8d8
     fc6:	0001                	.2byte	0x1
     fc8:	0c007a0b          	.4byte	0xc007a0b
     fcc:	ffff                	.2byte	0xffff
     fce:	007f                	.2byte	0x7f
     fd0:	331a                	.2byte	0x331a
     fd2:	9f24                	.2byte	0x9f24
     fd4:	0108f807          	.4byte	0x108f807
     fd8:	0400                	.2byte	0x400
     fda:	0109                	.2byte	0x109
     fdc:	0100                	.2byte	0x100
     fde:	005f d407 0104      	.byte	0x5f, 0x00, 0x07, 0xd4, 0x04, 0x01
     fe4:	f400                	.2byte	0xf400
     fe6:	0104                	.2byte	0x104
     fe8:	0100                	.2byte	0x100
     fea:	0510075b          	.4byte	0x510075b
     fee:	0001                	.2byte	0x1
     ff0:	0514                	.2byte	0x514
     ff2:	0001                	.2byte	0x1
     ff4:	5b01                	.2byte	0x5b01
     ff6:	01052007          	.4byte	0x1052007
     ffa:	3400                	.2byte	0x3400
     ffc:	0105                	.2byte	0x105
     ffe:	0100                	.2byte	0x100
    1000:	0610075b          	.4byte	0x610075b
    1004:	0001                	.2byte	0x1
    1006:	0624                	.2byte	0x624
    1008:	0001                	.2byte	0x1
    100a:	5b01                	.2byte	0x5b01
    100c:	01063807          	.4byte	0x1063807
    1010:	3c00                	.2byte	0x3c00
    1012:	0106                	.2byte	0x106
    1014:	0100                	.2byte	0x100
    1016:	0684075b          	.4byte	0x684075b
    101a:	0001                	.2byte	0x1
    101c:	0710                	.2byte	0x710
    101e:	0001                	.2byte	0x1
    1020:	5b01                	.2byte	0x5b01
    1022:	01075407          	.4byte	0x1075407
    1026:	3000                	.2byte	0x3000
    1028:	0108                	.2byte	0x108
    102a:	0100                	.2byte	0x100
    102c:	0838075b          	.4byte	0x838075b
    1030:	0001                	.2byte	0x1
    1032:	0864                	.2byte	0x864
    1034:	0001                	.2byte	0x1
    1036:	5b01                	.2byte	0x5b01
    1038:	0108a007          	.4byte	0x108a007
    103c:	ac00                	.2byte	0xac00
    103e:	0108                	.2byte	0x108
    1040:	0100                	.2byte	0x100
    1042:	08c0075b          	.4byte	0x8c0075b
    1046:	0001                	.2byte	0x1
    1048:	08e0                	.2byte	0x8e0
    104a:	0001                	.2byte	0x1
    104c:	5b01                	.2byte	0x5b01
    104e:	0108f807          	.4byte	0x108f807
    1052:	0400                	.2byte	0x400
    1054:	0109                	.2byte	0x109
    1056:	0100                	.2byte	0x100
    1058:	d407005b          	.4byte	0xd407005b
    105c:	0104                	.2byte	0x104
    105e:	f000                	.2byte	0xf000
    1060:	0104                	.2byte	0x104
    1062:	0100                	.2byte	0x100
    1064:	075c                	.2byte	0x75c
    1066:	0520                	.2byte	0x520
    1068:	0001                	.2byte	0x1
    106a:	0524                	.2byte	0x524
    106c:	0001                	.2byte	0x1
    106e:	5c01                	.2byte	0x5c01
    1070:	01061007          	.4byte	0x1061007
    1074:	3000                	.2byte	0x3000
    1076:	0106                	.2byte	0x106
    1078:	0100                	.2byte	0x100
    107a:	075c                	.2byte	0x75c
    107c:	0638                	.2byte	0x638
    107e:	0001                	.2byte	0x1
    1080:	068c                	.2byte	0x68c
    1082:	0001                	.2byte	0x1
    1084:	5c01                	.2byte	0x5c01
    1086:	0106ec07          	.4byte	0x106ec07
    108a:	fc00                	.2byte	0xfc00
    108c:	0106                	.2byte	0x106
    108e:	0100                	.2byte	0x100
    1090:	075c                	.2byte	0x75c
    1092:	0754                	.2byte	0x754
    1094:	0001                	.2byte	0x1
    1096:	0758                	.2byte	0x758
    1098:	0001                	.2byte	0x1
    109a:	5c01                	.2byte	0x5c01
    109c:	01076c07          	.4byte	0x1076c07
    10a0:	3000                	.2byte	0x3000
    10a2:	0108                	.2byte	0x108
    10a4:	0100                	.2byte	0x100
    10a6:	075c                	.2byte	0x75c
    10a8:	0838                	.2byte	0x838
    10aa:	0001                	.2byte	0x1
    10ac:	0864                	.2byte	0x864
    10ae:	0001                	.2byte	0x1
    10b0:	5c01                	.2byte	0x5c01
    10b2:	0108a007          	.4byte	0x108a007
    10b6:	ac00                	.2byte	0xac00
    10b8:	0108                	.2byte	0x108
    10ba:	0100                	.2byte	0x100
    10bc:	075c                	.2byte	0x75c
    10be:	08c0                	.2byte	0x8c0
    10c0:	0001                	.2byte	0x1
    10c2:	08c8                	.2byte	0x8c8
    10c4:	0001                	.2byte	0x1
    10c6:	5c01                	.2byte	0x5c01
    10c8:	0108d007          	.4byte	0x108d007
    10cc:	e000                	.2byte	0xe000
    10ce:	0108                	.2byte	0x108
    10d0:	0100                	.2byte	0x100
    10d2:	005c                	.2byte	0x5c
    10d4:	0104d407          	.4byte	0x104d407
    10d8:	fc00                	.2byte	0xfc00
    10da:	0104                	.2byte	0x104
    10dc:	0100                	.2byte	0x100
    10de:	075e                	.2byte	0x75e
    10e0:	0510                	.2byte	0x510
    10e2:	0001                	.2byte	0x1
    10e4:	053c                	.2byte	0x53c
    10e6:	0001                	.2byte	0x1
    10e8:	5e01                	.2byte	0x5e01
    10ea:	01053c07          	.4byte	0x1053c07
    10ee:	4000                	.2byte	0x4000
    10f0:	0105                	.2byte	0x105
    10f2:	0200                	.2byte	0x200
    10f4:	9f31                	.2byte	0x9f31
    10f6:	0105bc07          	.4byte	0x105bc07
    10fa:	cc00                	.2byte	0xcc00
    10fc:	0105                	.2byte	0x105
    10fe:	0100                	.2byte	0x100
    1100:	075e                	.2byte	0x75e
    1102:	05d0                	.2byte	0x5d0
    1104:	0001                	.2byte	0x1
    1106:	05d4                	.2byte	0x5d4
    1108:	0001                	.2byte	0x1
    110a:	7b06                	.2byte	0x7b06
    110c:	7e00                	.2byte	0x7e00
    110e:	2100                	.2byte	0x2100
    1110:	079f 05d4 0001      	.byte	0x9f, 0x07, 0xd4, 0x05, 0x01, 0x00
    1116:	05dc                	.2byte	0x5dc
    1118:	0001                	.2byte	0x1
    111a:	5e01                	.2byte	0x5e01
    111c:	01061007          	.4byte	0x1061007
    1120:	a400                	.2byte	0xa400
    1122:	0106                	.2byte	0x106
    1124:	0100                	.2byte	0x100
    1126:	075e                	.2byte	0x75e
    1128:	06bc                	.2byte	0x6bc
    112a:	0001                	.2byte	0x1
    112c:	06e0                	.2byte	0x6e0
    112e:	0001                	.2byte	0x1
    1130:	5e01                	.2byte	0x5e01
    1132:	0106ec07          	.4byte	0x106ec07
    1136:	3000                	.2byte	0x3000
    1138:	01000107          	.4byte	0x1000107
    113c:	075e                	.2byte	0x75e
    113e:	0738                	.2byte	0x738
    1140:	0001                	.2byte	0x1
    1142:	073c                	.2byte	0x73c
    1144:	0001                	.2byte	0x1
    1146:	5d01                	.2byte	0x5d01
    1148:	01075407          	.4byte	0x1075407
    114c:	3000                	.2byte	0x3000
    114e:	0108                	.2byte	0x108
    1150:	0100                	.2byte	0x100
    1152:	075e                	.2byte	0x75e
    1154:	0838                	.2byte	0x838
    1156:	0001                	.2byte	0x1
    1158:	0864                	.2byte	0x864
    115a:	0001                	.2byte	0x1
    115c:	5e01                	.2byte	0x5e01
    115e:	0108a007          	.4byte	0x108a007
    1162:	ac00                	.2byte	0xac00
    1164:	0108                	.2byte	0x108
    1166:	0100                	.2byte	0x100
    1168:	075e                	.2byte	0x75e
    116a:	08c0                	.2byte	0x8c0
    116c:	0001                	.2byte	0x1
    116e:	08e0                	.2byte	0x8e0
    1170:	0001                	.2byte	0x1
    1172:	5e01                	.2byte	0x5e01
    1174:	0108f807          	.4byte	0x108f807
    1178:	0400                	.2byte	0x400
    117a:	0109                	.2byte	0x109
    117c:	0100                	.2byte	0x100
    117e:	005e                	.2byte	0x5e
    1180:	0104e007          	.4byte	0x104e007
    1184:	1800                	.2byte	0x1800
    1186:	0105                	.2byte	0x105
    1188:	0100                	.2byte	0x100
    118a:	0762                	.2byte	0x762
    118c:	0520                	.2byte	0x520
    118e:	0001                	.2byte	0x1
    1190:	0558                	.2byte	0x558
    1192:	0001                	.2byte	0x1
    1194:	6201                	.2byte	0x6201
    1196:	01058407          	.4byte	0x1058407
    119a:	b400                	.2byte	0xb400
    119c:	0105                	.2byte	0x105
    119e:	0100                	.2byte	0x100
    11a0:	0762                	.2byte	0x762
    11a2:	05bc                	.2byte	0x5bc
    11a4:	0001                	.2byte	0x1
    11a6:	06c0                	.2byte	0x6c0
    11a8:	0001                	.2byte	0x1
    11aa:	6201                	.2byte	0x6201
    11ac:	0106d407          	.4byte	0x106d407
    11b0:	ec00                	.2byte	0xec00
    11b2:	0106                	.2byte	0x106
    11b4:	0100                	.2byte	0x100
    11b6:	0762                	.2byte	0x762
    11b8:	06f0                	.2byte	0x6f0
    11ba:	0001                	.2byte	0x1
    11bc:	076c                	.2byte	0x76c
    11be:	0001                	.2byte	0x1
    11c0:	6201                	.2byte	0x6201
    11c2:	01077407          	.4byte	0x1077407
    11c6:	ec00                	.2byte	0xec00
    11c8:	01000107          	.4byte	0x1000107
    11cc:	0818075b          	.4byte	0x818075b
    11d0:	0001                	.2byte	0x1
    11d2:	0830                	.2byte	0x830
    11d4:	0001                	.2byte	0x1
    11d6:	6201                	.2byte	0x6201
    11d8:	01085007          	.4byte	0x1085007
    11dc:	6000                	.2byte	0x6000
    11de:	0108                	.2byte	0x108
    11e0:	0100                	.2byte	0x100
    11e2:	0762                	.2byte	0x762
    11e4:	0860                	.2byte	0x860
    11e6:	0001                	.2byte	0x1
    11e8:	0864                	.2byte	0x864
    11ea:	0001                	.2byte	0x1
    11ec:	5b01                	.2byte	0x5b01
    11ee:	01086407          	.4byte	0x1086407
    11f2:	d000                	.2byte	0xd000
    11f4:	0108                	.2byte	0x108
    11f6:	0100                	.2byte	0x100
    11f8:	0762                	.2byte	0x762
    11fa:	08d0                	.2byte	0x8d0
    11fc:	0001                	.2byte	0x1
    11fe:	08d8                	.2byte	0x8d8
    1200:	0001                	.2byte	0x1
    1202:	5b01                	.2byte	0x5b01
    1204:	0108f807          	.4byte	0x108f807
    1208:	0400                	.2byte	0x400
    120a:	0109                	.2byte	0x109
    120c:	0100                	.2byte	0x100
    120e:	0062                	.2byte	0x62
    1210:	0104e407          	.4byte	0x104e407
    1214:	f400                	.2byte	0xf400
    1216:	0104                	.2byte	0x104
    1218:	0100                	.2byte	0x100
    121a:	0758                	.2byte	0x758
    121c:	04f8                	.2byte	0x4f8
    121e:	0001                	.2byte	0x1
    1220:	0510                	.2byte	0x510
    1222:	0001                	.2byte	0x1
    1224:	3102                	.2byte	0x3102
    1226:	079f 0510 0001      	.byte	0x9f, 0x07, 0x10, 0x05, 0x01, 0x00
    122c:	0518                	.2byte	0x518
    122e:	0001                	.2byte	0x1
    1230:	5801                	.2byte	0x5801
    1232:	01052007          	.4byte	0x1052007
    1236:	5800                	.2byte	0x5800
    1238:	0105                	.2byte	0x105
    123a:	0100                	.2byte	0x100
    123c:	0758                	.2byte	0x758
    123e:	0568                	.2byte	0x568
    1240:	0001                	.2byte	0x1
    1242:	0584                	.2byte	0x584
    1244:	0001                	.2byte	0x1
    1246:	5801                	.2byte	0x5801
    1248:	0105bc07          	.4byte	0x105bc07
    124c:	f400                	.2byte	0xf400
    124e:	0105                	.2byte	0x105
    1250:	0100                	.2byte	0x100
    1252:	0758                	.2byte	0x758
    1254:	0618                	.2byte	0x618
    1256:	0001                	.2byte	0x1
    1258:	0630                	.2byte	0x630
    125a:	0001                	.2byte	0x1
    125c:	5c01                	.2byte	0x5c01
    125e:	01063807          	.4byte	0x1063807
    1262:	8400                	.2byte	0x8400
    1264:	0106                	.2byte	0x106
    1266:	0100                	.2byte	0x100
    1268:	075c                	.2byte	0x75c
    126a:	0694                	.2byte	0x694
    126c:	0001                	.2byte	0x1
    126e:	06bc                	.2byte	0x6bc
    1270:	0001                	.2byte	0x1
    1272:	3002                	.2byte	0x3002
    1274:	079f 06bc 0001      	.byte	0x9f, 0x07, 0xbc, 0x06, 0x01, 0x00
    127a:	06d4                	.2byte	0x6d4
    127c:	0001                	.2byte	0x1
    127e:	9fff0803          	lb	a6,-1537(t5)
    1282:	0106d407          	.4byte	0x106d407
    1286:	e400                	.2byte	0xe400
    1288:	0106                	.2byte	0x106
    128a:	0100                	.2byte	0x100
    128c:	075d                	.2byte	0x75d
    128e:	06f0                	.2byte	0x6f0
    1290:	0001                	.2byte	0x1
    1292:	0704                	.2byte	0x704
    1294:	0001                	.2byte	0x1
    1296:	5801                	.2byte	0x5801
    1298:	01070c07          	.4byte	0x1070c07
    129c:	6c00                	.2byte	0x6c00
    129e:	01000107          	.4byte	0x1000107
    12a2:	0758                	.2byte	0x758
    12a4:	0774                	.2byte	0x774
    12a6:	0001                	.2byte	0x1
    12a8:	07ec                	.2byte	0x7ec
    12aa:	0001                	.2byte	0x1
    12ac:	5c01                	.2byte	0x5c01
    12ae:	0107fc07          	.4byte	0x107fc07
    12b2:	3000                	.2byte	0x3000
    12b4:	0108                	.2byte	0x108
    12b6:	0200                	.2byte	0x200
    12b8:	9f30                	.2byte	0x9f30
    12ba:	01083807          	.4byte	0x1083807
    12be:	4c00                	.2byte	0x4c00
    12c0:	0108                	.2byte	0x108
    12c2:	0300                	.2byte	0x300
    12c4:	ff08                	.2byte	0xff08
    12c6:	079f 084c 0001      	.byte	0x9f, 0x07, 0x4c, 0x08, 0x01, 0x00
    12cc:	0898                	.2byte	0x898
    12ce:	0001                	.2byte	0x1
    12d0:	5801                	.2byte	0x5801
    12d2:	01089807          	.4byte	0x1089807
    12d6:	a000                	.2byte	0xa000
    12d8:	0108                	.2byte	0x108
    12da:	0200                	.2byte	0x200
    12dc:	9f30                	.2byte	0x9f30
    12de:	0108a007          	.4byte	0x108a007
    12e2:	a800                	.2byte	0xa800
    12e4:	0108                	.2byte	0x108
    12e6:	0100                	.2byte	0x100
    12e8:	0758                	.2byte	0x758
    12ea:	08a8                	.2byte	0x8a8
    12ec:	0001                	.2byte	0x1
    12ee:	08ac                	.2byte	0x8ac
    12f0:	0001                	.2byte	0x1
    12f2:	7a08                	.2byte	0x7a08
    12f4:	4700                	.2byte	0x4700
    12f6:	0825                	.2byte	0x825
    12f8:	1aff                	.2byte	0x1aff
    12fa:	079f 08ac 0001      	.byte	0x9f, 0x07, 0xac, 0x08, 0x01, 0x00
    1300:	08c0                	.2byte	0x8c0
    1302:	0001                	.2byte	0x1
    1304:	5801                	.2byte	0x5801
    1306:	0108c007          	.4byte	0x108c007
    130a:	c800                	.2byte	0xc800
    130c:	0108                	.2byte	0x108
    130e:	0100                	.2byte	0x100
    1310:	075c                	.2byte	0x75c
    1312:	08c8                	.2byte	0x8c8
    1314:	0001                	.2byte	0x1
    1316:	08d0                	.2byte	0x8d0
    1318:	0001                	.2byte	0x1
    131a:	3002                	.2byte	0x3002
    131c:	079f 08d0 0001      	.byte	0x9f, 0x07, 0xd0, 0x08, 0x01, 0x00
    1322:	08d8                	.2byte	0x8d8
    1324:	0001                	.2byte	0x1
    1326:	5c01                	.2byte	0x5c01
    1328:	0108e007          	.4byte	0x108e007
    132c:	f800                	.2byte	0xf800
    132e:	0108                	.2byte	0x108
    1330:	0100                	.2byte	0x100
    1332:	0758                	.2byte	0x758
    1334:	08f8                	.2byte	0x8f8
    1336:	0001                	.2byte	0x1
    1338:	0904                	.2byte	0x904
    133a:	0001                	.2byte	0x1
    133c:	5d01                	.2byte	0x5d01
    133e:	0700                	.2byte	0x700
    1340:	04f8                	.2byte	0x4f8
    1342:	0001                	.2byte	0x1
    1344:	0510                	.2byte	0x510
    1346:	0001                	.2byte	0x1
    1348:	5f01                	.2byte	0x5f01
    134a:	01054007          	.4byte	0x1054007
    134e:	6400                	.2byte	0x6400
    1350:	0105                	.2byte	0x105
    1352:	0100                	.2byte	0x100
    1354:	075f 0564 0001      	.byte	0x5f, 0x07, 0x64, 0x05, 0x01, 0x00
    135a:	057c                	.2byte	0x57c
    135c:	0001                	.2byte	0x1
    135e:	7f09                	.2byte	0x7f09
    1360:	1100                	.2byte	0x1100
    1362:	ffff                	.2byte	0xffff
    1364:	5fff                	.2byte	0x5fff
    1366:	9f1a                	.2byte	0x9f1a
    1368:	01058407          	.4byte	0x1058407
    136c:	9000                	.2byte	0x9000
    136e:	0105                	.2byte	0x105
    1370:	0100                	.2byte	0x100
    1372:	0759                	.2byte	0x759
    1374:	05d8                	.2byte	0x5d8
    1376:	0001                	.2byte	0x1
    1378:	05e4                	.2byte	0x5e4
    137a:	0001                	.2byte	0x1
    137c:	5f01                	.2byte	0x5f01
    137e:	0105e407          	.4byte	0x105e407
    1382:	e800                	.2byte	0xe800
    1384:	0105                	.2byte	0x105
    1386:	0900                	.2byte	0x900
    1388:	007f                	.2byte	0x7f
    138a:	ff11                	.2byte	0xff11
    138c:	ffff                	.2byte	0xffff
    138e:	1a5f 079f 05e8      	.byte	0x5f, 0x1a, 0x9f, 0x07, 0xe8, 0x05
    1394:	0001                	.2byte	0x1
    1396:	05f4                	.2byte	0x5f4
    1398:	0001                	.2byte	0x1
    139a:	7f10                	.2byte	0x7f10
    139c:	3100                	.2byte	0x3100
    139e:	0c25                	.2byte	0xc25
    13a0:	ffff                	.2byte	0xffff
    13a2:	7dff                	.2byte	0x7dff
    13a4:	7f1a                	.2byte	0x7f1a
    13a6:	3100                	.2byte	0x3100
    13a8:	211a                	.2byte	0x211a
    13aa:	079f 0658 0001      	.byte	0x9f, 0x07, 0x58, 0x06, 0x01, 0x00
    13b0:	0660                	.2byte	0x660
    13b2:	0001                	.2byte	0x1
    13b4:	5f01                	.2byte	0x5f01
    13b6:	01067c07          	.4byte	0x1067c07
    13ba:	8400                	.2byte	0x8400
    13bc:	0106                	.2byte	0x106
    13be:	0100                	.2byte	0x100
    13c0:	075f 06a0 0001      	.byte	0x5f, 0x07, 0xa0, 0x06, 0x01, 0x00
    13c6:	06b8                	.2byte	0x6b8
    13c8:	0001                	.2byte	0x1
    13ca:	5f01                	.2byte	0x5f01
    13cc:	0106d407          	.4byte	0x106d407
    13d0:	e000                	.2byte	0xe000
    13d2:	0106                	.2byte	0x106
    13d4:	0800                	.2byte	0x800
    13d6:	007f                	.2byte	0x7f
    13d8:	007e                	.2byte	0x7e
    13da:	3122                	.2byte	0x3122
    13dc:	9f25                	.2byte	0x9f25
    13de:	0106e007          	.4byte	0x106e007
    13e2:	e400                	.2byte	0xe400
    13e4:	0106                	.2byte	0x106
    13e6:	0500                	.2byte	0x500
    13e8:	007e                	.2byte	0x7e
    13ea:	2531                	.2byte	0x2531
    13ec:	079f 0704 0001      	.byte	0x9f, 0x07, 0x04, 0x07, 0x01, 0x00
    13f2:	070c                	.2byte	0x70c
    13f4:	0001                	.2byte	0x1
    13f6:	5f01                	.2byte	0x5f01
    13f8:	01073c07          	.4byte	0x1073c07
    13fc:	5000                	.2byte	0x5000
    13fe:	01000107          	.4byte	0x1000107
    1402:	075f 0750 0001      	.byte	0x5f, 0x07, 0x50, 0x07, 0x01, 0x00
    1408:	0754                	.2byte	0x754
    140a:	0001                	.2byte	0x1
    140c:	5901                	.2byte	0x5901
    140e:	01078807          	.4byte	0x1078807
    1412:	9000                	.2byte	0x9000
    1414:	01000107          	.4byte	0x1000107
    1418:	075f 07e0 0001      	.byte	0x5f, 0x07, 0xe0, 0x07, 0x01, 0x00
    141e:	07ec                	.2byte	0x7ec
    1420:	0001                	.2byte	0x1
    1422:	5f01                	.2byte	0x5f01
    1424:	01080007          	.4byte	0x1080007
    1428:	1000                	.2byte	0x1000
    142a:	0108                	.2byte	0x108
    142c:	0100                	.2byte	0x100
    142e:	075e                	.2byte	0x75e
    1430:	0818                	.2byte	0x818
    1432:	0001                	.2byte	0x1
    1434:	0830                	.2byte	0x830
    1436:	0001                	.2byte	0x1
    1438:	5901                	.2byte	0x5901
    143a:	01085007          	.4byte	0x1085007
    143e:	9000                	.2byte	0x9000
    1440:	0108                	.2byte	0x108
    1442:	0100                	.2byte	0x100
    1444:	0759                	.2byte	0x759
    1446:	0898                	.2byte	0x898
    1448:	0001                	.2byte	0x1
    144a:	08a0                	.2byte	0x8a0
    144c:	0001                	.2byte	0x1
    144e:	5f01                	.2byte	0x5f01
    1450:	0108a007          	.4byte	0x108a007
    1454:	bc00                	.2byte	0xbc00
    1456:	0108                	.2byte	0x108
    1458:	0100                	.2byte	0x100
    145a:	0759                	.2byte	0x759
    145c:	08bc                	.2byte	0x8bc
    145e:	0001                	.2byte	0x1
    1460:	08c0                	.2byte	0x8c0
    1462:	0001                	.2byte	0x1
    1464:	5f01                	.2byte	0x5f01
    1466:	0108e007          	.4byte	0x108e007
    146a:	e400                	.2byte	0xe400
    146c:	0108                	.2byte	0x108
    146e:	0100                	.2byte	0x100
    1470:	075f 08e4 0001      	.byte	0x5f, 0x07, 0xe4, 0x08, 0x01, 0x00
    1476:	08f4                	.2byte	0x8f4
    1478:	0001                	.2byte	0x1
    147a:	5901                	.2byte	0x5901
    147c:	0108f807          	.4byte	0x108f807
    1480:	0400                	.2byte	0x400
    1482:	0109                	.2byte	0x109
    1484:	0800                	.2byte	0x800
    1486:	007f                	.2byte	0x7f
    1488:	007e                	.2byte	0x7e
    148a:	3122                	.2byte	0x3122
    148c:	9f25                	.2byte	0x9f25
    148e:	0700                	.2byte	0x700
    1490:	05a0                	.2byte	0x5a0
    1492:	0001                	.2byte	0x1
    1494:	05a8                	.2byte	0x5a8
    1496:	0001                	.2byte	0x1
    1498:	7808                	.2byte	0x7808
    149a:	7a00                	.2byte	0x7a00
    149c:	2100                	.2byte	0x2100
    149e:	26a9                	.2byte	0x26a9
    14a0:	079f 05a8 0001      	.byte	0x9f, 0x07, 0xa8, 0x05, 0x01, 0x00
    14a6:	05bc                	.2byte	0x5bc
    14a8:	0001                	.2byte	0x1
    14aa:	5a01                	.2byte	0x5a01
    14ac:	0700                	.2byte	0x700
    14ae:	04e0                	.2byte	0x4e0
    14b0:	0001                	.2byte	0x1
    14b2:	04f0                	.2byte	0x4f0
    14b4:	0001                	.2byte	0x1
    14b6:	5d01                	.2byte	0x5d01
    14b8:	0104f007          	.4byte	0x104f007
    14bc:	f400                	.2byte	0xf400
    14be:	0104                	.2byte	0x104
    14c0:	0100                	.2byte	0x100
    14c2:	075c                	.2byte	0x75c
    14c4:	0510                	.2byte	0x510
    14c6:	0001                	.2byte	0x1
    14c8:	0518                	.2byte	0x518
    14ca:	0001                	.2byte	0x1
    14cc:	5c01                	.2byte	0x5c01
    14ce:	01052007          	.4byte	0x1052007
    14d2:	3400                	.2byte	0x3400
    14d4:	0105                	.2byte	0x105
    14d6:	0100                	.2byte	0x100
    14d8:	075d                	.2byte	0x75d
    14da:	0534                	.2byte	0x534
    14dc:	0001                	.2byte	0x1
    14de:	0540                	.2byte	0x540
    14e0:	0001                	.2byte	0x1
    14e2:	5c01                	.2byte	0x5c01
    14e4:	0105bc07          	.4byte	0x105bc07
    14e8:	d800                	.2byte	0xd800
    14ea:	0105                	.2byte	0x105
    14ec:	0100                	.2byte	0x100
    14ee:	075c                	.2byte	0x75c
    14f0:	0610                	.2byte	0x610
    14f2:	0001                	.2byte	0x1
    14f4:	0624                	.2byte	0x624
    14f6:	0001                	.2byte	0x1
    14f8:	5d01                	.2byte	0x5d01
    14fa:	01062407          	.4byte	0x1062407
    14fe:	3000                	.2byte	0x3000
    1500:	0106                	.2byte	0x106
    1502:	0100                	.2byte	0x100
    1504:	0638075b          	.4byte	0x638075b
    1508:	0001                	.2byte	0x1
    150a:	064c                	.2byte	0x64c
    150c:	0001                	.2byte	0x1
    150e:	5d01                	.2byte	0x5d01
    1510:	01064c07          	.4byte	0x1064c07
    1514:	8400                	.2byte	0x8400
    1516:	0106                	.2byte	0x106
    1518:	0100                	.2byte	0x100
    151a:	0684075b          	.4byte	0x684075b
    151e:	0001                	.2byte	0x1
    1520:	0688                	.2byte	0x688
    1522:	0001                	.2byte	0x1
    1524:	5d01                	.2byte	0x5d01
    1526:	01068807          	.4byte	0x1068807
    152a:	8c00                	.2byte	0x8c00
    152c:	0106                	.2byte	0x106
    152e:	0600                	.2byte	0x600
    1530:	0078                	.2byte	0x78
    1532:	007c                	.2byte	0x7c
    1534:	9f1c                	.2byte	0x9f1c
    1536:	0108c007          	.4byte	0x108c007
    153a:	c800                	.2byte	0xc800
    153c:	0108                	.2byte	0x108
    153e:	0100                	.2byte	0x100
    1540:	005d                	.2byte	0x5d
    1542:	0106ec07          	.4byte	0x106ec07
    1546:	fc00                	.2byte	0xfc00
    1548:	0106                	.2byte	0x106
    154a:	0600                	.2byte	0x600
    154c:	0078                	.2byte	0x78
    154e:	007c                	.2byte	0x7c
    1550:	9f1c                	.2byte	0x9f1c
    1552:	0106fc07          	.4byte	0x106fc07
    1556:	0400                	.2byte	0x400
    1558:	01000107          	.4byte	0x1000107
    155c:	075c                	.2byte	0x75c
    155e:	070c                	.2byte	0x70c
    1560:	0001                	.2byte	0x1
    1562:	073c                	.2byte	0x73c
    1564:	0001                	.2byte	0x1
    1566:	5c01                	.2byte	0x5c01
    1568:	01075407          	.4byte	0x1075407
    156c:	5800                	.2byte	0x5800
    156e:	06000107          	.4byte	0x6000107
    1572:	0078                	.2byte	0x78
    1574:	007c                	.2byte	0x7c
    1576:	9f1c                	.2byte	0x9f1c
    1578:	01076c07          	.4byte	0x1076c07
    157c:	7400                	.2byte	0x7400
    157e:	06000107          	.4byte	0x6000107
    1582:	0078                	.2byte	0x78
    1584:	007c                	.2byte	0x7c
    1586:	9f1c                	.2byte	0x9f1c
    1588:	01077407          	.4byte	0x1077407
    158c:	8000                	.2byte	0x8000
    158e:	01000107          	.4byte	0x1000107
    1592:	075d                	.2byte	0x75d
    1594:	0780                	.2byte	0x780
    1596:	0001                	.2byte	0x1
    1598:	0798                	.2byte	0x798
    159a:	0001                	.2byte	0x1
    159c:	5a01                	.2byte	0x5a01
    159e:	0107a407          	.4byte	0x107a407
    15a2:	b800                	.2byte	0xb800
    15a4:	01000107          	.4byte	0x1000107
    15a8:	075d                	.2byte	0x75d
    15aa:	07b8                	.2byte	0x7b8
    15ac:	0001                	.2byte	0x1
    15ae:	07ec                	.2byte	0x7ec
    15b0:	0001                	.2byte	0x1
    15b2:	5a01                	.2byte	0x5a01
    15b4:	0107ec07          	.4byte	0x107ec07
    15b8:	3000                	.2byte	0x3000
    15ba:	0108                	.2byte	0x108
    15bc:	0600                	.2byte	0x600
    15be:	0078                	.2byte	0x78
    15c0:	007c                	.2byte	0x7c
    15c2:	9f1c                	.2byte	0x9f1c
    15c4:	01083807          	.4byte	0x1083807
    15c8:	6400                	.2byte	0x6400
    15ca:	0108                	.2byte	0x108
    15cc:	0600                	.2byte	0x600
    15ce:	0078                	.2byte	0x78
    15d0:	007c                	.2byte	0x7c
    15d2:	9f1c                	.2byte	0x9f1c
    15d4:	0108a007          	.4byte	0x108a007
    15d8:	a800                	.2byte	0xa800
    15da:	0108                	.2byte	0x108
    15dc:	0600                	.2byte	0x600
    15de:	0078                	.2byte	0x78
    15e0:	007c                	.2byte	0x7c
    15e2:	9f1c                	.2byte	0x9f1c
    15e4:	0108a807          	.4byte	0x108a807
    15e8:	ac00                	.2byte	0xac00
    15ea:	0108                	.2byte	0x108
    15ec:	0b00                	.2byte	0xb00
    15ee:	007a                	.2byte	0x7a
    15f0:	ff082547          	.4byte	0xff082547
    15f4:	7c1a                	.2byte	0x7c1a
    15f6:	1c00                	.2byte	0x1c00
    15f8:	079f 08d0 0001      	.byte	0x9f, 0x07, 0xd0, 0x08, 0x01, 0x00
    15fe:	08d8                	.2byte	0x8d8
    1600:	0001                	.2byte	0x1
    1602:	5d01                	.2byte	0x5d01
    1604:	0700                	.2byte	0x700
    1606:	086c                	.2byte	0x86c
    1608:	0001                	.2byte	0x1
    160a:	087c                	.2byte	0x87c
    160c:	0001                	.2byte	0x1
    160e:	5a01                	.2byte	0x5a01
    1610:	01088007          	.4byte	0x1088007
    1614:	a000                	.2byte	0xa000
    1616:	0108                	.2byte	0x108
    1618:	0100                	.2byte	0x100
    161a:	075a                	.2byte	0x75a
    161c:	08ac                	.2byte	0x8ac
    161e:	0001                	.2byte	0x1
    1620:	08c0                	.2byte	0x8c0
    1622:	0001                	.2byte	0x1
    1624:	5a01                	.2byte	0x5a01
    1626:	dc00                	.2byte	0xdc00
    1628:	0005                	.2byte	0x5
    162a:	0500                	.2byte	0x500
    162c:	0400                	.2byte	0x400
    162e:	0000                	.2byte	0x0
    1630:	0000                	.2byte	0x0
    1632:	0700                	.2byte	0x700
    1634:	0904                	.2byte	0x904
    1636:	0001                	.2byte	0x1
    1638:	0958                	.2byte	0x958
    163a:	0001                	.2byte	0x1
    163c:	5a01                	.2byte	0x5a01
    163e:	01095807          	.4byte	0x1095807
    1642:	c400                	.2byte	0xc400
    1644:	0109                	.2byte	0x109
    1646:	0600                	.2byte	0x600
    1648:	0aa503a3          	sb	a0,167(a0)
    164c:	9f26                	.2byte	0x9f26
    164e:	0109c407          	.4byte	0x109c407
    1652:	cc00                	.2byte	0xcc00
    1654:	0109                	.2byte	0x109
    1656:	0100                	.2byte	0x100
    1658:	075a                	.2byte	0x75a
    165a:	09cc                	.2byte	0x9cc
    165c:	0001                	.2byte	0x1
    165e:	09e4                	.2byte	0x9e4
    1660:	0001                	.2byte	0x1
    1662:	a306                	.2byte	0xa306
    1664:	260aa503          	lw	a0,608(s5)
    1668:	079f 09e4 0001      	.byte	0x9f, 0x07, 0xe4, 0x09, 0x01, 0x00
    166e:	0a04                	.2byte	0xa04
    1670:	0001                	.2byte	0x1
    1672:	5a01                	.2byte	0x5a01
    1674:	010a0407          	.4byte	0x10a0407
    1678:	3400                	.2byte	0x3400
    167a:	010c                	.2byte	0x10c
    167c:	0600                	.2byte	0x600
    167e:	0aa503a3          	sb	a0,167(a0)
    1682:	9f26                	.2byte	0x9f26
    1684:	0700                	.2byte	0x700
    1686:	0904                	.2byte	0x904
    1688:	0001                	.2byte	0x1
    168a:	0958                	.2byte	0x958
    168c:	0001                	.2byte	0x1
    168e:	5b01                	.2byte	0x5b01
    1690:	01095807          	.4byte	0x1095807
    1694:	7000                	.2byte	0x7000
    1696:	0109                	.2byte	0x109
    1698:	0100                	.2byte	0x100
    169a:	0764                	.2byte	0x764
    169c:	0970                	.2byte	0x970
    169e:	0001                	.2byte	0x1
    16a0:	09c4                	.2byte	0x9c4
    16a2:	0001                	.2byte	0x1
    16a4:	a306                	.2byte	0xa306
    16a6:	260ba503          	lw	a0,608(s7)
    16aa:	079f 09c4 0001      	.byte	0x9f, 0x07, 0xc4, 0x09, 0x01, 0x00
    16b0:	000109cf          	.4byte	0x109cf
    16b4:	5b01                	.2byte	0x5b01
    16b6:	0109cf07          	.4byte	0x109cf07
    16ba:	e400                	.2byte	0xe400
    16bc:	0109                	.2byte	0x109
    16be:	0100                	.2byte	0x100
    16c0:	0764                	.2byte	0x764
    16c2:	09e4                	.2byte	0x9e4
    16c4:	0001                	.2byte	0x1
    16c6:	0a04                	.2byte	0xa04
    16c8:	0001                	.2byte	0x1
    16ca:	5b01                	.2byte	0x5b01
    16cc:	010a0407          	.4byte	0x10a0407
    16d0:	3400                	.2byte	0x3400
    16d2:	010c                	.2byte	0x10c
    16d4:	0600                	.2byte	0x600
    16d6:	0ba503a3          	sb	s10,167(a0)
    16da:	9f26                	.2byte	0x9f26
    16dc:	0700                	.2byte	0x700
    16de:	0904                	.2byte	0x904
    16e0:	0001                	.2byte	0x1
    16e2:	095c                	.2byte	0x95c
    16e4:	0001                	.2byte	0x1
    16e6:	3002                	.2byte	0x3002
    16e8:	079f 09c4 0001      	.byte	0x9f, 0x07, 0xc4, 0x09, 0x01, 0x00
    16ee:	0a04                	.2byte	0xa04
    16f0:	0001                	.2byte	0x1
    16f2:	3002                	.2byte	0x3002
    16f4:	009f 5807 0109      	.byte	0x9f, 0x00, 0x07, 0x58, 0x09, 0x01
    16fa:	5c00                	.2byte	0x5c00
    16fc:	0109                	.2byte	0x109
    16fe:	0200                	.2byte	0x200
    1700:	9f30                	.2byte	0x9f30
    1702:	01095c07          	.4byte	0x1095c07
    1706:	c400                	.2byte	0xc400
    1708:	0109                	.2byte	0x109
    170a:	0100                	.2byte	0x100
    170c:	0765                	.2byte	0x765
    170e:	0a04                	.2byte	0xa04
    1710:	0001                	.2byte	0x1
    1712:	0b94                	.2byte	0xb94
    1714:	0001                	.2byte	0x1
    1716:	6501                	.2byte	0x6501
    1718:	010ba007          	.4byte	0x10ba007
    171c:	3400                	.2byte	0x3400
    171e:	010c                	.2byte	0x10c
    1720:	0100                	.2byte	0x100
    1722:	0065                	.2byte	0x65
    1724:	01093c07          	.4byte	0x1093c07
    1728:	8800                	.2byte	0x8800
    172a:	0600010b          	.4byte	0x600010b
    172e:	0082                	.2byte	0x82
    1730:	ff08                	.2byte	0xff08
    1732:	9f1a                	.2byte	0x9f1a
    1734:	010ba007          	.4byte	0x10ba007
    1738:	3400                	.2byte	0x3400
    173a:	010c                	.2byte	0x10c
    173c:	0600                	.2byte	0x600
    173e:	0082                	.2byte	0x82
    1740:	ff08                	.2byte	0xff08
    1742:	9f1a                	.2byte	0x9f1a
    1744:	0700                	.2byte	0x700
    1746:	0938                	.2byte	0x938
    1748:	0001                	.2byte	0x1
    174a:	0958                	.2byte	0x958
    174c:	0001                	.2byte	0x1
    174e:	7906                	.2byte	0x7906
    1750:	0800                	.2byte	0x800
    1752:	1aff                	.2byte	0x1aff
    1754:	079f 0958 0001      	.byte	0x9f, 0x07, 0x58, 0x09, 0x01, 0x00
    175a:	0994                	.2byte	0x994
    175c:	0001                	.2byte	0x1
    175e:	5901                	.2byte	0x5901
    1760:	0109c407          	.4byte	0x109c407
    1764:	d800                	.2byte	0xd800
    1766:	0109                	.2byte	0x109
    1768:	0600                	.2byte	0x600
    176a:	0079                	.2byte	0x79
    176c:	ff08                	.2byte	0xff08
    176e:	9f1a                	.2byte	0x9f1a
    1770:	0109e407          	.4byte	0x109e407
    1774:	e800                	.2byte	0xe800
    1776:	0109                	.2byte	0x109
    1778:	0600                	.2byte	0x600
    177a:	0079                	.2byte	0x79
    177c:	ff08                	.2byte	0xff08
    177e:	9f1a                	.2byte	0x9f1a
    1780:	0109e807          	.4byte	0x109e807
    1784:	f800                	.2byte	0xf800
    1786:	0109                	.2byte	0x109
    1788:	0800                	.2byte	0x800
    178a:	007a                	.2byte	0x7a
    178c:	ff082547          	.4byte	0xff082547
    1790:	9f1a                	.2byte	0x9f1a
    1792:	0109f807          	.4byte	0x109f807
    1796:	fc00                	.2byte	0xfc00
    1798:	0109                	.2byte	0x109
    179a:	0600                	.2byte	0x600
    179c:	0079                	.2byte	0x79
    179e:	ff08                	.2byte	0xff08
    17a0:	9f1a                	.2byte	0x9f1a
    17a2:	0109fc07          	.4byte	0x109fc07
    17a6:	0400                	.2byte	0x400
    17a8:	010a                	.2byte	0x10a
    17aa:	0800                	.2byte	0x800
    17ac:	007a                	.2byte	0x7a
    17ae:	ff082547          	.4byte	0xff082547
    17b2:	9f1a                	.2byte	0x9f1a
    17b4:	010a0407          	.4byte	0x10a0407
    17b8:	4400                	.2byte	0x4400
    17ba:	010a                	.2byte	0x10a
    17bc:	0100                	.2byte	0x100
    17be:	0059                	.2byte	0x59
    17c0:	01093807          	.4byte	0x1093807
    17c4:	4800                	.2byte	0x4800
    17c6:	0109                	.2byte	0x109
    17c8:	0100                	.2byte	0x100
    17ca:	09480763          	beq	a6,s4,1858 <exit-0xe83c>
    17ce:	0001                	.2byte	0x1
    17d0:	0954                	.2byte	0x954
    17d2:	0001                	.2byte	0x1
    17d4:	40008307          	.4byte	0x40008307
    17d8:	9f212443          	.4byte	0x9f212443
    17dc:	01095407          	.4byte	0x1095407
    17e0:	8400                	.2byte	0x8400
    17e2:	010a                	.2byte	0x10a
    17e4:	0100                	.2byte	0x100
    17e6:	0ba00763          	beq	zero,s10,1894 <exit-0xe800>
    17ea:	0001                	.2byte	0x1
    17ec:	0ba8                	.2byte	0xba8
    17ee:	0001                	.2byte	0x1
    17f0:	6301                	.2byte	0x6301
    17f2:	010bac07          	.4byte	0x10bac07
    17f6:	b400                	.2byte	0xb400
    17f8:	0100010b          	.4byte	0x100010b
    17fc:	0c180763          	beq	a6,ra,18ca <exit-0xe7ca>
    1800:	0001                	.2byte	0x1
    1802:	0c28                	.2byte	0xc28
    1804:	0001                	.2byte	0x1
    1806:	6301                	.2byte	0x6301
    1808:	0700                	.2byte	0x700
    180a:	098c                	.2byte	0x98c
    180c:	0001                	.2byte	0x1
    180e:	0990                	.2byte	0x990
    1810:	0001                	.2byte	0x1
    1812:	3002                	.2byte	0x3002
    1814:	079f 0990 0001      	.byte	0x9f, 0x07, 0x90, 0x09, 0x01, 0x00
    181a:	09c4                	.2byte	0x9c4
    181c:	0001                	.2byte	0x1
    181e:	5d01                	.2byte	0x5d01
    1820:	010a4407          	.4byte	0x10a4407
    1824:	5000                	.2byte	0x5000
    1826:	010a                	.2byte	0x10a
    1828:	0100                	.2byte	0x100
    182a:	075d                	.2byte	0x75d
    182c:	0a74                	.2byte	0xa74
    182e:	0001                	.2byte	0x1
    1830:	0a90                	.2byte	0xa90
    1832:	0001                	.2byte	0x1
    1834:	5d01                	.2byte	0x5d01
    1836:	010ba007          	.4byte	0x10ba007
    183a:	b400                	.2byte	0xb400
    183c:	0100010b          	.4byte	0x100010b
    1840:	005d                	.2byte	0x5d
    1842:	01097007          	.4byte	0x1097007
    1846:	c400                	.2byte	0xc400
    1848:	0109                	.2byte	0x109
    184a:	0600                	.2byte	0x600
    184c:	0084                	.2byte	0x84
    184e:	ff08                	.2byte	0xff08
    1850:	9f1a                	.2byte	0x9f1a
    1852:	010a0407          	.4byte	0x10a0407
    1856:	9000                	.2byte	0x9000
    1858:	0600010b          	.4byte	0x600010b
    185c:	0084                	.2byte	0x84
    185e:	ff08                	.2byte	0xff08
    1860:	9f1a                	.2byte	0x9f1a
    1862:	010ba007          	.4byte	0x10ba007
    1866:	3400                	.2byte	0x3400
    1868:	010c                	.2byte	0x10c
    186a:	0600                	.2byte	0x600
    186c:	0084                	.2byte	0x84
    186e:	ff08                	.2byte	0xff08
    1870:	9f1a                	.2byte	0x9f1a
    1872:	0700                	.2byte	0x700
    1874:	096c                	.2byte	0x96c
    1876:	0001                	.2byte	0x1
    1878:	098c                	.2byte	0x98c
    187a:	0001                	.2byte	0x1
    187c:	7f06                	.2byte	0x7f06
    187e:	0800                	.2byte	0x800
    1880:	1aff                	.2byte	0x1aff
    1882:	079f 098c 0001      	.byte	0x9f, 0x07, 0x8c, 0x09, 0x01, 0x00
    1888:	0998                	.2byte	0x998
    188a:	0001                	.2byte	0x1
    188c:	5f01                	.2byte	0x5f01
    188e:	010a0407          	.4byte	0x10a0407
    1892:	0f00                	.2byte	0xf00
    1894:	010a                	.2byte	0x10a
    1896:	0600                	.2byte	0x600
    1898:	007f                	.2byte	0x7f
    189a:	ff08                	.2byte	0xff08
    189c:	9f1a                	.2byte	0x9f1a
    189e:	010a2407          	.4byte	0x10a2407
    18a2:	2800                	.2byte	0x2800
    18a4:	010a                	.2byte	0x10a
    18a6:	0600                	.2byte	0x600
    18a8:	007f                	.2byte	0x7f
    18aa:	ff08                	.2byte	0xff08
    18ac:	9f1a                	.2byte	0x9f1a
    18ae:	010a3807          	.4byte	0x10a3807
    18b2:	3c00                	.2byte	0x3c00
    18b4:	010a                	.2byte	0x10a
    18b6:	0600                	.2byte	0x600
    18b8:	007f                	.2byte	0x7f
    18ba:	ff08                	.2byte	0xff08
    18bc:	9f1a                	.2byte	0x9f1a
    18be:	0700                	.2byte	0x700
    18c0:	096c                	.2byte	0x96c
    18c2:	0001                	.2byte	0x1
    18c4:	097c                	.2byte	0x97c
    18c6:	0001                	.2byte	0x1
    18c8:	5801                	.2byte	0x5801
    18ca:	01097c07          	.4byte	0x1097c07
    18ce:	8000                	.2byte	0x8000
    18d0:	0109                	.2byte	0x109
    18d2:	0700                	.2byte	0x700
    18d4:	0078                	.2byte	0x78
    18d6:	4340                	.2byte	0x4340
    18d8:	2124                	.2byte	0x2124
    18da:	079f 0988 0001      	.byte	0x9f, 0x07, 0x88, 0x09, 0x01, 0x00
    18e0:	09c4                	.2byte	0x9c4
    18e2:	0001                	.2byte	0x1
    18e4:	5801                	.2byte	0x5801
    18e6:	010a0407          	.4byte	0x10a0407
    18ea:	4c00                	.2byte	0x4c00
    18ec:	010a                	.2byte	0x10a
    18ee:	0100                	.2byte	0x100
    18f0:	0758                	.2byte	0x758
    18f2:	0a74                	.2byte	0xa74
    18f4:	0001                	.2byte	0x1
    18f6:	0aa4                	.2byte	0xaa4
    18f8:	0001                	.2byte	0x1
    18fa:	5801                	.2byte	0x5801
    18fc:	010ba007          	.4byte	0x10ba007
    1900:	b400                	.2byte	0xb400
    1902:	0100010b          	.4byte	0x100010b
    1906:	0058                	.2byte	0x58
    1908:	010a5007          	.4byte	0x10a5007
    190c:	6800                	.2byte	0x6800
    190e:	010a                	.2byte	0x10a
    1910:	0100                	.2byte	0x100
    1912:	075d                	.2byte	0x75d
    1914:	0a74                	.2byte	0xa74
    1916:	0001                	.2byte	0x1
    1918:	0b1c                	.2byte	0xb1c
    191a:	0001                	.2byte	0x1
    191c:	3002                	.2byte	0x3002
    191e:	079f 0ba0 0001      	.byte	0x9f, 0x07, 0xa0, 0x0b, 0x01, 0x00
    1924:	0bac                	.2byte	0xbac
    1926:	0001                	.2byte	0x1
    1928:	3002                	.2byte	0x3002
    192a:	079f 0bb0 0001      	.byte	0x9f, 0x07, 0xb0, 0x0b, 0x01, 0x00
    1930:	0bb4                	.2byte	0xbb4
    1932:	0001                	.2byte	0x1
    1934:	5d01                	.2byte	0x5d01
    1936:	0700                	.2byte	0x700
    1938:	09a8                	.2byte	0x9a8
    193a:	0001                	.2byte	0x1
    193c:	09c4                	.2byte	0x9c4
    193e:	0001                	.2byte	0x1
    1940:	5c01                	.2byte	0x5c01
    1942:	010a4407          	.4byte	0x10a4407
    1946:	4800                	.2byte	0x4800
    1948:	010a                	.2byte	0x10a
    194a:	0100                	.2byte	0x100
    194c:	075c                	.2byte	0x75c
    194e:	0a48                	.2byte	0xa48
    1950:	0001                	.2byte	0x1
    1952:	0a50                	.2byte	0xa50
    1954:	0001                	.2byte	0x1
    1956:	8206                	.2byte	0x8206
    1958:	8400                	.2byte	0x8400
    195a:	2700                	.2byte	0x2700
    195c:	079f 0a50 0001      	.byte	0x9f, 0x07, 0x50, 0x0a, 0x01, 0x00
    1962:	0bb0                	.2byte	0xbb0
    1964:	0001                	.2byte	0x1
    1966:	5c01                	.2byte	0x5c01
    1968:	010bb007          	.4byte	0x10bb007
    196c:	b400                	.2byte	0xb400
    196e:	0600010b          	.4byte	0x600010b
    1972:	0084                	.2byte	0x84
    1974:	ff08                	.2byte	0xff08
    1976:	9f1a                	.2byte	0x9f1a
    1978:	010bb407          	.4byte	0x10bb407
    197c:	2400                	.2byte	0x2400
    197e:	010c                	.2byte	0x10c
    1980:	0100                	.2byte	0x100
    1982:	075c                	.2byte	0x75c
    1984:	0c28                	.2byte	0xc28
    1986:	0001                	.2byte	0x1
    1988:	0c34                	.2byte	0xc34
    198a:	0001                	.2byte	0x1
    198c:	5c01                	.2byte	0x5c01
    198e:	0700                	.2byte	0x700
    1990:	09a8                	.2byte	0x9a8
    1992:	0001                	.2byte	0x1
    1994:	09c4                	.2byte	0x9c4
    1996:	0001                	.2byte	0x1
    1998:	5901                	.2byte	0x5901
    199a:	010a4407          	.4byte	0x10a4407
    199e:	2000                	.2byte	0x2000
    19a0:	0100010b          	.4byte	0x100010b
    19a4:	0759                	.2byte	0x759
    19a6:	0b20                	.2byte	0xb20
    19a8:	0001                	.2byte	0x1
    19aa:	0b74                	.2byte	0xb74
    19ac:	0001                	.2byte	0x1
    19ae:	5e01                	.2byte	0x5e01
    19b0:	010ba007          	.4byte	0x10ba007
    19b4:	b400                	.2byte	0xb400
    19b6:	0100010b          	.4byte	0x100010b
    19ba:	0759                	.2byte	0x759
    19bc:	0bb4                	.2byte	0xbb4
    19be:	0001                	.2byte	0x1
    19c0:	0bc0                	.2byte	0xbc0
    19c2:	0001                	.2byte	0x1
    19c4:	5e01                	.2byte	0x5e01
    19c6:	010bc007          	.4byte	0x10bc007
    19ca:	d000                	.2byte	0xd000
    19cc:	0100010b          	.4byte	0x100010b
    19d0:	075d                	.2byte	0x75d
    19d2:	0c18                	.2byte	0xc18
    19d4:	0001                	.2byte	0x1
    19d6:	0c28                	.2byte	0xc28
    19d8:	0001                	.2byte	0x1
    19da:	5901                	.2byte	0x5901
    19dc:	0700                	.2byte	0x700
    19de:	0a50                	.2byte	0xa50
    19e0:	0001                	.2byte	0x1
    19e2:	0a68                	.2byte	0xa68
    19e4:	0001                	.2byte	0x1
    19e6:	5801                	.2byte	0x5801
    19e8:	010b1c07          	.4byte	0x10b1c07
    19ec:	5800                	.2byte	0x5800
    19ee:	0100010b          	.4byte	0x100010b
    19f2:	0758                	.2byte	0x758
    19f4:	0b58                	.2byte	0xb58
    19f6:	0001                	.2byte	0x1
    19f8:	0b64                	.2byte	0xb64
    19fa:	0001                	.2byte	0x1
    19fc:	7805                	.2byte	0x7805
    19fe:	3300                	.2byte	0x3300
    1a00:	9f25                	.2byte	0x9f25
    1a02:	010b6407          	.4byte	0x10b6407
    1a06:	7000                	.2byte	0x7000
    1a08:	0100010b          	.4byte	0x100010b
    1a0c:	075f 0bb0 0001      	.byte	0x5f, 0x07, 0xb0, 0x0b, 0x01, 0x00
    1a12:	0bdc                	.2byte	0xbdc
    1a14:	0001                	.2byte	0x1
    1a16:	5801                	.2byte	0x5801
    1a18:	010be407          	.4byte	0x10be407
    1a1c:	0800                	.2byte	0x800
    1a1e:	010c                	.2byte	0x10c
    1a20:	0100                	.2byte	0x100
    1a22:	005f 8007 010b      	.byte	0x5f, 0x00, 0x07, 0x80, 0x0b, 0x01
    1a28:	9800                	.2byte	0x9800
    1a2a:	0800010b          	.4byte	0x800010b
    1a2e:	007e                	.2byte	0x7e
    1a30:	007a                	.2byte	0x7a
    1a32:	a921                	.2byte	0xa921
    1a34:	9f26                	.2byte	0x9f26
    1a36:	010b9807          	.4byte	0x10b9807
    1a3a:	a000                	.2byte	0xa000
    1a3c:	0100010b          	.4byte	0x100010b
    1a40:	005a                	.2byte	0x5a
    1a42:	0109d007          	.4byte	0x109d007
    1a46:	e400                	.2byte	0xe400
    1a48:	0109                	.2byte	0x109
    1a4a:	0300                	.2byte	0x300
    1a4c:	787a                	.2byte	0x787a
    1a4e:	009f 1007 010a      	.byte	0x9f, 0x00, 0x07, 0x10, 0x0a, 0x01
    1a54:	2400                	.2byte	0x2400
    1a56:	010a                	.2byte	0x10a
    1a58:	0300                	.2byte	0x300
    1a5a:	787a                	.2byte	0x787a
    1a5c:	009f 8007 010a      	.byte	0x9f, 0x00, 0x07, 0x80, 0x0a, 0x01
    1a62:	1c00                	.2byte	0x1c00
    1a64:	0100010b          	.4byte	0x100010b
    1a68:	0ba80763          	beq	a6,s10,1b16 <exit-0xe57e>
    1a6c:	0001                	.2byte	0x1
    1a6e:	0bac                	.2byte	0xbac
    1a70:	0001                	.2byte	0x1
    1a72:	6301                	.2byte	0x6301
    1a74:	0700                	.2byte	0x700
    1a76:	0a80                	.2byte	0xa80
    1a78:	0001                	.2byte	0x1
    1a7a:	0a84                	.2byte	0xa84
    1a7c:	0001                	.2byte	0x1
    1a7e:	3002                	.2byte	0x3002
    1a80:	079f 0a84 0001      	.byte	0x9f, 0x07, 0x84, 0x0a, 0x01, 0x00
    1a86:	0a9c                	.2byte	0xa9c
    1a88:	0001                	.2byte	0x1
    1a8a:	5f01                	.2byte	0x5f01
    1a8c:	010ba407          	.4byte	0x10ba407
    1a90:	ac00                	.2byte	0xac00
    1a92:	0100010b          	.4byte	0x100010b
    1a96:	005f 0807 010b      	.byte	0x5f, 0x00, 0x07, 0x08, 0x0b, 0x01
    1a9c:	0c00                	.2byte	0xc00
    1a9e:	0800010b          	.4byte	0x800010b
    1aa2:	0078                	.2byte	0x78
    1aa4:	2440                	.2byte	0x2440
    1aa6:	007d                	.2byte	0x7d
    1aa8:	9f21                	.2byte	0x9f21
    1aaa:	010b1407          	.4byte	0x10b1407
    1aae:	1c00                	.2byte	0x1c00
    1ab0:	0100010b          	.4byte	0x100010b
    1ab4:	0058                	.2byte	0x58
    1ab6:	010b0807          	.4byte	0x10b0807
    1aba:	1000                	.2byte	0x1000
    1abc:	0600010b          	.4byte	0x600010b
    1ac0:	007f                	.2byte	0x7f
    1ac2:	007e                	.2byte	0x7e
    1ac4:	9f1c                	.2byte	0x9f1c
    1ac6:	010b1007          	.4byte	0x10b1007
    1aca:	1800                	.2byte	0x1800
    1acc:	0100010b          	.4byte	0x100010b
    1ad0:	005f 7807 010a      	.byte	0x5f, 0x00, 0x07, 0x78, 0x0a, 0x01
    1ad6:	1c00                	.2byte	0x1c00
    1ad8:	0100010b          	.4byte	0x100010b
    1adc:	0ba0075b          	.4byte	0xba0075b
    1ae0:	0001                	.2byte	0x1
    1ae2:	0bac                	.2byte	0xbac
    1ae4:	0001                	.2byte	0x1
    1ae6:	5b01                	.2byte	0x5b01
    1ae8:	0700                	.2byte	0x700
    1aea:	0a88                	.2byte	0xa88
    1aec:	0001                	.2byte	0x1
    1aee:	0aec                	.2byte	0xaec
    1af0:	0001                	.2byte	0x1
    1af2:	5a01                	.2byte	0x5a01
    1af4:	010aec07          	.4byte	0x10aec07
    1af8:	1c00                	.2byte	0x1c00
    1afa:	0500010b          	.4byte	0x500010b
    1afe:	2540007b          	.4byte	0x2540007b
    1b02:	009f 9807 010a      	.byte	0x9f, 0x00, 0x07, 0x98, 0x0a, 0x01
    1b08:	e400                	.2byte	0xe400
    1b0a:	010a                	.2byte	0x10a
    1b0c:	0100                	.2byte	0x100
    1b0e:	075d                	.2byte	0x75d
    1b10:	0ae4                	.2byte	0xae4
    1b12:	0001                	.2byte	0x1
    1b14:	0b1c                	.2byte	0xb1c
    1b16:	0001                	.2byte	0x1
    1b18:	0a007b07          	.4byte	0xa007b07
    1b1c:	ffff                	.2byte	0xffff
    1b1e:	9f1a                	.2byte	0x9f1a
    1b20:	0700                	.2byte	0x700
    1b22:	0a98                	.2byte	0xa98
    1b24:	0001                	.2byte	0x1
    1b26:	0abc                	.2byte	0xabc
    1b28:	0001                	.2byte	0x1
    1b2a:	6101                	.2byte	0x6101
    1b2c:	010abc07          	.4byte	0x10abc07
    1b30:	0c00                	.2byte	0xc00
    1b32:	0100010b          	.4byte	0x100010b
    1b36:	0058                	.2byte	0x58
    1b38:	010ad407          	.4byte	0x10ad407
    1b3c:	f400                	.2byte	0xf400
    1b3e:	010a                	.2byte	0x10a
    1b40:	0100                	.2byte	0x100
    1b42:	0760                	.2byte	0x760
    1b44:	0af4                	.2byte	0xaf4
    1b46:	0001                	.2byte	0x1
    1b48:	0b1c                	.2byte	0xb1c
    1b4a:	0001                	.2byte	0x1
    1b4c:	5d01                	.2byte	0x5d01
    1b4e:	0700                	.2byte	0x700
    1b50:	0a98                	.2byte	0xa98
    1b52:	0001                	.2byte	0x1
    1b54:	0aa0                	.2byte	0xaa0
    1b56:	0001                	.2byte	0x1
    1b58:	8306                	.2byte	0x8306
    1b5a:	7a00                	.2byte	0x7a00
    1b5c:	1d00                	.2byte	0x1d00
    1b5e:	079f 0aa0 0001      	.byte	0x9f, 0x07, 0xa0, 0x0a, 0x01, 0x00
    1b64:	0aac                	.2byte	0xaac
    1b66:	0001                	.2byte	0x1
    1b68:	5e01                	.2byte	0x5e01
    1b6a:	010aac07          	.4byte	0x10aac07
    1b6e:	b000                	.2byte	0xb000
    1b70:	010a                	.2byte	0x10a
    1b72:	0600                	.2byte	0x600
    1b74:	007a0083          	lb	ra,7(s4)
    1b78:	9f1d                	.2byte	0x9f1d
    1b7a:	010ab007          	.4byte	0x10ab007
    1b7e:	b800                	.2byte	0xb800
    1b80:	010a                	.2byte	0x10a
    1b82:	0100                	.2byte	0x100
    1b84:	075f 0abc 0001      	.byte	0x5f, 0x07, 0xbc, 0x0a, 0x01, 0x00
    1b8a:	0ad8                	.2byte	0xad8
    1b8c:	0001                	.2byte	0x1
    1b8e:	5f01                	.2byte	0x5f01
    1b90:	0700                	.2byte	0x700
    1b92:	0ad0                	.2byte	0xad0
    1b94:	0001                	.2byte	0x1
    1b96:	0ad8                	.2byte	0xad8
    1b98:	0001                	.2byte	0x1
    1b9a:	7f06                	.2byte	0x7f06
    1b9c:	7a00                	.2byte	0x7a00
    1b9e:	1d00                	.2byte	0x1d00
    1ba0:	079f 0ad8 0001      	.byte	0x9f, 0x07, 0xd8, 0x0a, 0x01, 0x00
    1ba6:	0af8                	.2byte	0xaf8
    1ba8:	0001                	.2byte	0x1
    1baa:	5f01                	.2byte	0x5f01
    1bac:	010af807          	.4byte	0x10af807
    1bb0:	0800                	.2byte	0x800
    1bb2:	0100010b          	.4byte	0x100010b
    1bb6:	075a                	.2byte	0x75a
    1bb8:	0b08                	.2byte	0xb08
    1bba:	0001                	.2byte	0x1
    1bbc:	0b10                	.2byte	0xb10
    1bbe:	0001                	.2byte	0x1
    1bc0:	7f06                	.2byte	0x7f06
    1bc2:	7e00                	.2byte	0x7e00
    1bc4:	1c00                	.2byte	0x1c00
    1bc6:	079f 0b10 0001      	.byte	0x9f, 0x07, 0x10, 0x0b, 0x01, 0x00
    1bcc:	0b18                	.2byte	0xb18
    1bce:	0001                	.2byte	0x1
    1bd0:	5f01                	.2byte	0x5f01
    1bd2:	0700                	.2byte	0x700
    1bd4:	0aa8                	.2byte	0xaa8
    1bd6:	0001                	.2byte	0x1
    1bd8:	0ad4                	.2byte	0xad4
    1bda:	0001                	.2byte	0x1
    1bdc:	6001                	.2byte	0x6001
    1bde:	010ad407          	.4byte	0x10ad407
    1be2:	dc00                	.2byte	0xdc00
    1be4:	010a                	.2byte	0x10a
    1be6:	0600                	.2byte	0x600
    1be8:	007d                	.2byte	0x7d
    1bea:	0081                	.2byte	0x81
    1bec:	9f1e                	.2byte	0x9f1e
    1bee:	010adc07          	.4byte	0x10adc07
    1bf2:	1c00                	.2byte	0x1c00
    1bf4:	0100010b          	.4byte	0x100010b
    1bf8:	005e                	.2byte	0x5e
    1bfa:	010bb407          	.4byte	0x10bb407
    1bfe:	d000                	.2byte	0xd000
    1c00:	0200010b          	.4byte	0x200010b
    1c04:	9f31                	.2byte	0x9f31
    1c06:	dd00                	.2byte	0xdd00
    1c08:	0000                	.2byte	0x0
    1c0a:	0500                	.2byte	0x500
    1c0c:	0400                	.2byte	0x400
    1c0e:	0000                	.2byte	0x0
    1c10:	0000                	.2byte	0x0
    1c12:	0700                	.2byte	0x700
    1c14:	0c34                	.2byte	0xc34
    1c16:	0001                	.2byte	0x1
    1c18:	0c50                	.2byte	0xc50
    1c1a:	0001                	.2byte	0x1
    1c1c:	5a01                	.2byte	0x5a01
    1c1e:	010c5007          	.4byte	0x10c5007
    1c22:	1000                	.2byte	0x1000
    1c24:	010d                	.2byte	0x10d
    1c26:	0600                	.2byte	0x600
    1c28:	0aa503a3          	sb	a0,167(a0)
    1c2c:	9f26                	.2byte	0x9f26
    1c2e:	0700                	.2byte	0x700
    1c30:	0c34                	.2byte	0xc34
    1c32:	0001                	.2byte	0x1
    1c34:	0c60                	.2byte	0xc60
    1c36:	0001                	.2byte	0x1
    1c38:	5b01                	.2byte	0x5b01
    1c3a:	010c6007          	.4byte	0x10c6007
    1c3e:	1000                	.2byte	0x1000
    1c40:	010d                	.2byte	0x10d
    1c42:	0600                	.2byte	0x600
    1c44:	0ba503a3          	sb	s10,167(a0)
    1c48:	9f26                	.2byte	0x9f26
    1c4a:	0700                	.2byte	0x700
    1c4c:	0c5c                	.2byte	0xc5c
    1c4e:	0001                	.2byte	0x1
    1c50:	0c6c                	.2byte	0xc6c
    1c52:	0001                	.2byte	0x1
    1c54:	5a01                	.2byte	0x5a01
    1c56:	010c7c07          	.4byte	0x10c7c07
    1c5a:	8000                	.2byte	0x8000
    1c5c:	010c                	.2byte	0x10c
    1c5e:	0100                	.2byte	0x100
    1c60:	075a                	.2byte	0x75a
    1c62:	0c90                	.2byte	0xc90
    1c64:	0001                	.2byte	0x1
    1c66:	0c98                	.2byte	0xc98
    1c68:	0001                	.2byte	0x1
    1c6a:	5a01                	.2byte	0x5a01
    1c6c:	010cb807          	.4byte	0x10cb807
    1c70:	d400                	.2byte	0xd400
    1c72:	010c                	.2byte	0x10c
    1c74:	0100                	.2byte	0x100
    1c76:	075a                	.2byte	0x75a
    1c78:	0cdc                	.2byte	0xcdc
    1c7a:	0001                	.2byte	0x1
    1c7c:	0ce8                	.2byte	0xce8
    1c7e:	0001                	.2byte	0x1
    1c80:	5a01                	.2byte	0x5a01
    1c82:	010cec07          	.4byte	0x10cec07
    1c86:	f000                	.2byte	0xf000
    1c88:	010c                	.2byte	0x10c
    1c8a:	0100                	.2byte	0x100
    1c8c:	075a                	.2byte	0x75a
    1c8e:	0d00                	.2byte	0xd00
    1c90:	0001                	.2byte	0x1
    1c92:	0d04                	.2byte	0xd04
    1c94:	0001                	.2byte	0x1
    1c96:	5a01                	.2byte	0x5a01
    1c98:	010d0807          	.4byte	0x10d0807
    1c9c:	1000                	.2byte	0x1000
    1c9e:	010d                	.2byte	0x10d
    1ca0:	0100                	.2byte	0x100
    1ca2:	005a                	.2byte	0x5a
    1ca4:	010cbc07          	.4byte	0x10cbc07
    1ca8:	c000                	.2byte	0xc000
    1caa:	010c                	.2byte	0x10c
    1cac:	0200                	.2byte	0x200
    1cae:	9f30                	.2byte	0x9f30
    1cb0:	010cdc07          	.4byte	0x10cdc07
    1cb4:	e800                	.2byte	0xe800
    1cb6:	010c                	.2byte	0x10c
    1cb8:	0800                	.2byte	0x800
    1cba:	007c                	.2byte	0x7c
    1cbc:	2930                	.2byte	0x2930
    1cbe:	ff08                	.2byte	0xff08
    1cc0:	9f1a                	.2byte	0x9f1a
    1cc2:	0700                	.2byte	0x700
    1cc4:	0ca0                	.2byte	0xca0
    1cc6:	0001                	.2byte	0x1
    1cc8:	0ca8                	.2byte	0xca8
    1cca:	0001                	.2byte	0x1
    1ccc:	3002                	.2byte	0x3002
    1cce:	079f 0ce4 0001      	.byte	0x9f, 0x07, 0xe4, 0x0c, 0x01, 0x00
    1cd4:	0ce8                	.2byte	0xce8
    1cd6:	0001                	.2byte	0x1
    1cd8:	3102                	.2byte	0x3102
    1cda:	079f 0cec 0001      	.byte	0x9f, 0x07, 0xec, 0x0c, 0x01, 0x00
    1ce0:	0d00                	.2byte	0xd00
    1ce2:	0001                	.2byte	0x1
    1ce4:	3002                	.2byte	0x3002
    1ce6:	009f 04ec 0000      	.byte	0x9f, 0x00, 0xec, 0x04, 0x00, 0x00
    1cec:	0005                	.2byte	0x5
    1cee:	0004                	.2byte	0x4
    1cf0:	0000                	.2byte	0x0
    1cf2:	0000                	.2byte	0x0
    1cf4:	010d1007          	.4byte	0x10d1007
    1cf8:	6400                	.2byte	0x6400
    1cfa:	010d                	.2byte	0x10d
    1cfc:	0100                	.2byte	0x100
    1cfe:	075a                	.2byte	0x75a
    1d00:	0d64                	.2byte	0xd64
    1d02:	0001                	.2byte	0x1
    1d04:	0ed4                	.2byte	0xed4
    1d06:	0001                	.2byte	0x1
    1d08:	a306                	.2byte	0xa306
    1d0a:	260aa503          	lw	a0,608(s5)
    1d0e:	079f 0ed4 0001      	.byte	0x9f, 0x07, 0xd4, 0x0e, 0x01, 0x00
    1d14:	0edc                	.2byte	0xedc
    1d16:	0001                	.2byte	0x1
    1d18:	5a01                	.2byte	0x5a01
    1d1a:	010edc07          	.4byte	0x10edc07
    1d1e:	f400                	.2byte	0xf400
    1d20:	010e                	.2byte	0x10e
    1d22:	0600                	.2byte	0x600
    1d24:	0aa503a3          	sb	a0,167(a0)
    1d28:	9f26                	.2byte	0x9f26
    1d2a:	010ef407          	.4byte	0x10ef407
    1d2e:	1400                	.2byte	0x1400
    1d30:	0100010f          	.4byte	0x100010f
    1d34:	075a                	.2byte	0x75a
    1d36:	0f14                	.2byte	0xf14
    1d38:	0001                	.2byte	0x1
    1d3a:	1044                	.2byte	0x1044
    1d3c:	0001                	.2byte	0x1
    1d3e:	a306                	.2byte	0xa306
    1d40:	260aa503          	lw	a0,608(s5)
    1d44:	009f 1007 010d      	.byte	0x9f, 0x00, 0x07, 0x10, 0x0d, 0x01
    1d4a:	6400                	.2byte	0x6400
    1d4c:	010d                	.2byte	0x10d
    1d4e:	0100                	.2byte	0x100
    1d50:	0d64075b          	.4byte	0xd64075b
    1d54:	0001                	.2byte	0x1
    1d56:	0d7c                	.2byte	0xd7c
    1d58:	0001                	.2byte	0x1
    1d5a:	6501                	.2byte	0x6501
    1d5c:	010d7c07          	.4byte	0x10d7c07
    1d60:	d400                	.2byte	0xd400
    1d62:	010e                	.2byte	0x10e
    1d64:	0600                	.2byte	0x600
    1d66:	0ba503a3          	sb	s10,167(a0)
    1d6a:	9f26                	.2byte	0x9f26
    1d6c:	010ed407          	.4byte	0x10ed407
    1d70:	df00                	.2byte	0xdf00
    1d72:	010e                	.2byte	0x10e
    1d74:	0100                	.2byte	0x100
    1d76:	0edf075b          	.4byte	0xedf075b
    1d7a:	0001                	.2byte	0x1
    1d7c:	0ef4                	.2byte	0xef4
    1d7e:	0001                	.2byte	0x1
    1d80:	6501                	.2byte	0x6501
    1d82:	010ef407          	.4byte	0x10ef407
    1d86:	1400                	.2byte	0x1400
    1d88:	0100010f          	.4byte	0x100010f
    1d8c:	0f14075b          	.4byte	0xf14075b
    1d90:	0001                	.2byte	0x1
    1d92:	1044                	.2byte	0x1044
    1d94:	0001                	.2byte	0x1
    1d96:	a306                	.2byte	0xa306
    1d98:	260ba503          	lw	a0,608(s7)
    1d9c:	009f 1007 010d      	.byte	0x9f, 0x00, 0x07, 0x10, 0x0d, 0x01
    1da2:	6800                	.2byte	0x6800
    1da4:	010d                	.2byte	0x10d
    1da6:	0200                	.2byte	0x200
    1da8:	9f30                	.2byte	0x9f30
    1daa:	010ed407          	.4byte	0x10ed407
    1dae:	1400                	.2byte	0x1400
    1db0:	0200010f          	.4byte	0x200010f
    1db4:	9f30                	.2byte	0x9f30
    1db6:	0700                	.2byte	0x700
    1db8:	0d64                	.2byte	0xd64
    1dba:	0001                	.2byte	0x1
    1dbc:	0d68                	.2byte	0xd68
    1dbe:	0001                	.2byte	0x1
    1dc0:	3002                	.2byte	0x3002
    1dc2:	079f 0d68 0001      	.byte	0x9f, 0x07, 0x68, 0x0d, 0x01, 0x00
    1dc8:	0ec4                	.2byte	0xec4
    1dca:	0001                	.2byte	0x1
    1dcc:	6401                	.2byte	0x6401
    1dce:	010f1407          	.4byte	0x10f1407
    1dd2:	4400                	.2byte	0x4400
    1dd4:	0110                	.2byte	0x110
    1dd6:	0100                	.2byte	0x100
    1dd8:	0064                	.2byte	0x64
    1dda:	010d4807          	.4byte	0x10d4807
    1dde:	c000                	.2byte	0xc000
    1de0:	010e                	.2byte	0x10e
    1de2:	0600                	.2byte	0x600
    1de4:	ff080083          	lb	ra,-16(a6)
    1de8:	9f1a                	.2byte	0x9f1a
    1dea:	010ed407          	.4byte	0x10ed407
    1dee:	4400                	.2byte	0x4400
    1df0:	0110                	.2byte	0x110
    1df2:	0600                	.2byte	0x600
    1df4:	ff080083          	lb	ra,-16(a6)
    1df8:	9f1a                	.2byte	0x9f1a
    1dfa:	0700                	.2byte	0x700
    1dfc:	0d44                	.2byte	0xd44
    1dfe:	0001                	.2byte	0x1
    1e00:	0d64                	.2byte	0xd64
    1e02:	0001                	.2byte	0x1
    1e04:	8206                	.2byte	0x8206
    1e06:	0800                	.2byte	0x800
    1e08:	1aff                	.2byte	0x1aff
    1e0a:	079f 0d64 0001      	.byte	0x9f, 0x07, 0x64, 0x0d, 0x01, 0x00
    1e10:	0da0                	.2byte	0xda0
    1e12:	0001                	.2byte	0x1
    1e14:	6201                	.2byte	0x6201
    1e16:	010ed407          	.4byte	0x10ed407
    1e1a:	e800                	.2byte	0xe800
    1e1c:	010e                	.2byte	0x10e
    1e1e:	0600                	.2byte	0x600
    1e20:	0082                	.2byte	0x82
    1e22:	ff08                	.2byte	0xff08
    1e24:	9f1a                	.2byte	0x9f1a
    1e26:	010ef407          	.4byte	0x10ef407
    1e2a:	f800                	.2byte	0xf800
    1e2c:	010e                	.2byte	0x10e
    1e2e:	0600                	.2byte	0x600
    1e30:	0082                	.2byte	0x82
    1e32:	ff08                	.2byte	0xff08
    1e34:	9f1a                	.2byte	0x9f1a
    1e36:	010ef807          	.4byte	0x10ef807
    1e3a:	0800                	.2byte	0x800
    1e3c:	0800010f          	.4byte	0x800010f
    1e40:	007a                	.2byte	0x7a
    1e42:	ff082547          	.4byte	0xff082547
    1e46:	9f1a                	.2byte	0x9f1a
    1e48:	010f0807          	.4byte	0x10f0807
    1e4c:	0c00                	.2byte	0xc00
    1e4e:	0600010f          	.4byte	0x600010f
    1e52:	0082                	.2byte	0x82
    1e54:	ff08                	.2byte	0xff08
    1e56:	9f1a                	.2byte	0x9f1a
    1e58:	010f0c07          	.4byte	0x10f0c07
    1e5c:	1400                	.2byte	0x1400
    1e5e:	0800010f          	.4byte	0x800010f
    1e62:	007a                	.2byte	0x7a
    1e64:	ff082547          	.4byte	0xff082547
    1e68:	9f1a                	.2byte	0x9f1a
    1e6a:	010f1407          	.4byte	0x10f1407
    1e6e:	5400                	.2byte	0x5400
    1e70:	0100010f          	.4byte	0x100010f
    1e74:	0062                	.2byte	0x62
    1e76:	010d4407          	.4byte	0x10d4407
    1e7a:	5400                	.2byte	0x5400
    1e7c:	010d                	.2byte	0x10d
    1e7e:	0100                	.2byte	0x100
    1e80:	0759                	.2byte	0x759
    1e82:	0d54                	.2byte	0xd54
    1e84:	0001                	.2byte	0x1
    1e86:	0d58                	.2byte	0xd58
    1e88:	0001                	.2byte	0x1
    1e8a:	40007907          	.4byte	0x40007907
    1e8e:	9f212443          	.4byte	0x9f212443
    1e92:	010d5807          	.4byte	0x10d5807
    1e96:	6000                	.2byte	0x6000
    1e98:	010d                	.2byte	0x10d
    1e9a:	0b00                	.2byte	0xb00
    1e9c:	007a                	.2byte	0x7a
    1e9e:	2439                	.2byte	0x2439
    1ea0:	2539                	.2byte	0x2539
    1ea2:	4340                	.2byte	0x4340
    1ea4:	2124                	.2byte	0x2124
    1ea6:	079f 0d60 0001      	.byte	0x9f, 0x07, 0x60, 0x0d, 0x01, 0x00
    1eac:	0de4                	.2byte	0xde4
    1eae:	0001                	.2byte	0x1
    1eb0:	5901                	.2byte	0x5901
    1eb2:	010ed407          	.4byte	0x10ed407
    1eb6:	bc00                	.2byte	0xbc00
    1eb8:	0100010f          	.4byte	0x100010f
    1ebc:	0759                	.2byte	0x759
    1ebe:	1028                	.2byte	0x1028
    1ec0:	0001                	.2byte	0x1
    1ec2:	1038                	.2byte	0x1038
    1ec4:	0001                	.2byte	0x1
    1ec6:	5901                	.2byte	0x5901
    1ec8:	0700                	.2byte	0x700
    1eca:	0d98                	.2byte	0xd98
    1ecc:	0001                	.2byte	0x1
    1ece:	0d9c                	.2byte	0xd9c
    1ed0:	0001                	.2byte	0x1
    1ed2:	3002                	.2byte	0x3002
    1ed4:	079f 0d9c 0001      	.byte	0x9f, 0x07, 0x9c, 0x0d, 0x01, 0x00
    1eda:	0dd8                	.2byte	0xdd8
    1edc:	0001                	.2byte	0x1
    1ede:	5e01                	.2byte	0x5e01
    1ee0:	010f5407          	.4byte	0x10f5407
    1ee4:	7800                	.2byte	0x7800
    1ee6:	0100010f          	.4byte	0x100010f
    1eea:	075e                	.2byte	0x75e
    1eec:	0f9c                	.2byte	0xf9c
    1eee:	0001                	.2byte	0x1
    1ef0:	0fb8                	.2byte	0xfb8
    1ef2:	0001                	.2byte	0x1
    1ef4:	5e01                	.2byte	0x5e01
    1ef6:	0700                	.2byte	0x700
    1ef8:	0d7c                	.2byte	0xd7c
    1efa:	0001                	.2byte	0x1
    1efc:	0ec8                	.2byte	0xec8
    1efe:	0001                	.2byte	0x1
    1f00:	8506                	.2byte	0x8506
    1f02:	0800                	.2byte	0x800
    1f04:	1aff                	.2byte	0x1aff
    1f06:	079f 0f14 0001      	.byte	0x9f, 0x07, 0x14, 0x0f, 0x01, 0x00
    1f0c:	1044                	.2byte	0x1044
    1f0e:	0001                	.2byte	0x1
    1f10:	8506                	.2byte	0x8506
    1f12:	0800                	.2byte	0x800
    1f14:	1aff                	.2byte	0x1aff
    1f16:	009f 7807 010d      	.byte	0x9f, 0x00, 0x07, 0x78, 0x0d, 0x01
    1f1c:	9800                	.2byte	0x9800
    1f1e:	010d                	.2byte	0x10d
    1f20:	0600                	.2byte	0x600
    1f22:	007f                	.2byte	0x7f
    1f24:	ff08                	.2byte	0xff08
    1f26:	9f1a                	.2byte	0x9f1a
    1f28:	010d9807          	.4byte	0x10d9807
    1f2c:	a400                	.2byte	0xa400
    1f2e:	010d                	.2byte	0x10d
    1f30:	0100                	.2byte	0x100
    1f32:	075f 0f14 0001      	.byte	0x5f, 0x07, 0x14, 0x0f, 0x01, 0x00
    1f38:	0f1f 0001 7f06      	.byte	0x1f, 0x0f, 0x01, 0x00, 0x06, 0x7f
    1f3e:	0800                	.2byte	0x800
    1f40:	1aff                	.2byte	0x1aff
    1f42:	079f 0f34 0001      	.byte	0x9f, 0x07, 0x34, 0x0f, 0x01, 0x00
    1f48:	0f38                	.2byte	0xf38
    1f4a:	0001                	.2byte	0x1
    1f4c:	7f06                	.2byte	0x7f06
    1f4e:	0800                	.2byte	0x800
    1f50:	1aff                	.2byte	0x1aff
    1f52:	079f 0f48 0001      	.byte	0x9f, 0x07, 0x48, 0x0f, 0x01, 0x00
    1f58:	0f4c                	.2byte	0xf4c
    1f5a:	0001                	.2byte	0x1
    1f5c:	7f06                	.2byte	0x7f06
    1f5e:	0800                	.2byte	0x800
    1f60:	1aff                	.2byte	0x1aff
    1f62:	009f 7807 010d      	.byte	0x9f, 0x00, 0x07, 0x78, 0x0d, 0x01
    1f68:	8800                	.2byte	0x8800
    1f6a:	010d                	.2byte	0x10d
    1f6c:	0100                	.2byte	0x100
    1f6e:	0758                	.2byte	0x758
    1f70:	0d88                	.2byte	0xd88
    1f72:	0001                	.2byte	0x1
    1f74:	0d8c                	.2byte	0xd8c
    1f76:	0001                	.2byte	0x1
    1f78:	40007807          	.4byte	0x40007807
    1f7c:	9f212443          	.4byte	0x9f212443
    1f80:	010d9407          	.4byte	0x10d9407
    1f84:	f000                	.2byte	0xf000
    1f86:	010d                	.2byte	0x10d
    1f88:	0100                	.2byte	0x100
    1f8a:	0758                	.2byte	0x758
    1f8c:	0f14                	.2byte	0xf14
    1f8e:	0001                	.2byte	0x1
    1f90:	0f78                	.2byte	0xf78
    1f92:	0001                	.2byte	0x1
    1f94:	5801                	.2byte	0x5801
    1f96:	010f9c07          	.4byte	0x10f9c07
    1f9a:	b400                	.2byte	0xb400
    1f9c:	0100010f          	.4byte	0x100010f
    1fa0:	0058                	.2byte	0x58
    1fa2:	010dcc07          	.4byte	0x10dcc07
    1fa6:	5000                	.2byte	0x5000
    1fa8:	010e                	.2byte	0x10e
    1faa:	0200                	.2byte	0x200
    1fac:	9f30                	.2byte	0x9f30
    1fae:	010f7807          	.4byte	0x10f7807
    1fb2:	9800                	.2byte	0x9800
    1fb4:	0100010f          	.4byte	0x100010f
    1fb8:	075e                	.2byte	0x75e
    1fba:	0fbc                	.2byte	0xfbc
    1fbc:	0001                	.2byte	0x1
    1fbe:	0fc4                	.2byte	0xfc4
    1fc0:	0001                	.2byte	0x1
    1fc2:	3002                	.2byte	0x3002
    1fc4:	009f b007 010d      	.byte	0x9f, 0x00, 0x07, 0xb0, 0x0d, 0x01
    1fca:	5000                	.2byte	0x5000
    1fcc:	010e                	.2byte	0x10e
    1fce:	0100                	.2byte	0x100
    1fd0:	075a                	.2byte	0x75a
    1fd2:	0e98                	.2byte	0xe98
    1fd4:	0001                	.2byte	0x1
    1fd6:	0eb4                	.2byte	0xeb4
    1fd8:	0001                	.2byte	0x1
    1fda:	5a01                	.2byte	0x5a01
    1fdc:	010f5407          	.4byte	0x10f5407
    1fe0:	7400                	.2byte	0x7400
    1fe2:	0100010f          	.4byte	0x100010f
    1fe6:	075a                	.2byte	0x75a
    1fe8:	0f74                	.2byte	0xf74
    1fea:	0001                	.2byte	0x1
    1fec:	0f78                	.2byte	0xf78
    1fee:	0001                	.2byte	0x1
    1ff0:	8306                	.2byte	0x8306
    1ff2:	8500                	.2byte	0x8500
    1ff4:	2700                	.2byte	0x2700
    1ff6:	079f 0f78 0001      	.byte	0x9f, 0x07, 0x78, 0x0f, 0x01, 0x00
    1ffc:	0fac                	.2byte	0xfac
    1ffe:	0001                	.2byte	0x1
    2000:	5a01                	.2byte	0x5a01
    2002:	010fac07          	.4byte	0x10fac07
    2006:	bc00                	.2byte	0xbc00
    2008:	0600010f          	.4byte	0x600010f
    200c:	00850083          	lb	ra,8(a0)
    2010:	bc079f27          	.4byte	0xbc079f27
    2014:	c400010f          	.4byte	0xc400010f
    2018:	0100010f          	.4byte	0x100010f
    201c:	075a                	.2byte	0x75a
    201e:	1028                	.2byte	0x1028
    2020:	0001                	.2byte	0x1
    2022:	1034                	.2byte	0x1034
    2024:	0001                	.2byte	0x1
    2026:	5a01                	.2byte	0x5a01
    2028:	0700                	.2byte	0x700
    202a:	0db4                	.2byte	0xdb4
    202c:	0001                	.2byte	0x1
    202e:	0e50                	.2byte	0xe50
    2030:	0001                	.2byte	0x1
    2032:	5c01                	.2byte	0x5c01
    2034:	010e5407          	.4byte	0x10e5407
    2038:	a800                	.2byte	0xa800
    203a:	010e                	.2byte	0x10e
    203c:	0100                	.2byte	0x100
    203e:	075e                	.2byte	0x75e
    2040:	0f54                	.2byte	0xf54
    2042:	0001                	.2byte	0x1
    2044:	0fc0                	.2byte	0xfc0
    2046:	0001                	.2byte	0x1
    2048:	5c01                	.2byte	0x5c01
    204a:	010fc007          	.4byte	0x10fc007
    204e:	c400                	.2byte	0xc400
    2050:	0300010f          	.4byte	0x300010f
    2054:	0182                	.2byte	0x182
    2056:	079f 0fc4 0001      	.byte	0x9f, 0x07, 0xc4, 0x0f, 0x01, 0x00
    205c:	0fd0                	.2byte	0xfd0
    205e:	0001                	.2byte	0x1
    2060:	5e01                	.2byte	0x5e01
    2062:	010fd007          	.4byte	0x10fd007
    2066:	e000                	.2byte	0xe000
    2068:	0100010f          	.4byte	0x100010f
    206c:	075d                	.2byte	0x75d
    206e:	1028                	.2byte	0x1028
    2070:	0001                	.2byte	0x1
    2072:	1038                	.2byte	0x1038
    2074:	0001                	.2byte	0x1
    2076:	5c01                	.2byte	0x5c01
    2078:	0700                	.2byte	0x700
    207a:	0e38                	.2byte	0xe38
    207c:	0001                	.2byte	0x1
    207e:	0e4c                	.2byte	0xe4c
    2080:	0001                	.2byte	0x1
    2082:	5801                	.2byte	0x5801
    2084:	010e7007          	.4byte	0x10e7007
    2088:	8c00                	.2byte	0x8c00
    208a:	010e                	.2byte	0x10e
    208c:	0100                	.2byte	0x100
    208e:	0758                	.2byte	0x758
    2090:	0e8c                	.2byte	0xe8c
    2092:	0001                	.2byte	0x1
    2094:	0e98                	.2byte	0xe98
    2096:	0001                	.2byte	0x1
    2098:	7805                	.2byte	0x7805
    209a:	3300                	.2byte	0x3300
    209c:	9f25                	.2byte	0x9f25
    209e:	010e9807          	.4byte	0x10e9807
    20a2:	a400                	.2byte	0xa400
    20a4:	010e                	.2byte	0x10e
    20a6:	0100                	.2byte	0x100
    20a8:	075f 0f78 0001      	.byte	0x5f, 0x07, 0x78, 0x0f, 0x01, 0x00
    20ae:	0f9c                	.2byte	0xf9c
    20b0:	0001                	.2byte	0x1
    20b2:	5801                	.2byte	0x5801
    20b4:	010fbc07          	.4byte	0x10fbc07
    20b8:	c400                	.2byte	0xc400
    20ba:	0100010f          	.4byte	0x100010f
    20be:	0758                	.2byte	0x758
    20c0:	0ff4                	.2byte	0xff4
    20c2:	0001                	.2byte	0x1
    20c4:	1018                	.2byte	0x1018
    20c6:	0001                	.2byte	0x1
    20c8:	5f01                	.2byte	0x5f01
    20ca:	0700                	.2byte	0x700
    20cc:	0eb4                	.2byte	0xeb4
    20ce:	0001                	.2byte	0x1
    20d0:	0ecc                	.2byte	0xecc
    20d2:	0001                	.2byte	0x1
    20d4:	7e08                	.2byte	0x7e08
    20d6:	7a00                	.2byte	0x7a00
    20d8:	2100                	.2byte	0x2100
    20da:	26a9                	.2byte	0x26a9
    20dc:	079f 0ecc 0001      	.byte	0x9f, 0x07, 0xcc, 0x0e, 0x01, 0x00
    20e2:	0ed4                	.2byte	0xed4
    20e4:	0001                	.2byte	0x1
    20e6:	5a01                	.2byte	0x5a01
    20e8:	0700                	.2byte	0x700
    20ea:	0ee0                	.2byte	0xee0
    20ec:	0001                	.2byte	0x1
    20ee:	0ef4                	.2byte	0xef4
    20f0:	0001                	.2byte	0x1
    20f2:	9f787a03          	.4byte	0x9f787a03
    20f6:	0700                	.2byte	0x700
    20f8:	0f20                	.2byte	0xf20
    20fa:	0001                	.2byte	0x1
    20fc:	0f34                	.2byte	0xf34
    20fe:	0001                	.2byte	0x1
    2100:	9f787a03          	.4byte	0x9f787a03
    2104:	0700                	.2byte	0x700
    2106:	0e18                	.2byte	0xe18
    2108:	0001                	.2byte	0x1
    210a:	0e28                	.2byte	0xe28
    210c:	0001                	.2byte	0x1
    210e:	5f01                	.2byte	0x5f01
    2110:	010e3807          	.4byte	0x10e3807
    2114:	4c00                	.2byte	0x4c00
    2116:	010e                	.2byte	0x10e
    2118:	0100                	.2byte	0x100
    211a:	0758                	.2byte	0x758
    211c:	0fbc                	.2byte	0xfbc
    211e:	0001                	.2byte	0x1
    2120:	0fc4                	.2byte	0xfc4
    2122:	0001                	.2byte	0x1
    2124:	5801                	.2byte	0x5801
    2126:	0700                	.2byte	0x700
    2128:	0e08                	.2byte	0xe08
    212a:	0001                	.2byte	0x1
    212c:	0e20                	.2byte	0xe20
    212e:	0001                	.2byte	0x1
    2130:	7808                	.2byte	0x7808
    2132:	4000                	.2byte	0x4000
    2134:	7e25                	.2byte	0x7e25
    2136:	2200                	.2byte	0x2200
    2138:	079f 0e2c 0001      	.byte	0x9f, 0x07, 0x2c, 0x0e, 0x01, 0x00
    213e:	0e34                	.2byte	0xe34
    2140:	0001                	.2byte	0x1
    2142:	5801                	.2byte	0x5801
    2144:	0700                	.2byte	0x700
    2146:	0de8                	.2byte	0xde8
    2148:	0001                	.2byte	0x1
    214a:	0e14                	.2byte	0xe14
    214c:	0001                	.2byte	0x1
    214e:	5b01                	.2byte	0x5b01
    2150:	0700                	.2byte	0x700
    2152:	0de8                	.2byte	0xde8
    2154:	0001                	.2byte	0x1
    2156:	0df8                	.2byte	0xdf8
    2158:	0001                	.2byte	0x1
    215a:	7f06                	.2byte	0x7f06
    215c:	7900                	.2byte	0x7900
    215e:	1e00                	.2byte	0x1e00
    2160:	079f 0df8 0001      	.byte	0x9f, 0x07, 0xf8, 0x0d, 0x01, 0x00
    2166:	0dfc                	.2byte	0xdfc
    2168:	0001                	.2byte	0x1
    216a:	5f01                	.2byte	0x5f01
    216c:	010e0007          	.4byte	0x10e0007
    2170:	2000                	.2byte	0x2000
    2172:	010e                	.2byte	0x10e
    2174:	0100                	.2byte	0x100
    2176:	0058                	.2byte	0x58
    2178:	010dec07          	.4byte	0x10dec07
    217c:	1c00                	.2byte	0x1c00
    217e:	010e                	.2byte	0x10e
    2180:	0100                	.2byte	0x100
    2182:	005d                	.2byte	0x5d
    2184:	010df407          	.4byte	0x10df407
    2188:	5000                	.2byte	0x5000
    218a:	010e                	.2byte	0x10e
    218c:	0100                	.2byte	0x100
    218e:	075e                	.2byte	0x75e
    2190:	0fbc                	.2byte	0xfbc
    2192:	0001                	.2byte	0x1
    2194:	0fc4                	.2byte	0xfc4
    2196:	0001                	.2byte	0x1
    2198:	5e01                	.2byte	0x5e01
    219a:	0700                	.2byte	0x700
    219c:	0dcc                	.2byte	0xdcc
    219e:	0001                	.2byte	0x1
    21a0:	0de4                	.2byte	0xde4
    21a2:	0001                	.2byte	0x1
    21a4:	5901                	.2byte	0x5901
    21a6:	0700                	.2byte	0x700
    21a8:	0dd8                	.2byte	0xdd8
    21aa:	0001                	.2byte	0x1
    21ac:	0df0                	.2byte	0xdf0
    21ae:	0001                	.2byte	0x1
    21b0:	5801                	.2byte	0x5801
    21b2:	0700                	.2byte	0x700
    21b4:	0dd8                	.2byte	0xdd8
    21b6:	0001                	.2byte	0x1
    21b8:	0df4                	.2byte	0xdf4
    21ba:	0001                	.2byte	0x1
    21bc:	5e01                	.2byte	0x5e01
    21be:	0700                	.2byte	0x700
    21c0:	0ddc                	.2byte	0xddc
    21c2:	0001                	.2byte	0x1
    21c4:	0df8                	.2byte	0xdf8
    21c6:	0001                	.2byte	0x1
    21c8:	5f01                	.2byte	0x5f01
    21ca:	0700                	.2byte	0x700
    21cc:	0fc4                	.2byte	0xfc4
    21ce:	0001                	.2byte	0x1
    21d0:	0fe0                	.2byte	0xfe0
    21d2:	0001                	.2byte	0x1
    21d4:	3102                	.2byte	0x3102
    21d6:	009f 0afa 0000      	.byte	0x9f, 0x00, 0xfa, 0x0a, 0x00, 0x00
    21dc:	0005                	.2byte	0x5
    21de:	0004                	.2byte	0x4
    21e0:	0000                	.2byte	0x0
    21e2:	0000                	.2byte	0x0
    21e4:	01104407          	.4byte	0x1104407
    21e8:	8800                	.2byte	0x8800
    21ea:	0110                	.2byte	0x110
    21ec:	0100                	.2byte	0x100
    21ee:	075a                	.2byte	0x75a
    21f0:	1088                	.2byte	0x1088
    21f2:	0001                	.2byte	0x1
    21f4:	1500                	.2byte	0x1500
    21f6:	0001                	.2byte	0x1
    21f8:	a306                	.2byte	0xa306
    21fa:	260aa503          	lw	a0,608(s5)
    21fe:	009f 4407 0110      	.byte	0x9f, 0x00, 0x07, 0x44, 0x10, 0x01
    2204:	8400                	.2byte	0x8400
    2206:	0110                	.2byte	0x110
    2208:	0100                	.2byte	0x100
    220a:	1084075b          	.4byte	0x1084075b
    220e:	0001                	.2byte	0x1
    2210:	1500                	.2byte	0x1500
    2212:	0001                	.2byte	0x1
    2214:	a306                	.2byte	0xa306
    2216:	260ba503          	lw	a0,608(s7)
    221a:	009f 4407 0110      	.byte	0x9f, 0x00, 0x07, 0x44, 0x10, 0x01
    2220:	c400                	.2byte	0xc400
    2222:	0110                	.2byte	0x110
    2224:	0200                	.2byte	0x200
    2226:	9f30                	.2byte	0x9f30
    2228:	01112807          	.4byte	0x1112807
    222c:	6800                	.2byte	0x6800
    222e:	0111                	.2byte	0x111
    2230:	0200                	.2byte	0x200
    2232:	9f30                	.2byte	0x9f30
    2234:	01117407          	.4byte	0x1117407
    2238:	9000                	.2byte	0x9000
    223a:	0111                	.2byte	0x111
    223c:	0200                	.2byte	0x200
    223e:	9f30                	.2byte	0x9f30
    2240:	0111ac07          	.4byte	0x111ac07
    2244:	a000                	.2byte	0xa000
    2246:	0112                	.2byte	0x112
    2248:	0200                	.2byte	0x200
    224a:	9f30                	.2byte	0x9f30
    224c:	0112ac07          	.4byte	0x112ac07
    2250:	2c00                	.2byte	0x2c00
    2252:	0114                	.2byte	0x114
    2254:	0200                	.2byte	0x200
    2256:	9f30                	.2byte	0x9f30
    2258:	01145007          	.4byte	0x1145007
    225c:	d400                	.2byte	0xd400
    225e:	0114                	.2byte	0x114
    2260:	0200                	.2byte	0x200
    2262:	9f30                	.2byte	0x9f30
    2264:	0114ec07          	.4byte	0x114ec07
    2268:	0000                	.2byte	0x0
    226a:	0115                	.2byte	0x115
    226c:	0200                	.2byte	0x200
    226e:	9f30                	.2byte	0x9f30
    2270:	0700                	.2byte	0x700
    2272:	1080                	.2byte	0x1080
    2274:	0001                	.2byte	0x1
    2276:	10c4                	.2byte	0x10c4
    2278:	0001                	.2byte	0x1
    227a:	5901                	.2byte	0x5901
    227c:	01112807          	.4byte	0x1112807
    2280:	6c00                	.2byte	0x6c00
    2282:	0111                	.2byte	0x111
    2284:	0100                	.2byte	0x100
    2286:	0759                	.2byte	0x759
    2288:	1174                	.2byte	0x1174
    228a:	0001                	.2byte	0x1
    228c:	1190                	.2byte	0x1190
    228e:	0001                	.2byte	0x1
    2290:	5901                	.2byte	0x5901
    2292:	0111ac07          	.4byte	0x111ac07
    2296:	dc00                	.2byte	0xdc00
    2298:	0112                	.2byte	0x112
    229a:	0100                	.2byte	0x100
    229c:	0759                	.2byte	0x759
    229e:	12e4                	.2byte	0x12e4
    22a0:	0001                	.2byte	0x1
    22a2:	1310                	.2byte	0x1310
    22a4:	0001                	.2byte	0x1
    22a6:	5901                	.2byte	0x5901
    22a8:	01132807          	.4byte	0x1132807
    22ac:	4c00                	.2byte	0x4c00
    22ae:	01000113          	li	sp,16
    22b2:	0759                	.2byte	0x759
    22b4:	1350                	.2byte	0x1350
    22b6:	0001                	.2byte	0x1
    22b8:	1360                	.2byte	0x1360
    22ba:	0001                	.2byte	0x1
    22bc:	5901                	.2byte	0x5901
    22be:	01136407          	.4byte	0x1136407
    22c2:	7400                	.2byte	0x7400
    22c4:	01000113          	li	sp,16
    22c8:	0759                	.2byte	0x759
    22ca:	138c                	.2byte	0x138c
    22cc:	0001                	.2byte	0x1
    22ce:	1390                	.2byte	0x1390
    22d0:	0001                	.2byte	0x1
    22d2:	5901                	.2byte	0x5901
    22d4:	01139807          	.4byte	0x1139807
    22d8:	9c00                	.2byte	0x9c00
    22da:	01000113          	li	sp,16
    22de:	0759                	.2byte	0x759
    22e0:	13d8                	.2byte	0x13d8
    22e2:	0001                	.2byte	0x1
    22e4:	13e4                	.2byte	0x13e4
    22e6:	0001                	.2byte	0x1
    22e8:	5901                	.2byte	0x5901
    22ea:	0113e807          	.4byte	0x113e807
    22ee:	0400                	.2byte	0x400
    22f0:	0114                	.2byte	0x114
    22f2:	0100                	.2byte	0x100
    22f4:	0759                	.2byte	0x759
    22f6:	1408                	.2byte	0x1408
    22f8:	0001                	.2byte	0x1
    22fa:	142c                	.2byte	0x142c
    22fc:	0001                	.2byte	0x1
    22fe:	5901                	.2byte	0x5901
    2300:	01143407          	.4byte	0x1143407
    2304:	3c00                	.2byte	0x3c00
    2306:	0114                	.2byte	0x114
    2308:	0100                	.2byte	0x100
    230a:	0759                	.2byte	0x759
    230c:	1450                	.2byte	0x1450
    230e:	0001                	.2byte	0x1
    2310:	1468                	.2byte	0x1468
    2312:	0001                	.2byte	0x1
    2314:	5901                	.2byte	0x5901
    2316:	0114a407          	.4byte	0x114a407
    231a:	b000                	.2byte	0xb000
    231c:	0114                	.2byte	0x114
    231e:	0100                	.2byte	0x100
    2320:	0759                	.2byte	0x759
    2322:	14c4                	.2byte	0x14c4
    2324:	0001                	.2byte	0x1
    2326:	14d4                	.2byte	0x14d4
    2328:	0001                	.2byte	0x1
    232a:	5901                	.2byte	0x5901
    232c:	0114ec07          	.4byte	0x114ec07
    2330:	0000                	.2byte	0x0
    2332:	0115                	.2byte	0x115
    2334:	0100                	.2byte	0x100
    2336:	0059                	.2byte	0x59
    2338:	01106807          	.4byte	0x1106807
    233c:	ac00                	.2byte	0xac00
    233e:	0110                	.2byte	0x110
    2340:	0100                	.2byte	0x100
    2342:	0762                	.2byte	0x762
    2344:	10ac                	.2byte	0x10ac
    2346:	0001                	.2byte	0x1
    2348:	10b0                	.2byte	0x10b0
    234a:	0001                	.2byte	0x1
    234c:	7e04                	.2byte	0x7e04
    234e:	01ff                	.2byte	0x1ff
    2350:	079f 10b0 0001      	.byte	0x9f, 0x07, 0xb0, 0x10, 0x01, 0x00
    2356:	10c4                	.2byte	0x10c4
    2358:	0001                	.2byte	0x1
    235a:	6201                	.2byte	0x6201
    235c:	01112807          	.4byte	0x1112807
    2360:	4800                	.2byte	0x4800
    2362:	0111                	.2byte	0x111
    2364:	0100                	.2byte	0x100
    2366:	0762                	.2byte	0x762
    2368:	1164                	.2byte	0x1164
    236a:	0001                	.2byte	0x1
    236c:	1170                	.2byte	0x1170
    236e:	0001                	.2byte	0x1
    2370:	6201                	.2byte	0x6201
    2372:	01117407          	.4byte	0x1117407
    2376:	9000                	.2byte	0x9000
    2378:	0111                	.2byte	0x111
    237a:	0100                	.2byte	0x100
    237c:	0762                	.2byte	0x762
    237e:	11ac                	.2byte	0x11ac
    2380:	0001                	.2byte	0x1
    2382:	11c8                	.2byte	0x11c8
    2384:	0001                	.2byte	0x1
    2386:	6201                	.2byte	0x6201
    2388:	01120007          	.4byte	0x1120007
    238c:	1c00                	.2byte	0x1c00
    238e:	0112                	.2byte	0x112
    2390:	0100                	.2byte	0x100
    2392:	0762                	.2byte	0x762
    2394:	1268                	.2byte	0x1268
    2396:	0001                	.2byte	0x1
    2398:	12c0                	.2byte	0x12c0
    239a:	0001                	.2byte	0x1
    239c:	6201                	.2byte	0x6201
    239e:	0112c407          	.4byte	0x112c407
    23a2:	dc00                	.2byte	0xdc00
    23a4:	0112                	.2byte	0x112
    23a6:	0100                	.2byte	0x100
    23a8:	0762                	.2byte	0x762
    23aa:	12e4                	.2byte	0x12e4
    23ac:	0001                	.2byte	0x1
    23ae:	1310                	.2byte	0x1310
    23b0:	0001                	.2byte	0x1
    23b2:	6201                	.2byte	0x6201
    23b4:	01132807          	.4byte	0x1132807
    23b8:	4800                	.2byte	0x4800
    23ba:	01000113          	li	sp,16
    23be:	0762                	.2byte	0x762
    23c0:	1348                	.2byte	0x1348
    23c2:	0001                	.2byte	0x1
    23c4:	1350                	.2byte	0x1350
    23c6:	0001                	.2byte	0x1
    23c8:	7e04                	.2byte	0x7e04
    23ca:	01ff                	.2byte	0x1ff
    23cc:	079f 1350 0001      	.byte	0x9f, 0x07, 0x50, 0x13, 0x01, 0x00
    23d2:	135c                	.2byte	0x135c
    23d4:	0001                	.2byte	0x1
    23d6:	6201                	.2byte	0x6201
    23d8:	01135c07          	.4byte	0x1135c07
    23dc:	6400                	.2byte	0x6400
    23de:	04000113          	li	sp,64
    23e2:	ff7e                	.2byte	0xff7e
    23e4:	9f01                	.2byte	0x9f01
    23e6:	01136407          	.4byte	0x1136407
    23ea:	7800                	.2byte	0x7800
    23ec:	01000113          	li	sp,16
    23f0:	0762                	.2byte	0x762
    23f2:	138c                	.2byte	0x138c
    23f4:	0001                	.2byte	0x1
    23f6:	1394                	.2byte	0x1394
    23f8:	0001                	.2byte	0x1
    23fa:	6201                	.2byte	0x6201
    23fc:	01139407          	.4byte	0x1139407
    2400:	9800                	.2byte	0x9800
    2402:	04000113          	li	sp,64
    2406:	ff7e                	.2byte	0xff7e
    2408:	9f01                	.2byte	0x9f01
    240a:	01139807          	.4byte	0x1139807
    240e:	a000                	.2byte	0xa000
    2410:	01000113          	li	sp,16
    2414:	0762                	.2byte	0x762
    2416:	13d8                	.2byte	0x13d8
    2418:	0001                	.2byte	0x1
    241a:	142c                	.2byte	0x142c
    241c:	0001                	.2byte	0x1
    241e:	6201                	.2byte	0x6201
    2420:	01143407          	.4byte	0x1143407
    2424:	4800                	.2byte	0x4800
    2426:	0114                	.2byte	0x114
    2428:	0100                	.2byte	0x100
    242a:	0762                	.2byte	0x762
    242c:	1450                	.2byte	0x1450
    242e:	0001                	.2byte	0x1
    2430:	1468                	.2byte	0x1468
    2432:	0001                	.2byte	0x1
    2434:	6201                	.2byte	0x6201
    2436:	0114a407          	.4byte	0x114a407
    243a:	ac00                	.2byte	0xac00
    243c:	0114                	.2byte	0x114
    243e:	0100                	.2byte	0x100
    2440:	0762                	.2byte	0x762
    2442:	14c4                	.2byte	0x14c4
    2444:	0001                	.2byte	0x1
    2446:	14d4                	.2byte	0x14d4
    2448:	0001                	.2byte	0x1
    244a:	6201                	.2byte	0x6201
    244c:	0114ec07          	.4byte	0x114ec07
    2450:	f000                	.2byte	0xf000
    2452:	0114                	.2byte	0x114
    2454:	0100                	.2byte	0x100
    2456:	0762                	.2byte	0x762
    2458:	14f0                	.2byte	0x14f0
    245a:	0001                	.2byte	0x1
    245c:	14f8                	.2byte	0x14f8
    245e:	0001                	.2byte	0x1
    2460:	9f7f7e03          	.4byte	0x9f7f7e03
    2464:	0114f807          	.4byte	0x114f807
    2468:	0000                	.2byte	0x0
    246a:	0115                	.2byte	0x115
    246c:	0100                	.2byte	0x100
    246e:	0062                	.2byte	0x62
    2470:	01106407          	.4byte	0x1106407
    2474:	8800                	.2byte	0x8800
    2476:	0110                	.2byte	0x110
    2478:	0100                	.2byte	0x100
    247a:	075d                	.2byte	0x75d
    247c:	1088                	.2byte	0x1088
    247e:	0001                	.2byte	0x1
    2480:	10c4                	.2byte	0x10c4
    2482:	0001                	.2byte	0x1
    2484:	5a01                	.2byte	0x5a01
    2486:	01112807          	.4byte	0x1112807
    248a:	9000                	.2byte	0x9000
    248c:	0111                	.2byte	0x111
    248e:	0100                	.2byte	0x100
    2490:	075a                	.2byte	0x75a
    2492:	11ac                	.2byte	0x11ac
    2494:	0001                	.2byte	0x1
    2496:	11c8                	.2byte	0x11c8
    2498:	0001                	.2byte	0x1
    249a:	5a01                	.2byte	0x5a01
    249c:	01120007          	.4byte	0x1120007
    24a0:	3800                	.2byte	0x3800
    24a2:	0112                	.2byte	0x112
    24a4:	0100                	.2byte	0x100
    24a6:	075a                	.2byte	0x75a
    24a8:	1238                	.2byte	0x1238
    24aa:	0001                	.2byte	0x1
    24ac:	1244                	.2byte	0x1244
    24ae:	0001                	.2byte	0x1
    24b0:	3102                	.2byte	0x3102
    24b2:	079f 1244 0001      	.byte	0x9f, 0x07, 0x44, 0x12, 0x01, 0x00
    24b8:	1258                	.2byte	0x1258
    24ba:	0001                	.2byte	0x1
    24bc:	5a01                	.2byte	0x5a01
    24be:	01125807          	.4byte	0x1125807
    24c2:	5c00                	.2byte	0x5c00
    24c4:	0112                	.2byte	0x112
    24c6:	0600                	.2byte	0x600
    24c8:	007e007b          	.4byte	0x7e007b
    24cc:	9f21                	.2byte	0x9f21
    24ce:	01125c07          	.4byte	0x1125c07
    24d2:	6800                	.2byte	0x6800
    24d4:	0112                	.2byte	0x112
    24d6:	0100                	.2byte	0x100
    24d8:	075e                	.2byte	0x75e
    24da:	1268                	.2byte	0x1268
    24dc:	0001                	.2byte	0x1
    24de:	1310                	.2byte	0x1310
    24e0:	0001                	.2byte	0x1
    24e2:	5a01                	.2byte	0x5a01
    24e4:	01132807          	.4byte	0x1132807
    24e8:	cc00                	.2byte	0xcc00
    24ea:	01000113          	li	sp,16
    24ee:	075a                	.2byte	0x75a
    24f0:	13cc                	.2byte	0x13cc
    24f2:	0001                	.2byte	0x1
    24f4:	13d8                	.2byte	0x13d8
    24f6:	0001                	.2byte	0x1
    24f8:	5e01                	.2byte	0x5e01
    24fa:	0113d807          	.4byte	0x113d807
    24fe:	2c00                	.2byte	0x2c00
    2500:	0114                	.2byte	0x114
    2502:	0100                	.2byte	0x100
    2504:	075a                	.2byte	0x75a
    2506:	1434                	.2byte	0x1434
    2508:	0001                	.2byte	0x1
    250a:	1468                	.2byte	0x1468
    250c:	0001                	.2byte	0x1
    250e:	5a01                	.2byte	0x5a01
    2510:	0114a407          	.4byte	0x114a407
    2514:	b000                	.2byte	0xb000
    2516:	0114                	.2byte	0x114
    2518:	0100                	.2byte	0x100
    251a:	075a                	.2byte	0x75a
    251c:	14c4                	.2byte	0x14c4
    251e:	0001                	.2byte	0x1
    2520:	14d4                	.2byte	0x14d4
    2522:	0001                	.2byte	0x1
    2524:	5a01                	.2byte	0x5a01
    2526:	0114ec07          	.4byte	0x114ec07
    252a:	0000                	.2byte	0x0
    252c:	0115                	.2byte	0x115
    252e:	0100                	.2byte	0x100
    2530:	005a                	.2byte	0x5a
    2532:	01108807          	.4byte	0x1108807
    2536:	a800                	.2byte	0xa800
    2538:	0110                	.2byte	0x110
    253a:	0600                	.2byte	0x600
    253c:	ff08007b          	.4byte	0xff08007b
    2540:	9f1a                	.2byte	0x9f1a
    2542:	0110b007          	.4byte	0x110b007
    2546:	b400                	.2byte	0xb400
    2548:	0110                	.2byte	0x110
    254a:	0600                	.2byte	0x600
    254c:	ff08007b          	.4byte	0xff08007b
    2550:	9f1a                	.2byte	0x9f1a
    2552:	0110b407          	.4byte	0x110b407
    2556:	c400                	.2byte	0xc400
    2558:	0110                	.2byte	0x110
    255a:	0100                	.2byte	0x100
    255c:	075d                	.2byte	0x75d
    255e:	1128                	.2byte	0x1128
    2560:	0001                	.2byte	0x1
    2562:	112c                	.2byte	0x112c
    2564:	0001                	.2byte	0x1
    2566:	7b06                	.2byte	0x7b06
    2568:	0800                	.2byte	0x800
    256a:	1aff                	.2byte	0x1aff
    256c:	079f 112c 0001      	.byte	0x9f, 0x07, 0x2c, 0x11, 0x01, 0x00
    2572:	1144                	.2byte	0x1144
    2574:	0001                	.2byte	0x1
    2576:	5d01                	.2byte	0x5d01
    2578:	01114407          	.4byte	0x1114407
    257c:	4800                	.2byte	0x4800
    257e:	0111                	.2byte	0x111
    2580:	0500                	.2byte	0x500
    2582:	2731007b          	.4byte	0x2731007b
    2586:	079f 1164 0001      	.byte	0x9f, 0x07, 0x64, 0x11, 0x01, 0x00
    258c:	1168                	.2byte	0x1168
    258e:	0001                	.2byte	0x1
    2590:	7b05                	.2byte	0x7b05
    2592:	3100                	.2byte	0x3100
    2594:	74079f27          	.4byte	0x74079f27
    2598:	0111                	.2byte	0x111
    259a:	7c00                	.2byte	0x7c00
    259c:	0111                	.2byte	0x111
    259e:	0100                	.2byte	0x100
    25a0:	075d                	.2byte	0x75d
    25a2:	117c                	.2byte	0x117c
    25a4:	0001                	.2byte	0x1
    25a6:	1190                	.2byte	0x1190
    25a8:	0001                	.2byte	0x1
    25aa:	7b05                	.2byte	0x7b05
    25ac:	3100                	.2byte	0x3100
    25ae:	ac079f27          	.4byte	0xac079f27
    25b2:	0111                	.2byte	0x111
    25b4:	c800                	.2byte	0xc800
    25b6:	0111                	.2byte	0x111
    25b8:	0500                	.2byte	0x500
    25ba:	2731007b          	.4byte	0x2731007b
    25be:	079f 1200 0001      	.byte	0x9f, 0x07, 0x00, 0x12, 0x01, 0x00
    25c4:	1208                	.2byte	0x1208
    25c6:	0001                	.2byte	0x1
    25c8:	5d01                	.2byte	0x5d01
    25ca:	01120807          	.4byte	0x1120807
    25ce:	1c00                	.2byte	0x1c00
    25d0:	0112                	.2byte	0x112
    25d2:	0500                	.2byte	0x500
    25d4:	2731007b          	.4byte	0x2731007b
    25d8:	079f 12c4 0001      	.byte	0x9f, 0x07, 0xc4, 0x12, 0x01, 0x00
    25de:	12d4                	.2byte	0x12d4
    25e0:	0001                	.2byte	0x1
    25e2:	5d01                	.2byte	0x5d01
    25e4:	0112d407          	.4byte	0x112d407
    25e8:	dc00                	.2byte	0xdc00
    25ea:	0112                	.2byte	0x112
    25ec:	0500                	.2byte	0x500
    25ee:	2731007b          	.4byte	0x2731007b
    25f2:	079f 12e4 0001      	.byte	0x9f, 0x07, 0xe4, 0x12, 0x01, 0x00
    25f8:	1310                	.2byte	0x1310
    25fa:	0001                	.2byte	0x1
    25fc:	7b05                	.2byte	0x7b05
    25fe:	3100                	.2byte	0x3100
    2600:	28079f27          	.4byte	0x28079f27
    2604:	30000113          	li	sp,768
    2608:	01000113          	li	sp,16
    260c:	075d                	.2byte	0x75d
    260e:	1330                	.2byte	0x1330
    2610:	0001                	.2byte	0x1
    2612:	133c                	.2byte	0x133c
    2614:	0001                	.2byte	0x1
    2616:	7b05                	.2byte	0x7b05
    2618:	3100                	.2byte	0x3100
    261a:	3c079f27          	.4byte	0x3c079f27
    261e:	50000113          	li	sp,1280
    2622:	06000113          	li	sp,96
    2626:	ff08007b          	.4byte	0xff08007b
    262a:	9f1a                	.2byte	0x9f1a
    262c:	01135007          	.4byte	0x1135007
    2630:	7800                	.2byte	0x7800
    2632:	01000113          	li	sp,16
    2636:	075d                	.2byte	0x75d
    2638:	138c                	.2byte	0x138c
    263a:	0001                	.2byte	0x1
    263c:	1390                	.2byte	0x1390
    263e:	0001                	.2byte	0x1
    2640:	7b06                	.2byte	0x7b06
    2642:	0800                	.2byte	0x800
    2644:	1aff                	.2byte	0x1aff
    2646:	079f 1398 0001      	.byte	0x9f, 0x07, 0x98, 0x13, 0x01, 0x00
    264c:	13a0                	.2byte	0x13a0
    264e:	0001                	.2byte	0x1
    2650:	5d01                	.2byte	0x5d01
    2652:	0113d807          	.4byte	0x113d807
    2656:	e800                	.2byte	0xe800
    2658:	01000113          	li	sp,16
    265c:	075d                	.2byte	0x75d
    265e:	14c4                	.2byte	0x14c4
    2660:	0001                	.2byte	0x1
    2662:	14cc                	.2byte	0x14cc
    2664:	0001                	.2byte	0x1
    2666:	5d01                	.2byte	0x5d01
    2668:	0700                	.2byte	0x700
    266a:	1088                	.2byte	0x1088
    266c:	0001                	.2byte	0x1
    266e:	10c4                	.2byte	0x10c4
    2670:	0001                	.2byte	0x1
    2672:	5c01                	.2byte	0x5c01
    2674:	01112807          	.4byte	0x1112807
    2678:	9000                	.2byte	0x9000
    267a:	0111                	.2byte	0x111
    267c:	0100                	.2byte	0x100
    267e:	075c                	.2byte	0x75c
    2680:	11ac                	.2byte	0x11ac
    2682:	0001                	.2byte	0x1
    2684:	11bc                	.2byte	0x11bc
    2686:	0001                	.2byte	0x1
    2688:	5c01                	.2byte	0x5c01
    268a:	01120007          	.4byte	0x1120007
    268e:	ec00                	.2byte	0xec00
    2690:	0112                	.2byte	0x112
    2692:	0100                	.2byte	0x100
    2694:	075c                	.2byte	0x75c
    2696:	1328                	.2byte	0x1328
    2698:	0001                	.2byte	0x1
    269a:	142c                	.2byte	0x142c
    269c:	0001                	.2byte	0x1
    269e:	5c01                	.2byte	0x5c01
    26a0:	01143407          	.4byte	0x1143407
    26a4:	6800                	.2byte	0x6800
    26a6:	0114                	.2byte	0x114
    26a8:	0100                	.2byte	0x100
    26aa:	075c                	.2byte	0x75c
    26ac:	14a4                	.2byte	0x14a4
    26ae:	0001                	.2byte	0x1
    26b0:	14b0                	.2byte	0x14b0
    26b2:	0001                	.2byte	0x1
    26b4:	5c01                	.2byte	0x5c01
    26b6:	0114c407          	.4byte	0x114c407
    26ba:	d400                	.2byte	0xd400
    26bc:	0114                	.2byte	0x114
    26be:	0100                	.2byte	0x100
    26c0:	075c                	.2byte	0x75c
    26c2:	14ec                	.2byte	0x14ec
    26c4:	0001                	.2byte	0x1
    26c6:	1500                	.2byte	0x1500
    26c8:	0001                	.2byte	0x1
    26ca:	5c01                	.2byte	0x5c01
    26cc:	0700                	.2byte	0x700
    26ce:	1088                	.2byte	0x1088
    26d0:	0001                	.2byte	0x1
    26d2:	10c4                	.2byte	0x10c4
    26d4:	0001                	.2byte	0x1
    26d6:	5f01                	.2byte	0x5f01
    26d8:	01112807          	.4byte	0x1112807
    26dc:	4c00                	.2byte	0x4c00
    26de:	0111                	.2byte	0x111
    26e0:	0100                	.2byte	0x100
    26e2:	075f 1164 0001      	.byte	0x5f, 0x07, 0x64, 0x11, 0x01, 0x00
    26e8:	116c                	.2byte	0x116c
    26ea:	0001                	.2byte	0x1
    26ec:	5f01                	.2byte	0x5f01
    26ee:	01117407          	.4byte	0x1117407
    26f2:	8c00                	.2byte	0x8c00
    26f4:	0111                	.2byte	0x111
    26f6:	0100                	.2byte	0x100
    26f8:	075f 118c 0001      	.byte	0x5f, 0x07, 0x8c, 0x11, 0x01, 0x00
    26fe:	1190                	.2byte	0x1190
    2700:	0001                	.2byte	0x1
    2702:	3102                	.2byte	0x3102
    2704:	079f 11ac 0001      	.byte	0x9f, 0x07, 0xac, 0x11, 0x01, 0x00
    270a:	11c0                	.2byte	0x11c0
    270c:	0001                	.2byte	0x1
    270e:	5f01                	.2byte	0x5f01
    2710:	0111c007          	.4byte	0x111c007
    2714:	c400                	.2byte	0xc400
    2716:	0111                	.2byte	0x111
    2718:	0600                	.2byte	0x600
    271a:	007c                	.2byte	0x7c
    271c:	007e                	.2byte	0x7e
    271e:	9f21                	.2byte	0x9f21
    2720:	0111c407          	.4byte	0x111c407
    2724:	c800                	.2byte	0xc800
    2726:	0111                	.2byte	0x111
    2728:	0100                	.2byte	0x100
    272a:	075f 1200 0001      	.byte	0x5f, 0x07, 0x00, 0x12, 0x01, 0x00
    2730:	123c                	.2byte	0x123c
    2732:	0001                	.2byte	0x1
    2734:	5f01                	.2byte	0x5f01
    2736:	01123c07          	.4byte	0x1123c07
    273a:	4400                	.2byte	0x4400
    273c:	0112                	.2byte	0x112
    273e:	0300                	.2byte	0x300
    2740:	7f7f                	.2byte	0x7f7f
    2742:	079f 1244 0001      	.byte	0x9f, 0x07, 0x44, 0x12, 0x01, 0x00
    2748:	1260                	.2byte	0x1260
    274a:	0001                	.2byte	0x1
    274c:	5f01                	.2byte	0x5f01
    274e:	01126807          	.4byte	0x1126807
    2752:	8400                	.2byte	0x8400
    2754:	0112                	.2byte	0x112
    2756:	0100                	.2byte	0x100
    2758:	075f 12a0 0001      	.byte	0x5f, 0x07, 0xa0, 0x12, 0x01, 0x00
    275e:	12b8                	.2byte	0x12b8
    2760:	0001                	.2byte	0x1
    2762:	5f01                	.2byte	0x5f01
    2764:	0112c407          	.4byte	0x112c407
    2768:	dc00                	.2byte	0xdc00
    276a:	0112                	.2byte	0x112
    276c:	0100                	.2byte	0x100
    276e:	075f 12e4 0001      	.byte	0x5f, 0x07, 0xe4, 0x12, 0x01, 0x00
    2774:	130c                	.2byte	0x130c
    2776:	0001                	.2byte	0x1
    2778:	5f01                	.2byte	0x5f01
    277a:	01130c07          	.4byte	0x1130c07
    277e:	1000                	.2byte	0x1000
    2780:	01000113          	li	sp,16
    2784:	075e                	.2byte	0x75e
    2786:	1328                	.2byte	0x1328
    2788:	0001                	.2byte	0x1
    278a:	1388                	.2byte	0x1388
    278c:	0001                	.2byte	0x1
    278e:	5f01                	.2byte	0x5f01
    2790:	01138c07          	.4byte	0x1138c07
    2794:	d000                	.2byte	0xd000
    2796:	01000113          	li	sp,16
    279a:	075f 13d8 0001      	.byte	0x5f, 0x07, 0xd8, 0x13, 0x01, 0x00
    27a0:	1400                	.2byte	0x1400
    27a2:	0001                	.2byte	0x1
    27a4:	5f01                	.2byte	0x5f01
    27a6:	01140807          	.4byte	0x1140807
    27aa:	2000                	.2byte	0x2000
    27ac:	0114                	.2byte	0x114
    27ae:	0100                	.2byte	0x100
    27b0:	075f 1424 0001      	.byte	0x5f, 0x07, 0x24, 0x14, 0x01, 0x00
    27b6:	1428                	.2byte	0x1428
    27b8:	0001                	.2byte	0x1
    27ba:	5f01                	.2byte	0x5f01
    27bc:	01143407          	.4byte	0x1143407
    27c0:	6800                	.2byte	0x6800
    27c2:	0114                	.2byte	0x114
    27c4:	0100                	.2byte	0x100
    27c6:	075f 14a4 0001      	.byte	0x5f, 0x07, 0xa4, 0x14, 0x01, 0x00
    27cc:	14b0                	.2byte	0x14b0
    27ce:	0001                	.2byte	0x1
    27d0:	5f01                	.2byte	0x5f01
    27d2:	0114c407          	.4byte	0x114c407
    27d6:	c800                	.2byte	0xc800
    27d8:	0114                	.2byte	0x114
    27da:	0100                	.2byte	0x100
    27dc:	075f 14cc 0001      	.byte	0x5f, 0x07, 0xcc, 0x14, 0x01, 0x00
    27e2:	14d0                	.2byte	0x14d0
    27e4:	0001                	.2byte	0x1
    27e6:	5f01                	.2byte	0x5f01
    27e8:	0114ec07          	.4byte	0x114ec07
    27ec:	0000                	.2byte	0x0
    27ee:	0115                	.2byte	0x115
    27f0:	0100                	.2byte	0x100
    27f2:	005f f007 0110      	.byte	0x5f, 0x00, 0x07, 0xf0, 0x10, 0x01
    27f8:	1c00                	.2byte	0x1c00
    27fa:	0111                	.2byte	0x111
    27fc:	0100                	.2byte	0x100
    27fe:	0759                	.2byte	0x759
    2800:	1134                	.2byte	0x1134
    2802:	0001                	.2byte	0x1
    2804:	1148                	.2byte	0x1148
    2806:	0001                	.2byte	0x1
    2808:	5901                	.2byte	0x5901
    280a:	01116407          	.4byte	0x1116407
    280e:	6800                	.2byte	0x6800
    2810:	0111                	.2byte	0x111
    2812:	0100                	.2byte	0x100
    2814:	0759                	.2byte	0x759
    2816:	1174                	.2byte	0x1174
    2818:	0001                	.2byte	0x1
    281a:	11c8                	.2byte	0x11c8
    281c:	0001                	.2byte	0x1
    281e:	5901                	.2byte	0x5901
    2820:	0112c807          	.4byte	0x112c807
    2824:	3c00                	.2byte	0x3c00
    2826:	01000113          	li	sp,16
    282a:	0759                	.2byte	0x759
    282c:	1340                	.2byte	0x1340
    282e:	0001                	.2byte	0x1
    2830:	1350                	.2byte	0x1350
    2832:	0001                	.2byte	0x1
    2834:	5b01                	.2byte	0x5b01
    2836:	01135407          	.4byte	0x1135407
    283a:	6400                	.2byte	0x6400
    283c:	01000113          	li	sp,16
    2840:	075d                	.2byte	0x75d
    2842:	136c                	.2byte	0x136c
    2844:	0001                	.2byte	0x1
    2846:	1378                	.2byte	0x1378
    2848:	0001                	.2byte	0x1
    284a:	5d01                	.2byte	0x5d01
    284c:	01137807          	.4byte	0x1137807
    2850:	8c00                	.2byte	0x8c00
    2852:	01000113          	li	sp,16
    2856:	0759                	.2byte	0x759
    2858:	138c                	.2byte	0x138c
    285a:	0001                	.2byte	0x1
    285c:	1390                	.2byte	0x1390
    285e:	0001                	.2byte	0x1
    2860:	5b01                	.2byte	0x5b01
    2862:	01139007          	.4byte	0x1139007
    2866:	9800                	.2byte	0x9800
    2868:	01000113          	li	sp,16
    286c:	0759                	.2byte	0x759
    286e:	1398                	.2byte	0x1398
    2870:	0001                	.2byte	0x1
    2872:	13a0                	.2byte	0x13a0
    2874:	0001                	.2byte	0x1
    2876:	5d01                	.2byte	0x5d01
    2878:	0113a007          	.4byte	0x113a007
    287c:	d800                	.2byte	0xd800
    287e:	01000113          	li	sp,16
    2882:	0759                	.2byte	0x759
    2884:	13d8                	.2byte	0x13d8
    2886:	0001                	.2byte	0x1
    2888:	13e8                	.2byte	0x13e8
    288a:	0001                	.2byte	0x1
    288c:	5d01                	.2byte	0x5d01
    288e:	01140007          	.4byte	0x1140007
    2892:	0800                	.2byte	0x800
    2894:	0114                	.2byte	0x114
    2896:	0100                	.2byte	0x100
    2898:	075d                	.2byte	0x75d
    289a:	1410                	.2byte	0x1410
    289c:	0001                	.2byte	0x1
    289e:	142c                	.2byte	0x142c
    28a0:	0001                	.2byte	0x1
    28a2:	5901                	.2byte	0x5901
    28a4:	01145407          	.4byte	0x1145407
    28a8:	6400                	.2byte	0x6400
    28aa:	0114                	.2byte	0x114
    28ac:	0100                	.2byte	0x100
    28ae:	0759                	.2byte	0x759
    28b0:	1464                	.2byte	0x1464
    28b2:	0001                	.2byte	0x1
    28b4:	1468                	.2byte	0x1468
    28b6:	0001                	.2byte	0x1
    28b8:	5d01                	.2byte	0x5d01
    28ba:	01146807          	.4byte	0x1146807
    28be:	cc00                	.2byte	0xcc00
    28c0:	0114                	.2byte	0x114
    28c2:	0100                	.2byte	0x100
    28c4:	0059                	.2byte	0x59
    28c6:	0110a407          	.4byte	0x110a407
    28ca:	b000                	.2byte	0xb000
    28cc:	0110                	.2byte	0x110
    28ce:	0300                	.2byte	0x300
    28d0:	ff08                	.2byte	0xff08
    28d2:	079f 10bc 0001      	.byte	0x9f, 0x07, 0xbc, 0x10, 0x01, 0x00
    28d8:	10c4                	.2byte	0x10c4
    28da:	0001                	.2byte	0x1
    28dc:	9fff0803          	lb	a6,-1537(t5)
    28e0:	0110d407          	.4byte	0x110d407
    28e4:	f000                	.2byte	0xf000
    28e6:	0110                	.2byte	0x110
    28e8:	0100                	.2byte	0x100
    28ea:	0762                	.2byte	0x762
    28ec:	1138                	.2byte	0x1138
    28ee:	0001                	.2byte	0x1
    28f0:	1148                	.2byte	0x1148
    28f2:	0001                	.2byte	0x1
    28f4:	6201                	.2byte	0x6201
    28f6:	01114c07          	.4byte	0x1114c07
    28fa:	6400                	.2byte	0x6400
    28fc:	0111                	.2byte	0x111
    28fe:	0200                	.2byte	0x200
    2900:	9f31                	.2byte	0x9f31
    2902:	01116407          	.4byte	0x1116407
    2906:	6800                	.2byte	0x6800
    2908:	0111                	.2byte	0x111
    290a:	0100                	.2byte	0x100
    290c:	0762                	.2byte	0x762
    290e:	1174                	.2byte	0x1174
    2910:	0001                	.2byte	0x1
    2912:	11e4                	.2byte	0x11e4
    2914:	0001                	.2byte	0x1
    2916:	6201                	.2byte	0x6201
    2918:	01120807          	.4byte	0x1120807
    291c:	1c00                	.2byte	0x1c00
    291e:	0112                	.2byte	0x112
    2920:	0100                	.2byte	0x100
    2922:	075c                	.2byte	0x75c
    2924:	123c                	.2byte	0x123c
    2926:	0001                	.2byte	0x1
    2928:	1244                	.2byte	0x1244
    292a:	0001                	.2byte	0x1
    292c:	5c01                	.2byte	0x5c01
    292e:	01127807          	.4byte	0x1127807
    2932:	a000                	.2byte	0xa000
    2934:	0112                	.2byte	0x112
    2936:	0200                	.2byte	0x200
    2938:	9f30                	.2byte	0x9f30
    293a:	0112a007          	.4byte	0x112a007
    293e:	ac00                	.2byte	0xac00
    2940:	0112                	.2byte	0x112
    2942:	0300                	.2byte	0x300
    2944:	ff08                	.2byte	0xff08
    2946:	079f 12ac 0001      	.byte	0x9f, 0x07, 0xac, 0x12, 0x01, 0x00
    294c:	12bc                	.2byte	0x12bc
    294e:	0001                	.2byte	0x1
    2950:	5e01                	.2byte	0x5e01
    2952:	0112c807          	.4byte	0x112c807
    2956:	dc00                	.2byte	0xdc00
    2958:	0112                	.2byte	0x112
    295a:	0100                	.2byte	0x100
    295c:	0762                	.2byte	0x762
    295e:	12e4                	.2byte	0x12e4
    2960:	0001                	.2byte	0x1
    2962:	133c                	.2byte	0x133c
    2964:	0001                	.2byte	0x1
    2966:	6201                	.2byte	0x6201
    2968:	01134007          	.4byte	0x1134007
    296c:	5000                	.2byte	0x5000
    296e:	03000113          	li	sp,48
    2972:	ff08                	.2byte	0xff08
    2974:	079f 1354 0001      	.byte	0x9f, 0x07, 0x54, 0x13, 0x01, 0x00
    297a:	1364                	.2byte	0x1364
    297c:	0001                	.2byte	0x1
    297e:	9fff0803          	lb	a6,-1537(t5)
    2982:	01136c07          	.4byte	0x1136c07
    2986:	7800                	.2byte	0x7800
    2988:	01000113          	li	sp,16
    298c:	075c                	.2byte	0x75c
    298e:	138c                	.2byte	0x138c
    2990:	0001                	.2byte	0x1
    2992:	13a0                	.2byte	0x13a0
    2994:	0001                	.2byte	0x1
    2996:	9fff0803          	lb	a6,-1537(t5)
    299a:	0113d807          	.4byte	0x113d807
    299e:	e800                	.2byte	0xe800
    29a0:	01000113          	li	sp,16
    29a4:	075c                	.2byte	0x75c
    29a6:	13f8                	.2byte	0x13f8
    29a8:	0001                	.2byte	0x1
    29aa:	142c                	.2byte	0x142c
    29ac:	0001                	.2byte	0x1
    29ae:	3002                	.2byte	0x3002
    29b0:	079f 1434 0001      	.byte	0x9f, 0x07, 0x34, 0x14, 0x01, 0x00
    29b6:	1450                	.2byte	0x1450
    29b8:	0001                	.2byte	0x1
    29ba:	9fff0803          	lb	a6,-1537(t5)
    29be:	01145007          	.4byte	0x1145007
    29c2:	9c00                	.2byte	0x9c00
    29c4:	0114                	.2byte	0x114
    29c6:	0100                	.2byte	0x100
    29c8:	0762                	.2byte	0x762
    29ca:	149c                	.2byte	0x149c
    29cc:	0001                	.2byte	0x1
    29ce:	14a4                	.2byte	0x14a4
    29d0:	0001                	.2byte	0x1
    29d2:	3002                	.2byte	0x3002
    29d4:	079f 14a4 0001      	.byte	0x9f, 0x07, 0xa4, 0x14, 0x01, 0x00
    29da:	14ac                	.2byte	0x14ac
    29dc:	0001                	.2byte	0x1
    29de:	6201                	.2byte	0x6201
    29e0:	0114b007          	.4byte	0x114b007
    29e4:	cc00                	.2byte	0xcc00
    29e6:	0114                	.2byte	0x114
    29e8:	0100                	.2byte	0x100
    29ea:	0762                	.2byte	0x762
    29ec:	14d4                	.2byte	0x14d4
    29ee:	0001                	.2byte	0x1
    29f0:	14ec                	.2byte	0x14ec
    29f2:	0001                	.2byte	0x1
    29f4:	6201                	.2byte	0x6201
    29f6:	0114ec07          	.4byte	0x114ec07
    29fa:	f800                	.2byte	0xf800
    29fc:	0114                	.2byte	0x114
    29fe:	0100                	.2byte	0x100
    2a00:	075e                	.2byte	0x75e
    2a02:	14f8                	.2byte	0x14f8
    2a04:	0001                	.2byte	0x1
    2a06:	1500                	.2byte	0x1500
    2a08:	0001                	.2byte	0x1
    2a0a:	3002                	.2byte	0x3002
    2a0c:	009f c407 0110      	.byte	0x9f, 0x00, 0x07, 0xc4, 0x10, 0x01
    2a12:	d000                	.2byte	0xd000
    2a14:	0110                	.2byte	0x110
    2a16:	0100                	.2byte	0x100
    2a18:	075f 10d0 0001      	.byte	0x5f, 0x07, 0xd0, 0x10, 0x01, 0x00
    2a1e:	10e8                	.2byte	0x10e8
    2a20:	0001                	.2byte	0x1
    2a22:	7f09                	.2byte	0x7f09
    2a24:	1100                	.2byte	0x1100
    2a26:	ffff                	.2byte	0xffff
    2a28:	5fff                	.2byte	0x5fff
    2a2a:	9f1a                	.2byte	0x9f1a
    2a2c:	0110f007          	.4byte	0x110f007
    2a30:	fc00                	.2byte	0xfc00
    2a32:	0110                	.2byte	0x110
    2a34:	0100                	.2byte	0x100
    2a36:	0758                	.2byte	0x758
    2a38:	114c                	.2byte	0x114c
    2a3a:	0001                	.2byte	0x1
    2a3c:	1164                	.2byte	0x1164
    2a3e:	0001                	.2byte	0x1
    2a40:	5f01                	.2byte	0x5f01
    2a42:	01119007          	.4byte	0x1119007
    2a46:	ac00                	.2byte	0xac00
    2a48:	0111                	.2byte	0x111
    2a4a:	0100                	.2byte	0x100
    2a4c:	075f 11c8 0001      	.byte	0x5f, 0x07, 0xc8, 0x11, 0x01, 0x00
    2a52:	11d4                	.2byte	0x11d4
    2a54:	0001                	.2byte	0x1
    2a56:	5f01                	.2byte	0x5f01
    2a58:	0111d407          	.4byte	0x111d407
    2a5c:	d800                	.2byte	0xd800
    2a5e:	0111                	.2byte	0x111
    2a60:	0900                	.2byte	0x900
    2a62:	007f                	.2byte	0x7f
    2a64:	ff11                	.2byte	0xff11
    2a66:	ffff                	.2byte	0xffff
    2a68:	1a5f 079f 11d8      	.byte	0x5f, 0x1a, 0x9f, 0x07, 0xd8, 0x11
    2a6e:	0001                	.2byte	0x1
    2a70:	11e4                	.2byte	0x11e4
    2a72:	0001                	.2byte	0x1
    2a74:	7f10                	.2byte	0x7f10
    2a76:	3100                	.2byte	0x3100
    2a78:	0c25                	.2byte	0xc25
    2a7a:	ffff                	.2byte	0xffff
    2a7c:	7dff                	.2byte	0x7dff
    2a7e:	7f1a                	.2byte	0x7f1a
    2a80:	3100                	.2byte	0x3100
    2a82:	211a                	.2byte	0x211a
    2a84:	079f 123c 0001      	.byte	0x9f, 0x07, 0x3c, 0x12, 0x01, 0x00
    2a8a:	1244                	.2byte	0x1244
    2a8c:	0001                	.2byte	0x1
    2a8e:	5f01                	.2byte	0x5f01
    2a90:	01126007          	.4byte	0x1126007
    2a94:	6800                	.2byte	0x6800
    2a96:	0112                	.2byte	0x112
    2a98:	0100                	.2byte	0x100
    2a9a:	075f 1284 0001      	.byte	0x5f, 0x07, 0x84, 0x12, 0x01, 0x00
    2aa0:	129c                	.2byte	0x129c
    2aa2:	0001                	.2byte	0x1
    2aa4:	5f01                	.2byte	0x5f01
    2aa6:	0112ac07          	.4byte	0x112ac07
    2aaa:	b800                	.2byte	0xb800
    2aac:	0112                	.2byte	0x112
    2aae:	0800                	.2byte	0x800
    2ab0:	007a                	.2byte	0x7a
    2ab2:	007f                	.2byte	0x7f
    2ab4:	3122                	.2byte	0x3122
    2ab6:	9f25                	.2byte	0x9f25
    2ab8:	0112b807          	.4byte	0x112b807
    2abc:	bc00                	.2byte	0xbc00
    2abe:	0112                	.2byte	0x112
    2ac0:	0500                	.2byte	0x500
    2ac2:	007f                	.2byte	0x7f
    2ac4:	2531                	.2byte	0x2531
    2ac6:	079f 12dc 0001      	.byte	0x9f, 0x07, 0xdc, 0x12, 0x01, 0x00
    2acc:	12e4                	.2byte	0x12e4
    2ace:	0001                	.2byte	0x1
    2ad0:	5f01                	.2byte	0x5f01
    2ad2:	01131007          	.4byte	0x1131007
    2ad6:	2400                	.2byte	0x2400
    2ad8:	01000113          	li	sp,16
    2adc:	075f 1324 0001      	.byte	0x5f, 0x07, 0x24, 0x13, 0x01, 0x00
    2ae2:	1328                	.2byte	0x1328
    2ae4:	0001                	.2byte	0x1
    2ae6:	5801                	.2byte	0x5801
    2ae8:	0113d007          	.4byte	0x113d007
    2aec:	d800                	.2byte	0xd800
    2aee:	01000113          	li	sp,16
    2af2:	075f 13fc 0001      	.byte	0x5f, 0x07, 0xfc, 0x13, 0x01, 0x00
    2af8:	1408                	.2byte	0x1408
    2afa:	0001                	.2byte	0x1
    2afc:	5f01                	.2byte	0x5f01
    2afe:	01141007          	.4byte	0x1141007
    2b02:	2c00                	.2byte	0x2c00
    2b04:	0114                	.2byte	0x114
    2b06:	0100                	.2byte	0x100
    2b08:	0758                	.2byte	0x758
    2b0a:	1454                	.2byte	0x1454
    2b0c:	0001                	.2byte	0x1
    2b0e:	1494                	.2byte	0x1494
    2b10:	0001                	.2byte	0x1
    2b12:	5801                	.2byte	0x5801
    2b14:	01149c07          	.4byte	0x1149c07
    2b18:	a400                	.2byte	0xa400
    2b1a:	0114                	.2byte	0x114
    2b1c:	0100                	.2byte	0x100
    2b1e:	075f 14a4 0001      	.byte	0x5f, 0x07, 0xa4, 0x14, 0x01, 0x00
    2b24:	14c0                	.2byte	0x14c0
    2b26:	0001                	.2byte	0x1
    2b28:	5801                	.2byte	0x5801
    2b2a:	0114c007          	.4byte	0x114c007
    2b2e:	c400                	.2byte	0xc400
    2b30:	0114                	.2byte	0x114
    2b32:	0100                	.2byte	0x100
    2b34:	075f 14d4 0001      	.byte	0x5f, 0x07, 0xd4, 0x14, 0x01, 0x00
    2b3a:	14d8                	.2byte	0x14d8
    2b3c:	0001                	.2byte	0x1
    2b3e:	5f01                	.2byte	0x5f01
    2b40:	0114d807          	.4byte	0x114d807
    2b44:	e800                	.2byte	0xe800
    2b46:	0114                	.2byte	0x114
    2b48:	0100                	.2byte	0x100
    2b4a:	0758                	.2byte	0x758
    2b4c:	14ec                	.2byte	0x14ec
    2b4e:	0001                	.2byte	0x1
    2b50:	14f8                	.2byte	0x14f8
    2b52:	0001                	.2byte	0x1
    2b54:	7a08                	.2byte	0x7a08
    2b56:	7f00                	.2byte	0x7f00
    2b58:	2200                	.2byte	0x2200
    2b5a:	2531                	.2byte	0x2531
    2b5c:	079f 14f8 0001      	.byte	0x9f, 0x07, 0xf8, 0x14, 0x01, 0x00
    2b62:	1500                	.2byte	0x1500
    2b64:	0001                	.2byte	0x1
    2b66:	5f01                	.2byte	0x5f01
    2b68:	0700                	.2byte	0x700
    2b6a:	1114                	.2byte	0x1114
    2b6c:	0001                	.2byte	0x1
    2b6e:	1120                	.2byte	0x1120
    2b70:	0001                	.2byte	0x1
    2b72:	7f08                	.2byte	0x7f08
    2b74:	7a00                	.2byte	0x7a00
    2b76:	2100                	.2byte	0x2100
    2b78:	26a9                	.2byte	0x26a9
    2b7a:	079f 1120 0001      	.byte	0x9f, 0x07, 0x20, 0x11, 0x01, 0x00
    2b80:	1128                	.2byte	0x1128
    2b82:	0001                	.2byte	0x1
    2b84:	5a01                	.2byte	0x5a01
    2b86:	0700                	.2byte	0x700
    2b88:	10a4                	.2byte	0x10a4
    2b8a:	0001                	.2byte	0x1
    2b8c:	10a8                	.2byte	0x10a8
    2b8e:	0001                	.2byte	0x1
    2b90:	0806                	.2byte	0x806
    2b92:	82ff                	.2byte	0x82ff
    2b94:	1c00                	.2byte	0x1c00
    2b96:	079f 10bc 0001      	.byte	0x9f, 0x07, 0xbc, 0x10, 0x01, 0x00
    2b9c:	10c4                	.2byte	0x10c4
    2b9e:	0001                	.2byte	0x1
    2ba0:	0806                	.2byte	0x806
    2ba2:	82ff                	.2byte	0x82ff
    2ba4:	1c00                	.2byte	0x1c00
    2ba6:	079f 1134 0001      	.byte	0x9f, 0x07, 0x34, 0x11, 0x01, 0x00
    2bac:	1144                	.2byte	0x1144
    2bae:	0001                	.2byte	0x1
    2bb0:	5e01                	.2byte	0x5e01
    2bb2:	01114407          	.4byte	0x1114407
    2bb6:	5c00                	.2byte	0x5c00
    2bb8:	0111                	.2byte	0x111
    2bba:	0100                	.2byte	0x100
    2bbc:	075d                	.2byte	0x75d
    2bbe:	1164                	.2byte	0x1164
    2bc0:	0001                	.2byte	0x1
    2bc2:	1168                	.2byte	0x1168
    2bc4:	0001                	.2byte	0x1
    2bc6:	5d01                	.2byte	0x5d01
    2bc8:	01117407          	.4byte	0x1117407
    2bcc:	8400                	.2byte	0x8400
    2bce:	0111                	.2byte	0x111
    2bd0:	0100                	.2byte	0x100
    2bd2:	075e                	.2byte	0x75e
    2bd4:	1184                	.2byte	0x1184
    2bd6:	0001                	.2byte	0x1
    2bd8:	1190                	.2byte	0x1190
    2bda:	0001                	.2byte	0x1
    2bdc:	5d01                	.2byte	0x5d01
    2bde:	0111ac07          	.4byte	0x111ac07
    2be2:	ec00                	.2byte	0xec00
    2be4:	0111                	.2byte	0x111
    2be6:	0100                	.2byte	0x100
    2be8:	075d                	.2byte	0x75d
    2bea:	1208                	.2byte	0x1208
    2bec:	0001                	.2byte	0x1
    2bee:	121c                	.2byte	0x121c
    2bf0:	0001                	.2byte	0x1
    2bf2:	5d01                	.2byte	0x5d01
    2bf4:	01122407          	.4byte	0x1122407
    2bf8:	6800                	.2byte	0x6800
    2bfa:	0112                	.2byte	0x112
    2bfc:	0100                	.2byte	0x100
    2bfe:	005d                	.2byte	0x5d
    2c00:	0112c407          	.4byte	0x112c407
    2c04:	d400                	.2byte	0xd400
    2c06:	0112                	.2byte	0x112
    2c08:	0600                	.2byte	0x600
    2c0a:	0082                	.2byte	0x82
    2c0c:	007c                	.2byte	0x7c
    2c0e:	9f1c                	.2byte	0x9f1c
    2c10:	0112d407          	.4byte	0x112d407
    2c14:	dc00                	.2byte	0xdc00
    2c16:	0112                	.2byte	0x112
    2c18:	0100                	.2byte	0x100
    2c1a:	075d                	.2byte	0x75d
    2c1c:	12e4                	.2byte	0x12e4
    2c1e:	0001                	.2byte	0x1
    2c20:	1310                	.2byte	0x1310
    2c22:	0001                	.2byte	0x1
    2c24:	5d01                	.2byte	0x5d01
    2c26:	01132807          	.4byte	0x1132807
    2c2a:	3c00                	.2byte	0x3c00
    2c2c:	06000113          	li	sp,96
    2c30:	0082                	.2byte	0x82
    2c32:	007c                	.2byte	0x7c
    2c34:	9f1c                	.2byte	0x9f1c
    2c36:	01134007          	.4byte	0x1134007
    2c3a:	4800                	.2byte	0x4800
    2c3c:	06000113          	li	sp,96
    2c40:	ff08                	.2byte	0xff08
    2c42:	0082                	.2byte	0x82
    2c44:	9f1c                	.2byte	0x9f1c
    2c46:	01134807          	.4byte	0x1134807
    2c4a:	5000                	.2byte	0x5000
    2c4c:	04000113          	li	sp,64
    2c50:	007e                	.2byte	0x7e
    2c52:	9f1f 5407 0113      	.byte	0x1f, 0x9f, 0x07, 0x54, 0x13, 0x01
    2c58:	5c00                	.2byte	0x5c00
    2c5a:	06000113          	li	sp,96
    2c5e:	ff08                	.2byte	0xff08
    2c60:	0082                	.2byte	0x82
    2c62:	9f1c                	.2byte	0x9f1c
    2c64:	01135c07          	.4byte	0x1135c07
    2c68:	6400                	.2byte	0x6400
    2c6a:	04000113          	li	sp,64
    2c6e:	007e                	.2byte	0x7e
    2c70:	9f1f 6c07 0113      	.byte	0x1f, 0x9f, 0x07, 0x6c, 0x13, 0x01
    2c76:	7800                	.2byte	0x7800
    2c78:	01000113          	li	sp,16
    2c7c:	1380075b          	.4byte	0x1380075b
    2c80:	0001                	.2byte	0x1
    2c82:	138c                	.2byte	0x138c
    2c84:	0001                	.2byte	0x1
    2c86:	5b01                	.2byte	0x5b01
    2c88:	01138c07          	.4byte	0x1138c07
    2c8c:	9000                	.2byte	0x9000
    2c8e:	06000113          	li	sp,96
    2c92:	ff08                	.2byte	0xff08
    2c94:	0082                	.2byte	0x82
    2c96:	9f1c                	.2byte	0x9f1c
    2c98:	01139807          	.4byte	0x1139807
    2c9c:	a000                	.2byte	0xa000
    2c9e:	06000113          	li	sp,96
    2ca2:	ff08                	.2byte	0xff08
    2ca4:	0082                	.2byte	0x82
    2ca6:	9f1c                	.2byte	0x9f1c
    2ca8:	0113a007          	.4byte	0x113a007
    2cac:	e800                	.2byte	0xe800
    2cae:	01000113          	li	sp,16
    2cb2:	7007005b          	.4byte	0x7007005b
    2cb6:	0114                	.2byte	0x114
    2cb8:	8000                	.2byte	0x8000
    2cba:	0114                	.2byte	0x114
    2cbc:	0100                	.2byte	0x100
    2cbe:	075a                	.2byte	0x75a
    2cc0:	1484                	.2byte	0x1484
    2cc2:	0001                	.2byte	0x1
    2cc4:	14a4                	.2byte	0x14a4
    2cc6:	0001                	.2byte	0x1
    2cc8:	5a01                	.2byte	0x5a01
    2cca:	0114b007          	.4byte	0x114b007
    2cce:	c400                	.2byte	0xc400
    2cd0:	0114                	.2byte	0x114
    2cd2:	0100                	.2byte	0x100
    2cd4:	005a                	.2byte	0x5a
    2cd6:	0102                	.2byte	0x102
    2cd8:	0000                	.2byte	0x0
    2cda:	0005                	.2byte	0x5
    2cdc:	0004                	.2byte	0x4
    2cde:	0000                	.2byte	0x0
    2ce0:	0000                	.2byte	0x0
    2ce2:	01150007          	.4byte	0x1150007
    2ce6:	2c00                	.2byte	0x2c00
    2ce8:	0115                	.2byte	0x115
    2cea:	0100                	.2byte	0x100
    2cec:	075a                	.2byte	0x75a
    2cee:	152c                	.2byte	0x152c
    2cf0:	0001                	.2byte	0x1
    2cf2:	1538                	.2byte	0x1538
    2cf4:	0001                	.2byte	0x1
    2cf6:	a306                	.2byte	0xa306
    2cf8:	260aa503          	lw	a0,608(s5)
    2cfc:	079f 1538 0001      	.byte	0x9f, 0x07, 0x38, 0x15, 0x01, 0x00
    2d02:	153c                	.2byte	0x153c
    2d04:	0001                	.2byte	0x1
    2d06:	5a01                	.2byte	0x5a01
    2d08:	01153c07          	.4byte	0x1153c07
    2d0c:	6800                	.2byte	0x6800
    2d0e:	0115                	.2byte	0x115
    2d10:	0600                	.2byte	0x600
    2d12:	0aa503a3          	sb	a0,167(a0)
    2d16:	9f26                	.2byte	0x9f26
    2d18:	01156807          	.4byte	0x1156807
    2d1c:	6c00                	.2byte	0x6c00
    2d1e:	0115                	.2byte	0x115
    2d20:	0100                	.2byte	0x100
    2d22:	075a                	.2byte	0x75a
    2d24:	156c                	.2byte	0x156c
    2d26:	0001                	.2byte	0x1
    2d28:	1570                	.2byte	0x1570
    2d2a:	0001                	.2byte	0x1
    2d2c:	a306                	.2byte	0xa306
    2d2e:	260aa503          	lw	a0,608(s5)
    2d32:	009f 0007 0115      	.byte	0x9f, 0x00, 0x07, 0x00, 0x15, 0x01
    2d38:	6c00                	.2byte	0x6c00
    2d3a:	0115                	.2byte	0x115
    2d3c:	0200                	.2byte	0x200
    2d3e:	9f30                	.2byte	0x9f30
    2d40:	0700                	.2byte	0x700
    2d42:	1518                	.2byte	0x1518
    2d44:	0001                	.2byte	0x1
    2d46:	1548                	.2byte	0x1548
    2d48:	0001                	.2byte	0x1
    2d4a:	5e01                	.2byte	0x5e01
    2d4c:	01154807          	.4byte	0x1154807
    2d50:	4c00                	.2byte	0x4c00
    2d52:	0115                	.2byte	0x115
    2d54:	0400                	.2byte	0x400
    2d56:	967e                	.2byte	0x967e
    2d58:	9f01                	.2byte	0x9f01
    2d5a:	01155807          	.4byte	0x1155807
    2d5e:	6c00                	.2byte	0x6c00
    2d60:	0115                	.2byte	0x115
    2d62:	0100                	.2byte	0x100
    2d64:	005e                	.2byte	0x5e
    2d66:	01151807          	.4byte	0x1151807
    2d6a:	3c00                	.2byte	0x3c00
    2d6c:	0115                	.2byte	0x115
    2d6e:	0100                	.2byte	0x100
    2d70:	075f 153c 0001      	.byte	0x5f, 0x07, 0x3c, 0x15, 0x01, 0x00
    2d76:	154c                	.2byte	0x154c
    2d78:	0001                	.2byte	0x1
    2d7a:	5a01                	.2byte	0x5a01
    2d7c:	01155807          	.4byte	0x1155807
    2d80:	6800                	.2byte	0x6800
    2d82:	0115                	.2byte	0x115
    2d84:	0100                	.2byte	0x100
    2d86:	075a                	.2byte	0x75a
    2d88:	1568                	.2byte	0x1568
    2d8a:	0001                	.2byte	0x1
    2d8c:	156c                	.2byte	0x156c
    2d8e:	0001                	.2byte	0x1
    2d90:	5f01                	.2byte	0x5f01
    2d92:	0700                	.2byte	0x700
    2d94:	1528                	.2byte	0x1528
    2d96:	0001                	.2byte	0x1
    2d98:	1534                	.2byte	0x1534
    2d9a:	0001                	.2byte	0x1
    2d9c:	4005                	.2byte	0x4005
    2d9e:	9f1f244b          	.4byte	0x9f1f244b
    2da2:	01153407          	.4byte	0x1153407
    2da6:	3800                	.2byte	0x3800
    2da8:	0115                	.2byte	0x115
    2daa:	0100                	.2byte	0x100
    2dac:	075a                	.2byte	0x75a
    2dae:	1544                	.2byte	0x1544
    2db0:	0001                	.2byte	0x1
    2db2:	1558                	.2byte	0x1558
    2db4:	0001                	.2byte	0x1
    2db6:	5a01                	.2byte	0x5a01
    2db8:	01156407          	.4byte	0x1156407
    2dbc:	6800                	.2byte	0x6800
    2dbe:	0115                	.2byte	0x115
    2dc0:	0100                	.2byte	0x100
    2dc2:	075a                	.2byte	0x75a
    2dc4:	156c                	.2byte	0x156c
    2dc6:	0001                	.2byte	0x1
    2dc8:	1570                	.2byte	0x1570
    2dca:	0001                	.2byte	0x1
    2dcc:	5a01                	.2byte	0x5a01
    2dce:	0700                	.2byte	0x700
    2dd0:	1538                	.2byte	0x1538
    2dd2:	0001                	.2byte	0x1
    2dd4:	154c                	.2byte	0x154c
    2dd6:	0001                	.2byte	0x1
    2dd8:	3002                	.2byte	0x3002
    2dda:	009f 01e4 0000      	.byte	0x9f, 0x00, 0xe4, 0x01, 0x00, 0x00
    2de0:	0005                	.2byte	0x5
    2de2:	0004                	.2byte	0x4
    2de4:	0000                	.2byte	0x0
    2de6:	0000                	.2byte	0x0
    2de8:	01157007          	.4byte	0x1157007
    2dec:	9c00                	.2byte	0x9c00
    2dee:	0115                	.2byte	0x115
    2df0:	0100                	.2byte	0x100
    2df2:	075a                	.2byte	0x75a
    2df4:	159c                	.2byte	0x159c
    2df6:	0001                	.2byte	0x1
    2df8:	159f 0001 5f01      	.byte	0x9f, 0x15, 0x01, 0x00, 0x01, 0x5f
    2dfe:	01159f07          	.4byte	0x1159f07
    2e02:	7000                	.2byte	0x7000
    2e04:	0116                	.2byte	0x116
    2e06:	0400                	.2byte	0x400
    2e08:	9f5a01a3          	sb	s5,-1565(s4)
    2e0c:	01167007          	.4byte	0x1167007
    2e10:	7c00                	.2byte	0x7c00
    2e12:	0116                	.2byte	0x116
    2e14:	0100                	.2byte	0x100
    2e16:	075a                	.2byte	0x75a
    2e18:	167c                	.2byte	0x167c
    2e1a:	0001                	.2byte	0x1
    2e1c:	1684                	.2byte	0x1684
    2e1e:	0001                	.2byte	0x1
    2e20:	a304                	.2byte	0xa304
    2e22:	5a01                	.2byte	0x5a01
    2e24:	009f 7007 0115      	.byte	0x9f, 0x00, 0x07, 0x70, 0x15, 0x01
    2e2a:	c000                	.2byte	0xc000
    2e2c:	0115                	.2byte	0x115
    2e2e:	0200                	.2byte	0x200
    2e30:	9f30                	.2byte	0x9f30
    2e32:	0115ec07          	.4byte	0x115ec07
    2e36:	2400                	.2byte	0x2400
    2e38:	0116                	.2byte	0x116
    2e3a:	0200                	.2byte	0x200
    2e3c:	9f30                	.2byte	0x9f30
    2e3e:	01162407          	.4byte	0x1162407
    2e42:	3400                	.2byte	0x3400
    2e44:	0116                	.2byte	0x116
    2e46:	0200                	.2byte	0x200
    2e48:	9f31                	.2byte	0x9f31
    2e4a:	01165c07          	.4byte	0x1165c07
    2e4e:	8400                	.2byte	0x8400
    2e50:	0116                	.2byte	0x116
    2e52:	0200                	.2byte	0x200
    2e54:	9f30                	.2byte	0x9f30
    2e56:	0700                	.2byte	0x700
    2e58:	1598                	.2byte	0x1598
    2e5a:	0001                	.2byte	0x1
    2e5c:	15e4                	.2byte	0x15e4
    2e5e:	0001                	.2byte	0x1
    2e60:	5901                	.2byte	0x5901
    2e62:	0115ec07          	.4byte	0x115ec07
    2e66:	7000                	.2byte	0x7000
    2e68:	0116                	.2byte	0x116
    2e6a:	0100                	.2byte	0x100
    2e6c:	0759                	.2byte	0x759
    2e6e:	167c                	.2byte	0x167c
    2e70:	0001                	.2byte	0x1
    2e72:	1684                	.2byte	0x1684
    2e74:	0001                	.2byte	0x1
    2e76:	5901                	.2byte	0x5901
    2e78:	0700                	.2byte	0x700
    2e7a:	15a8                	.2byte	0x15a8
    2e7c:	0001                	.2byte	0x1
    2e7e:	15cc                	.2byte	0x15cc
    2e80:	0001                	.2byte	0x1
    2e82:	5f01                	.2byte	0x5f01
    2e84:	0115ec07          	.4byte	0x115ec07
    2e88:	4400                	.2byte	0x4400
    2e8a:	0116                	.2byte	0x116
    2e8c:	0100                	.2byte	0x100
    2e8e:	075f 1644 0001      	.byte	0x5f, 0x07, 0x44, 0x16, 0x01, 0x00
    2e94:	1654                	.2byte	0x1654
    2e96:	0001                	.2byte	0x1
    2e98:	0806                	.2byte	0x806
    2e9a:	7a9e                	.2byte	0x7a9e
    2e9c:	1c00                	.2byte	0x1c00
    2e9e:	079f 1654 0001      	.byte	0x9f, 0x07, 0x54, 0x16, 0x01, 0x00
    2ea4:	1670                	.2byte	0x1670
    2ea6:	0001                	.2byte	0x1
    2ea8:	5f01                	.2byte	0x5f01
    2eaa:	01167c07          	.4byte	0x1167c07
    2eae:	8000                	.2byte	0x8000
    2eb0:	0116                	.2byte	0x116
    2eb2:	0100                	.2byte	0x100
    2eb4:	075f 1680 0001      	.byte	0x5f, 0x07, 0x80, 0x16, 0x01, 0x00
    2eba:	1684                	.2byte	0x1684
    2ebc:	0001                	.2byte	0x1
    2ebe:	0806                	.2byte	0x806
    2ec0:	7a9e                	.2byte	0x7a9e
    2ec2:	1c00                	.2byte	0x1c00
    2ec4:	009f b007 0115      	.byte	0x9f, 0x00, 0x07, 0xb0, 0x15, 0x01
    2eca:	c400                	.2byte	0xc400
    2ecc:	0115                	.2byte	0x115
    2ece:	0100                	.2byte	0x100
    2ed0:	0758                	.2byte	0x758
    2ed2:	1610                	.2byte	0x1610
    2ed4:	0001                	.2byte	0x1
    2ed6:	1620                	.2byte	0x1620
    2ed8:	0001                	.2byte	0x1
    2eda:	5801                	.2byte	0x5801
    2edc:	01162007          	.4byte	0x1162007
    2ee0:	5800                	.2byte	0x5800
    2ee2:	0116                	.2byte	0x116
    2ee4:	0100                	.2byte	0x100
    2ee6:	075e                	.2byte	0x75e
    2ee8:	1658                	.2byte	0x1658
    2eea:	0001                	.2byte	0x1
    2eec:	1670                	.2byte	0x1670
    2eee:	0001                	.2byte	0x1
    2ef0:	5801                	.2byte	0x5801
    2ef2:	01167c07          	.4byte	0x1167c07
    2ef6:	8400                	.2byte	0x8400
    2ef8:	0116                	.2byte	0x116
    2efa:	0100                	.2byte	0x100
    2efc:	0058                	.2byte	0x58
    2efe:	0115dc07          	.4byte	0x115dc07
    2f02:	e000                	.2byte	0xe000
    2f04:	0115                	.2byte	0x115
    2f06:	0800                	.2byte	0x800
    2f08:	007f                	.2byte	0x7f
    2f0a:	007a                	.2byte	0x7a
    2f0c:	a921                	.2byte	0xa921
    2f0e:	9f26                	.2byte	0x9f26
    2f10:	0115e007          	.4byte	0x115e007
    2f14:	ec00                	.2byte	0xec00
    2f16:	0115                	.2byte	0x115
    2f18:	0100                	.2byte	0x100
    2f1a:	005a                	.2byte	0x5a
    2f1c:	01158807          	.4byte	0x1158807
    2f20:	9800                	.2byte	0x9800
    2f22:	0115                	.2byte	0x115
    2f24:	0100                	.2byte	0x100
    2f26:	075a                	.2byte	0x75a
    2f28:	1598                	.2byte	0x1598
    2f2a:	0001                	.2byte	0x1
    2f2c:	15c0                	.2byte	0x15c0
    2f2e:	0001                	.2byte	0x1
    2f30:	5801                	.2byte	0x5801
    2f32:	0115ec07          	.4byte	0x115ec07
    2f36:	0800                	.2byte	0x800
    2f38:	0116                	.2byte	0x116
    2f3a:	0100                	.2byte	0x100
    2f3c:	0758                	.2byte	0x758
    2f3e:	1608                	.2byte	0x1608
    2f40:	0001                	.2byte	0x1
    2f42:	1610                	.2byte	0x1610
    2f44:	0001                	.2byte	0x1
    2f46:	a310                	.2byte	0xa310
    2f48:	5a01                	.2byte	0x5a01
    2f4a:	01a3264f          	.4byte	0x1a3264f
    2f4e:	275a                	.2byte	0x275a
    2f50:	4f5a01a3          	sb	s5,1251(s4)
    2f54:	1c26                	.2byte	0x1c26
    2f56:	079f 165c 0001      	.byte	0x9f, 0x07, 0x5c, 0x16, 0x01, 0x00
    2f5c:	166c                	.2byte	0x166c
    2f5e:	0001                	.2byte	0x1
    2f60:	5801                	.2byte	0x5801
    2f62:	01166c07          	.4byte	0x1166c07
    2f66:	7000                	.2byte	0x7000
    2f68:	0116                	.2byte	0x116
    2f6a:	1000                	.2byte	0x1000
    2f6c:	4f5a01a3          	sb	s5,1251(s4)
    2f70:	a326                	.2byte	0xa326
    2f72:	5a01                	.2byte	0x5a01
    2f74:	5a01a327          	.4byte	0x5a01a327
    2f78:	9f1c264f          	.4byte	0x9f1c264f
    2f7c:	01167c07          	.4byte	0x1167c07
    2f80:	8400                	.2byte	0x8400
    2f82:	0116                	.2byte	0x116
    2f84:	0100                	.2byte	0x100
    2f86:	0058                	.2byte	0x58
    2f88:	0115a007          	.4byte	0x115a007
    2f8c:	bc00                	.2byte	0xbc00
    2f8e:	0115                	.2byte	0x115
    2f90:	0100                	.2byte	0x100
    2f92:	075a                	.2byte	0x75a
    2f94:	15bc                	.2byte	0x15bc
    2f96:	0001                	.2byte	0x1
    2f98:	15c0                	.2byte	0x15c0
    2f9a:	0001                	.2byte	0x1
    2f9c:	9f087a03          	.4byte	0x9f087a03
    2fa0:	0115ec07          	.4byte	0x115ec07
    2fa4:	7000                	.2byte	0x7000
    2fa6:	0116                	.2byte	0x116
    2fa8:	0100                	.2byte	0x100
    2faa:	075a                	.2byte	0x75a
    2fac:	167c                	.2byte	0x167c
    2fae:	0001                	.2byte	0x1
    2fb0:	1684                	.2byte	0x1684
    2fb2:	0001                	.2byte	0x1
    2fb4:	5a01                	.2byte	0x5a01
    2fb6:	0700                	.2byte	0x700
    2fb8:	1620                	.2byte	0x1620
    2fba:	0001                	.2byte	0x1
    2fbc:	165c                	.2byte	0x165c
    2fbe:	0001                	.2byte	0x1
    2fc0:	3002                	.2byte	0x3002
    2fc2:	009f 005e 0000      	.byte	0x9f, 0x00, 0x5e, 0x00, 0x00, 0x00
    2fc8:	0005                	.2byte	0x5
    2fca:	0004                	.2byte	0x4
    2fcc:	0000                	.2byte	0x0
    2fce:	0000                	.2byte	0x0
    2fd0:	01168407          	.4byte	0x1168407
    2fd4:	a800                	.2byte	0xa800
    2fd6:	0116                	.2byte	0x116
    2fd8:	0100                	.2byte	0x100
    2fda:	075a                	.2byte	0x75a
    2fdc:	16a8                	.2byte	0x16a8
    2fde:	0001                	.2byte	0x1
    2fe0:	16bc                	.2byte	0x16bc
    2fe2:	0001                	.2byte	0x1
    2fe4:	a304                	.2byte	0xa304
    2fe6:	5a01                	.2byte	0x5a01
    2fe8:	079f 16bc 0001      	.byte	0x9f, 0x07, 0xbc, 0x16, 0x01, 0x00
    2fee:	16d0                	.2byte	0x16d0
    2ff0:	0001                	.2byte	0x1
    2ff2:	5a01                	.2byte	0x5a01
    2ff4:	0700                	.2byte	0x700
    2ff6:	1684                	.2byte	0x1684
    2ff8:	0001                	.2byte	0x1
    2ffa:	16a8                	.2byte	0x16a8
    2ffc:	0001                	.2byte	0x1
    2ffe:	5a01                	.2byte	0x5a01
    3000:	0116a807          	.4byte	0x116a807
    3004:	bc00                	.2byte	0xbc00
    3006:	0116                	.2byte	0x116
    3008:	0400                	.2byte	0x400
    300a:	9f5a01a3          	sb	s5,-1565(s4)
    300e:	0116bc07          	.4byte	0x116bc07
    3012:	d000                	.2byte	0xd000
    3014:	0116                	.2byte	0x116
    3016:	0100                	.2byte	0x100
    3018:	005a                	.2byte	0x5a
    301a:	01169807          	.4byte	0x1169807
    301e:	ac00                	.2byte	0xac00
    3020:	0116                	.2byte	0x116
    3022:	0100                	.2byte	0x100
    3024:	005f 0057 0000      	.byte	0x5f, 0x00, 0x57, 0x00, 0x00, 0x00
    302a:	0005                	.2byte	0x5
    302c:	0004                	.2byte	0x4
    302e:	0000                	.2byte	0x0
    3030:	0000                	.2byte	0x0
    3032:	011ae007          	.4byte	0x11ae007
    3036:	1000                	.2byte	0x1000
    3038:	0100011b          	.4byte	0x100011b
    303c:	075a                	.2byte	0x75a
    303e:	1b10                	.2byte	0x1b10
    3040:	0001                	.2byte	0x1
    3042:	1b54                	.2byte	0x1b54
    3044:	0001                	.2byte	0x1
    3046:	a306                	.2byte	0xa306
    3048:	260aa503          	lw	a0,608(s5)
    304c:	009f e007 011a      	.byte	0x9f, 0x00, 0x07, 0xe0, 0x1a, 0x01
    3052:	0c00                	.2byte	0xc00
    3054:	0100011b          	.4byte	0x100011b
    3058:	1b0c075b          	.4byte	0x1b0c075b
    305c:	0001                	.2byte	0x1
    305e:	1b54                	.2byte	0x1b54
    3060:	0001                	.2byte	0x1
    3062:	a306                	.2byte	0xa306
    3064:	260ba503          	lw	a0,608(s7)
    3068:	009f fc07 011a      	.byte	0x9f, 0x00, 0x07, 0xfc, 0x1a, 0x01
    306e:	2400                	.2byte	0x2400
    3070:	0100011b          	.4byte	0x100011b
    3074:	075c                	.2byte	0x75c
    3076:	1b30                	.2byte	0x1b30
    3078:	0001                	.2byte	0x1
    307a:	1b50                	.2byte	0x1b50
    307c:	0001                	.2byte	0x1
    307e:	5c01                	.2byte	0x5c01
    3080:	dd00                	.2byte	0xdd00
    3082:	0000                	.2byte	0x0
    3084:	0500                	.2byte	0x500
    3086:	0400                	.2byte	0x400
    3088:	0000                	.2byte	0x0
    308a:	0000                	.2byte	0x0
    308c:	0700                	.2byte	0x700
    308e:	1b54                	.2byte	0x1b54
    3090:	0001                	.2byte	0x1
    3092:	1b70                	.2byte	0x1b70
    3094:	0001                	.2byte	0x1
    3096:	5a01                	.2byte	0x5a01
    3098:	011b7007          	.4byte	0x11b7007
    309c:	3000                	.2byte	0x3000
    309e:	011c                	.2byte	0x11c
    30a0:	0600                	.2byte	0x600
    30a2:	0aa503a3          	sb	a0,167(a0)
    30a6:	9f26                	.2byte	0x9f26
    30a8:	0700                	.2byte	0x700
    30aa:	1b54                	.2byte	0x1b54
    30ac:	0001                	.2byte	0x1
    30ae:	1b80                	.2byte	0x1b80
    30b0:	0001                	.2byte	0x1
    30b2:	5b01                	.2byte	0x5b01
    30b4:	011b8007          	.4byte	0x11b8007
    30b8:	3000                	.2byte	0x3000
    30ba:	011c                	.2byte	0x11c
    30bc:	0600                	.2byte	0x600
    30be:	0ba503a3          	sb	s10,167(a0)
    30c2:	9f26                	.2byte	0x9f26
    30c4:	0700                	.2byte	0x700
    30c6:	1b7c                	.2byte	0x1b7c
    30c8:	0001                	.2byte	0x1
    30ca:	1b8c                	.2byte	0x1b8c
    30cc:	0001                	.2byte	0x1
    30ce:	5a01                	.2byte	0x5a01
    30d0:	011b9c07          	.4byte	0x11b9c07
    30d4:	a000                	.2byte	0xa000
    30d6:	0100011b          	.4byte	0x100011b
    30da:	075a                	.2byte	0x75a
    30dc:	1bb0                	.2byte	0x1bb0
    30de:	0001                	.2byte	0x1
    30e0:	1bb8                	.2byte	0x1bb8
    30e2:	0001                	.2byte	0x1
    30e4:	5a01                	.2byte	0x5a01
    30e6:	011bd807          	.4byte	0x11bd807
    30ea:	f400                	.2byte	0xf400
    30ec:	0100011b          	.4byte	0x100011b
    30f0:	075a                	.2byte	0x75a
    30f2:	1bfc                	.2byte	0x1bfc
    30f4:	0001                	.2byte	0x1
    30f6:	1c08                	.2byte	0x1c08
    30f8:	0001                	.2byte	0x1
    30fa:	5a01                	.2byte	0x5a01
    30fc:	011c0c07          	.4byte	0x11c0c07
    3100:	1000                	.2byte	0x1000
    3102:	011c                	.2byte	0x11c
    3104:	0100                	.2byte	0x100
    3106:	075a                	.2byte	0x75a
    3108:	1c20                	.2byte	0x1c20
    310a:	0001                	.2byte	0x1
    310c:	1c24                	.2byte	0x1c24
    310e:	0001                	.2byte	0x1
    3110:	5a01                	.2byte	0x5a01
    3112:	011c2807          	.4byte	0x11c2807
    3116:	3000                	.2byte	0x3000
    3118:	011c                	.2byte	0x11c
    311a:	0100                	.2byte	0x100
    311c:	005a                	.2byte	0x5a
    311e:	011bdc07          	.4byte	0x11bdc07
    3122:	e000                	.2byte	0xe000
    3124:	0200011b          	.4byte	0x200011b
    3128:	9f30                	.2byte	0x9f30
    312a:	011bfc07          	.4byte	0x11bfc07
    312e:	0800                	.2byte	0x800
    3130:	011c                	.2byte	0x11c
    3132:	0800                	.2byte	0x800
    3134:	007c                	.2byte	0x7c
    3136:	2930                	.2byte	0x2930
    3138:	ff08                	.2byte	0xff08
    313a:	9f1a                	.2byte	0x9f1a
    313c:	0700                	.2byte	0x700
    313e:	1bc0                	.2byte	0x1bc0
    3140:	0001                	.2byte	0x1
    3142:	1bc8                	.2byte	0x1bc8
    3144:	0001                	.2byte	0x1
    3146:	3002                	.2byte	0x3002
    3148:	079f 1c04 0001      	.byte	0x9f, 0x07, 0x04, 0x1c, 0x01, 0x00
    314e:	1c08                	.2byte	0x1c08
    3150:	0001                	.2byte	0x1
    3152:	3102                	.2byte	0x3102
    3154:	079f 1c0c 0001      	.byte	0x9f, 0x07, 0x0c, 0x1c, 0x01, 0x00
    315a:	1c20                	.2byte	0x1c20
    315c:	0001                	.2byte	0x1
    315e:	3002                	.2byte	0x3002
    3160:	009f 004c 0000      	.byte	0x9f, 0x00, 0x4c, 0x00, 0x00, 0x00
    3166:	0005                	.2byte	0x5
    3168:	0004                	.2byte	0x4
    316a:	0000                	.2byte	0x0
    316c:	0000                	.2byte	0x0
    316e:	011c3007          	.4byte	0x11c3007
    3172:	4000                	.2byte	0x4000
    3174:	011c                	.2byte	0x11c
    3176:	0100                	.2byte	0x100
    3178:	075a                	.2byte	0x75a
    317a:	1c40                	.2byte	0x1c40
    317c:	0001                	.2byte	0x1
    317e:	1c74                	.2byte	0x1c74
    3180:	0001                	.2byte	0x1
    3182:	a306                	.2byte	0xa306
    3184:	260aa503          	lw	a0,608(s5)
    3188:	009f 3007 011c      	.byte	0x9f, 0x00, 0x07, 0x30, 0x1c, 0x01
    318e:	4c00                	.2byte	0x4c00
    3190:	011c                	.2byte	0x11c
    3192:	0100                	.2byte	0x100
    3194:	1c4c075b          	.4byte	0x1c4c075b
    3198:	0001                	.2byte	0x1
    319a:	1c74                	.2byte	0x1c74
    319c:	0001                	.2byte	0x1
    319e:	a306                	.2byte	0xa306
    31a0:	260ba503          	lw	a0,608(s7)
    31a4:	009f 3c07 011c      	.byte	0x9f, 0x00, 0x07, 0x3c, 0x1c, 0x01
    31aa:	6400                	.2byte	0x6400
    31ac:	011c                	.2byte	0x11c
    31ae:	0100                	.2byte	0x100
    31b0:	005e                	.2byte	0x5e

Disassembly of section .debug_rnglists:

00000000 <.debug_rnglists>:
   0:	010d                	.2byte	0x10d
   2:	0000                	.2byte	0x0
   4:	0005                	.2byte	0x5
   6:	0004                	.2byte	0x4
   8:	0000                	.2byte	0x0
   a:	0000                	.2byte	0x0
   c:	0006                	.2byte	0x6
   e:	0000                	.2byte	0x0
  10:	0000                	.2byte	0x0
  12:	0000                	.2byte	0x0
  14:	0600                	.2byte	0x600
	...
  1e:	0006                	.2byte	0x6
	...
  28:	0006                	.2byte	0x6
  2a:	0000                	.2byte	0x0
  2c:	0000                	.2byte	0x0
  2e:	0000                	.2byte	0x0
  30:	0600                	.2byte	0x600
	...
  3a:	0006                	.2byte	0x6
  3c:	0000                	.2byte	0x0
  3e:	0000                	.2byte	0x0
  40:	0000                	.2byte	0x0
  42:	0600                	.2byte	0x600
	...
  4c:	0600                	.2byte	0x600
	...
  56:	0006                	.2byte	0x6
	...
  60:	0006                	.2byte	0x6
  62:	0000                	.2byte	0x0
  64:	0000                	.2byte	0x0
  66:	0000                	.2byte	0x0
  68:	0600                	.2byte	0x600
	...
  72:	0600                	.2byte	0x600
	...
  7c:	0006                	.2byte	0x6
  7e:	0000                	.2byte	0x0
  80:	0000                	.2byte	0x0
  82:	0000                	.2byte	0x0
  84:	0600                	.2byte	0x600
	...
  8e:	0006                	.2byte	0x6
	...
  98:	0006                	.2byte	0x6
  9a:	0000                	.2byte	0x0
  9c:	0000                	.2byte	0x0
  9e:	0000                	.2byte	0x0
  a0:	0600                	.2byte	0x600
	...
  aa:	0006                	.2byte	0x6
  ac:	0000                	.2byte	0x0
  ae:	0000                	.2byte	0x0
  b0:	0000                	.2byte	0x0
  b2:	0600                	.2byte	0x600
	...
  bc:	0006                	.2byte	0x6
	...
  c6:	0006                	.2byte	0x6
  c8:	0000                	.2byte	0x0
  ca:	0000                	.2byte	0x0
  cc:	0000                	.2byte	0x0
  ce:	0600                	.2byte	0x600
	...
  d8:	0006                	.2byte	0x6
	...
  e2:	0006                	.2byte	0x6
  e4:	0000                	.2byte	0x0
  e6:	0000                	.2byte	0x0
  e8:	0000                	.2byte	0x0
  ea:	0600                	.2byte	0x600
	...
  f4:	0006                	.2byte	0x6
	...
  fe:	0006                	.2byte	0x6
 100:	0000                	.2byte	0x0
 102:	0000                	.2byte	0x0
 104:	0000                	.2byte	0x0
 106:	0600                	.2byte	0x600
	...
 110:	ac00                	.2byte	0xac00
 112:	0001                	.2byte	0x1
 114:	0500                	.2byte	0x500
 116:	0400                	.2byte	0x400
 118:	0000                	.2byte	0x0
 11a:	0000                	.2byte	0x0
 11c:	0600                	.2byte	0x600
 11e:	0494                	.2byte	0x494
 120:	0001                	.2byte	0x1
 122:	0494                	.2byte	0x494
 124:	0001                	.2byte	0x1
 126:	9806                	.2byte	0x9806
 128:	0104                	.2byte	0x104
 12a:	a000                	.2byte	0xa000
 12c:	0104                	.2byte	0x104
 12e:	0600                	.2byte	0x600
 130:	04a8                	.2byte	0x4a8
 132:	0001                	.2byte	0x1
 134:	04b0                	.2byte	0x4b0
 136:	0001                	.2byte	0x1
 138:	b806                	.2byte	0xb806
 13a:	0104                	.2byte	0x104
 13c:	bc00                	.2byte	0xbc00
 13e:	0104                	.2byte	0x104
 140:	0600                	.2byte	0x600
 142:	04c8                	.2byte	0x4c8
 144:	0001                	.2byte	0x1
 146:	04cc                	.2byte	0x4cc
 148:	0001                	.2byte	0x1
 14a:	e406                	.2byte	0xe406
 14c:	0106                	.2byte	0x106
 14e:	ec00                	.2byte	0xec00
 150:	0106                	.2byte	0x106
 152:	0000                	.2byte	0x0
 154:	a006                	.2byte	0xa006
 156:	0104                	.2byte	0x104
 158:	a400                	.2byte	0xa400
 15a:	0104                	.2byte	0x104
 15c:	0600                	.2byte	0x600
 15e:	04b4                	.2byte	0x4b4
 160:	0001                	.2byte	0x1
 162:	04b8                	.2byte	0x4b8
 164:	0001                	.2byte	0x1
 166:	bc06                	.2byte	0xbc06
 168:	0104                	.2byte	0x104
 16a:	c000                	.2byte	0xc000
 16c:	0104                	.2byte	0x104
 16e:	0600                	.2byte	0x600
 170:	04cc                	.2byte	0x4cc
 172:	0001                	.2byte	0x1
 174:	04d0                	.2byte	0x4d0
 176:	0001                	.2byte	0x1
 178:	d406                	.2byte	0xd406
 17a:	0104                	.2byte	0x104
 17c:	d400                	.2byte	0xd400
 17e:	0104                	.2byte	0x104
 180:	0600                	.2byte	0x600
 182:	0658                	.2byte	0x658
 184:	0001                	.2byte	0x1
 186:	0660                	.2byte	0x660
 188:	0001                	.2byte	0x1
 18a:	7c06                	.2byte	0x7c06
 18c:	0106                	.2byte	0x106
 18e:	8000                	.2byte	0x8000
 190:	0106                	.2byte	0x106
 192:	0600                	.2byte	0x600
 194:	0704                	.2byte	0x704
 196:	0001                	.2byte	0x1
 198:	0708                	.2byte	0x708
 19a:	0001                	.2byte	0x1
 19c:	e006                	.2byte	0xe006
 19e:	e4000107          	.4byte	0xe4000107
 1a2:	06000107          	.4byte	0x6000107
 1a6:	08d4                	.2byte	0x8d4
 1a8:	0001                	.2byte	0x1
 1aa:	08d8                	.2byte	0x8d8
 1ac:	0001                	.2byte	0x1
 1ae:	0600                	.2byte	0x600
 1b0:	04d8                	.2byte	0x4d8
 1b2:	0001                	.2byte	0x1
 1b4:	04dc                	.2byte	0x4dc
 1b6:	0001                	.2byte	0x1
 1b8:	e006                	.2byte	0xe006
 1ba:	0104                	.2byte	0x104
 1bc:	1800                	.2byte	0x1800
 1be:	0105                	.2byte	0x105
 1c0:	0600                	.2byte	0x600
 1c2:	0520                	.2byte	0x520
 1c4:	0001                	.2byte	0x1
 1c6:	0540                	.2byte	0x540
 1c8:	0001                	.2byte	0x1
 1ca:	bc06                	.2byte	0xbc06
 1cc:	0105                	.2byte	0x105
 1ce:	ec00                	.2byte	0xec00
 1d0:	0105                	.2byte	0x105
 1d2:	0600                	.2byte	0x600
 1d4:	05f0                	.2byte	0x5f0
 1d6:	0001                	.2byte	0x1
 1d8:	0630                	.2byte	0x630
 1da:	0001                	.2byte	0x1
 1dc:	3806                	.2byte	0x3806
 1de:	0106                	.2byte	0x106
 1e0:	5800                	.2byte	0x5800
 1e2:	0106                	.2byte	0x106
 1e4:	0600                	.2byte	0x600
 1e6:	0660                	.2byte	0x660
 1e8:	0001                	.2byte	0x1
 1ea:	067c                	.2byte	0x67c
 1ec:	0001                	.2byte	0x1
 1ee:	8006                	.2byte	0x8006
 1f0:	0106                	.2byte	0x106
 1f2:	c000                	.2byte	0xc000
 1f4:	0106                	.2byte	0x106
 1f6:	0600                	.2byte	0x600
 1f8:	06d4                	.2byte	0x6d4
 1fa:	0001                	.2byte	0x1
 1fc:	06e4                	.2byte	0x6e4
 1fe:	0001                	.2byte	0x1
 200:	f806                	.2byte	0xf806
 202:	0108                	.2byte	0x108
 204:	fc00                	.2byte	0xfc00
 206:	0108                	.2byte	0x108
 208:	0000                	.2byte	0x0
 20a:	1806                	.2byte	0x1806
 20c:	0105                	.2byte	0x105
 20e:	2000                	.2byte	0x2000
 210:	0105                	.2byte	0x105
 212:	0600                	.2byte	0x600
 214:	0540                	.2byte	0x540
 216:	0001                	.2byte	0x1
 218:	0540                	.2byte	0x540
 21a:	0001                	.2byte	0x1
 21c:	c006                	.2byte	0xc006
 21e:	0106                	.2byte	0x106
 220:	c400                	.2byte	0xc400
 222:	0106                	.2byte	0x106
 224:	0600                	.2byte	0x600
 226:	06c8                	.2byte	0x6c8
 228:	0001                	.2byte	0x1
 22a:	06cc                	.2byte	0x6cc
 22c:	0001                	.2byte	0x1
 22e:	ec06                	.2byte	0xec06
 230:	0106                	.2byte	0x106
 232:	0400                	.2byte	0x400
 234:	06000107          	.4byte	0x6000107
 238:	0708                	.2byte	0x708
 23a:	0001                	.2byte	0x1
 23c:	0798                	.2byte	0x798
 23e:	0001                	.2byte	0x1
 240:	9c06                	.2byte	0x9c06
 242:	e0000107          	.4byte	0xe0000107
 246:	06000107          	.4byte	0x6000107
 24a:	07e4                	.2byte	0x7e4
 24c:	0001                	.2byte	0x1
 24e:	0808                	.2byte	0x808
 250:	0001                	.2byte	0x1
 252:	1006                	.2byte	0x1006
 254:	0108                	.2byte	0x108
 256:	c000                	.2byte	0xc000
 258:	0108                	.2byte	0x108
 25a:	0600                	.2byte	0x600
 25c:	08d8                	.2byte	0x8d8
 25e:	0001                	.2byte	0x1
 260:	08e0                	.2byte	0x8e0
 262:	0001                	.2byte	0x1
 264:	0600                	.2byte	0x600
 266:	0748                	.2byte	0x748
 268:	0001                	.2byte	0x1
 26a:	0754                	.2byte	0x754
 26c:	0001                	.2byte	0x1
 26e:	6406                	.2byte	0x6406
 270:	0108                	.2byte	0x108
 272:	a000                	.2byte	0xa000
 274:	0108                	.2byte	0x108
 276:	0600                	.2byte	0x600
 278:	08ac                	.2byte	0x8ac
 27a:	0001                	.2byte	0x1
 27c:	08c0                	.2byte	0x8c0
 27e:	0001                	.2byte	0x1
 280:	0600                	.2byte	0x600
 282:	0540                	.2byte	0x540
 284:	0001                	.2byte	0x1
 286:	0584                	.2byte	0x584
 288:	0001                	.2byte	0x1
 28a:	ec06                	.2byte	0xec06
 28c:	0105                	.2byte	0x105
 28e:	f000                	.2byte	0xf000
 290:	0105                	.2byte	0x105
 292:	0600                	.2byte	0x600
 294:	06c4                	.2byte	0x6c4
 296:	0001                	.2byte	0x1
 298:	06c8                	.2byte	0x6c8
 29a:	0001                	.2byte	0x1
 29c:	cc06                	.2byte	0xcc06
 29e:	0106                	.2byte	0x106
 2a0:	d400                	.2byte	0xd400
 2a2:	0106                	.2byte	0x106
 2a4:	0600                	.2byte	0x600
 2a6:	0808                	.2byte	0x808
 2a8:	0001                	.2byte	0x1
 2aa:	0810                	.2byte	0x810
 2ac:	0001                	.2byte	0x1
 2ae:	e006                	.2byte	0xe006
 2b0:	0108                	.2byte	0x108
 2b2:	f800                	.2byte	0xf800
 2b4:	0108                	.2byte	0x108
 2b6:	0600                	.2byte	0x600
 2b8:	08fc                	.2byte	0x8fc
 2ba:	0001                	.2byte	0x1
 2bc:	0904                	.2byte	0x904
 2be:	0001                	.2byte	0x1
 2c0:	cc00                	.2byte	0xcc00
 2c2:	0000                	.2byte	0x0
 2c4:	0500                	.2byte	0x500
 2c6:	0400                	.2byte	0x400
 2c8:	0000                	.2byte	0x0
 2ca:	0000                	.2byte	0x0
 2cc:	0600                	.2byte	0x600
 2ce:	0904                	.2byte	0x904
 2d0:	0001                	.2byte	0x1
 2d2:	0904                	.2byte	0x904
 2d4:	0001                	.2byte	0x1
 2d6:	1c06                	.2byte	0x1c06
 2d8:	0109                	.2byte	0x109
 2da:	2000                	.2byte	0x2000
 2dc:	0109                	.2byte	0x109
 2de:	0600                	.2byte	0x600
 2e0:	0934                	.2byte	0x934
 2e2:	0001                	.2byte	0x1
 2e4:	093c                	.2byte	0x93c
 2e6:	0001                	.2byte	0x1
 2e8:	e406                	.2byte	0xe406
 2ea:	0109                	.2byte	0x109
 2ec:	e800                	.2byte	0xe800
 2ee:	0109                	.2byte	0x109
 2f0:	0600                	.2byte	0x600
 2f2:	09f8                	.2byte	0x9f8
 2f4:	0001                	.2byte	0x1
 2f6:	09fc                	.2byte	0x9fc
 2f8:	0001                	.2byte	0x1
 2fa:	4406                	.2byte	0x4406
 2fc:	010a                	.2byte	0x10a
 2fe:	4c00                	.2byte	0x4c00
 300:	010a                	.2byte	0x10a
 302:	0000                	.2byte	0x0
 304:	5806                	.2byte	0x5806
 306:	0109                	.2byte	0x109
 308:	5c00                	.2byte	0x5c00
 30a:	0109                	.2byte	0x109
 30c:	0600                	.2byte	0x600
 30e:	09c8                	.2byte	0x9c8
 310:	0001                	.2byte	0x1
 312:	09e4                	.2byte	0x9e4
 314:	0001                	.2byte	0x1
 316:	0600                	.2byte	0x600
 318:	095c                	.2byte	0x95c
 31a:	0001                	.2byte	0x1
 31c:	0970                	.2byte	0x970
 31e:	0001                	.2byte	0x1
 320:	2406                	.2byte	0x2406
 322:	010a                	.2byte	0x10a
 324:	2800                	.2byte	0x2800
 326:	010a                	.2byte	0x10a
 328:	0600                	.2byte	0x600
 32a:	0a38                	.2byte	0xa38
 32c:	0001                	.2byte	0x1
 32e:	0a3c                	.2byte	0xa3c
 330:	0001                	.2byte	0x1
 332:	ac06                	.2byte	0xac06
 334:	b000010b          	.4byte	0xb000010b
 338:	0000010b          	.4byte	0x10b
 33c:	8c06                	.2byte	0x8c06
 33e:	0109                	.2byte	0x109
 340:	9000                	.2byte	0x9000
 342:	0109                	.2byte	0x109
 344:	0600                	.2byte	0x600
 346:	0a08                	.2byte	0xa08
 348:	0001                	.2byte	0x1
 34a:	0a24                	.2byte	0xa24
 34c:	0001                	.2byte	0x1
 34e:	0600                	.2byte	0x600
 350:	0a74                	.2byte	0xa74
 352:	0001                	.2byte	0x1
 354:	0b1c                	.2byte	0xb1c
 356:	0001                	.2byte	0x1
 358:	a006                	.2byte	0xa006
 35a:	ac00010b          	.4byte	0xac00010b
 35e:	0000010b          	.4byte	0x10b
 362:	8406                	.2byte	0x8406
 364:	010a                	.2byte	0x10a
 366:	0800                	.2byte	0x800
 368:	0600010b          	.4byte	0x600010b
 36c:	0b08                	.2byte	0xb08
 36e:	0001                	.2byte	0x1
 370:	0b0c                	.2byte	0xb0c
 372:	0001                	.2byte	0x1
 374:	1006                	.2byte	0x1006
 376:	1400010b          	.4byte	0x1400010b
 37a:	0000010b          	.4byte	0x10b
 37e:	6406                	.2byte	0x6406
 380:	6400010b          	.4byte	0x6400010b
 384:	0600010b          	.4byte	0x600010b
 388:	0b6c                	.2byte	0xb6c
 38a:	0001                	.2byte	0x1
 38c:	0b80                	.2byte	0xb80
 38e:	0001                	.2byte	0x1
 390:	4900                	.2byte	0x4900
 392:	0000                	.2byte	0x0
 394:	0500                	.2byte	0x500
 396:	0400                	.2byte	0x400
 398:	0000                	.2byte	0x0
 39a:	0000                	.2byte	0x0
 39c:	0600                	.2byte	0x600
 39e:	0c4c                	.2byte	0xc4c
 3a0:	0001                	.2byte	0x1
 3a2:	0c50                	.2byte	0xc50
 3a4:	0001                	.2byte	0x1
 3a6:	5406                	.2byte	0x5406
 3a8:	010c                	.2byte	0x10c
 3aa:	6000                	.2byte	0x6000
 3ac:	010c                	.2byte	0x10c
 3ae:	0000                	.2byte	0x0
 3b0:	6c06                	.2byte	0x6c06
 3b2:	010c                	.2byte	0x10c
 3b4:	7c00                	.2byte	0x7c00
 3b6:	010c                	.2byte	0x10c
 3b8:	0600                	.2byte	0x600
 3ba:	0c84                	.2byte	0xc84
 3bc:	0001                	.2byte	0x1
 3be:	0c90                	.2byte	0xc90
 3c0:	0001                	.2byte	0x1
 3c2:	9c06                	.2byte	0x9c06
 3c4:	010c                	.2byte	0x10c
 3c6:	e800                	.2byte	0xe800
 3c8:	010c                	.2byte	0x10c
 3ca:	0600                	.2byte	0x600
 3cc:	0cec                	.2byte	0xcec
 3ce:	0001                	.2byte	0x1
 3d0:	0d00                	.2byte	0xd00
 3d2:	0001                	.2byte	0x1
 3d4:	0806                	.2byte	0x806
 3d6:	010d                	.2byte	0x10d
 3d8:	1000                	.2byte	0x1000
 3da:	010d                	.2byte	0x10d
 3dc:	0000                	.2byte	0x0
 3de:	00b9                	.2byte	0xb9
 3e0:	0000                	.2byte	0x0
 3e2:	0005                	.2byte	0x5
 3e4:	0004                	.2byte	0x4
 3e6:	0000                	.2byte	0x0
 3e8:	0000                	.2byte	0x0
 3ea:	1006                	.2byte	0x1006
 3ec:	010d                	.2byte	0x10d
 3ee:	1000                	.2byte	0x1000
 3f0:	010d                	.2byte	0x10d
 3f2:	0600                	.2byte	0x600
 3f4:	0d28                	.2byte	0xd28
 3f6:	0001                	.2byte	0x1
 3f8:	0d2c                	.2byte	0xd2c
 3fa:	0001                	.2byte	0x1
 3fc:	4006                	.2byte	0x4006
 3fe:	010d                	.2byte	0x10d
 400:	4800                	.2byte	0x4800
 402:	010d                	.2byte	0x10d
 404:	0600                	.2byte	0x600
 406:	0ef4                	.2byte	0xef4
 408:	0001                	.2byte	0x1
 40a:	0ef8                	.2byte	0xef8
 40c:	0001                	.2byte	0x1
 40e:	0806                	.2byte	0x806
 410:	0c00010f          	.4byte	0xc00010f
 414:	0600010f          	.4byte	0x600010f
 418:	0fa8                	.2byte	0xfa8
 41a:	0001                	.2byte	0x1
 41c:	0fac                	.2byte	0xfac
 41e:	0001                	.2byte	0x1
 420:	0600                	.2byte	0x600
 422:	0d64                	.2byte	0xd64
 424:	0001                	.2byte	0x1
 426:	0d68                	.2byte	0xd68
 428:	0001                	.2byte	0x1
 42a:	d806                	.2byte	0xd806
 42c:	010e                	.2byte	0x10e
 42e:	f400                	.2byte	0xf400
 430:	010e                	.2byte	0x10e
 432:	0000                	.2byte	0x0
 434:	6806                	.2byte	0x6806
 436:	010d                	.2byte	0x10d
 438:	7c00                	.2byte	0x7c00
 43a:	010d                	.2byte	0x10d
 43c:	0600                	.2byte	0x600
 43e:	0f34                	.2byte	0xf34
 440:	0001                	.2byte	0x1
 442:	0f38                	.2byte	0xf38
 444:	0001                	.2byte	0x1
 446:	4806                	.2byte	0x4806
 448:	4c00010f          	.4byte	0x4c00010f
 44c:	0600010f          	.4byte	0x600010f
 450:	0f74                	.2byte	0xf74
 452:	0001                	.2byte	0x1
 454:	0f78                	.2byte	0xf78
 456:	0001                	.2byte	0x1
 458:	0600                	.2byte	0x600
 45a:	0d98                	.2byte	0xd98
 45c:	0001                	.2byte	0x1
 45e:	0d9c                	.2byte	0xd9c
 460:	0001                	.2byte	0x1
 462:	1806                	.2byte	0x1806
 464:	3400010f          	.4byte	0x3400010f
 468:	0000010f          	.4byte	0x10f
 46c:	cc06                	.2byte	0xcc06
 46e:	010d                	.2byte	0x10d
 470:	1800                	.2byte	0x1800
 472:	010e                	.2byte	0x10e
 474:	0600                	.2byte	0x600
 476:	0e1c                	.2byte	0xe1c
 478:	0001                	.2byte	0x1
 47a:	0e20                	.2byte	0xe20
 47c:	0001                	.2byte	0x1
 47e:	2806                	.2byte	0x2806
 480:	010e                	.2byte	0x10e
 482:	3000                	.2byte	0x3000
 484:	010e                	.2byte	0x10e
 486:	0000                	.2byte	0x0
 488:	9806                	.2byte	0x9806
 48a:	010e                	.2byte	0x10e
 48c:	9800                	.2byte	0x9800
 48e:	010e                	.2byte	0x10e
 490:	0600                	.2byte	0x600
 492:	0ea0                	.2byte	0xea0
 494:	0001                	.2byte	0x1
 496:	0eb4                	.2byte	0xeb4
 498:	0001                	.2byte	0x1
 49a:	c800                	.2byte	0xc800
 49c:	0001                	.2byte	0x1
 49e:	0500                	.2byte	0x500
 4a0:	0400                	.2byte	0x400
 4a2:	0000                	.2byte	0x0
 4a4:	0000                	.2byte	0x0
 4a6:	0600                	.2byte	0x600
 4a8:	1044                	.2byte	0x1044
 4aa:	0001                	.2byte	0x1
 4ac:	1048                	.2byte	0x1048
 4ae:	0001                	.2byte	0x1
 4b0:	4c06                	.2byte	0x4c06
 4b2:	0110                	.2byte	0x110
 4b4:	5400                	.2byte	0x5400
 4b6:	0110                	.2byte	0x110
 4b8:	0600                	.2byte	0x600
 4ba:	1060                	.2byte	0x1060
 4bc:	0001                	.2byte	0x1
 4be:	1068                	.2byte	0x1068
 4c0:	0001                	.2byte	0x1
 4c2:	7c06                	.2byte	0x7c06
 4c4:	0110                	.2byte	0x110
 4c6:	8000                	.2byte	0x8000
 4c8:	0110                	.2byte	0x110
 4ca:	0600                	.2byte	0x600
 4cc:	12bc                	.2byte	0x12bc
 4ce:	0001                	.2byte	0x1
 4d0:	12c4                	.2byte	0x12c4
 4d2:	0001                	.2byte	0x1
 4d4:	0600                	.2byte	0x600
 4d6:	1054                	.2byte	0x1054
 4d8:	0001                	.2byte	0x1
 4da:	1058                	.2byte	0x1058
 4dc:	0001                	.2byte	0x1
 4de:	6c06                	.2byte	0x6c06
 4e0:	0110                	.2byte	0x110
 4e2:	7000                	.2byte	0x7000
 4e4:	0110                	.2byte	0x110
 4e6:	0600                	.2byte	0x600
 4e8:	1074                	.2byte	0x1074
 4ea:	0001                	.2byte	0x1
 4ec:	1078                	.2byte	0x1078
 4ee:	0001                	.2byte	0x1
 4f0:	8006                	.2byte	0x8006
 4f2:	0110                	.2byte	0x110
 4f4:	8400                	.2byte	0x8400
 4f6:	0110                	.2byte	0x110
 4f8:	0600                	.2byte	0x600
 4fa:	1088                	.2byte	0x1088
 4fc:	0001                	.2byte	0x1
 4fe:	1088                	.2byte	0x1088
 500:	0001                	.2byte	0x1
 502:	9806                	.2byte	0x9806
 504:	0110                	.2byte	0x110
 506:	9c00                	.2byte	0x9c00
 508:	0110                	.2byte	0x110
 50a:	0600                	.2byte	0x600
 50c:	123c                	.2byte	0x123c
 50e:	0001                	.2byte	0x1
 510:	1244                	.2byte	0x1244
 512:	0001                	.2byte	0x1
 514:	6006                	.2byte	0x6006
 516:	0112                	.2byte	0x112
 518:	6400                	.2byte	0x6400
 51a:	0112                	.2byte	0x112
 51c:	0600                	.2byte	0x600
 51e:	12dc                	.2byte	0x12dc
 520:	0001                	.2byte	0x1
 522:	12e0                	.2byte	0x12e0
 524:	0001                	.2byte	0x1
 526:	d006                	.2byte	0xd006
 528:	d4000113          	li	sp,-704
 52c:	00000113          	li	sp,0
 530:	9006                	.2byte	0x9006
 532:	0110                	.2byte	0x110
 534:	9400                	.2byte	0x9400
 536:	0110                	.2byte	0x110
 538:	0600                	.2byte	0x600
 53a:	10a0                	.2byte	0x10a0
 53c:	0001                	.2byte	0x1
 53e:	10b0                	.2byte	0x10b0
 540:	0001                	.2byte	0x1
 542:	b806                	.2byte	0xb806
 544:	0110                	.2byte	0x110
 546:	c400                	.2byte	0xc400
 548:	0110                	.2byte	0x110
 54a:	0600                	.2byte	0x600
 54c:	112c                	.2byte	0x112c
 54e:	0001                	.2byte	0x1
 550:	1130                	.2byte	0x1130
 552:	0001                	.2byte	0x1
 554:	3406                	.2byte	0x3406
 556:	0111                	.2byte	0x111
 558:	6800                	.2byte	0x6800
 55a:	0111                	.2byte	0x111
 55c:	0600                	.2byte	0x600
 55e:	1174                	.2byte	0x1174
 560:	0001                	.2byte	0x1
 562:	1190                	.2byte	0x1190
 564:	0001                	.2byte	0x1
 566:	ac06                	.2byte	0xac06
 568:	0111                	.2byte	0x111
 56a:	dc00                	.2byte	0xdc00
 56c:	0111                	.2byte	0x111
 56e:	0600                	.2byte	0x600
 570:	11e0                	.2byte	0x11e0
 572:	0001                	.2byte	0x1
 574:	123c                	.2byte	0x123c
 576:	0001                	.2byte	0x1
 578:	4406                	.2byte	0x4406
 57a:	0112                	.2byte	0x112
 57c:	6000                	.2byte	0x6000
 57e:	0112                	.2byte	0x112
 580:	0600                	.2byte	0x600
 582:	1264                	.2byte	0x1264
 584:	0001                	.2byte	0x1
 586:	12a4                	.2byte	0x12a4
 588:	0001                	.2byte	0x1
 58a:	ac06                	.2byte	0xac06
 58c:	0112                	.2byte	0x112
 58e:	bc00                	.2byte	0xbc00
 590:	0112                	.2byte	0x112
 592:	0600                	.2byte	0x600
 594:	14ec                	.2byte	0x14ec
 596:	0001                	.2byte	0x1
 598:	14f0                	.2byte	0x14f0
 59a:	0001                	.2byte	0x1
 59c:	0600                	.2byte	0x600
 59e:	10c4                	.2byte	0x10c4
 5a0:	0001                	.2byte	0x1
 5a2:	10f0                	.2byte	0x10f0
 5a4:	0001                	.2byte	0x1
 5a6:	9006                	.2byte	0x9006
 5a8:	0111                	.2byte	0x111
 5aa:	ac00                	.2byte	0xac00
 5ac:	0111                	.2byte	0x111
 5ae:	0600                	.2byte	0x600
 5b0:	11dc                	.2byte	0x11dc
 5b2:	0001                	.2byte	0x1
 5b4:	11e0                	.2byte	0x11e0
 5b6:	0001                	.2byte	0x1
 5b8:	4006                	.2byte	0x4006
 5ba:	0114                	.2byte	0x114
 5bc:	4400                	.2byte	0x4400
 5be:	0114                	.2byte	0x114
 5c0:	0600                	.2byte	0x600
 5c2:	1448                	.2byte	0x1448
 5c4:	0001                	.2byte	0x1
 5c6:	1450                	.2byte	0x1450
 5c8:	0001                	.2byte	0x1
 5ca:	d406                	.2byte	0xd406
 5cc:	0114                	.2byte	0x114
 5ce:	ec00                	.2byte	0xec00
 5d0:	0114                	.2byte	0x114
 5d2:	0600                	.2byte	0x600
 5d4:	14f0                	.2byte	0x14f0
 5d6:	0001                	.2byte	0x1
 5d8:	1500                	.2byte	0x1500
 5da:	0001                	.2byte	0x1
 5dc:	0600                	.2byte	0x600
 5de:	10f0                	.2byte	0x10f0
 5e0:	0001                	.2byte	0x1
 5e2:	1104                	.2byte	0x1104
 5e4:	0001                	.2byte	0x1
 5e6:	0806                	.2byte	0x806
 5e8:	0111                	.2byte	0x111
 5ea:	0c00                	.2byte	0xc00
 5ec:	0111                	.2byte	0x111
 5ee:	0600                	.2byte	0x600
 5f0:	1110                	.2byte	0x1110
 5f2:	0001                	.2byte	0x1
 5f4:	1114                	.2byte	0x1114
 5f6:	0001                	.2byte	0x1
 5f8:	0600                	.2byte	0x600
 5fa:	1168                	.2byte	0x1168
 5fc:	0001                	.2byte	0x1
 5fe:	1174                	.2byte	0x1174
 600:	0001                	.2byte	0x1
 602:	9006                	.2byte	0x9006
 604:	0111                	.2byte	0x111
 606:	9000                	.2byte	0x9000
 608:	0111                	.2byte	0x111
 60a:	0600                	.2byte	0x600
 60c:	12a4                	.2byte	0x12a4
 60e:	0001                	.2byte	0x1
 610:	12ac                	.2byte	0x12ac
 612:	0001                	.2byte	0x1
 614:	c406                	.2byte	0xc406
 616:	0112                	.2byte	0x112
 618:	dc00                	.2byte	0xdc00
 61a:	0112                	.2byte	0x112
 61c:	0600                	.2byte	0x600
 61e:	12e0                	.2byte	0x12e0
 620:	0001                	.2byte	0x1
 622:	13d0                	.2byte	0x13d0
 624:	0001                	.2byte	0x1
 626:	d406                	.2byte	0xd406
 628:	40000113          	li	sp,1024
 62c:	0114                	.2byte	0x114
 62e:	0600                	.2byte	0x600
 630:	1444                	.2byte	0x1444
 632:	0001                	.2byte	0x1
 634:	1448                	.2byte	0x1448
 636:	0001                	.2byte	0x1
 638:	5006                	.2byte	0x5006
 63a:	0114                	.2byte	0x114
 63c:	c400                	.2byte	0xc400
 63e:	0114                	.2byte	0x114
 640:	0600                	.2byte	0x600
 642:	14cc                	.2byte	0x14cc
 644:	0001                	.2byte	0x1
 646:	14d4                	.2byte	0x14d4
 648:	0001                	.2byte	0x1
 64a:	0600                	.2byte	0x600
 64c:	131c                	.2byte	0x131c
 64e:	0001                	.2byte	0x1
 650:	1328                	.2byte	0x1328
 652:	0001                	.2byte	0x1
 654:	6806                	.2byte	0x6806
 656:	0114                	.2byte	0x114
 658:	a400                	.2byte	0xa400
 65a:	0114                	.2byte	0x114
 65c:	0600                	.2byte	0x600
 65e:	14b0                	.2byte	0x14b0
 660:	0001                	.2byte	0x1
 662:	14c4                	.2byte	0x14c4
 664:	0001                	.2byte	0x1
 666:	1b00                	.2byte	0x1b00
 668:	0000                	.2byte	0x0
 66a:	0500                	.2byte	0x500
 66c:	0400                	.2byte	0x400
 66e:	0000                	.2byte	0x0
 670:	0000                	.2byte	0x0
 672:	0600                	.2byte	0x600
 674:	1500                	.2byte	0x1500
 676:	0001                	.2byte	0x1
 678:	1510                	.2byte	0x1510
 67a:	0001                	.2byte	0x1
 67c:	1406                	.2byte	0x1406
 67e:	0115                	.2byte	0x115
 680:	1c00                	.2byte	0x1c00
 682:	0115                	.2byte	0x115
 684:	0000                	.2byte	0x0
 686:	0082                	.2byte	0x82
 688:	0000                	.2byte	0x0
 68a:	0005                	.2byte	0x5
 68c:	0004                	.2byte	0x4
 68e:	0000                	.2byte	0x0
 690:	0000                	.2byte	0x0
 692:	7006                	.2byte	0x7006
 694:	0115                	.2byte	0x115
 696:	7000                	.2byte	0x7000
 698:	0115                	.2byte	0x115
 69a:	0600                	.2byte	0x600
 69c:	1584                	.2byte	0x1584
 69e:	0001                	.2byte	0x1
 6a0:	15c0                	.2byte	0x15c0
 6a2:	0001                	.2byte	0x1
 6a4:	ec06                	.2byte	0xec06
 6a6:	0115                	.2byte	0x115
 6a8:	8400                	.2byte	0x8400
 6aa:	0116                	.2byte	0x116
 6ac:	0000                	.2byte	0x0
 6ae:	8806                	.2byte	0x8806
 6b0:	0115                	.2byte	0x115
 6b2:	c000                	.2byte	0xc000
 6b4:	0115                	.2byte	0x115
 6b6:	0600                	.2byte	0x600
 6b8:	15ec                	.2byte	0x15ec
 6ba:	0001                	.2byte	0x1
 6bc:	1670                	.2byte	0x1670
 6be:	0001                	.2byte	0x1
 6c0:	7c06                	.2byte	0x7c06
 6c2:	0116                	.2byte	0x116
 6c4:	8400                	.2byte	0x8400
 6c6:	0116                	.2byte	0x116
 6c8:	0000                	.2byte	0x0
 6ca:	9806                	.2byte	0x9806
 6cc:	0115                	.2byte	0x115
 6ce:	a800                	.2byte	0xa800
 6d0:	0115                	.2byte	0x115
 6d2:	0600                	.2byte	0x600
 6d4:	167c                	.2byte	0x167c
 6d6:	0001                	.2byte	0x1
 6d8:	1684                	.2byte	0x1684
 6da:	0001                	.2byte	0x1
 6dc:	0600                	.2byte	0x600
 6de:	1618                	.2byte	0x1618
 6e0:	0001                	.2byte	0x1
 6e2:	161c                	.2byte	0x161c
 6e4:	0001                	.2byte	0x1
 6e6:	2006                	.2byte	0x2006
 6e8:	0116                	.2byte	0x116
 6ea:	5c00                	.2byte	0x5c00
 6ec:	0116                	.2byte	0x116
 6ee:	0000                	.2byte	0x0
 6f0:	c006                	.2byte	0xc006
 6f2:	0115                	.2byte	0x115
 6f4:	cc00                	.2byte	0xcc00
 6f6:	0115                	.2byte	0x115
 6f8:	0600                	.2byte	0x600
 6fa:	15d0                	.2byte	0x15d0
 6fc:	0001                	.2byte	0x1
 6fe:	15d4                	.2byte	0x15d4
 700:	0001                	.2byte	0x1
 702:	d806                	.2byte	0xd806
 704:	0115                	.2byte	0x115
 706:	dc00                	.2byte	0xdc00
 708:	0115                	.2byte	0x115
 70a:	0000                	.2byte	0x0
 70c:	0024                	.2byte	0x24
 70e:	0000                	.2byte	0x0
 710:	0005                	.2byte	0x5
 712:	0004                	.2byte	0x4
 714:	0000                	.2byte	0x0
 716:	0000                	.2byte	0x0
 718:	8406                	.2byte	0x8406
 71a:	0116                	.2byte	0x116
 71c:	9800                	.2byte	0x9800
 71e:	0116                	.2byte	0x116
 720:	0600                	.2byte	0x600
 722:	1698                	.2byte	0x1698
 724:	0001                	.2byte	0x1
 726:	16b4                	.2byte	0x16b4
 728:	0001                	.2byte	0x1
 72a:	bc06                	.2byte	0xbc06
 72c:	0116                	.2byte	0x116
 72e:	d000                	.2byte	0xd000
 730:	0116                	.2byte	0x116
 732:	0000                	.2byte	0x0
 734:	00000037          	lui	zero,0x0
 738:	0005                	.2byte	0x5
 73a:	0004                	.2byte	0x4
 73c:	0000                	.2byte	0x0
 73e:	0000                	.2byte	0x0
 740:	e006                	.2byte	0xe006
 742:	011a                	.2byte	0x11a
 744:	ec00                	.2byte	0xec00
 746:	011a                	.2byte	0x11a
 748:	0600                	.2byte	0x600
 74a:	1af0                	.2byte	0x1af0
 74c:	0001                	.2byte	0x1
 74e:	1af4                	.2byte	0x1af4
 750:	0001                	.2byte	0x1
 752:	f806                	.2byte	0xf806
 754:	011a                	.2byte	0x11a
 756:	0000                	.2byte	0x0
 758:	0000011b          	.4byte	0x11b
 75c:	ec06                	.2byte	0xec06
 75e:	011a                	.2byte	0x11a
 760:	f000                	.2byte	0xf000
 762:	011a                	.2byte	0x11a
 764:	0600                	.2byte	0x600
 766:	1b00                	.2byte	0x1b00
 768:	0001                	.2byte	0x1
 76a:	1b0c                	.2byte	0x1b0c
 76c:	0001                	.2byte	0x1
 76e:	4900                	.2byte	0x4900
 770:	0000                	.2byte	0x0
 772:	0500                	.2byte	0x500
 774:	0400                	.2byte	0x400
 776:	0000                	.2byte	0x0
 778:	0000                	.2byte	0x0
 77a:	0600                	.2byte	0x600
 77c:	1b6c                	.2byte	0x1b6c
 77e:	0001                	.2byte	0x1
 780:	1b70                	.2byte	0x1b70
 782:	0001                	.2byte	0x1
 784:	7406                	.2byte	0x7406
 786:	8000011b          	.4byte	0x8000011b
 78a:	0000011b          	.4byte	0x11b
 78e:	8c06                	.2byte	0x8c06
 790:	9c00011b          	.4byte	0x9c00011b
 794:	0600011b          	.4byte	0x600011b
 798:	1ba4                	.2byte	0x1ba4
 79a:	0001                	.2byte	0x1
 79c:	1bb0                	.2byte	0x1bb0
 79e:	0001                	.2byte	0x1
 7a0:	bc06                	.2byte	0xbc06
 7a2:	0800011b          	.4byte	0x800011b
 7a6:	011c                	.2byte	0x11c
 7a8:	0600                	.2byte	0x600
 7aa:	1c0c                	.2byte	0x1c0c
 7ac:	0001                	.2byte	0x1
 7ae:	1c20                	.2byte	0x1c20
 7b0:	0001                	.2byte	0x1
 7b2:	2806                	.2byte	0x2806
 7b4:	011c                	.2byte	0x11c
 7b6:	3000                	.2byte	0x3000
 7b8:	011c                	.2byte	0x11c
 7ba:	0000                	.2byte	0x0
 7bc:	0024                	.2byte	0x24
 7be:	0000                	.2byte	0x0
 7c0:	0005                	.2byte	0x5
 7c2:	0004                	.2byte	0x4
 7c4:	0000                	.2byte	0x0
 7c6:	0000                	.2byte	0x0
 7c8:	3c06                	.2byte	0x3c06
 7ca:	011c                	.2byte	0x11c
 7cc:	3c00                	.2byte	0x3c00
 7ce:	011c                	.2byte	0x11c
 7d0:	0600                	.2byte	0x600
 7d2:	1c40                	.2byte	0x1c40
 7d4:	0001                	.2byte	0x1
 7d6:	1c44                	.2byte	0x1c44
 7d8:	0001                	.2byte	0x1
 7da:	5406                	.2byte	0x5406
 7dc:	011c                	.2byte	0x11c
 7de:	5400                	.2byte	0x5400
 7e0:	011c                	.2byte	0x11c
	...
