
./ROMnekoni.elf:     file format elf32-littleriscv
./ROMnekoni.elf
architecture: riscv:rv32, flags 0x00000112:
EXEC_P, HAS_SYMS, D_PAGED
start address 0x00000000

Program Header:
    LOAD off    0x00001000 vaddr 0x00000000 paddr 0x00000000 align 2**12
         filesz 0x00003144 memsz 0x00003154 flags rwx

Sections:
Idx Name          Size      VMA       LMA       File off  Algn
  0 .boot         00000064  00000000  00000000  00001000  2**2
                  CONTENTS, ALLOC, LOAD, READONLY, CODE
  1 .text         00001244  00000064  00000064  00001064  2**2
                  CONTENTS, ALLOC, LOAD, READONLY, CODE
  2 .rodata       00001877  000012a8  000012a8  000022a8  2**2
                  CONTENTS, ALLOC, LOAD, READONLY, DATA
  3 .srodata      00000004  00002b20  00002b20  00003b20  2**2
                  CONTENTS, ALLOC, LOAD, READONLY, DATA
  4 .init_array   00000004  00002b24  00002b24  00003b24  2**2
                  CONTENTS, ALLOC, LOAD, DATA
  5 .eh_frame     000001a4  00002b28  00002b28  00003b28  2**2
                  CONTENTS, ALLOC, LOAD, READONLY, DATA
  6 .data         0000043c  00002cd0  00002cd0  00003cd0  2**3
                  CONTENTS, ALLOC, LOAD, DATA
  7 .got          00000030  0000310c  0000310c  0000410c  2**2
                  CONTENTS, ALLOC, LOAD, DATA
  8 .got.plt      00000008  0000313c  0000313c  0000413c  2**2
                  CONTENTS, ALLOC, LOAD, DATA
  9 .sbss         0000000c  00003144  00003144  00004144  2**2
                  ALLOC
 10 .bss          00000004  00003150  00003150  00004144  2**2
                  ALLOC
 11 .comment      00000012  00000000  00000000  00004144  2**0
                  CONTENTS, READONLY
 12 .riscv.attributes 0000002a  00000000  00000000  00004156  2**0
                  CONTENTS, READONLY
SYMBOL TABLE:
00000000 l    d  .boot	00000000 .boot
00000064 l    d  .text	00000000 .text
000012a8 l    d  .rodata	00000000 .rodata
00002b20 l    d  .srodata	00000000 .srodata
00002b24 l    d  .init_array	00000000 .init_array
00002b28 l    d  .eh_frame	00000000 .eh_frame
00002cd0 l    d  .data	00000000 .data
0000310c l    d  .got	00000000 .got
0000313c l    d  .got.plt	00000000 .got.plt
00003144 l    d  .sbss	00000000 .sbss
00003150 l    d  .bss	00000000 .bss
00000000 l    d  .comment	00000000 .comment
00000000 l    d  .riscv.attributes	00000000 .riscv.attributes
00000000 l    df *ABS*	00000000 rom.cpp
0000004c l       .boot	00000000 noatexitfound
00000000 l    df *ABS*	00000000 atexit.c
00000000 l    df *ABS*	00000000 fini.c
00000000 l    df *ABS*	00000000 init.c
00000000 l    df *ABS*	00000000 memcpy.c
00000000 l    df *ABS*	00000000 __atexit.c
00000000 l    df *ABS*	00000000 uart.cpp
00000000 l    df *ABS*	00000000 gpu.cpp
00001284 l     F .text	00000024 _GLOBAL__sub_I_gpu.cpp
00000000 l    df *ABS*	00000000 impure.c
00002cd0 l     O .data	00000428 impure_data
00000000 l    df *ABS*	00000000 debugger.cpp
00000000 l    df *ABS*	00000000 sdcard.cpp
00000000 l    df *ABS*	00000000 core.cpp
00000000 l    df *ABS*	00000000 console.cpp
00000000 l    df *ABS*	00000000 
00002b1f l       .init_array	00000000 __fini_array_end
00002b1f l       .init_array	00000000 __fini_array_start
00002b28 l       .init_array	00000000 __init_array_end
00002b1f l       .init_array	00000000 __preinit_array_end
0000310c l     O .got	00000000 _GLOBAL_OFFSET_TABLE_
00002b24 l       .init_array	00000000 __init_array_start
00002b1f l       .init_array	00000000 __preinit_array_start
000004b8 g     F .text	00000074 _Z13RunBinaryBlobv
00003950 g       *ABS*	00000000 __global_pointer$
00002cd0 g       .data	00000000 _fdata
00003108 g     O .data	00000004 IO_GPUCommandFIFO
0000062c g     F .text	0000038c _Z8PrintDMAiiPKcb
00002b1f g       .rodata	00000000 _etext
00003950 g       .sbss	00000000 _gp
000030f8 g     O .data	00000004 IO_UARTRX
00000064 g       .boot	00000000 _boot
00003150 g     O .bss	00000004 font
00000170 g     F .text	00000128 memcpy
00003150 g       .bss	00000000 _bss_start
0000314c g     O .sbss	00000004 __malloc_top_pad
00003148 g     O .sbss	00000004 __malloc_max_sbrked_mem
00002b20 g     O .srodata	00000004 _global_impure_ptr
000000d4 g     F .text	0000009c __libc_init_array
00003154 g       .bss	00000000 _bss_end
00000078 g     F .text	0000005c __libc_fini_array
00000064 g       .boot	00000000 _ftext
00000000 g     F .boot	00000064 _start
00003104 g     O .data	00000004 GraphicsRAMEnd
00000374 g     F .text	0000009c __register_exitproc
00000a00 g       *ABS*	00000000 _STACK_SIZE
000005f8 g     F .text	00000034 _Z8InitFontv
00000298 g     F .text	000000dc memset
0000052c g     F .text	000000a0 main
00000410 g     F .text	000000a8 _Z14LoadBinaryBlobv
00003144 g     O .sbss	00000004 __malloc_max_total_mem
00000064 g     F .text	00000014 atexit
00003100 g     O .data	00000004 IO_UARTTX
00000db0 g     F .text	000000f8 _Z11PrintDMAHexiim
000030fc g     O .data	00000004 IO_UARTRXByteCount
00003154 g       .bss	00000000 __BSS_END__$
000005cc g     F .text	0000002c _Z8EchoUARTPKc
000009b8 g     F .text	000003f8 _Z8PrintDMAiiiPKcb
0000310c g       .data	00000000 _edata
00003158 g       .bss	00000000 _end
00000064 g     F .boot	00000000 _exit
00000ea8 g     F .text	000003dc _Z15PrintDMADecimaliiib
00003150 g       .sbss	00000000 _fbss



Disassembly of section .boot:

00000000 <_start>:
   0:	00003197          	auipc	gp,0x3
   4:	1101a183          	lw	gp,272(gp) # 3110 <_GLOBAL_OFFSET_TABLE_+0x4>
   8:	00010137          	lui	sp,0x10
   c:	ff010113          	addi	sp,sp,-16 # fff0 <__global_pointer$+0xc6a0>
  10:	00010413          	mv	s0,sp
  14:	00003517          	auipc	a0,0x3
  18:	11452503          	lw	a0,276(a0) # 3128 <_GLOBAL_OFFSET_TABLE_+0x1c>
  1c:	00003617          	auipc	a2,0x3
  20:	11c62603          	lw	a2,284(a2) # 3138 <_GLOBAL_OFFSET_TABLE_+0x2c>
  24:	40a60633          	sub	a2,a2,a0
  28:	00000593          	li	a1,0
  2c:	26c000ef          	jal	ra,298 <memset>
  30:	00003517          	auipc	a0,0x3
  34:	0fc52503          	lw	a0,252(a0) # 312c <_GLOBAL_OFFSET_TABLE_+0x20>
  38:	00050a63          	beqz	a0,4c <noatexitfound>
  3c:	00001517          	auipc	a0,0x1
  40:	00003517          	auipc	a0,0x3
  44:	0e052503          	lw	a0,224(a0) # 3120 <_GLOBAL_OFFSET_TABLE_+0x14>
  48:	01c000ef          	jal	ra,64 <_exit>

0000004c <noatexitfound>:
  4c:	088000ef          	jal	ra,d4 <__libc_init_array>
  50:	00012503          	lw	a0,0(sp)
  54:	00410593          	addi	a1,sp,4
  58:	00000613          	li	a2,0
  5c:	4d00006f          	j	52c <main>
  60:	00100073          	ebreak

Disassembly of section .text:

00000064 <atexit>:
      64:	00050593          	mv	a1,a0
      68:	00000693          	li	a3,0
      6c:	00000613          	li	a2,0
      70:	00000513          	li	a0,0
      74:	3000006f          	j	374 <__register_exitproc>

00000078 <__libc_fini_array>:
      78:	ff010113          	addi	sp,sp,-16
      7c:	00812423          	sw	s0,8(sp)
      80:	000037b7          	lui	a5,0x3
      84:	00003437          	lui	s0,0x3
      88:	b1f40413          	addi	s0,s0,-1249 # 2b1f <_etext>
      8c:	b1f78793          	addi	a5,a5,-1249 # 2b1f <_etext>
      90:	408787b3          	sub	a5,a5,s0
      94:	00912223          	sw	s1,4(sp)
      98:	00112623          	sw	ra,12(sp)
      9c:	4027d493          	srai	s1,a5,0x2
      a0:	02048063          	beqz	s1,c0 <__libc_fini_array+0x48>
      a4:	ffc78793          	addi	a5,a5,-4
      a8:	00878433          	add	s0,a5,s0
      ac:	00042783          	lw	a5,0(s0)
      b0:	fff48493          	addi	s1,s1,-1
      b4:	ffc40413          	addi	s0,s0,-4
      b8:	000780e7          	jalr	a5
      bc:	fe0498e3          	bnez	s1,ac <__libc_fini_array+0x34>
      c0:	00c12083          	lw	ra,12(sp)
      c4:	00812403          	lw	s0,8(sp)
      c8:	00412483          	lw	s1,4(sp)
      cc:	01010113          	addi	sp,sp,16
      d0:	00008067          	ret

000000d4 <__libc_init_array>:
      d4:	ff010113          	addi	sp,sp,-16
      d8:	00812423          	sw	s0,8(sp)
      dc:	01212023          	sw	s2,0(sp)
      e0:	00003437          	lui	s0,0x3
      e4:	00003937          	lui	s2,0x3
      e8:	b1f40793          	addi	a5,s0,-1249 # 2b1f <_etext>
      ec:	b1f90913          	addi	s2,s2,-1249 # 2b1f <_etext>
      f0:	40f90933          	sub	s2,s2,a5
      f4:	00112623          	sw	ra,12(sp)
      f8:	00912223          	sw	s1,4(sp)
      fc:	40295913          	srai	s2,s2,0x2
     100:	02090063          	beqz	s2,120 <__libc_init_array+0x4c>
     104:	b1f40413          	addi	s0,s0,-1249
     108:	00000493          	li	s1,0
     10c:	00042783          	lw	a5,0(s0)
     110:	00148493          	addi	s1,s1,1
     114:	00440413          	addi	s0,s0,4
     118:	000780e7          	jalr	a5
     11c:	fe9918e3          	bne	s2,s1,10c <__libc_init_array+0x38>
     120:	00003437          	lui	s0,0x3
     124:	00003937          	lui	s2,0x3
     128:	b2440793          	addi	a5,s0,-1244 # 2b24 <__init_array_start>
     12c:	b2890913          	addi	s2,s2,-1240 # 2b28 <__init_array_end>
     130:	40f90933          	sub	s2,s2,a5
     134:	40295913          	srai	s2,s2,0x2
     138:	02090063          	beqz	s2,158 <__libc_init_array+0x84>
     13c:	b2440413          	addi	s0,s0,-1244
     140:	00000493          	li	s1,0
     144:	00042783          	lw	a5,0(s0)
     148:	00148493          	addi	s1,s1,1
     14c:	00440413          	addi	s0,s0,4
     150:	000780e7          	jalr	a5
     154:	fe9918e3          	bne	s2,s1,144 <__libc_init_array+0x70>
     158:	00c12083          	lw	ra,12(sp)
     15c:	00812403          	lw	s0,8(sp)
     160:	00412483          	lw	s1,4(sp)
     164:	00012903          	lw	s2,0(sp)
     168:	01010113          	addi	sp,sp,16
     16c:	00008067          	ret

00000170 <memcpy>:
     170:	00a5c7b3          	xor	a5,a1,a0
     174:	0037f793          	andi	a5,a5,3
     178:	00c508b3          	add	a7,a0,a2
     17c:	06079663          	bnez	a5,1e8 <memcpy+0x78>
     180:	00300793          	li	a5,3
     184:	06c7f263          	bgeu	a5,a2,1e8 <memcpy+0x78>
     188:	00357793          	andi	a5,a0,3
     18c:	00050713          	mv	a4,a0
     190:	0c079a63          	bnez	a5,264 <memcpy+0xf4>
     194:	ffc8f613          	andi	a2,a7,-4
     198:	40e606b3          	sub	a3,a2,a4
     19c:	02000793          	li	a5,32
     1a0:	02000293          	li	t0,32
     1a4:	06d7c263          	blt	a5,a3,208 <memcpy+0x98>
     1a8:	00058693          	mv	a3,a1
     1ac:	00070793          	mv	a5,a4
     1b0:	02c77863          	bgeu	a4,a2,1e0 <memcpy+0x70>
     1b4:	0006a803          	lw	a6,0(a3)
     1b8:	00478793          	addi	a5,a5,4
     1bc:	00468693          	addi	a3,a3,4
     1c0:	ff07ae23          	sw	a6,-4(a5)
     1c4:	fec7e8e3          	bltu	a5,a2,1b4 <memcpy+0x44>
     1c8:	fff60793          	addi	a5,a2,-1
     1cc:	40e787b3          	sub	a5,a5,a4
     1d0:	ffc7f793          	andi	a5,a5,-4
     1d4:	00478793          	addi	a5,a5,4
     1d8:	00f70733          	add	a4,a4,a5
     1dc:	00f585b3          	add	a1,a1,a5
     1e0:	01176863          	bltu	a4,a7,1f0 <memcpy+0x80>
     1e4:	00008067          	ret
     1e8:	00050713          	mv	a4,a0
     1ec:	ff157ce3          	bgeu	a0,a7,1e4 <memcpy+0x74>
     1f0:	0005c783          	lbu	a5,0(a1)
     1f4:	00170713          	addi	a4,a4,1
     1f8:	00158593          	addi	a1,a1,1
     1fc:	fef70fa3          	sb	a5,-1(a4)
     200:	ff1768e3          	bltu	a4,a7,1f0 <memcpy+0x80>
     204:	00008067          	ret
     208:	0045a683          	lw	a3,4(a1)
     20c:	01c5a783          	lw	a5,28(a1)
     210:	0005af83          	lw	t6,0(a1)
     214:	0085af03          	lw	t5,8(a1)
     218:	00c5ae83          	lw	t4,12(a1)
     21c:	0105ae03          	lw	t3,16(a1)
     220:	0145a303          	lw	t1,20(a1)
     224:	0185a803          	lw	a6,24(a1)
     228:	00d72223          	sw	a3,4(a4)
     22c:	0205a683          	lw	a3,32(a1)
     230:	01f72023          	sw	t6,0(a4)
     234:	01e72423          	sw	t5,8(a4)
     238:	01d72623          	sw	t4,12(a4)
     23c:	01c72823          	sw	t3,16(a4)
     240:	00672a23          	sw	t1,20(a4)
     244:	01072c23          	sw	a6,24(a4)
     248:	00f72e23          	sw	a5,28(a4)
     24c:	02470713          	addi	a4,a4,36
     250:	40e607b3          	sub	a5,a2,a4
     254:	fed72e23          	sw	a3,-4(a4)
     258:	02458593          	addi	a1,a1,36
     25c:	faf2c6e3          	blt	t0,a5,208 <memcpy+0x98>
     260:	f49ff06f          	j	1a8 <memcpy+0x38>
     264:	0005c683          	lbu	a3,0(a1)
     268:	00170713          	addi	a4,a4,1
     26c:	00377793          	andi	a5,a4,3
     270:	fed70fa3          	sb	a3,-1(a4)
     274:	00158593          	addi	a1,a1,1
     278:	f0078ee3          	beqz	a5,194 <memcpy+0x24>
     27c:	0005c683          	lbu	a3,0(a1)
     280:	00170713          	addi	a4,a4,1
     284:	00377793          	andi	a5,a4,3
     288:	fed70fa3          	sb	a3,-1(a4)
     28c:	00158593          	addi	a1,a1,1
     290:	fc079ae3          	bnez	a5,264 <memcpy+0xf4>
     294:	f01ff06f          	j	194 <memcpy+0x24>

00000298 <memset>:
     298:	00f00313          	li	t1,15
     29c:	00050713          	mv	a4,a0
     2a0:	02c37e63          	bgeu	t1,a2,2dc <memset+0x44>
     2a4:	00f77793          	andi	a5,a4,15
     2a8:	0a079063          	bnez	a5,348 <memset+0xb0>
     2ac:	08059263          	bnez	a1,330 <memset+0x98>
     2b0:	ff067693          	andi	a3,a2,-16
     2b4:	00f67613          	andi	a2,a2,15
     2b8:	00e686b3          	add	a3,a3,a4
     2bc:	00b72023          	sw	a1,0(a4)
     2c0:	00b72223          	sw	a1,4(a4)
     2c4:	00b72423          	sw	a1,8(a4)
     2c8:	00b72623          	sw	a1,12(a4)
     2cc:	01070713          	addi	a4,a4,16
     2d0:	fed766e3          	bltu	a4,a3,2bc <memset+0x24>
     2d4:	00061463          	bnez	a2,2dc <memset+0x44>
     2d8:	00008067          	ret
     2dc:	40c306b3          	sub	a3,t1,a2
     2e0:	00269693          	slli	a3,a3,0x2
     2e4:	00000297          	auipc	t0,0x0
     2e8:	005686b3          	add	a3,a3,t0
     2ec:	00c68067          	jr	12(a3)
     2f0:	00b70723          	sb	a1,14(a4)
     2f4:	00b706a3          	sb	a1,13(a4)
     2f8:	00b70623          	sb	a1,12(a4)
     2fc:	00b705a3          	sb	a1,11(a4)
     300:	00b70523          	sb	a1,10(a4)
     304:	00b704a3          	sb	a1,9(a4)
     308:	00b70423          	sb	a1,8(a4)
     30c:	00b703a3          	sb	a1,7(a4)
     310:	00b70323          	sb	a1,6(a4)
     314:	00b702a3          	sb	a1,5(a4)
     318:	00b70223          	sb	a1,4(a4)
     31c:	00b701a3          	sb	a1,3(a4)
     320:	00b70123          	sb	a1,2(a4)
     324:	00b700a3          	sb	a1,1(a4)
     328:	00b70023          	sb	a1,0(a4)
     32c:	00008067          	ret
     330:	0ff5f593          	andi	a1,a1,255
     334:	00859693          	slli	a3,a1,0x8
     338:	00d5e5b3          	or	a1,a1,a3
     33c:	01059693          	slli	a3,a1,0x10
     340:	00d5e5b3          	or	a1,a1,a3
     344:	f6dff06f          	j	2b0 <memset+0x18>
     348:	00279693          	slli	a3,a5,0x2
     34c:	00000297          	auipc	t0,0x0
     350:	005686b3          	add	a3,a3,t0
     354:	00008293          	mv	t0,ra
     358:	fa0680e7          	jalr	-96(a3)
     35c:	00028093          	mv	ra,t0
     360:	ff078793          	addi	a5,a5,-16
     364:	40f70733          	sub	a4,a4,a5
     368:	00f60633          	add	a2,a2,a5
     36c:	f6c378e3          	bgeu	t1,a2,2dc <memset+0x44>
     370:	f3dff06f          	j	2ac <memset+0x14>

00000374 <__register_exitproc>:
     374:	000037b7          	lui	a5,0x3
     378:	b207a703          	lw	a4,-1248(a5) # 2b20 <_global_impure_ptr>
     37c:	14872783          	lw	a5,328(a4)
     380:	04078c63          	beqz	a5,3d8 <__register_exitproc+0x64>
     384:	0047a703          	lw	a4,4(a5)
     388:	01f00813          	li	a6,31
     38c:	06e84e63          	blt	a6,a4,408 <__register_exitproc+0x94>
     390:	00271813          	slli	a6,a4,0x2
     394:	02050663          	beqz	a0,3c0 <__register_exitproc+0x4c>
     398:	01078333          	add	t1,a5,a6
     39c:	08c32423          	sw	a2,136(t1)
     3a0:	1887a883          	lw	a7,392(a5)
     3a4:	00100613          	li	a2,1
     3a8:	00e61633          	sll	a2,a2,a4
     3ac:	00c8e8b3          	or	a7,a7,a2
     3b0:	1917a423          	sw	a7,392(a5)
     3b4:	10d32423          	sw	a3,264(t1)
     3b8:	00200693          	li	a3,2
     3bc:	02d50463          	beq	a0,a3,3e4 <__register_exitproc+0x70>
     3c0:	00170713          	addi	a4,a4,1
     3c4:	00e7a223          	sw	a4,4(a5)
     3c8:	010787b3          	add	a5,a5,a6
     3cc:	00b7a423          	sw	a1,8(a5)
     3d0:	00000513          	li	a0,0
     3d4:	00008067          	ret
     3d8:	14c70793          	addi	a5,a4,332
     3dc:	14f72423          	sw	a5,328(a4)
     3e0:	fa5ff06f          	j	384 <__register_exitproc+0x10>
     3e4:	18c7a683          	lw	a3,396(a5)
     3e8:	00170713          	addi	a4,a4,1
     3ec:	00e7a223          	sw	a4,4(a5)
     3f0:	00c6e633          	or	a2,a3,a2
     3f4:	18c7a623          	sw	a2,396(a5)
     3f8:	010787b3          	add	a5,a5,a6
     3fc:	00b7a423          	sw	a1,8(a5)
     400:	00000513          	li	a0,0
     404:	00008067          	ret
     408:	fff00513          	li	a0,-1
     40c:	00008067          	ret

00000410 <_Z14LoadBinaryBlobv>:
     410:	00003597          	auipc	a1,0x3
     414:	d245a583          	lw	a1,-732(a1) # 3134 <_GLOBAL_OFFSET_TABLE_+0x28>
     418:	00003517          	auipc	a0,0x3
     41c:	d0052503          	lw	a0,-768(a0) # 3118 <_GLOBAL_OFFSET_TABLE_+0xc>
     420:	fe010113          	addi	sp,sp,-32
     424:	0005a783          	lw	a5,0(a1)
     428:	00052803          	lw	a6,0(a0)
     42c:	01c10613          	addi	a2,sp,28
     430:	02010713          	addi	a4,sp,32
     434:	00012c23          	sw	zero,24(sp)
     438:	00012e23          	sw	zero,28(sp)
     43c:	00060693          	mv	a3,a2
     440:	00e12623          	sw	a4,12(sp)
     444:	0007a703          	lw	a4,0(a5)
     448:	fe070ee3          	beqz	a4,444 <_Z14LoadBinaryBlobv+0x34>
     44c:	00084703          	lbu	a4,0(a6)
     450:	00168693          	addi	a3,a3,1
     454:	fee68fa3          	sb	a4,-1(a3)
     458:	00c12703          	lw	a4,12(sp)
     45c:	fee694e3          	bne	a3,a4,444 <_Z14LoadBinaryBlobv+0x34>
     460:	01810693          	addi	a3,sp,24
     464:	0007a703          	lw	a4,0(a5)
     468:	fe070ee3          	beqz	a4,464 <_Z14LoadBinaryBlobv+0x54>
     46c:	00084703          	lbu	a4,0(a6)
     470:	00168693          	addi	a3,a3,1
     474:	fee68fa3          	sb	a4,-1(a3)
     478:	fec696e3          	bne	a3,a2,464 <_Z14LoadBinaryBlobv+0x54>
     47c:	01812703          	lw	a4,24(sp)
     480:	01c12683          	lw	a3,28(sp)
     484:	02070663          	beqz	a4,4b0 <_Z14LoadBinaryBlobv+0xa0>
     488:	00e68633          	add	a2,a3,a4
     48c:	0007a703          	lw	a4,0(a5)
     490:	fe070ee3          	beqz	a4,48c <_Z14LoadBinaryBlobv+0x7c>
     494:	00052783          	lw	a5,0(a0)
     498:	00168693          	addi	a3,a3,1
     49c:	0007c783          	lbu	a5,0(a5)
     4a0:	0ff7f793          	andi	a5,a5,255
     4a4:	fef68fa3          	sb	a5,-1(a3)
     4a8:	0005a783          	lw	a5,0(a1)
     4ac:	fed610e3          	bne	a2,a3,48c <_Z14LoadBinaryBlobv+0x7c>
     4b0:	02010113          	addi	sp,sp,32
     4b4:	00008067          	ret

000004b8 <_Z13RunBinaryBlobv>:
     4b8:	00003797          	auipc	a5,0x3
     4bc:	c7c7a783          	lw	a5,-900(a5) # 3134 <_GLOBAL_OFFSET_TABLE_+0x28>
     4c0:	fd010113          	addi	sp,sp,-48
     4c4:	0007a703          	lw	a4,0(a5)
     4c8:	00003797          	auipc	a5,0x3
     4cc:	c507a783          	lw	a5,-944(a5) # 3118 <_GLOBAL_OFFSET_TABLE_+0xc>
     4d0:	0007a603          	lw	a2,0(a5)
     4d4:	02010793          	addi	a5,sp,32
     4d8:	02112623          	sw	ra,44(sp)
     4dc:	00012e23          	sw	zero,28(sp)
     4e0:	01c10693          	addi	a3,sp,28
     4e4:	00f12623          	sw	a5,12(sp)
     4e8:	00072783          	lw	a5,0(a4)
     4ec:	fe078ee3          	beqz	a5,4e8 <_Z13RunBinaryBlobv+0x30>
     4f0:	00064783          	lbu	a5,0(a2)
     4f4:	00168693          	addi	a3,a3,1
     4f8:	fef68fa3          	sb	a5,-1(a3)
     4fc:	00c12783          	lw	a5,12(sp)
     500:	fed794e3          	bne	a5,a3,4e8 <_Z13RunBinaryBlobv+0x30>
     504:	00002517          	auipc	a0,0x2
     508:	5a450513          	addi	a0,a0,1444 # 2aa8 <_GLOBAL__sub_I_gpu.cpp+0x1824>
     50c:	0c0000ef          	jal	ra,5cc <_Z8EchoUARTPKc>
     510:	01c12083          	lw	ra,28(sp)
     514:	0ffff637          	lui	a2,0xffff
     518:	00060113          	mv	sp,a2
     51c:	00008067          	ret
     520:	02c12083          	lw	ra,44(sp)
     524:	03010113          	addi	sp,sp,48
     528:	00008067          	ret

0000052c <main>:
     52c:	fe010113          	addi	sp,sp,-32
     530:	00002517          	auipc	a0,0x2
     534:	58850513          	addi	a0,a0,1416 # 2ab8 <_GLOBAL__sub_I_gpu.cpp+0x1834>
     538:	00912a23          	sw	s1,20(sp)
     53c:	01212823          	sw	s2,16(sp)
     540:	01312623          	sw	s3,12(sp)
     544:	01412423          	sw	s4,8(sp)
     548:	01512223          	sw	s5,4(sp)
     54c:	00112e23          	sw	ra,28(sp)
     550:	00812c23          	sw	s0,24(sp)
     554:	00003a97          	auipc	s5,0x3
     558:	be0aaa83          	lw	s5,-1056(s5) # 3134 <_GLOBAL_OFFSET_TABLE_+0x28>
     55c:	070000ef          	jal	ra,5cc <_Z8EchoUARTPKc>
     560:	00003a17          	auipc	s4,0x3
     564:	bb8a2a03          	lw	s4,-1096(s4) # 3118 <_GLOBAL_OFFSET_TABLE_+0xc>
     568:	000aa703          	lw	a4,0(s5)
     56c:	000a2603          	lw	a2,0(s4)
     570:	00d00493          	li	s1,13
     574:	0ff00693          	li	a3,255
     578:	04200913          	li	s2,66
     57c:	05200993          	li	s3,82
     580:	00072783          	lw	a5,0(a4)
     584:	fe078ee3          	beqz	a5,580 <main+0x54>
     588:	00064403          	lbu	s0,0(a2) # ffff000 <__global_pointer$+0xfffb6b0>
     58c:	0ff47413          	andi	s0,s0,255
     590:	00940663          	beq	s0,s1,59c <main+0x70>
     594:	00040693          	mv	a3,s0
     598:	fe9ff06f          	j	580 <main+0x54>
     59c:	01268e63          	beq	a3,s2,5b8 <main+0x8c>
     5a0:	ff369ae3          	bne	a3,s3,594 <main+0x68>
     5a4:	f15ff0ef          	jal	ra,4b8 <_Z13RunBinaryBlobv>
     5a8:	000aa703          	lw	a4,0(s5)
     5ac:	000a2603          	lw	a2,0(s4)
     5b0:	00040693          	mv	a3,s0
     5b4:	fcdff06f          	j	580 <main+0x54>
     5b8:	e59ff0ef          	jal	ra,410 <_Z14LoadBinaryBlobv>
     5bc:	000aa703          	lw	a4,0(s5)
     5c0:	000a2603          	lw	a2,0(s4)
     5c4:	00040693          	mv	a3,s0
     5c8:	fb9ff06f          	j	580 <main+0x54>

000005cc <_Z8EchoUARTPKc>:
     5cc:	00054783          	lbu	a5,0(a0)
     5d0:	02078263          	beqz	a5,5f4 <_Z8EchoUARTPKc+0x28>
     5d4:	00150513          	addi	a0,a0,1
     5d8:	00003697          	auipc	a3,0x3
     5dc:	b586a683          	lw	a3,-1192(a3) # 3130 <_GLOBAL_OFFSET_TABLE_+0x24>
     5e0:	0006a703          	lw	a4,0(a3)
     5e4:	00150513          	addi	a0,a0,1
     5e8:	00f70023          	sb	a5,0(a4)
     5ec:	fff54783          	lbu	a5,-1(a0)
     5f0:	fe0798e3          	bnez	a5,5e0 <_Z8EchoUARTPKc+0x14>
     5f4:	00008067          	ret

000005f8 <_Z8InitFontv>:
     5f8:	00003797          	auipc	a5,0x3
     5fc:	b247a783          	lw	a5,-1244(a5) # 311c <_GLOBAL_OFFSET_TABLE_+0x10>
     600:	0007a503          	lw	a0,0(a5)
     604:	00002637          	lui	a2,0x2
     608:	ff010113          	addi	sp,sp,-16
     60c:	80060613          	addi	a2,a2,-2048 # 1800 <_GLOBAL__sub_I_gpu.cpp+0x57c>
     610:	00001597          	auipc	a1,0x1
     614:	c9858593          	addi	a1,a1,-872 # 12a8 <_GLOBAL__sub_I_gpu.cpp+0x24>
     618:	00112623          	sw	ra,12(sp)
     61c:	b55ff0ef          	jal	ra,170 <memcpy>
     620:	00c12083          	lw	ra,12(sp)
     624:	01010113          	addi	sp,sp,16
     628:	00008067          	ret

0000062c <_Z8PrintDMAiiPKcb>:
     62c:	00064703          	lbu	a4,0(a2)
     630:	38070263          	beqz	a4,9b4 <_Z8PrintDMAiiPKcb+0x388>
     634:	00003797          	auipc	a5,0x3
     638:	ae87a783          	lw	a5,-1304(a5) # 311c <_GLOBAL_OFFSET_TABLE_+0x10>
     63c:	ff010113          	addi	sp,sp,-16
     640:	0007a303          	lw	t1,0(a5)
     644:	00003797          	auipc	a5,0x3
     648:	ad07a783          	lw	a5,-1328(a5) # 3114 <_GLOBAL_OFFSET_TABLE_+0x8>
     64c:	00258393          	addi	t2,a1,2
     650:	00358293          	addi	t0,a1,3
     654:	00458f93          	addi	t6,a1,4
     658:	00558f13          	addi	t5,a1,5
     65c:	00658e93          	addi	t4,a1,6
     660:	00758e13          	addi	t3,a1,7
     664:	00812623          	sw	s0,12(sp)
     668:	00d03833          	snez	a6,a3
     66c:	00158413          	addi	s0,a1,1
     670:	000018b7          	lui	a7,0x1
     674:	0007a783          	lw	a5,0(a5)
     678:	00859593          	slli	a1,a1,0x8
     67c:	ac488893          	addi	a7,a7,-1340 # ac4 <_STACK_SIZE+0xc4>
     680:	01881813          	slli	a6,a6,0x18
     684:	00841413          	slli	s0,s0,0x8
     688:	00839393          	slli	t2,t2,0x8
     68c:	00829293          	slli	t0,t0,0x8
     690:	008f9f93          	slli	t6,t6,0x8
     694:	008f1f13          	slli	t5,t5,0x8
     698:	008e9e93          	slli	t4,t4,0x8
     69c:	008e1e13          	slli	t3,t3,0x8
     6a0:	01186833          	or	a6,a6,a7
     6a4:	00912423          	sw	s1,8(sp)
     6a8:	01212223          	sw	s2,4(sp)
     6ac:	01312023          	sw	s3,0(sp)
     6b0:	00160893          	addi	a7,a2,1
     6b4:	00b50533          	add	a0,a0,a1
     6b8:	40b40433          	sub	s0,s0,a1
     6bc:	40b383b3          	sub	t2,t2,a1
     6c0:	40b282b3          	sub	t0,t0,a1
     6c4:	40bf8fb3          	sub	t6,t6,a1
     6c8:	40bf0f33          	sub	t5,t5,a1
     6cc:	40be8eb3          	sub	t4,t4,a1
     6d0:	40be0e33          	sub	t3,t3,a1
     6d4:	fe070713          	addi	a4,a4,-32
     6d8:	00068463          	beqz	a3,6e0 <_Z8PrintDMAiiPKcb+0xb4>
     6dc:	2a070863          	beqz	a4,98c <_Z8PrintDMAiiPKcb+0x360>
     6e0:	2a074663          	bltz	a4,98c <_Z8PrintDMAiiPKcb+0x360>
     6e4:	40575493          	srai	s1,a4,0x5
     6e8:	01f77713          	andi	a4,a4,31
     6ec:	00371613          	slli	a2,a4,0x3
     6f0:	00b49593          	slli	a1,s1,0xb
     6f4:	00c585b3          	add	a1,a1,a2
     6f8:	00b305b3          	add	a1,t1,a1
     6fc:	00349713          	slli	a4,s1,0x3
     700:	00a59993          	slli	s3,a1,0xa
     704:	0165d493          	srli	s1,a1,0x16
     708:	40255913          	srai	s2,a0,0x2
     70c:	2019e993          	ori	s3,s3,513
     710:	00170593          	addi	a1,a4,1
     714:	00a49493          	slli	s1,s1,0xa
     718:	0137a023          	sw	s3,0(a5)
     71c:	2414e493          	ori	s1,s1,577
     720:	00a91993          	slli	s3,s2,0xa
     724:	00859593          	slli	a1,a1,0x8
     728:	01695913          	srli	s2,s2,0x16
     72c:	0097a023          	sw	s1,0(a5)
     730:	00c585b3          	add	a1,a1,a2
     734:	2819e493          	ori	s1,s3,641
     738:	00a91913          	slli	s2,s2,0xa
     73c:	0097a023          	sw	s1,0(a5)
     740:	00b305b3          	add	a1,t1,a1
     744:	2d196913          	ori	s2,s2,721
     748:	0127a023          	sw	s2,0(a5)
     74c:	00a59993          	slli	s3,a1,0xa
     750:	0165d493          	srli	s1,a1,0x16
     754:	00a40933          	add	s2,s0,a0
     758:	0107a023          	sw	a6,0(a5)
     75c:	40295913          	srai	s2,s2,0x2
     760:	2019e993          	ori	s3,s3,513
     764:	00270593          	addi	a1,a4,2
     768:	00a49493          	slli	s1,s1,0xa
     76c:	0137a023          	sw	s3,0(a5)
     770:	2414e493          	ori	s1,s1,577
     774:	00a91993          	slli	s3,s2,0xa
     778:	00859593          	slli	a1,a1,0x8
     77c:	01695913          	srli	s2,s2,0x16
     780:	0097a023          	sw	s1,0(a5)
     784:	00c585b3          	add	a1,a1,a2
     788:	2819e493          	ori	s1,s3,641
     78c:	00a91913          	slli	s2,s2,0xa
     790:	0097a023          	sw	s1,0(a5)
     794:	00b305b3          	add	a1,t1,a1
     798:	2d196913          	ori	s2,s2,721
     79c:	0127a023          	sw	s2,0(a5)
     7a0:	00a59993          	slli	s3,a1,0xa
     7a4:	0165d493          	srli	s1,a1,0x16
     7a8:	00a38933          	add	s2,t2,a0
     7ac:	0107a023          	sw	a6,0(a5)
     7b0:	40295913          	srai	s2,s2,0x2
     7b4:	2019e993          	ori	s3,s3,513
     7b8:	00370593          	addi	a1,a4,3
     7bc:	00a49493          	slli	s1,s1,0xa
     7c0:	0137a023          	sw	s3,0(a5)
     7c4:	2414e493          	ori	s1,s1,577
     7c8:	00a91993          	slli	s3,s2,0xa
     7cc:	00859593          	slli	a1,a1,0x8
     7d0:	01695913          	srli	s2,s2,0x16
     7d4:	0097a023          	sw	s1,0(a5)
     7d8:	00c585b3          	add	a1,a1,a2
     7dc:	2819e493          	ori	s1,s3,641
     7e0:	00a91913          	slli	s2,s2,0xa
     7e4:	0097a023          	sw	s1,0(a5)
     7e8:	00b305b3          	add	a1,t1,a1
     7ec:	2d196913          	ori	s2,s2,721
     7f0:	0127a023          	sw	s2,0(a5)
     7f4:	00a59993          	slli	s3,a1,0xa
     7f8:	0165d493          	srli	s1,a1,0x16
     7fc:	00a28933          	add	s2,t0,a0
     800:	0107a023          	sw	a6,0(a5)
     804:	40295913          	srai	s2,s2,0x2
     808:	2019e993          	ori	s3,s3,513
     80c:	00470593          	addi	a1,a4,4
     810:	00a49493          	slli	s1,s1,0xa
     814:	0137a023          	sw	s3,0(a5)
     818:	2414e493          	ori	s1,s1,577
     81c:	00a91993          	slli	s3,s2,0xa
     820:	00859593          	slli	a1,a1,0x8
     824:	01695913          	srli	s2,s2,0x16
     828:	0097a023          	sw	s1,0(a5)
     82c:	00c585b3          	add	a1,a1,a2
     830:	2819e493          	ori	s1,s3,641
     834:	00a91913          	slli	s2,s2,0xa
     838:	0097a023          	sw	s1,0(a5)
     83c:	00b305b3          	add	a1,t1,a1
     840:	2d196913          	ori	s2,s2,721
     844:	0127a023          	sw	s2,0(a5)
     848:	00a59993          	slli	s3,a1,0xa
     84c:	0165d493          	srli	s1,a1,0x16
     850:	00af8933          	add	s2,t6,a0
     854:	0107a023          	sw	a6,0(a5)
     858:	40295913          	srai	s2,s2,0x2
     85c:	2019e993          	ori	s3,s3,513
     860:	00570593          	addi	a1,a4,5
     864:	00a49493          	slli	s1,s1,0xa
     868:	0137a023          	sw	s3,0(a5)
     86c:	2414e493          	ori	s1,s1,577
     870:	00a91993          	slli	s3,s2,0xa
     874:	00859593          	slli	a1,a1,0x8
     878:	01695913          	srli	s2,s2,0x16
     87c:	0097a023          	sw	s1,0(a5)
     880:	00c585b3          	add	a1,a1,a2
     884:	2819e493          	ori	s1,s3,641
     888:	00a91913          	slli	s2,s2,0xa
     88c:	0097a023          	sw	s1,0(a5)
     890:	00b305b3          	add	a1,t1,a1
     894:	2d196913          	ori	s2,s2,721
     898:	0127a023          	sw	s2,0(a5)
     89c:	00a59993          	slli	s3,a1,0xa
     8a0:	0165d493          	srli	s1,a1,0x16
     8a4:	00af0933          	add	s2,t5,a0
     8a8:	0107a023          	sw	a6,0(a5)
     8ac:	40295913          	srai	s2,s2,0x2
     8b0:	2019e993          	ori	s3,s3,513
     8b4:	00670593          	addi	a1,a4,6
     8b8:	00a49493          	slli	s1,s1,0xa
     8bc:	0137a023          	sw	s3,0(a5)
     8c0:	2414e493          	ori	s1,s1,577
     8c4:	00a91993          	slli	s3,s2,0xa
     8c8:	00859593          	slli	a1,a1,0x8
     8cc:	01695913          	srli	s2,s2,0x16
     8d0:	0097a023          	sw	s1,0(a5)
     8d4:	00c585b3          	add	a1,a1,a2
     8d8:	2819e493          	ori	s1,s3,641
     8dc:	00a91913          	slli	s2,s2,0xa
     8e0:	0097a023          	sw	s1,0(a5)
     8e4:	00b305b3          	add	a1,t1,a1
     8e8:	2d196913          	ori	s2,s2,721
     8ec:	00ae84b3          	add	s1,t4,a0
     8f0:	0127a023          	sw	s2,0(a5)
     8f4:	4024d493          	srai	s1,s1,0x2
     8f8:	00a59993          	slli	s3,a1,0xa
     8fc:	00770713          	addi	a4,a4,7
     900:	0165d593          	srli	a1,a1,0x16
     904:	0107a023          	sw	a6,0(a5)
     908:	0164d913          	srli	s2,s1,0x16
     90c:	2019e993          	ori	s3,s3,513
     910:	00a59593          	slli	a1,a1,0xa
     914:	00871713          	slli	a4,a4,0x8
     918:	0137a023          	sw	s3,0(a5)
     91c:	2415e593          	ori	a1,a1,577
     920:	00c70733          	add	a4,a4,a2
     924:	00a49493          	slli	s1,s1,0xa
     928:	00a91913          	slli	s2,s2,0xa
     92c:	00e30733          	add	a4,t1,a4
     930:	00b7a023          	sw	a1,0(a5)
     934:	2d196613          	ori	a2,s2,721
     938:	2814e493          	ori	s1,s1,641
     93c:	0097a023          	sw	s1,0(a5)
     940:	00a71593          	slli	a1,a4,0xa
     944:	00c7a023          	sw	a2,0(a5)
     948:	01675713          	srli	a4,a4,0x16
     94c:	00ae0633          	add	a2,t3,a0
     950:	0107a023          	sw	a6,0(a5)
     954:	40265613          	srai	a2,a2,0x2
     958:	2015e593          	ori	a1,a1,513
     95c:	00a71713          	slli	a4,a4,0xa
     960:	00b7a023          	sw	a1,0(a5)
     964:	24176713          	ori	a4,a4,577
     968:	00a61593          	slli	a1,a2,0xa
     96c:	01665613          	srli	a2,a2,0x16
     970:	00e7a023          	sw	a4,0(a5)
     974:	00a61613          	slli	a2,a2,0xa
     978:	2815e713          	ori	a4,a1,641
     97c:	00e7a023          	sw	a4,0(a5)
     980:	2d166613          	ori	a2,a2,721
     984:	00c7a023          	sw	a2,0(a5)
     988:	0107a023          	sw	a6,0(a5)
     98c:	0008c703          	lbu	a4,0(a7)
     990:	00850513          	addi	a0,a0,8
     994:	00188893          	addi	a7,a7,1
     998:	d2071ee3          	bnez	a4,6d4 <_Z8PrintDMAiiPKcb+0xa8>
     99c:	00c12403          	lw	s0,12(sp)
     9a0:	00812483          	lw	s1,8(sp)
     9a4:	00412903          	lw	s2,4(sp)
     9a8:	00012983          	lw	s3,0(sp)
     9ac:	01010113          	addi	sp,sp,16
     9b0:	00008067          	ret
     9b4:	00008067          	ret

000009b8 <_Z8PrintDMAiiiPKcb>:
     9b8:	3ec05a63          	blez	a2,dac <_STACK_SIZE+0x3ac>
     9bc:	fd010113          	addi	sp,sp,-48
     9c0:	00258393          	addi	t2,a1,2
     9c4:	00358293          	addi	t0,a1,3
     9c8:	00458f93          	addi	t6,a1,4
     9cc:	00558f13          	addi	t5,a1,5
     9d0:	00658e93          	addi	t4,a1,6
     9d4:	00068313          	mv	t1,a3
     9d8:	00002797          	auipc	a5,0x2
     9dc:	7447a783          	lw	a5,1860(a5) # 311c <_GLOBAL_OFFSET_TABLE_+0x10>
     9e0:	02812623          	sw	s0,44(sp)
     9e4:	03212223          	sw	s2,36(sp)
     9e8:	00158413          	addi	s0,a1,1
     9ec:	00758913          	addi	s2,a1,7
     9f0:	00e03833          	snez	a6,a4
     9f4:	000016b7          	lui	a3,0x1
     9f8:	00859e13          	slli	t3,a1,0x8
     9fc:	0007a883          	lw	a7,0(a5)
     a00:	01881813          	slli	a6,a6,0x18
     a04:	00841413          	slli	s0,s0,0x8
     a08:	00839393          	slli	t2,t2,0x8
     a0c:	00829293          	slli	t0,t0,0x8
     a10:	008f9f93          	slli	t6,t6,0x8
     a14:	008f1f13          	slli	t5,t5,0x8
     a18:	008e9e93          	slli	t4,t4,0x8
     a1c:	00891913          	slli	s2,s2,0x8
     a20:	00002797          	auipc	a5,0x2
     a24:	6f47a783          	lw	a5,1780(a5) # 3114 <_GLOBAL_OFFSET_TABLE_+0x8>
     a28:	ac468693          	addi	a3,a3,-1340 # ac4 <_STACK_SIZE+0xc4>
     a2c:	01c505b3          	add	a1,a0,t3
     a30:	02912423          	sw	s1,40(sp)
     a34:	41c40433          	sub	s0,s0,t3
     a38:	41c383b3          	sub	t2,t2,t3
     a3c:	41c282b3          	sub	t0,t0,t3
     a40:	41cf8fb3          	sub	t6,t6,t3
     a44:	41cf0f33          	sub	t5,t5,t3
     a48:	41ce8eb3          	sub	t4,t4,t3
     a4c:	0007a783          	lw	a5,0(a5)
     a50:	03312023          	sw	s3,32(sp)
     a54:	01412e23          	sw	s4,28(sp)
     a58:	01512c23          	sw	s5,24(sp)
     a5c:	01612a23          	sw	s6,20(sp)
     a60:	01712823          	sw	s7,16(sp)
     a64:	01812623          	sw	s8,12(sp)
     a68:	01912423          	sw	s9,8(sp)
     a6c:	00d86833          	or	a6,a6,a3
     a70:	00c30533          	add	a0,t1,a2
     a74:	07f00493          	li	s1,127
     a78:	41c90e33          	sub	t3,s2,t3
     a7c:	0100006f          	j	a8c <_STACK_SIZE+0x8c>
     a80:	00130313          	addi	t1,t1,1
     a84:	00858593          	addi	a1,a1,8
     a88:	2ca30863          	beq	t1,a0,d58 <_STACK_SIZE+0x358>
     a8c:	00034683          	lbu	a3,0(t1)
     a90:	2c068463          	beqz	a3,d58 <_STACK_SIZE+0x358>
     a94:	fe068693          	addi	a3,a3,-32
     a98:	00070463          	beqz	a4,aa0 <_STACK_SIZE+0xa0>
     a9c:	fe0682e3          	beqz	a3,a80 <_STACK_SIZE+0x80>
     aa0:	2ed4e463          	bltu	s1,a3,d88 <_STACK_SIZE+0x388>
     aa4:	4056d613          	srai	a2,a3,0x5
     aa8:	00361c13          	slli	s8,a2,0x3
     aac:	01f6f693          	andi	a3,a3,31
     ab0:	00369693          	slli	a3,a3,0x3
     ab4:	001c0b93          	addi	s7,s8,1
     ab8:	002c0b13          	addi	s6,s8,2
     abc:	003c0a93          	addi	s5,s8,3
     ac0:	004c0a13          	addi	s4,s8,4
     ac4:	005c0993          	addi	s3,s8,5
     ac8:	006c0913          	addi	s2,s8,6
     acc:	00b61613          	slli	a2,a2,0xb
     ad0:	007c0c13          	addi	s8,s8,7
     ad4:	00d60633          	add	a2,a2,a3
     ad8:	008b9b93          	slli	s7,s7,0x8
     adc:	008b1b13          	slli	s6,s6,0x8
     ae0:	008a9a93          	slli	s5,s5,0x8
     ae4:	008a1a13          	slli	s4,s4,0x8
     ae8:	00899993          	slli	s3,s3,0x8
     aec:	00891913          	slli	s2,s2,0x8
     af0:	008c1c13          	slli	s8,s8,0x8
     af4:	00db8bb3          	add	s7,s7,a3
     af8:	00db0b33          	add	s6,s6,a3
     afc:	00da8ab3          	add	s5,s5,a3
     b00:	00da0a33          	add	s4,s4,a3
     b04:	00d989b3          	add	s3,s3,a3
     b08:	00d90933          	add	s2,s2,a3
     b0c:	00c88633          	add	a2,a7,a2
     b10:	00dc06b3          	add	a3,s8,a3
     b14:	00a61c93          	slli	s9,a2,0xa
     b18:	01665c13          	srli	s8,a2,0x16
     b1c:	201cec93          	ori	s9,s9,513
     b20:	4025d613          	srai	a2,a1,0x2
     b24:	00ac1c13          	slli	s8,s8,0xa
     b28:	0197a023          	sw	s9,0(a5)
     b2c:	241c6c13          	ori	s8,s8,577
     b30:	00a61c93          	slli	s9,a2,0xa
     b34:	01665613          	srli	a2,a2,0x16
     b38:	0187a023          	sw	s8,0(a5)
     b3c:	00a61613          	slli	a2,a2,0xa
     b40:	281cec13          	ori	s8,s9,641
     b44:	0187a023          	sw	s8,0(a5)
     b48:	01788bb3          	add	s7,a7,s7
     b4c:	2d166613          	ori	a2,a2,721
     b50:	00c7a023          	sw	a2,0(a5)
     b54:	00ab9c13          	slli	s8,s7,0xa
     b58:	00b40633          	add	a2,s0,a1
     b5c:	016bdb93          	srli	s7,s7,0x16
     b60:	0107a023          	sw	a6,0(a5)
     b64:	40265613          	srai	a2,a2,0x2
     b68:	201c6c13          	ori	s8,s8,513
     b6c:	00ab9b93          	slli	s7,s7,0xa
     b70:	0187a023          	sw	s8,0(a5)
     b74:	241beb93          	ori	s7,s7,577
     b78:	00a61c13          	slli	s8,a2,0xa
     b7c:	01665613          	srli	a2,a2,0x16
     b80:	0177a023          	sw	s7,0(a5)
     b84:	00a61613          	slli	a2,a2,0xa
     b88:	281c6b93          	ori	s7,s8,641
     b8c:	0177a023          	sw	s7,0(a5)
     b90:	01688b33          	add	s6,a7,s6
     b94:	2d166613          	ori	a2,a2,721
     b98:	00c7a023          	sw	a2,0(a5)
     b9c:	00ab1b93          	slli	s7,s6,0xa
     ba0:	00b38633          	add	a2,t2,a1
     ba4:	016b5b13          	srli	s6,s6,0x16
     ba8:	0107a023          	sw	a6,0(a5)
     bac:	40265613          	srai	a2,a2,0x2
     bb0:	201beb93          	ori	s7,s7,513
     bb4:	00ab1b13          	slli	s6,s6,0xa
     bb8:	0177a023          	sw	s7,0(a5)
     bbc:	241b6b13          	ori	s6,s6,577
     bc0:	00a61b93          	slli	s7,a2,0xa
     bc4:	01665613          	srli	a2,a2,0x16
     bc8:	0167a023          	sw	s6,0(a5)
     bcc:	00a61613          	slli	a2,a2,0xa
     bd0:	281beb13          	ori	s6,s7,641
     bd4:	0167a023          	sw	s6,0(a5)
     bd8:	01588ab3          	add	s5,a7,s5
     bdc:	2d166613          	ori	a2,a2,721
     be0:	00c7a023          	sw	a2,0(a5)
     be4:	00aa9b13          	slli	s6,s5,0xa
     be8:	00b28633          	add	a2,t0,a1
     bec:	016ada93          	srli	s5,s5,0x16
     bf0:	0107a023          	sw	a6,0(a5)
     bf4:	40265613          	srai	a2,a2,0x2
     bf8:	201b6b13          	ori	s6,s6,513
     bfc:	00aa9a93          	slli	s5,s5,0xa
     c00:	0167a023          	sw	s6,0(a5)
     c04:	241aea93          	ori	s5,s5,577
     c08:	00a61b13          	slli	s6,a2,0xa
     c0c:	01665613          	srli	a2,a2,0x16
     c10:	0157a023          	sw	s5,0(a5)
     c14:	00a61613          	slli	a2,a2,0xa
     c18:	281b6a93          	ori	s5,s6,641
     c1c:	0157a023          	sw	s5,0(a5)
     c20:	01488a33          	add	s4,a7,s4
     c24:	2d166613          	ori	a2,a2,721
     c28:	00c7a023          	sw	a2,0(a5)
     c2c:	00aa1a93          	slli	s5,s4,0xa
     c30:	00bf8633          	add	a2,t6,a1
     c34:	016a5a13          	srli	s4,s4,0x16
     c38:	0107a023          	sw	a6,0(a5)
     c3c:	40265613          	srai	a2,a2,0x2
     c40:	201aea93          	ori	s5,s5,513
     c44:	00aa1a13          	slli	s4,s4,0xa
     c48:	0157a023          	sw	s5,0(a5)
     c4c:	241a6a13          	ori	s4,s4,577
     c50:	00a61a93          	slli	s5,a2,0xa
     c54:	01665613          	srli	a2,a2,0x16
     c58:	0147a023          	sw	s4,0(a5)
     c5c:	00a61613          	slli	a2,a2,0xa
     c60:	281aea13          	ori	s4,s5,641
     c64:	0147a023          	sw	s4,0(a5)
     c68:	013889b3          	add	s3,a7,s3
     c6c:	2d166613          	ori	a2,a2,721
     c70:	00c7a023          	sw	a2,0(a5)
     c74:	00a99a13          	slli	s4,s3,0xa
     c78:	00bf0633          	add	a2,t5,a1
     c7c:	0169d993          	srli	s3,s3,0x16
     c80:	0107a023          	sw	a6,0(a5)
     c84:	40265613          	srai	a2,a2,0x2
     c88:	201a6a13          	ori	s4,s4,513
     c8c:	00a99993          	slli	s3,s3,0xa
     c90:	0147a023          	sw	s4,0(a5)
     c94:	2419e993          	ori	s3,s3,577
     c98:	00a61a13          	slli	s4,a2,0xa
     c9c:	01665613          	srli	a2,a2,0x16
     ca0:	0137a023          	sw	s3,0(a5)
     ca4:	00a61613          	slli	a2,a2,0xa
     ca8:	281a6993          	ori	s3,s4,641
     cac:	0137a023          	sw	s3,0(a5)
     cb0:	01288933          	add	s2,a7,s2
     cb4:	00be89b3          	add	s3,t4,a1
     cb8:	2d166613          	ori	a2,a2,721
     cbc:	00c7a023          	sw	a2,0(a5)
     cc0:	00a91a13          	slli	s4,s2,0xa
     cc4:	4029d613          	srai	a2,s3,0x2
     cc8:	01695913          	srli	s2,s2,0x16
     ccc:	0107a023          	sw	a6,0(a5)
     cd0:	01665993          	srli	s3,a2,0x16
     cd4:	201a6a13          	ori	s4,s4,513
     cd8:	00a91913          	slli	s2,s2,0xa
     cdc:	0147a023          	sw	s4,0(a5)
     ce0:	24196913          	ori	s2,s2,577
     ce4:	00a99993          	slli	s3,s3,0xa
     ce8:	00a61613          	slli	a2,a2,0xa
     cec:	00d886b3          	add	a3,a7,a3
     cf0:	0127a023          	sw	s2,0(a5)
     cf4:	28166613          	ori	a2,a2,641
     cf8:	2d19e913          	ori	s2,s3,721
     cfc:	00c7a023          	sw	a2,0(a5)
     d00:	00a69993          	slli	s3,a3,0xa
     d04:	0127a023          	sw	s2,0(a5)
     d08:	00be0633          	add	a2,t3,a1
     d0c:	0166d693          	srli	a3,a3,0x16
     d10:	0107a023          	sw	a6,0(a5)
     d14:	40265613          	srai	a2,a2,0x2
     d18:	2019e913          	ori	s2,s3,513
     d1c:	00a69693          	slli	a3,a3,0xa
     d20:	0127a023          	sw	s2,0(a5)
     d24:	2416e693          	ori	a3,a3,577
     d28:	00a61913          	slli	s2,a2,0xa
     d2c:	01665613          	srli	a2,a2,0x16
     d30:	00d7a023          	sw	a3,0(a5)
     d34:	00a61613          	slli	a2,a2,0xa
     d38:	28196693          	ori	a3,s2,641
     d3c:	00d7a023          	sw	a3,0(a5)
     d40:	2d166613          	ori	a2,a2,721
     d44:	00c7a023          	sw	a2,0(a5)
     d48:	0107a023          	sw	a6,0(a5)
     d4c:	00130313          	addi	t1,t1,1
     d50:	00858593          	addi	a1,a1,8
     d54:	d2a31ce3          	bne	t1,a0,a8c <_STACK_SIZE+0x8c>
     d58:	02c12403          	lw	s0,44(sp)
     d5c:	02812483          	lw	s1,40(sp)
     d60:	02412903          	lw	s2,36(sp)
     d64:	02012983          	lw	s3,32(sp)
     d68:	01c12a03          	lw	s4,28(sp)
     d6c:	01812a83          	lw	s5,24(sp)
     d70:	01412b03          	lw	s6,20(sp)
     d74:	01012b83          	lw	s7,16(sp)
     d78:	00c12c03          	lw	s8,12(sp)
     d7c:	00812c83          	lw	s9,8(sp)
     d80:	03010113          	addi	sp,sp,48
     d84:	00008067          	ret
     d88:	00088613          	mv	a2,a7
     d8c:	70000693          	li	a3,1792
     d90:	60000913          	li	s2,1536
     d94:	50000993          	li	s3,1280
     d98:	40000a13          	li	s4,1024
     d9c:	30000a93          	li	s5,768
     da0:	20000b13          	li	s6,512
     da4:	10000b93          	li	s7,256
     da8:	d6dff06f          	j	b14 <_STACK_SIZE+0x114>
     dac:	00008067          	ret

00000db0 <_Z11PrintDMAHexiim>:
     db0:	00002e17          	auipc	t3,0x2
     db4:	d3ce0e13          	addi	t3,t3,-708 # 2aec <_GLOBAL__sub_I_gpu.cpp+0x1868>
     db8:	00ce2f03          	lw	t5,12(t3)
     dbc:	008e2f83          	lw	t6,8(t3)
     dc0:	000e2383          	lw	t2,0(t3)
     dc4:	004e2283          	lw	t0,4(t3)
     dc8:	fd010113          	addi	sp,sp,-48
     dcc:	01865313          	srli	t1,a2,0x18
     dd0:	01465893          	srli	a7,a2,0x14
     dd4:	01065813          	srli	a6,a2,0x10
     dd8:	00c65693          	srli	a3,a2,0xc
     ddc:	00865713          	srli	a4,a2,0x8
     de0:	00465793          	srli	a5,a2,0x4
     de4:	01e12c23          	sw	t5,24(sp)
     de8:	01c65e93          	srli	t4,a2,0x1c
     dec:	02010f13          	addi	t5,sp,32
     df0:	00f37313          	andi	t1,t1,15
     df4:	00f8f893          	andi	a7,a7,15
     df8:	00f87813          	andi	a6,a6,15
     dfc:	00f6f693          	andi	a3,a3,15
     e00:	00f77713          	andi	a4,a4,15
     e04:	00f7f793          	andi	a5,a5,15
     e08:	00f67613          	andi	a2,a2,15
     e0c:	02112623          	sw	ra,44(sp)
     e10:	01f12a23          	sw	t6,20(sp)
     e14:	00712623          	sw	t2,12(sp)
     e18:	00512823          	sw	t0,16(sp)
     e1c:	006f0333          	add	t1,t5,t1
     e20:	011f08b3          	add	a7,t5,a7
     e24:	010f0833          	add	a6,t5,a6
     e28:	00df06b3          	add	a3,t5,a3
     e2c:	00ef0733          	add	a4,t5,a4
     e30:	00ff07b3          	add	a5,t5,a5
     e34:	00cf0633          	add	a2,t5,a2
     e38:	01df0eb3          	add	t4,t5,t4
     e3c:	010e4f83          	lbu	t6,16(t3)
     e40:	fececf03          	lbu	t5,-20(t4)
     e44:	fec8ce03          	lbu	t3,-20(a7)
     e48:	fec34e83          	lbu	t4,-20(t1)
     e4c:	fec6c883          	lbu	a7,-20(a3)
     e50:	fec84303          	lbu	t1,-20(a6)
     e54:	fec74803          	lbu	a6,-20(a4)
     e58:	fec7c703          	lbu	a4,-20(a5)
     e5c:	fec64783          	lbu	a5,-20(a2)
     e60:	02e00693          	li	a3,46
     e64:	00d11423          	sh	a3,8(sp)
     e68:	00010613          	mv	a2,sp
     e6c:	00100693          	li	a3,1
     e70:	01f10e23          	sb	t6,28(sp)
     e74:	01e10023          	sb	t5,0(sp)
     e78:	01d100a3          	sb	t4,1(sp)
     e7c:	01c10123          	sb	t3,2(sp)
     e80:	006101a3          	sb	t1,3(sp)
     e84:	01110223          	sb	a7,4(sp)
     e88:	010102a3          	sb	a6,5(sp)
     e8c:	00e10323          	sb	a4,6(sp)
     e90:	00f103a3          	sb	a5,7(sp)
     e94:	00010423          	sb	zero,8(sp)
     e98:	f94ff0ef          	jal	ra,62c <_Z8PrintDMAiiPKcb>
     e9c:	02c12083          	lw	ra,44(sp)
     ea0:	03010113          	addi	sp,sp,48
     ea4:	00008067          	ret

00000ea8 <_Z15PrintDMADecimaliiib>:
     ea8:	00002797          	auipc	a5,0x2
     eac:	c5878793          	addi	a5,a5,-936 # 2b00 <_GLOBAL__sub_I_gpu.cpp+0x187c>
     eb0:	00002717          	auipc	a4,0x2
     eb4:	c6470713          	addi	a4,a4,-924 # 2b14 <_GLOBAL__sub_I_gpu.cpp+0x1890>
     eb8:	0047a883          	lw	a7,4(a5)
     ebc:	00072f83          	lw	t6,0(a4)
     ec0:	00472f03          	lw	t5,4(a4)
     ec4:	00875e83          	lhu	t4,8(a4)
     ec8:	00a74e03          	lbu	t3,10(a4)
     ecc:	0007a303          	lw	t1,0(a5)
     ed0:	0087a803          	lw	a6,8(a5)
     ed4:	00c7a703          	lw	a4,12(a5)
     ed8:	0107a783          	lw	a5,16(a5)
     edc:	fd010113          	addi	sp,sp,-48
     ee0:	01112823          	sw	a7,16(sp)
     ee4:	00f12e23          	sw	a5,28(sp)
     ee8:	02112623          	sw	ra,44(sp)
     eec:	02812423          	sw	s0,40(sp)
     ef0:	01f12023          	sw	t6,0(sp)
     ef4:	01e12223          	sw	t5,4(sp)
     ef8:	01d11423          	sh	t4,8(sp)
     efc:	01c10523          	sb	t3,10(sp)
     f00:	00612623          	sw	t1,12(sp)
     f04:	01012a23          	sw	a6,20(sp)
     f08:	00e12c23          	sw	a4,24(sp)
     f0c:	02d00893          	li	a7,45
     f10:	00100793          	li	a5,1
     f14:	00064663          	bltz	a2,f20 <_Z15PrintDMADecimaliiib+0x78>
     f18:	02000893          	li	a7,32
     f1c:	00000793          	li	a5,0
     f20:	3b9ad737          	lui	a4,0x3b9ad
     f24:	a0070813          	addi	a6,a4,-1536 # 3b9aca00 <__global_pointer$+0x3b9a90b0>
     f28:	03064833          	div	a6,a2,a6
     f2c:	9ff70713          	addi	a4,a4,-1537
     f30:	01110623          	sb	a7,12(sp)
     f34:	773598b7          	lui	a7,0x77359
     f38:	00e60733          	add	a4,a2,a4
     f3c:	3fe88893          	addi	a7,a7,1022 # 773593fe <__global_pointer$+0x77355aae>
     f40:	41f85313          	srai	t1,a6,0x1f
     f44:	01034833          	xor	a6,t1,a6
     f48:	40680833          	sub	a6,a6,t1
     f4c:	14e8e663          	bltu	a7,a4,1098 <_Z15PrintDMADecimaliiib+0x1f0>
     f50:	05f5e737          	lui	a4,0x5f5e
     f54:	10070713          	addi	a4,a4,256 # 5f5e100 <__global_pointer$+0x5f5a7b0>
     f58:	02e64733          	div	a4,a2,a4
     f5c:	00a00893          	li	a7,10
     f60:	41f75313          	srai	t1,a4,0x1f
     f64:	00e34833          	xor	a6,t1,a4
     f68:	40680833          	sub	a6,a6,t1
     f6c:	03186833          	rem	a6,a6,a7
     f70:	16081263          	bnez	a6,10d4 <_Z15PrintDMADecimaliiib+0x22c>
     f74:	00989737          	lui	a4,0x989
     f78:	68070713          	addi	a4,a4,1664 # 989680 <__global_pointer$+0x985d30>
     f7c:	02e64733          	div	a4,a2,a4
     f80:	41f75313          	srai	t1,a4,0x1f
     f84:	00e34833          	xor	a6,t1,a4
     f88:	40680833          	sub	a6,a6,t1
     f8c:	03186833          	rem	a6,a6,a7
     f90:	18081063          	bnez	a6,1110 <_Z15PrintDMADecimaliiib+0x268>
     f94:	000f4737          	lui	a4,0xf4
     f98:	24070713          	addi	a4,a4,576 # f4240 <__global_pointer$+0xf08f0>
     f9c:	02e64733          	div	a4,a2,a4
     fa0:	41f75313          	srai	t1,a4,0x1f
     fa4:	00e34833          	xor	a6,t1,a4
     fa8:	40680833          	sub	a6,a6,t1
     fac:	03186833          	rem	a6,a6,a7
     fb0:	18081e63          	bnez	a6,114c <_Z15PrintDMADecimaliiib+0x2a4>
     fb4:	00018737          	lui	a4,0x18
     fb8:	6a070713          	addi	a4,a4,1696 # 186a0 <__global_pointer$+0x14d50>
     fbc:	02e64733          	div	a4,a2,a4
     fc0:	41f75313          	srai	t1,a4,0x1f
     fc4:	00e34833          	xor	a6,t1,a4
     fc8:	40680833          	sub	a6,a6,t1
     fcc:	03186833          	rem	a6,a6,a7
     fd0:	1a081c63          	bnez	a6,1188 <_Z15PrintDMADecimaliiib+0x2e0>
     fd4:	00002737          	lui	a4,0x2
     fd8:	71070713          	addi	a4,a4,1808 # 2710 <_GLOBAL__sub_I_gpu.cpp+0x148c>
     fdc:	02e64733          	div	a4,a2,a4
     fe0:	41f75813          	srai	a6,a4,0x1f
     fe4:	00e84733          	xor	a4,a6,a4
     fe8:	41070733          	sub	a4,a4,a6
     fec:	03176733          	rem	a4,a4,a7
     ff0:	1c071a63          	bnez	a4,11c4 <_Z15PrintDMADecimaliiib+0x31c>
     ff4:	3e800713          	li	a4,1000
     ff8:	02e64733          	div	a4,a2,a4
     ffc:	41f75313          	srai	t1,a4,0x1f
    1000:	00e34833          	xor	a6,t1,a4
    1004:	40680833          	sub	a6,a6,t1
    1008:	03186833          	rem	a6,a6,a7
    100c:	1e081863          	bnez	a6,11fc <_Z15PrintDMADecimaliiib+0x354>
    1010:	06400713          	li	a4,100
    1014:	02e64733          	div	a4,a2,a4
    1018:	41f75813          	srai	a6,a4,0x1f
    101c:	00e84733          	xor	a4,a6,a4
    1020:	41070733          	sub	a4,a4,a6
    1024:	03176733          	rem	a4,a4,a7
    1028:	20071663          	bnez	a4,1234 <_Z15PrintDMADecimaliiib+0x38c>
    102c:	03164733          	div	a4,a2,a7
    1030:	41f75813          	srai	a6,a4,0x1f
    1034:	00e84733          	xor	a4,a6,a4
    1038:	41070733          	sub	a4,a4,a6
    103c:	031768b3          	rem	a7,a4,a7
    1040:	22089463          	bnez	a7,1268 <_Z15PrintDMADecimaliiib+0x3c0>
    1044:	41f65813          	srai	a6,a2,0x1f
    1048:	00c84733          	xor	a4,a6,a2
    104c:	41070733          	sub	a4,a4,a6
    1050:	00a00613          	li	a2,10
    1054:	02c76733          	rem	a4,a4,a2
    1058:	02010893          	addi	a7,sp,32
    105c:	02010613          	addi	a2,sp,32
    1060:	00178413          	addi	s0,a5,1
    1064:	00f607b3          	add	a5,a2,a5
    1068:	00860833          	add	a6,a2,s0
    106c:	00c10613          	addi	a2,sp,12
    1070:	00e88733          	add	a4,a7,a4
    1074:	fe074703          	lbu	a4,-32(a4)
    1078:	fee78623          	sb	a4,-20(a5)
    107c:	fe080623          	sb	zero,-20(a6)
    1080:	dacff0ef          	jal	ra,62c <_Z8PrintDMAiiPKcb>
    1084:	02c12083          	lw	ra,44(sp)
    1088:	00040513          	mv	a0,s0
    108c:	02812403          	lw	s0,40(sp)
    1090:	03010113          	addi	sp,sp,48
    1094:	00008067          	ret
    1098:	05f5e737          	lui	a4,0x5f5e
    109c:	10070713          	addi	a4,a4,256 # 5f5e100 <__global_pointer$+0x5f5a7b0>
    10a0:	02e64733          	div	a4,a2,a4
    10a4:	02010893          	addi	a7,sp,32
    10a8:	01088833          	add	a6,a7,a6
    10ac:	fe084883          	lbu	a7,-32(a6)
    10b0:	02010813          	addi	a6,sp,32
    10b4:	00f80833          	add	a6,a6,a5
    10b8:	ff180623          	sb	a7,-20(a6)
    10bc:	00178793          	addi	a5,a5,1
    10c0:	41f75893          	srai	a7,a4,0x1f
    10c4:	00e8c833          	xor	a6,a7,a4
    10c8:	41180833          	sub	a6,a6,a7
    10cc:	00a00713          	li	a4,10
    10d0:	02e86833          	rem	a6,a6,a4
    10d4:	00989737          	lui	a4,0x989
    10d8:	68070713          	addi	a4,a4,1664 # 989680 <__global_pointer$+0x985d30>
    10dc:	02010893          	addi	a7,sp,32
    10e0:	01088833          	add	a6,a7,a6
    10e4:	fe084883          	lbu	a7,-32(a6)
    10e8:	02010813          	addi	a6,sp,32
    10ec:	00f80833          	add	a6,a6,a5
    10f0:	ff180623          	sb	a7,-20(a6)
    10f4:	00178793          	addi	a5,a5,1
    10f8:	02e64733          	div	a4,a2,a4
    10fc:	41f75893          	srai	a7,a4,0x1f
    1100:	00e8c833          	xor	a6,a7,a4
    1104:	41180833          	sub	a6,a6,a7
    1108:	00a00713          	li	a4,10
    110c:	02e86833          	rem	a6,a6,a4
    1110:	000f4737          	lui	a4,0xf4
    1114:	24070713          	addi	a4,a4,576 # f4240 <__global_pointer$+0xf08f0>
    1118:	02010893          	addi	a7,sp,32
    111c:	01088833          	add	a6,a7,a6
    1120:	fe084883          	lbu	a7,-32(a6)
    1124:	02010813          	addi	a6,sp,32
    1128:	00f80833          	add	a6,a6,a5
    112c:	ff180623          	sb	a7,-20(a6)
    1130:	00178793          	addi	a5,a5,1
    1134:	02e64733          	div	a4,a2,a4
    1138:	41f75893          	srai	a7,a4,0x1f
    113c:	00e8c833          	xor	a6,a7,a4
    1140:	41180833          	sub	a6,a6,a7
    1144:	00a00713          	li	a4,10
    1148:	02e86833          	rem	a6,a6,a4
    114c:	00018737          	lui	a4,0x18
    1150:	6a070713          	addi	a4,a4,1696 # 186a0 <__global_pointer$+0x14d50>
    1154:	02010893          	addi	a7,sp,32
    1158:	01088833          	add	a6,a7,a6
    115c:	fe084883          	lbu	a7,-32(a6)
    1160:	02010813          	addi	a6,sp,32
    1164:	00f80833          	add	a6,a6,a5
    1168:	ff180623          	sb	a7,-20(a6)
    116c:	00178793          	addi	a5,a5,1
    1170:	02e64733          	div	a4,a2,a4
    1174:	41f75893          	srai	a7,a4,0x1f
    1178:	00e8c833          	xor	a6,a7,a4
    117c:	41180833          	sub	a6,a6,a7
    1180:	00a00713          	li	a4,10
    1184:	02e86833          	rem	a6,a6,a4
    1188:	00002737          	lui	a4,0x2
    118c:	71070713          	addi	a4,a4,1808 # 2710 <_GLOBAL__sub_I_gpu.cpp+0x148c>
    1190:	02010893          	addi	a7,sp,32
    1194:	01088833          	add	a6,a7,a6
    1198:	fe084883          	lbu	a7,-32(a6)
    119c:	02010813          	addi	a6,sp,32
    11a0:	00f80833          	add	a6,a6,a5
    11a4:	ff180623          	sb	a7,-20(a6)
    11a8:	00178793          	addi	a5,a5,1
    11ac:	02e64733          	div	a4,a2,a4
    11b0:	41f75813          	srai	a6,a4,0x1f
    11b4:	00e84733          	xor	a4,a6,a4
    11b8:	41070733          	sub	a4,a4,a6
    11bc:	00a00813          	li	a6,10
    11c0:	03076733          	rem	a4,a4,a6
    11c4:	3e800813          	li	a6,1000
    11c8:	02010893          	addi	a7,sp,32
    11cc:	00e88733          	add	a4,a7,a4
    11d0:	fe074883          	lbu	a7,-32(a4)
    11d4:	02010713          	addi	a4,sp,32
    11d8:	00f70733          	add	a4,a4,a5
    11dc:	ff170623          	sb	a7,-20(a4)
    11e0:	00178793          	addi	a5,a5,1
    11e4:	03064833          	div	a6,a2,a6
    11e8:	41f85713          	srai	a4,a6,0x1f
    11ec:	01074833          	xor	a6,a4,a6
    11f0:	40e80833          	sub	a6,a6,a4
    11f4:	00a00713          	li	a4,10
    11f8:	02e86833          	rem	a6,a6,a4
    11fc:	06400713          	li	a4,100
    1200:	02010893          	addi	a7,sp,32
    1204:	01088833          	add	a6,a7,a6
    1208:	fe084883          	lbu	a7,-32(a6)
    120c:	02010813          	addi	a6,sp,32
    1210:	00f80833          	add	a6,a6,a5
    1214:	ff180623          	sb	a7,-20(a6)
    1218:	00178793          	addi	a5,a5,1
    121c:	02e64733          	div	a4,a2,a4
    1220:	41f75813          	srai	a6,a4,0x1f
    1224:	00e84733          	xor	a4,a6,a4
    1228:	41070733          	sub	a4,a4,a6
    122c:	00a00813          	li	a6,10
    1230:	03076733          	rem	a4,a4,a6
    1234:	00a00313          	li	t1,10
    1238:	02010893          	addi	a7,sp,32
    123c:	00e88733          	add	a4,a7,a4
    1240:	fe074883          	lbu	a7,-32(a4)
    1244:	02010713          	addi	a4,sp,32
    1248:	00f70733          	add	a4,a4,a5
    124c:	ff170623          	sb	a7,-20(a4)
    1250:	00178793          	addi	a5,a5,1
    1254:	02664833          	div	a6,a2,t1
    1258:	41f85713          	srai	a4,a6,0x1f
    125c:	010748b3          	xor	a7,a4,a6
    1260:	40e888b3          	sub	a7,a7,a4
    1264:	0268e8b3          	rem	a7,a7,t1
    1268:	02010713          	addi	a4,sp,32
    126c:	011708b3          	add	a7,a4,a7
    1270:	fe08c803          	lbu	a6,-32(a7)
    1274:	00f70733          	add	a4,a4,a5
    1278:	00178793          	addi	a5,a5,1
    127c:	ff070623          	sb	a6,-20(a4)
    1280:	dc5ff06f          	j	1044 <_Z15PrintDMADecimaliiib+0x19c>

00001284 <_GLOBAL__sub_I_gpu.cpp>:
    1284:	00002797          	auipc	a5,0x2
    1288:	ea07a783          	lw	a5,-352(a5) # 3124 <_GLOBAL_OFFSET_TABLE_+0x18>
    128c:	0007a783          	lw	a5,0(a5)
    1290:	ffffa737          	lui	a4,0xffffa
    1294:	00e787b3          	add	a5,a5,a4
    1298:	00002717          	auipc	a4,0x2
    129c:	e8472703          	lw	a4,-380(a4) # 311c <_GLOBAL_OFFSET_TABLE_+0x10>
    12a0:	00f72023          	sw	a5,0(a4)
    12a4:	00008067          	ret

Disassembly of section .rodata:

000012a8 <_etext-0x1877>:
	...
    12b0:	0000                	unimp
    12b2:	00ff                	0xff
    12b4:	0000                	unimp
    12b6:	0000                	unimp
    12b8:	ff00                	fsw	fs0,56(a4)
    12ba:	ff00                	fsw	fs0,56(a4)
    12bc:	0000                	unimp
    12be:	0000                	unimp
    12c0:	0000                	unimp
    12c2:	00ff                	0xff
    12c4:	00ff                	0xff
    12c6:	0000                	unimp
    12c8:	ff00                	fsw	fs0,56(a4)
    12ca:	ffff                	0xffff
    12cc:	0000                	unimp
    12ce:	0000                	unimp
    12d0:	ff00                	fsw	fs0,56(a4)
    12d2:	ffff                	0xffff
    12d4:	00ff                	0xff
    12d6:	0000                	unimp
    12d8:	0000                	unimp
    12da:	00ff                	0xff
    12dc:	0000                	unimp
    12de:	0000                	unimp
    12e0:	0000                	unimp
    12e2:	00ff                	0xff
    12e4:	0000                	unimp
    12e6:	0000                	unimp
    12e8:	0000                	unimp
    12ea:	ff00                	fsw	fs0,56(a4)
    12ec:	0000                	unimp
    12ee:	0000                	unimp
    12f0:	ff00                	fsw	fs0,56(a4)
	...
    12fa:	00ff                	0xff
	...
    1324:	00ff                	0xff
    1326:	0000                	unimp
    1328:	ff00                	fsw	fs0,56(a4)
    132a:	ffff                	0xffff
    132c:	0000                	unimp
    132e:	0000                	unimp
    1330:	0000                	unimp
    1332:	00ff                	0xff
    1334:	0000                	unimp
    1336:	0000                	unimp
    1338:	ff00                	fsw	fs0,56(a4)
    133a:	ffff                	0xffff
    133c:	0000                	unimp
    133e:	0000                	unimp
    1340:	ffff                	0xffff
    1342:	ffff                	0xffff
    1344:	00ff                	0xff
    1346:	0000                	unimp
    1348:	0000                	unimp
    134a:	ff00                	fsw	fs0,56(a4)
    134c:	0000                	unimp
    134e:	0000                	unimp
    1350:	ffff                	0xffff
    1352:	ffff                	0xffff
    1354:	00ff                	0xff
    1356:	0000                	unimp
    1358:	0000                	unimp
    135a:	ffff                	0xffff
    135c:	0000                	unimp
    135e:	0000                	unimp
    1360:	ffff                	0xffff
    1362:	ffff                	0xffff
    1364:	00ff                	0xff
    1366:	0000                	unimp
    1368:	ff00                	fsw	fs0,56(a4)
    136a:	ffff                	0xffff
    136c:	0000                	unimp
    136e:	0000                	unimp
    1370:	ff00                	fsw	fs0,56(a4)
    1372:	ffff                	0xffff
	...
    13a0:	0000                	unimp
    13a2:	ffff                	0xffff
	...
    13b0:	0000                	unimp
    13b2:	00ff                	0xff
    13b4:	0000                	unimp
    13b6:	0000                	unimp
    13b8:	ff00                	fsw	fs0,56(a4)
    13ba:	ff00                	fsw	fs0,56(a4)
    13bc:	0000                	unimp
    13be:	0000                	unimp
    13c0:	ffff                	0xffff
    13c2:	ffff                	0xffff
    13c4:	00ff                	0xff
    13c6:	0000                	unimp
    13c8:	00ff                	0xff
    13ca:	00ff                	0xff
    13cc:	00ff                	0xff
    13ce:	0000                	unimp
    13d0:	00ff                	0xff
    13d2:	00ff                	0xff
    13d4:	00ff                	0xff
    13d6:	0000                	unimp
    13d8:	ff00                	fsw	fs0,56(a4)
    13da:	ff00                	fsw	fs0,56(a4)
    13dc:	0000                	unimp
    13de:	0000                	unimp
    13e0:	0000                	unimp
    13e2:	00ff                	0xff
    13e4:	0000                	unimp
    13e6:	0000                	unimp
    13e8:	0000                	unimp
    13ea:	00ff                	0xff
    13ec:	0000                	unimp
    13ee:	0000                	unimp
    13f0:	0000                	unimp
    13f2:	00ff                	0xff
    13f4:	0000                	unimp
    13f6:	0000                	unimp
    13f8:	00ff                	0xff
    13fa:	00ff                	0xff
    13fc:	00ff                	0xff
    13fe:	0000                	unimp
    1400:	0000                	unimp
    1402:	00ff                	0xff
	...
    1424:	00ff                	0xff
    1426:	0000                	unimp
    1428:	00ff                	0xff
    142a:	0000                	unimp
    142c:	00ff                	0xff
    142e:	0000                	unimp
    1430:	ff00                	fsw	fs0,56(a4)
    1432:	00ff                	0xff
    1434:	0000                	unimp
    1436:	0000                	unimp
    1438:	00ff                	0xff
    143a:	0000                	unimp
    143c:	00ff                	0xff
    143e:	0000                	unimp
    1440:	0000                	unimp
    1442:	ff00                	fsw	fs0,56(a4)
    1444:	0000                	unimp
    1446:	0000                	unimp
    1448:	0000                	unimp
    144a:	ffff                	0xffff
    144c:	0000                	unimp
    144e:	0000                	unimp
    1450:	00ff                	0xff
    1452:	0000                	unimp
    1454:	0000                	unimp
    1456:	0000                	unimp
    1458:	ff00                	fsw	fs0,56(a4)
	...
    1462:	0000                	unimp
    1464:	00ff                	0xff
    1466:	0000                	unimp
    1468:	00ff                	0xff
    146a:	0000                	unimp
    146c:	00ff                	0xff
    146e:	0000                	unimp
    1470:	00ff                	0xff
    1472:	0000                	unimp
    1474:	00ff                	0xff
	...
    148a:	ff00                	fsw	fs0,56(a4)
	...
    1498:	ff00                	fsw	fs0,56(a4)
    149a:	0000                	unimp
    149c:	0000                	unimp
    149e:	0000                	unimp
    14a0:	ff00                	fsw	fs0,56(a4)
    14a2:	0000                	unimp
    14a4:	00ff                	0xff
	...
    14b2:	00ff                	0xff
	...
    14c0:	ff00                	fsw	fs0,56(a4)
    14c2:	ff00                	fsw	fs0,56(a4)
    14c4:	0000                	unimp
    14c6:	0000                	unimp
    14c8:	00ff                	0xff
    14ca:	00ff                	0xff
    14cc:	0000                	unimp
    14ce:	0000                	unimp
    14d0:	00ff                	0xff
    14d2:	ffff                	0xffff
    14d4:	0000                	unimp
    14d6:	0000                	unimp
    14d8:	0000                	unimp
    14da:	00ff                	0xff
	...
    14e8:	ff00                	fsw	fs0,56(a4)
	...
    14f2:	ff00                	fsw	fs0,56(a4)
    14f4:	0000                	unimp
    14f6:	0000                	unimp
    14f8:	ff00                	fsw	fs0,56(a4)
    14fa:	ffff                	0xffff
    14fc:	0000                	unimp
    14fe:	0000                	unimp
    1500:	0000                	unimp
    1502:	00ff                	0xff
	...
    1520:	0000                	unimp
    1522:	ff00                	fsw	fs0,56(a4)
    1524:	0000                	unimp
    1526:	0000                	unimp
    1528:	00ff                	0xff
    152a:	ff00                	fsw	fs0,56(a4)
    152c:	00ff                	0xff
    152e:	0000                	unimp
    1530:	0000                	unimp
    1532:	00ff                	0xff
	...
    153c:	00ff                	0xff
    153e:	0000                	unimp
    1540:	0000                	unimp
    1542:	00ff                	0xff
    1544:	0000                	unimp
    1546:	0000                	unimp
    1548:	ff00                	fsw	fs0,56(a4)
    154a:	ff00                	fsw	fs0,56(a4)
    154c:	0000                	unimp
    154e:	0000                	unimp
    1550:	ffff                	0xffff
    1552:	ffff                	0xffff
    1554:	0000                	unimp
    1556:	0000                	unimp
    1558:	00ff                	0xff
	...
    1562:	ff00                	fsw	fs0,56(a4)
    1564:	0000                	unimp
    1566:	0000                	unimp
    1568:	00ff                	0xff
    156a:	0000                	unimp
    156c:	00ff                	0xff
    156e:	0000                	unimp
    1570:	00ff                	0xff
    1572:	0000                	unimp
    1574:	00ff                	0xff
    1576:	0000                	unimp
    1578:	0000                	unimp
    157a:	00ff                	0xff
    157c:	0000                	unimp
    157e:	0000                	unimp
    1580:	0000                	unimp
    1582:	00ff                	0xff
    1584:	0000                	unimp
    1586:	0000                	unimp
    1588:	0000                	unimp
    158a:	00ff                	0xff
    158c:	0000                	unimp
    158e:	0000                	unimp
    1590:	ffff                	0xffff
    1592:	ffff                	0xffff
    1594:	00ff                	0xff
    1596:	0000                	unimp
    1598:	0000                	unimp
    159a:	00ff                	0xff
	...
    15a4:	00ff                	0xff
	...
    15b2:	00ff                	0xff
	...
    15c0:	ffff                	0xffff
    15c2:	ffff                	0xffff
    15c4:	00ff                	0xff
    15c6:	0000                	unimp
    15c8:	ff00                	fsw	fs0,56(a4)
    15ca:	ffff                	0xffff
    15cc:	0000                	unimp
    15ce:	0000                	unimp
    15d0:	ff00                	fsw	fs0,56(a4)
    15d2:	ffff                	0xffff
    15d4:	00ff                	0xff
    15d6:	0000                	unimp
    15d8:	ff00                	fsw	fs0,56(a4)
    15da:	ff00                	fsw	fs0,56(a4)
    15dc:	ff00                	fsw	fs0,56(a4)
	...
    15e6:	0000                	unimp
    15e8:	ff00                	fsw	fs0,56(a4)
	...
    15f2:	ff00                	fsw	fs0,56(a4)
    15f4:	0000                	unimp
    15f6:	0000                	unimp
    15f8:	ff00                	fsw	fs0,56(a4)
    15fa:	ff00                	fsw	fs0,56(a4)
    15fc:	0000                	unimp
    15fe:	0000                	unimp
    1600:	ffff                	0xffff
    1602:	ffff                	0xffff
    1604:	00ff                	0xff
	...
    160e:	0000                	unimp
    1610:	ff00                	fsw	fs0,56(a4)
    1612:	ffff                	0xffff
    1614:	00ff                	0xff
	...
    1622:	ff00                	fsw	fs0,56(a4)
    1624:	0000                	unimp
    1626:	0000                	unimp
    1628:	00ff                	0xff
    162a:	00ff                	0xff
    162c:	00ff                	0xff
    162e:	0000                	unimp
    1630:	0000                	unimp
    1632:	00ff                	0xff
    1634:	0000                	unimp
    1636:	0000                	unimp
    1638:	0000                	unimp
    163a:	ff00                	fsw	fs0,56(a4)
    163c:	0000                	unimp
    163e:	0000                	unimp
    1640:	ff00                	fsw	fs0,56(a4)
    1642:	ffff                	0xffff
    1644:	0000                	unimp
    1646:	0000                	unimp
    1648:	00ff                	0xff
    164a:	ff00                	fsw	fs0,56(a4)
	...
    1654:	00ff                	0xff
    1656:	0000                	unimp
    1658:	ffff                	0xffff
    165a:	ffff                	0xffff
    165c:	0000                	unimp
    165e:	0000                	unimp
    1660:	0000                	unimp
    1662:	ff00                	fsw	fs0,56(a4)
    1664:	0000                	unimp
    1666:	0000                	unimp
    1668:	ff00                	fsw	fs0,56(a4)
    166a:	ffff                	0xffff
    166c:	0000                	unimp
    166e:	0000                	unimp
    1670:	ff00                	fsw	fs0,56(a4)
    1672:	ffff                	0xffff
    1674:	00ff                	0xff
	...
    1686:	0000                	unimp
    1688:	ff00                	fsw	fs0,56(a4)
	...
    169a:	ff00                	fsw	fs0,56(a4)
    169c:	0000                	unimp
    169e:	0000                	unimp
    16a0:	0000                	unimp
    16a2:	ff00                	fsw	fs0,56(a4)
	...
    16b0:	0000                	unimp
    16b2:	00ff                	0xff
	...
    16c0:	00ff                	0xff
    16c2:	00ff                	0xff
    16c4:	0000                	unimp
    16c6:	0000                	unimp
    16c8:	0000                	unimp
    16ca:	00ff                	0xff
    16cc:	00ff                	0xff
    16ce:	0000                	unimp
    16d0:	0000                	unimp
    16d2:	ffff                	0xffff
    16d4:	ff00                	fsw	fs0,56(a4)
    16d6:	0000                	unimp
    16d8:	00ff                	0xff
    16da:	0000                	unimp
    16dc:	00ff                	0xff
	...
    16e6:	0000                	unimp
    16e8:	ff00                	fsw	fs0,56(a4)
	...
    16f2:	ff00                	fsw	fs0,56(a4)
    16f4:	0000                	unimp
    16f6:	0000                	unimp
    16f8:	00ff                	0xff
    16fa:	0000                	unimp
    16fc:	00ff                	0xff
    16fe:	0000                	unimp
    1700:	0000                	unimp
    1702:	00ff                	0xff
	...
    1720:	0000                	unimp
    1722:	00ff                	0xff
    1724:	0000                	unimp
    1726:	0000                	unimp
    1728:	ffff                	0xffff
    172a:	0000                	unimp
    172c:	00ff                	0xff
    172e:	0000                	unimp
    1730:	0000                	unimp
    1732:	00ff                	0xff
    1734:	0000                	unimp
    1736:	0000                	unimp
    1738:	0000                	unimp
    173a:	00ff                	0xff
	...
    1744:	00ff                	0xff
    1746:	0000                	unimp
    1748:	ffff                	0xffff
    174a:	ffff                	0xffff
    174c:	00ff                	0xff
    174e:	0000                	unimp
    1750:	0000                	unimp
    1752:	0000                	unimp
    1754:	00ff                	0xff
    1756:	0000                	unimp
    1758:	00ff                	0xff
    175a:	0000                	unimp
    175c:	00ff                	0xff
    175e:	0000                	unimp
    1760:	0000                	unimp
    1762:	00ff                	0xff
    1764:	0000                	unimp
    1766:	0000                	unimp
    1768:	00ff                	0xff
    176a:	0000                	unimp
    176c:	00ff                	0xff
    176e:	0000                	unimp
    1770:	0000                	unimp
    1772:	0000                	unimp
    1774:	00ff                	0xff
	...
    178a:	00ff                	0xff
    178c:	0000                	unimp
    178e:	0000                	unimp
    1790:	ffff                	0xffff
    1792:	ffff                	0xffff
    1794:	00ff                	0xff
    1796:	0000                	unimp
    1798:	0000                	unimp
    179a:	00ff                	0xff
    179c:	0000                	unimp
    179e:	0000                	unimp
    17a0:	0000                	unimp
    17a2:	00ff                	0xff
	...
    17c8:	00ff                	0xff
    17ca:	00ff                	0xff
    17cc:	00ff                	0xff
    17ce:	0000                	unimp
    17d0:	ff00                	fsw	fs0,56(a4)
    17d2:	ff00                	fsw	fs0,56(a4)
    17d4:	ff00                	fsw	fs0,56(a4)
    17d6:	0000                	unimp
    17d8:	00ff                	0xff
    17da:	0000                	unimp
    17dc:	00ff                	0xff
	...
    17e6:	0000                	unimp
    17e8:	ff00                	fsw	fs0,56(a4)
	...
    17f2:	ff00                	fsw	fs0,56(a4)
	...
    1800:	0000                	unimp
    1802:	00ff                	0xff
    1804:	0000                	unimp
    1806:	0000                	unimp
    1808:	0000                	unimp
    180a:	00ff                	0xff
	...
    1820:	0000                	unimp
    1822:	00ff                	0xff
    1824:	0000                	unimp
    1826:	0000                	unimp
    1828:	00ff                	0xff
    182a:	0000                	unimp
    182c:	00ff                	0xff
    182e:	0000                	unimp
    1830:	0000                	unimp
    1832:	00ff                	0xff
    1834:	0000                	unimp
    1836:	0000                	unimp
    1838:	ff00                	fsw	fs0,56(a4)
    183a:	0000                	unimp
    183c:	0000                	unimp
    183e:	0000                	unimp
    1840:	00ff                	0xff
    1842:	0000                	unimp
    1844:	00ff                	0xff
    1846:	0000                	unimp
    1848:	0000                	unimp
    184a:	ff00                	fsw	fs0,56(a4)
    184c:	0000                	unimp
    184e:	0000                	unimp
    1850:	00ff                	0xff
    1852:	0000                	unimp
    1854:	00ff                	0xff
    1856:	0000                	unimp
    1858:	00ff                	0xff
    185a:	0000                	unimp
    185c:	00ff                	0xff
    185e:	0000                	unimp
    1860:	0000                	unimp
    1862:	00ff                	0xff
    1864:	0000                	unimp
    1866:	0000                	unimp
    1868:	00ff                	0xff
    186a:	0000                	unimp
    186c:	00ff                	0xff
    186e:	0000                	unimp
    1870:	0000                	unimp
    1872:	ff00                	fsw	fs0,56(a4)
	...
    1880:	0000                	unimp
    1882:	00ff                	0xff
    1884:	0000                	unimp
    1886:	0000                	unimp
    1888:	0000                	unimp
    188a:	ff00                	fsw	fs0,56(a4)
	...
    1898:	ff00                	fsw	fs0,56(a4)
	...
    18b2:	00ff                	0xff
	...
    18c8:	ff00                	fsw	fs0,56(a4)
    18ca:	ffff                	0xffff
    18cc:	0000                	unimp
    18ce:	0000                	unimp
    18d0:	ff00                	fsw	fs0,56(a4)
    18d2:	0000                	unimp
    18d4:	00ff                	0xff
    18d6:	0000                	unimp
    18d8:	ff00                	fsw	fs0,56(a4)
    18da:	ffff                	0xffff
    18dc:	ff00                	fsw	fs0,56(a4)
	...
    18ea:	00ff                	0xff
    18ec:	0000                	unimp
    18ee:	0000                	unimp
    18f0:	0000                	unimp
    18f2:	00ff                	0xff
	...
    1908:	0000                	unimp
    190a:	00ff                	0xff
	...
    1918:	0000                	unimp
    191a:	00ff                	0xff
    191c:	0000                	unimp
    191e:	0000                	unimp
    1920:	ff00                	fsw	fs0,56(a4)
    1922:	0000                	unimp
    1924:	0000                	unimp
    1926:	0000                	unimp
    1928:	ff00                	fsw	fs0,56(a4)
    192a:	ffff                	0xffff
    192c:	0000                	unimp
    192e:	0000                	unimp
    1930:	0000                	unimp
    1932:	00ff                	0xff
    1934:	0000                	unimp
    1936:	0000                	unimp
    1938:	ffff                	0xffff
    193a:	ffff                	0xffff
    193c:	00ff                	0xff
    193e:	0000                	unimp
    1940:	ff00                	fsw	fs0,56(a4)
    1942:	ffff                	0xffff
    1944:	0000                	unimp
    1946:	0000                	unimp
    1948:	0000                	unimp
    194a:	ff00                	fsw	fs0,56(a4)
    194c:	0000                	unimp
    194e:	0000                	unimp
    1950:	ff00                	fsw	fs0,56(a4)
    1952:	ffff                	0xffff
    1954:	0000                	unimp
    1956:	0000                	unimp
    1958:	ff00                	fsw	fs0,56(a4)
    195a:	ffff                	0xffff
    195c:	0000                	unimp
    195e:	0000                	unimp
    1960:	0000                	unimp
    1962:	00ff                	0xff
    1964:	0000                	unimp
    1966:	0000                	unimp
    1968:	ff00                	fsw	fs0,56(a4)
    196a:	ffff                	0xffff
    196c:	0000                	unimp
    196e:	0000                	unimp
    1970:	ff00                	fsw	fs0,56(a4)
    1972:	00ff                	0xff
    1974:	0000                	unimp
    1976:	0000                	unimp
    1978:	0000                	unimp
    197a:	00ff                	0xff
    197c:	0000                	unimp
    197e:	0000                	unimp
    1980:	0000                	unimp
    1982:	00ff                	0xff
	...
    19a0:	0000                	unimp
    19a2:	00ff                	0xff
	...
    19c8:	0000                	unimp
    19ca:	00ff                	0xff
	...
    19e8:	0000                	unimp
    19ea:	ff00                	fsw	fs0,56(a4)
    19ec:	0000                	unimp
    19ee:	0000                	unimp
    19f0:	ff00                	fsw	fs0,56(a4)
	...
    1a06:	0000                	unimp
    1a08:	ff00                	fsw	fs0,56(a4)
	...
    1a1e:	0000                	unimp
    1a20:	ff00                	fsw	fs0,56(a4)
	...
    1a7e:	0000                	unimp
    1a80:	ff00                	fsw	fs0,56(a4)
	...
    1aaa:	ffff                	0xffff
    1aac:	0000                	unimp
    1aae:	0000                	unimp
    1ab0:	0000                	unimp
    1ab2:	00ff                	0xff
    1ab4:	0000                	unimp
    1ab6:	0000                	unimp
    1ab8:	ffff                	0xffff
    1aba:	ffff                	0xffff
    1abc:	0000                	unimp
    1abe:	0000                	unimp
    1ac0:	ff00                	fsw	fs0,56(a4)
    1ac2:	ffff                	0xffff
    1ac4:	0000                	unimp
    1ac6:	0000                	unimp
    1ac8:	ffff                	0xffff
    1aca:	00ff                	0xff
    1acc:	0000                	unimp
    1ace:	0000                	unimp
    1ad0:	ff00                	fsw	fs0,56(a4)
    1ad2:	ffff                	0xffff
    1ad4:	00ff                	0xff
    1ad6:	0000                	unimp
    1ad8:	ff00                	fsw	fs0,56(a4)
    1ada:	ffff                	0xffff
    1adc:	00ff                	0xff
    1ade:	0000                	unimp
    1ae0:	ff00                	fsw	fs0,56(a4)
    1ae2:	ffff                	0xffff
    1ae4:	0000                	unimp
    1ae6:	0000                	unimp
    1ae8:	00ff                	0xff
    1aea:	0000                	unimp
    1aec:	00ff                	0xff
    1aee:	0000                	unimp
    1af0:	0000                	unimp
    1af2:	00ff                	0xff
	...
    1afc:	00ff                	0xff
    1afe:	0000                	unimp
    1b00:	00ff                	0xff
    1b02:	0000                	unimp
    1b04:	00ff                	0xff
    1b06:	0000                	unimp
    1b08:	ff00                	fsw	fs0,56(a4)
    1b0a:	0000                	unimp
    1b0c:	0000                	unimp
    1b0e:	0000                	unimp
    1b10:	00ff                	0xff
    1b12:	0000                	unimp
    1b14:	00ff                	0xff
    1b16:	0000                	unimp
    1b18:	ffff                	0xffff
    1b1a:	0000                	unimp
    1b1c:	00ff                	0xff
    1b1e:	0000                	unimp
    1b20:	ff00                	fsw	fs0,56(a4)
    1b22:	ffff                	0xffff
    1b24:	0000                	unimp
    1b26:	0000                	unimp
    1b28:	ffff                	0xffff
    1b2a:	ffff                	0xffff
    1b2c:	0000                	unimp
    1b2e:	0000                	unimp
    1b30:	ff00                	fsw	fs0,56(a4)
    1b32:	ffff                	0xffff
    1b34:	0000                	unimp
    1b36:	0000                	unimp
    1b38:	ffff                	0xffff
    1b3a:	ffff                	0xffff
    1b3c:	0000                	unimp
    1b3e:	0000                	unimp
    1b40:	ff00                	fsw	fs0,56(a4)
    1b42:	ffff                	0xffff
    1b44:	0000                	unimp
    1b46:	0000                	unimp
    1b48:	ffff                	0xffff
    1b4a:	ffff                	0xffff
    1b4c:	00ff                	0xff
    1b4e:	0000                	unimp
    1b50:	00ff                	0xff
    1b52:	0000                	unimp
    1b54:	00ff                	0xff
    1b56:	0000                	unimp
    1b58:	00ff                	0xff
    1b5a:	0000                	unimp
    1b5c:	00ff                	0xff
    1b5e:	0000                	unimp
    1b60:	00ff                	0xff
    1b62:	0000                	unimp
    1b64:	00ff                	0xff
    1b66:	0000                	unimp
    1b68:	00ff                	0xff
    1b6a:	0000                	unimp
    1b6c:	00ff                	0xff
    1b6e:	0000                	unimp
    1b70:	00ff                	0xff
    1b72:	0000                	unimp
    1b74:	00ff                	0xff
    1b76:	0000                	unimp
    1b78:	ff00                	fsw	fs0,56(a4)
    1b7a:	ffff                	0xffff
    1b7c:	00ff                	0xff
    1b7e:	0000                	unimp
    1b80:	0000                	unimp
    1b82:	ffff                	0xffff
    1b84:	0000                	unimp
    1b86:	0000                	unimp
    1b88:	ff00                	fsw	fs0,56(a4)
    1b8a:	0000                	unimp
    1b8c:	0000                	unimp
    1b8e:	0000                	unimp
    1b90:	ff00                	fsw	fs0,56(a4)
    1b92:	00ff                	0xff
    1b94:	0000                	unimp
    1b96:	0000                	unimp
    1b98:	0000                	unimp
    1b9a:	00ff                	0xff
	...
    1ba8:	ff00                	fsw	fs0,56(a4)
    1baa:	0000                	unimp
    1bac:	00ff                	0xff
    1bae:	0000                	unimp
    1bb0:	0000                	unimp
    1bb2:	00ff                	0xff
    1bb4:	0000                	unimp
    1bb6:	0000                	unimp
    1bb8:	00ff                	0xff
    1bba:	0000                	unimp
    1bbc:	00ff                	0xff
    1bbe:	0000                	unimp
    1bc0:	00ff                	0xff
    1bc2:	0000                	unimp
    1bc4:	00ff                	0xff
    1bc6:	0000                	unimp
    1bc8:	00ff                	0xff
    1bca:	ff00                	fsw	fs0,56(a4)
    1bcc:	0000                	unimp
    1bce:	0000                	unimp
    1bd0:	ff00                	fsw	fs0,56(a4)
    1bd2:	0000                	unimp
    1bd4:	0000                	unimp
    1bd6:	0000                	unimp
    1bd8:	ff00                	fsw	fs0,56(a4)
    1bda:	0000                	unimp
    1bdc:	0000                	unimp
    1bde:	0000                	unimp
    1be0:	00ff                	0xff
    1be2:	0000                	unimp
    1be4:	00ff                	0xff
    1be6:	0000                	unimp
    1be8:	00ff                	0xff
    1bea:	0000                	unimp
    1bec:	00ff                	0xff
    1bee:	0000                	unimp
    1bf0:	0000                	unimp
    1bf2:	00ff                	0xff
	...
    1bfc:	00ff                	0xff
    1bfe:	0000                	unimp
    1c00:	00ff                	0xff
    1c02:	ff00                	fsw	fs0,56(a4)
    1c04:	0000                	unimp
    1c06:	0000                	unimp
    1c08:	ff00                	fsw	fs0,56(a4)
    1c0a:	0000                	unimp
    1c0c:	0000                	unimp
    1c0e:	0000                	unimp
    1c10:	ffff                	0xffff
    1c12:	ff00                	fsw	fs0,56(a4)
    1c14:	00ff                	0xff
    1c16:	0000                	unimp
    1c18:	ffff                	0xffff
    1c1a:	0000                	unimp
    1c1c:	00ff                	0xff
    1c1e:	0000                	unimp
    1c20:	00ff                	0xff
    1c22:	0000                	unimp
    1c24:	00ff                	0xff
    1c26:	0000                	unimp
    1c28:	00ff                	0xff
    1c2a:	0000                	unimp
    1c2c:	00ff                	0xff
    1c2e:	0000                	unimp
    1c30:	00ff                	0xff
    1c32:	0000                	unimp
    1c34:	00ff                	0xff
    1c36:	0000                	unimp
    1c38:	00ff                	0xff
    1c3a:	0000                	unimp
    1c3c:	00ff                	0xff
    1c3e:	0000                	unimp
    1c40:	00ff                	0xff
    1c42:	0000                	unimp
    1c44:	00ff                	0xff
    1c46:	0000                	unimp
    1c48:	0000                	unimp
    1c4a:	00ff                	0xff
    1c4c:	0000                	unimp
    1c4e:	0000                	unimp
    1c50:	00ff                	0xff
    1c52:	0000                	unimp
    1c54:	00ff                	0xff
    1c56:	0000                	unimp
    1c58:	00ff                	0xff
    1c5a:	0000                	unimp
    1c5c:	00ff                	0xff
    1c5e:	0000                	unimp
    1c60:	00ff                	0xff
    1c62:	0000                	unimp
    1c64:	00ff                	0xff
    1c66:	0000                	unimp
    1c68:	00ff                	0xff
    1c6a:	0000                	unimp
    1c6c:	00ff                	0xff
    1c6e:	0000                	unimp
    1c70:	00ff                	0xff
    1c72:	0000                	unimp
    1c74:	00ff                	0xff
    1c76:	0000                	unimp
    1c78:	0000                	unimp
    1c7a:	0000                	unimp
    1c7c:	00ff                	0xff
    1c7e:	0000                	unimp
    1c80:	0000                	unimp
    1c82:	00ff                	0xff
    1c84:	0000                	unimp
    1c86:	0000                	unimp
    1c88:	ff00                	fsw	fs0,56(a4)
	...
    1c92:	00ff                	0xff
    1c94:	0000                	unimp
    1c96:	0000                	unimp
    1c98:	ff00                	fsw	fs0,56(a4)
    1c9a:	ff00                	fsw	fs0,56(a4)
	...
    1ca8:	00ff                	0xff
    1caa:	ffff                	0xffff
    1cac:	ff00                	fsw	fs0,56(a4)
    1cae:	0000                	unimp
    1cb0:	ff00                	fsw	fs0,56(a4)
    1cb2:	ff00                	fsw	fs0,56(a4)
    1cb4:	0000                	unimp
    1cb6:	0000                	unimp
    1cb8:	00ff                	0xff
    1cba:	0000                	unimp
    1cbc:	00ff                	0xff
    1cbe:	0000                	unimp
    1cc0:	00ff                	0xff
    1cc2:	0000                	unimp
    1cc4:	0000                	unimp
    1cc6:	0000                	unimp
    1cc8:	00ff                	0xff
    1cca:	0000                	unimp
    1ccc:	00ff                	0xff
    1cce:	0000                	unimp
    1cd0:	ff00                	fsw	fs0,56(a4)
    1cd2:	0000                	unimp
    1cd4:	0000                	unimp
    1cd6:	0000                	unimp
    1cd8:	ff00                	fsw	fs0,56(a4)
    1cda:	0000                	unimp
    1cdc:	0000                	unimp
    1cde:	0000                	unimp
    1ce0:	00ff                	0xff
    1ce2:	0000                	unimp
    1ce4:	0000                	unimp
    1ce6:	0000                	unimp
    1ce8:	00ff                	0xff
    1cea:	0000                	unimp
    1cec:	00ff                	0xff
    1cee:	0000                	unimp
    1cf0:	0000                	unimp
    1cf2:	00ff                	0xff
	...
    1cfc:	00ff                	0xff
    1cfe:	0000                	unimp
    1d00:	00ff                	0xff
    1d02:	00ff                	0xff
    1d04:	0000                	unimp
    1d06:	0000                	unimp
    1d08:	ff00                	fsw	fs0,56(a4)
    1d0a:	0000                	unimp
    1d0c:	0000                	unimp
    1d0e:	0000                	unimp
    1d10:	00ff                	0xff
    1d12:	00ff                	0xff
    1d14:	00ff                	0xff
    1d16:	0000                	unimp
    1d18:	00ff                	0xff
    1d1a:	00ff                	0xff
    1d1c:	00ff                	0xff
    1d1e:	0000                	unimp
    1d20:	00ff                	0xff
    1d22:	0000                	unimp
    1d24:	00ff                	0xff
    1d26:	0000                	unimp
    1d28:	00ff                	0xff
    1d2a:	0000                	unimp
    1d2c:	00ff                	0xff
    1d2e:	0000                	unimp
    1d30:	00ff                	0xff
    1d32:	0000                	unimp
    1d34:	00ff                	0xff
    1d36:	0000                	unimp
    1d38:	00ff                	0xff
    1d3a:	0000                	unimp
    1d3c:	00ff                	0xff
    1d3e:	0000                	unimp
    1d40:	00ff                	0xff
	...
    1d4a:	00ff                	0xff
    1d4c:	0000                	unimp
    1d4e:	0000                	unimp
    1d50:	00ff                	0xff
    1d52:	0000                	unimp
    1d54:	00ff                	0xff
    1d56:	0000                	unimp
    1d58:	00ff                	0xff
    1d5a:	0000                	unimp
    1d5c:	00ff                	0xff
    1d5e:	0000                	unimp
    1d60:	00ff                	0xff
    1d62:	00ff                	0xff
    1d64:	00ff                	0xff
    1d66:	0000                	unimp
    1d68:	ff00                	fsw	fs0,56(a4)
    1d6a:	ff00                	fsw	fs0,56(a4)
    1d6c:	0000                	unimp
    1d6e:	0000                	unimp
    1d70:	ff00                	fsw	fs0,56(a4)
    1d72:	ff00                	fsw	fs0,56(a4)
    1d74:	0000                	unimp
    1d76:	0000                	unimp
    1d78:	0000                	unimp
    1d7a:	ff00                	fsw	fs0,56(a4)
    1d7c:	0000                	unimp
    1d7e:	0000                	unimp
    1d80:	0000                	unimp
    1d82:	00ff                	0xff
    1d84:	0000                	unimp
    1d86:	0000                	unimp
    1d88:	0000                	unimp
    1d8a:	00ff                	0xff
    1d8c:	0000                	unimp
    1d8e:	0000                	unimp
    1d90:	0000                	unimp
    1d92:	00ff                	0xff
	...
    1da8:	ffff                	0xffff
    1daa:	ff00                	fsw	fs0,56(a4)
    1dac:	ff00                	fsw	fs0,56(a4)
    1dae:	0000                	unimp
    1db0:	ff00                	fsw	fs0,56(a4)
    1db2:	ff00                	fsw	fs0,56(a4)
    1db4:	0000                	unimp
    1db6:	0000                	unimp
    1db8:	ffff                	0xffff
    1dba:	ffff                	0xffff
    1dbc:	0000                	unimp
    1dbe:	0000                	unimp
    1dc0:	00ff                	0xff
    1dc2:	0000                	unimp
    1dc4:	0000                	unimp
    1dc6:	0000                	unimp
    1dc8:	00ff                	0xff
    1dca:	0000                	unimp
    1dcc:	00ff                	0xff
    1dce:	0000                	unimp
    1dd0:	ff00                	fsw	fs0,56(a4)
    1dd2:	ffff                	0xffff
    1dd4:	0000                	unimp
    1dd6:	0000                	unimp
    1dd8:	ff00                	fsw	fs0,56(a4)
    1dda:	ffff                	0xffff
    1ddc:	0000                	unimp
    1dde:	0000                	unimp
    1de0:	00ff                	0xff
    1de2:	ff00                	fsw	fs0,56(a4)
    1de4:	00ff                	0xff
    1de6:	0000                	unimp
    1de8:	ffff                	0xffff
    1dea:	ffff                	0xffff
    1dec:	00ff                	0xff
    1dee:	0000                	unimp
    1df0:	0000                	unimp
    1df2:	00ff                	0xff
	...
    1dfc:	00ff                	0xff
    1dfe:	0000                	unimp
    1e00:	ffff                	0xffff
    1e02:	0000                	unimp
    1e04:	0000                	unimp
    1e06:	0000                	unimp
    1e08:	ff00                	fsw	fs0,56(a4)
    1e0a:	0000                	unimp
    1e0c:	0000                	unimp
    1e0e:	0000                	unimp
    1e10:	00ff                	0xff
    1e12:	0000                	unimp
    1e14:	00ff                	0xff
    1e16:	0000                	unimp
    1e18:	00ff                	0xff
    1e1a:	00ff                	0xff
    1e1c:	00ff                	0xff
    1e1e:	0000                	unimp
    1e20:	00ff                	0xff
    1e22:	0000                	unimp
    1e24:	00ff                	0xff
    1e26:	0000                	unimp
    1e28:	ffff                	0xffff
    1e2a:	ffff                	0xffff
    1e2c:	0000                	unimp
    1e2e:	0000                	unimp
    1e30:	00ff                	0xff
    1e32:	0000                	unimp
    1e34:	00ff                	0xff
    1e36:	0000                	unimp
    1e38:	ffff                	0xffff
    1e3a:	ffff                	0xffff
    1e3c:	0000                	unimp
    1e3e:	0000                	unimp
    1e40:	ff00                	fsw	fs0,56(a4)
    1e42:	ffff                	0xffff
    1e44:	0000                	unimp
    1e46:	0000                	unimp
    1e48:	0000                	unimp
    1e4a:	00ff                	0xff
    1e4c:	0000                	unimp
    1e4e:	0000                	unimp
    1e50:	00ff                	0xff
    1e52:	0000                	unimp
    1e54:	00ff                	0xff
    1e56:	0000                	unimp
    1e58:	ff00                	fsw	fs0,56(a4)
    1e5a:	ff00                	fsw	fs0,56(a4)
    1e5c:	0000                	unimp
    1e5e:	0000                	unimp
    1e60:	00ff                	0xff
    1e62:	00ff                	0xff
    1e64:	00ff                	0xff
    1e66:	0000                	unimp
    1e68:	0000                	unimp
    1e6a:	00ff                	0xff
    1e6c:	0000                	unimp
    1e6e:	0000                	unimp
    1e70:	0000                	unimp
    1e72:	00ff                	0xff
    1e74:	0000                	unimp
    1e76:	0000                	unimp
    1e78:	0000                	unimp
    1e7a:	00ff                	0xff
    1e7c:	0000                	unimp
    1e7e:	0000                	unimp
    1e80:	0000                	unimp
    1e82:	00ff                	0xff
    1e84:	0000                	unimp
    1e86:	0000                	unimp
    1e88:	0000                	unimp
    1e8a:	00ff                	0xff
    1e8c:	0000                	unimp
    1e8e:	0000                	unimp
    1e90:	0000                	unimp
    1e92:	00ff                	0xff
	...
    1ea8:	ffff                	0xffff
    1eaa:	ff00                	fsw	fs0,56(a4)
    1eac:	ff00                	fsw	fs0,56(a4)
    1eae:	0000                	unimp
    1eb0:	ffff                	0xffff
    1eb2:	ffff                	0xffff
    1eb4:	00ff                	0xff
    1eb6:	0000                	unimp
    1eb8:	00ff                	0xff
    1eba:	0000                	unimp
    1ebc:	00ff                	0xff
    1ebe:	0000                	unimp
    1ec0:	00ff                	0xff
    1ec2:	0000                	unimp
    1ec4:	0000                	unimp
    1ec6:	0000                	unimp
    1ec8:	00ff                	0xff
    1eca:	0000                	unimp
    1ecc:	00ff                	0xff
    1ece:	0000                	unimp
    1ed0:	ff00                	fsw	fs0,56(a4)
    1ed2:	0000                	unimp
    1ed4:	0000                	unimp
    1ed6:	0000                	unimp
    1ed8:	ff00                	fsw	fs0,56(a4)
    1eda:	0000                	unimp
    1edc:	0000                	unimp
    1ede:	0000                	unimp
    1ee0:	00ff                	0xff
    1ee2:	0000                	unimp
    1ee4:	00ff                	0xff
    1ee6:	0000                	unimp
    1ee8:	00ff                	0xff
    1eea:	0000                	unimp
    1eec:	00ff                	0xff
    1eee:	0000                	unimp
    1ef0:	0000                	unimp
    1ef2:	00ff                	0xff
    1ef4:	0000                	unimp
    1ef6:	0000                	unimp
    1ef8:	00ff                	0xff
    1efa:	0000                	unimp
    1efc:	00ff                	0xff
    1efe:	0000                	unimp
    1f00:	00ff                	0xff
    1f02:	00ff                	0xff
    1f04:	0000                	unimp
    1f06:	0000                	unimp
    1f08:	ff00                	fsw	fs0,56(a4)
    1f0a:	0000                	unimp
    1f0c:	0000                	unimp
    1f0e:	0000                	unimp
    1f10:	00ff                	0xff
    1f12:	0000                	unimp
    1f14:	00ff                	0xff
    1f16:	0000                	unimp
    1f18:	00ff                	0xff
    1f1a:	ff00                	fsw	fs0,56(a4)
    1f1c:	00ff                	0xff
    1f1e:	0000                	unimp
    1f20:	00ff                	0xff
    1f22:	0000                	unimp
    1f24:	00ff                	0xff
    1f26:	0000                	unimp
    1f28:	00ff                	0xff
    1f2a:	0000                	unimp
    1f2c:	0000                	unimp
    1f2e:	0000                	unimp
    1f30:	00ff                	0xff
    1f32:	0000                	unimp
    1f34:	00ff                	0xff
    1f36:	0000                	unimp
    1f38:	00ff                	0xff
    1f3a:	00ff                	0xff
	...
    1f44:	00ff                	0xff
    1f46:	0000                	unimp
    1f48:	0000                	unimp
    1f4a:	00ff                	0xff
    1f4c:	0000                	unimp
    1f4e:	0000                	unimp
    1f50:	00ff                	0xff
    1f52:	0000                	unimp
    1f54:	00ff                	0xff
    1f56:	0000                	unimp
    1f58:	ff00                	fsw	fs0,56(a4)
    1f5a:	ff00                	fsw	fs0,56(a4)
    1f5c:	0000                	unimp
    1f5e:	0000                	unimp
    1f60:	ff00                	fsw	fs0,56(a4)
    1f62:	ff00                	fsw	fs0,56(a4)
    1f64:	0000                	unimp
    1f66:	0000                	unimp
    1f68:	ff00                	fsw	fs0,56(a4)
    1f6a:	ff00                	fsw	fs0,56(a4)
    1f6c:	0000                	unimp
    1f6e:	0000                	unimp
    1f70:	0000                	unimp
    1f72:	00ff                	0xff
    1f74:	0000                	unimp
    1f76:	0000                	unimp
    1f78:	ff00                	fsw	fs0,56(a4)
	...
    1f82:	00ff                	0xff
    1f84:	0000                	unimp
    1f86:	0000                	unimp
    1f88:	0000                	unimp
    1f8a:	ff00                	fsw	fs0,56(a4)
    1f8c:	0000                	unimp
    1f8e:	0000                	unimp
    1f90:	0000                	unimp
    1f92:	00ff                	0xff
	...
    1fa8:	00ff                	0xff
    1faa:	ffff                	0xffff
    1fac:	00ff                	0xff
    1fae:	0000                	unimp
    1fb0:	00ff                	0xff
    1fb2:	0000                	unimp
    1fb4:	00ff                	0xff
    1fb6:	0000                	unimp
    1fb8:	00ff                	0xff
    1fba:	0000                	unimp
    1fbc:	00ff                	0xff
    1fbe:	0000                	unimp
    1fc0:	00ff                	0xff
    1fc2:	0000                	unimp
    1fc4:	00ff                	0xff
    1fc6:	0000                	unimp
    1fc8:	00ff                	0xff
    1fca:	ff00                	fsw	fs0,56(a4)
    1fcc:	0000                	unimp
    1fce:	0000                	unimp
    1fd0:	ff00                	fsw	fs0,56(a4)
    1fd2:	0000                	unimp
    1fd4:	0000                	unimp
    1fd6:	0000                	unimp
    1fd8:	ff00                	fsw	fs0,56(a4)
    1fda:	0000                	unimp
    1fdc:	0000                	unimp
    1fde:	0000                	unimp
    1fe0:	00ff                	0xff
    1fe2:	0000                	unimp
    1fe4:	00ff                	0xff
    1fe6:	0000                	unimp
    1fe8:	00ff                	0xff
    1fea:	0000                	unimp
    1fec:	00ff                	0xff
    1fee:	0000                	unimp
    1ff0:	0000                	unimp
    1ff2:	00ff                	0xff
    1ff4:	0000                	unimp
    1ff6:	0000                	unimp
    1ff8:	00ff                	0xff
    1ffa:	0000                	unimp
    1ffc:	00ff                	0xff
    1ffe:	0000                	unimp
    2000:	00ff                	0xff
    2002:	ff00                	fsw	fs0,56(a4)
    2004:	0000                	unimp
    2006:	0000                	unimp
    2008:	ff00                	fsw	fs0,56(a4)
    200a:	0000                	unimp
    200c:	0000                	unimp
    200e:	0000                	unimp
    2010:	00ff                	0xff
    2012:	0000                	unimp
    2014:	00ff                	0xff
    2016:	0000                	unimp
    2018:	00ff                	0xff
    201a:	ff00                	fsw	fs0,56(a4)
    201c:	00ff                	0xff
    201e:	0000                	unimp
    2020:	00ff                	0xff
    2022:	0000                	unimp
    2024:	00ff                	0xff
    2026:	0000                	unimp
    2028:	00ff                	0xff
    202a:	0000                	unimp
    202c:	0000                	unimp
    202e:	0000                	unimp
    2030:	00ff                	0xff
    2032:	00ff                	0xff
    2034:	00ff                	0xff
    2036:	0000                	unimp
    2038:	00ff                	0xff
    203a:	ff00                	fsw	fs0,56(a4)
    203c:	0000                	unimp
    203e:	0000                	unimp
    2040:	00ff                	0xff
    2042:	0000                	unimp
    2044:	00ff                	0xff
    2046:	0000                	unimp
    2048:	0000                	unimp
    204a:	00ff                	0xff
    204c:	0000                	unimp
    204e:	0000                	unimp
    2050:	00ff                	0xff
    2052:	0000                	unimp
    2054:	00ff                	0xff
    2056:	0000                	unimp
    2058:	0000                	unimp
    205a:	00ff                	0xff
    205c:	0000                	unimp
    205e:	0000                	unimp
    2060:	ff00                	fsw	fs0,56(a4)
    2062:	ff00                	fsw	fs0,56(a4)
    2064:	0000                	unimp
    2066:	0000                	unimp
    2068:	00ff                	0xff
    206a:	0000                	unimp
    206c:	00ff                	0xff
    206e:	0000                	unimp
    2070:	0000                	unimp
    2072:	00ff                	0xff
    2074:	0000                	unimp
    2076:	0000                	unimp
    2078:	ff00                	fsw	fs0,56(a4)
	...
    2082:	00ff                	0xff
    2084:	0000                	unimp
    2086:	0000                	unimp
    2088:	0000                	unimp
    208a:	ff00                	fsw	fs0,56(a4)
    208c:	0000                	unimp
    208e:	0000                	unimp
    2090:	0000                	unimp
    2092:	00ff                	0xff
	...
    20a8:	ff00                	fsw	fs0,56(a4)
    20aa:	0000                	unimp
    20ac:	0000                	unimp
    20ae:	0000                	unimp
    20b0:	00ff                	0xff
    20b2:	0000                	unimp
    20b4:	00ff                	0xff
    20b6:	0000                	unimp
    20b8:	ffff                	0xffff
    20ba:	ffff                	0xffff
    20bc:	0000                	unimp
    20be:	0000                	unimp
    20c0:	ff00                	fsw	fs0,56(a4)
    20c2:	ffff                	0xffff
    20c4:	0000                	unimp
    20c6:	0000                	unimp
    20c8:	ffff                	0xffff
    20ca:	00ff                	0xff
    20cc:	0000                	unimp
    20ce:	0000                	unimp
    20d0:	ff00                	fsw	fs0,56(a4)
    20d2:	ffff                	0xffff
    20d4:	00ff                	0xff
    20d6:	0000                	unimp
    20d8:	ff00                	fsw	fs0,56(a4)
    20da:	0000                	unimp
    20dc:	0000                	unimp
    20de:	0000                	unimp
    20e0:	ff00                	fsw	fs0,56(a4)
    20e2:	ffff                	0xffff
    20e4:	0000                	unimp
    20e6:	0000                	unimp
    20e8:	00ff                	0xff
    20ea:	0000                	unimp
    20ec:	00ff                	0xff
    20ee:	0000                	unimp
    20f0:	0000                	unimp
    20f2:	00ff                	0xff
    20f4:	0000                	unimp
    20f6:	0000                	unimp
    20f8:	ff00                	fsw	fs0,56(a4)
    20fa:	ffff                	0xffff
    20fc:	0000                	unimp
    20fe:	0000                	unimp
    2100:	00ff                	0xff
    2102:	0000                	unimp
    2104:	00ff                	0xff
    2106:	0000                	unimp
    2108:	ff00                	fsw	fs0,56(a4)
    210a:	ffff                	0xffff
    210c:	00ff                	0xff
    210e:	0000                	unimp
    2110:	00ff                	0xff
    2112:	0000                	unimp
    2114:	00ff                	0xff
    2116:	0000                	unimp
    2118:	00ff                	0xff
    211a:	0000                	unimp
    211c:	00ff                	0xff
    211e:	0000                	unimp
    2120:	ff00                	fsw	fs0,56(a4)
    2122:	ffff                	0xffff
    2124:	0000                	unimp
    2126:	0000                	unimp
    2128:	00ff                	0xff
    212a:	0000                	unimp
    212c:	0000                	unimp
    212e:	0000                	unimp
    2130:	ff00                	fsw	fs0,56(a4)
    2132:	ffff                	0xffff
    2134:	0000                	unimp
    2136:	0000                	unimp
    2138:	00ff                	0xff
    213a:	0000                	unimp
    213c:	00ff                	0xff
    213e:	0000                	unimp
    2140:	ff00                	fsw	fs0,56(a4)
    2142:	ffff                	0xffff
    2144:	0000                	unimp
    2146:	0000                	unimp
    2148:	0000                	unimp
    214a:	00ff                	0xff
    214c:	0000                	unimp
    214e:	0000                	unimp
    2150:	ff00                	fsw	fs0,56(a4)
    2152:	ffff                	0xffff
    2154:	0000                	unimp
    2156:	0000                	unimp
    2158:	0000                	unimp
    215a:	00ff                	0xff
    215c:	0000                	unimp
    215e:	0000                	unimp
    2160:	ff00                	fsw	fs0,56(a4)
    2162:	ff00                	fsw	fs0,56(a4)
    2164:	0000                	unimp
    2166:	0000                	unimp
    2168:	00ff                	0xff
    216a:	0000                	unimp
    216c:	00ff                	0xff
    216e:	0000                	unimp
    2170:	0000                	unimp
    2172:	00ff                	0xff
    2174:	0000                	unimp
    2176:	0000                	unimp
    2178:	ff00                	fsw	fs0,56(a4)
    217a:	ffff                	0xffff
    217c:	00ff                	0xff
    217e:	0000                	unimp
    2180:	0000                	unimp
    2182:	00ff                	0xff
	...
    218c:	00ff                	0xff
    218e:	0000                	unimp
    2190:	0000                	unimp
    2192:	00ff                	0xff
	...
    21a8:	0000                	unimp
    21aa:	ffff                	0xffff
	...
    2230:	0000                	unimp
    2232:	ff00                	fsw	fs0,56(a4)
	...
    2280:	0000                	unimp
    2282:	ffff                	0xffff
	...
    228c:	00ff                	0xff
    228e:	0000                	unimp
    2290:	ff00                	fsw	fs0,56(a4)
    2292:	00ff                	0xff
	...
    22a0:	ffff                	0xffff
    22a2:	ffff                	0xffff
    22a4:	ffff                	0xffff
    22a6:	0000                	unimp
    22a8:	0000                	unimp
    22aa:	ffff                	0xffff
	...
    22b8:	ff00                	fsw	fs0,56(a4)
	...
    22ca:	0000                	unimp
    22cc:	00ff                	0xff
	...
    22da:	ff00                	fsw	fs0,56(a4)
    22dc:	00ff                	0xff
	...
    22e6:	0000                	unimp
    22e8:	ff00                	fsw	fs0,56(a4)
	...
    22f2:	00ff                	0xff
    22f4:	0000                	unimp
    22f6:	0000                	unimp
    22f8:	0000                	unimp
    22fa:	ff00                	fsw	fs0,56(a4)
    22fc:	0000                	unimp
    22fe:	0000                	unimp
    2300:	ff00                	fsw	fs0,56(a4)
	...
    230a:	00ff                	0xff
	...
    2348:	0000                	unimp
    234a:	00ff                	0xff
	...
    2380:	0000                	unimp
    2382:	ff00                	fsw	fs0,56(a4)
    2384:	0000                	unimp
    2386:	0000                	unimp
    2388:	0000                	unimp
    238a:	00ff                	0xff
    238c:	0000                	unimp
    238e:	0000                	unimp
    2390:	ff00                	fsw	fs0,56(a4)
    2392:	0000                	unimp
    2394:	0000                	unimp
    2396:	0000                	unimp
    2398:	ff00                	fsw	fs0,56(a4)
    239a:	00ff                	0xff
    239c:	00ff                	0xff
    239e:	0000                	unimp
    23a0:	0000                	unimp
    23a2:	ffff                	0xffff
    23a4:	0000                	unimp
    23a6:	0000                	unimp
    23a8:	ff00                	fsw	fs0,56(a4)
	...
    23b6:	0000                	unimp
    23b8:	ff00                	fsw	fs0,56(a4)
	...
    23ca:	0000                	unimp
    23cc:	00ff                	0xff
	...
    23da:	00ff                	0xff
	...
    23e8:	ff00                	fsw	fs0,56(a4)
	...
    23fe:	0000                	unimp
    2400:	ff00                	fsw	fs0,56(a4)
	...
    240a:	00ff                	0xff
	...
    2448:	0000                	unimp
    244a:	00ff                	0xff
	...
    2480:	0000                	unimp
    2482:	00ff                	0xff
    2484:	0000                	unimp
    2486:	0000                	unimp
    2488:	0000                	unimp
    248a:	00ff                	0xff
    248c:	0000                	unimp
    248e:	0000                	unimp
    2490:	0000                	unimp
    2492:	00ff                	0xff
    2494:	0000                	unimp
    2496:	0000                	unimp
    2498:	00ff                	0xff
    249a:	ffff                	0xffff
    249c:	0000                	unimp
    249e:	0000                	unimp
    24a0:	ff00                	fsw	fs0,56(a4)
    24a2:	0000                	unimp
    24a4:	00ff                	0xff
    24a6:	0000                	unimp
    24a8:	ff00                	fsw	fs0,56(a4)
	...
    24b2:	ffff                	0xffff
    24b4:	0000                	unimp
    24b6:	0000                	unimp
    24b8:	ff00                	fsw	fs0,56(a4)
    24ba:	ffff                	0xffff
    24bc:	0000                	unimp
    24be:	0000                	unimp
    24c0:	0000                	unimp
    24c2:	ffff                	0xffff
    24c4:	0000                	unimp
    24c6:	0000                	unimp
    24c8:	0000                	unimp
    24ca:	ffff                	0xffff
    24cc:	00ff                	0xff
    24ce:	0000                	unimp
    24d0:	0000                	unimp
    24d2:	ffff                	0xffff
    24d4:	0000                	unimp
    24d6:	0000                	unimp
    24d8:	ff00                	fsw	fs0,56(a4)
    24da:	ffff                	0xffff
    24dc:	0000                	unimp
    24de:	0000                	unimp
    24e0:	0000                	unimp
    24e2:	ffff                	0xffff
    24e4:	00ff                	0xff
    24e6:	0000                	unimp
    24e8:	ff00                	fsw	fs0,56(a4)
    24ea:	ffff                	0xffff
    24ec:	0000                	unimp
    24ee:	0000                	unimp
    24f0:	0000                	unimp
    24f2:	00ff                	0xff
    24f4:	0000                	unimp
    24f6:	0000                	unimp
    24f8:	0000                	unimp
    24fa:	ff00                	fsw	fs0,56(a4)
    24fc:	0000                	unimp
    24fe:	0000                	unimp
    2500:	ff00                	fsw	fs0,56(a4)
    2502:	0000                	unimp
    2504:	00ff                	0xff
    2506:	0000                	unimp
    2508:	0000                	unimp
    250a:	00ff                	0xff
    250c:	0000                	unimp
    250e:	0000                	unimp
    2510:	ffff                	0xffff
    2512:	ff00                	fsw	fs0,56(a4)
    2514:	0000                	unimp
    2516:	0000                	unimp
    2518:	ff00                	fsw	fs0,56(a4)
    251a:	ffff                	0xffff
    251c:	0000                	unimp
    251e:	0000                	unimp
    2520:	0000                	unimp
    2522:	ffff                	0xffff
    2524:	0000                	unimp
    2526:	0000                	unimp
    2528:	ff00                	fsw	fs0,56(a4)
    252a:	ffff                	0xffff
    252c:	0000                	unimp
    252e:	0000                	unimp
    2530:	0000                	unimp
    2532:	ffff                	0xffff
    2534:	00ff                	0xff
    2536:	0000                	unimp
    2538:	ff00                	fsw	fs0,56(a4)
    253a:	ff00                	fsw	fs0,56(a4)
    253c:	00ff                	0xff
    253e:	0000                	unimp
    2540:	0000                	unimp
    2542:	ffff                	0xffff
    2544:	00ff                	0xff
    2546:	0000                	unimp
    2548:	ff00                	fsw	fs0,56(a4)
    254a:	ffff                	0xffff
    254c:	0000                	unimp
    254e:	0000                	unimp
    2550:	ff00                	fsw	fs0,56(a4)
    2552:	0000                	unimp
    2554:	00ff                	0xff
    2556:	0000                	unimp
    2558:	00ff                	0xff
    255a:	0000                	unimp
    255c:	00ff                	0xff
    255e:	0000                	unimp
    2560:	00ff                	0xff
    2562:	0000                	unimp
    2564:	00ff                	0xff
    2566:	0000                	unimp
    2568:	00ff                	0xff
    256a:	0000                	unimp
    256c:	00ff                	0xff
    256e:	0000                	unimp
    2570:	00ff                	0xff
    2572:	0000                	unimp
    2574:	00ff                	0xff
    2576:	0000                	unimp
    2578:	ff00                	fsw	fs0,56(a4)
    257a:	ffff                	0xffff
    257c:	00ff                	0xff
    257e:	0000                	unimp
    2580:	0000                	unimp
    2582:	00ff                	0xff
    2584:	0000                	unimp
    2586:	0000                	unimp
    2588:	0000                	unimp
    258a:	00ff                	0xff
    258c:	0000                	unimp
    258e:	0000                	unimp
    2590:	0000                	unimp
    2592:	00ff                	0xff
	...
    25a0:	00ff                	0xff
    25a2:	ffff                	0xffff
    25a4:	ff00                	fsw	fs0,56(a4)
    25a6:	0000                	unimp
    25a8:	ffff                	0xffff
    25aa:	00ff                	0xff
	...
    25b4:	00ff                	0xff
    25b6:	0000                	unimp
    25b8:	ff00                	fsw	fs0,56(a4)
    25ba:	0000                	unimp
    25bc:	00ff                	0xff
    25be:	0000                	unimp
    25c0:	ff00                	fsw	fs0,56(a4)
    25c2:	0000                	unimp
    25c4:	00ff                	0xff
    25c6:	0000                	unimp
    25c8:	ff00                	fsw	fs0,56(a4)
    25ca:	0000                	unimp
    25cc:	00ff                	0xff
    25ce:	0000                	unimp
    25d0:	ff00                	fsw	fs0,56(a4)
    25d2:	0000                	unimp
    25d4:	00ff                	0xff
    25d6:	0000                	unimp
    25d8:	0000                	unimp
    25da:	00ff                	0xff
    25dc:	0000                	unimp
    25de:	0000                	unimp
    25e0:	ff00                	fsw	fs0,56(a4)
    25e2:	0000                	unimp
    25e4:	00ff                	0xff
    25e6:	0000                	unimp
    25e8:	ff00                	fsw	fs0,56(a4)
    25ea:	0000                	unimp
    25ec:	00ff                	0xff
    25ee:	0000                	unimp
    25f0:	0000                	unimp
    25f2:	00ff                	0xff
    25f4:	0000                	unimp
    25f6:	0000                	unimp
    25f8:	0000                	unimp
    25fa:	ff00                	fsw	fs0,56(a4)
    25fc:	0000                	unimp
    25fe:	0000                	unimp
    2600:	ff00                	fsw	fs0,56(a4)
    2602:	ff00                	fsw	fs0,56(a4)
    2604:	0000                	unimp
    2606:	0000                	unimp
    2608:	0000                	unimp
    260a:	00ff                	0xff
    260c:	0000                	unimp
    260e:	0000                	unimp
    2610:	00ff                	0xff
    2612:	00ff                	0xff
    2614:	00ff                	0xff
    2616:	0000                	unimp
    2618:	ff00                	fsw	fs0,56(a4)
    261a:	0000                	unimp
    261c:	00ff                	0xff
    261e:	0000                	unimp
    2620:	ff00                	fsw	fs0,56(a4)
    2622:	0000                	unimp
    2624:	00ff                	0xff
    2626:	0000                	unimp
    2628:	ff00                	fsw	fs0,56(a4)
    262a:	0000                	unimp
    262c:	00ff                	0xff
    262e:	0000                	unimp
    2630:	ff00                	fsw	fs0,56(a4)
    2632:	0000                	unimp
    2634:	00ff                	0xff
    2636:	0000                	unimp
    2638:	ff00                	fsw	fs0,56(a4)
    263a:	00ff                	0xff
    263c:	0000                	unimp
    263e:	0000                	unimp
    2640:	ff00                	fsw	fs0,56(a4)
	...
    264a:	00ff                	0xff
    264c:	0000                	unimp
    264e:	0000                	unimp
    2650:	ff00                	fsw	fs0,56(a4)
    2652:	0000                	unimp
    2654:	00ff                	0xff
    2656:	0000                	unimp
    2658:	ff00                	fsw	fs0,56(a4)
    265a:	ff00                	fsw	fs0,56(a4)
    265c:	0000                	unimp
    265e:	0000                	unimp
    2660:	00ff                	0xff
    2662:	0000                	unimp
    2664:	00ff                	0xff
    2666:	0000                	unimp
    2668:	ff00                	fsw	fs0,56(a4)
    266a:	ff00                	fsw	fs0,56(a4)
    266c:	0000                	unimp
    266e:	0000                	unimp
    2670:	ff00                	fsw	fs0,56(a4)
    2672:	ff00                	fsw	fs0,56(a4)
    2674:	0000                	unimp
    2676:	0000                	unimp
    2678:	0000                	unimp
    267a:	ff00                	fsw	fs0,56(a4)
    267c:	0000                	unimp
    267e:	0000                	unimp
    2680:	ff00                	fsw	fs0,56(a4)
	...
    2692:	ff00                	fsw	fs0,56(a4)
	...
    26a0:	ffff                	0xffff
    26a2:	0000                	unimp
    26a4:	ff00                	fsw	fs0,56(a4)
    26a6:	0000                	unimp
    26a8:	ff00                	fsw	fs0,56(a4)
	...
    26b2:	ffff                	0xffff
    26b4:	00ff                	0xff
    26b6:	0000                	unimp
    26b8:	ff00                	fsw	fs0,56(a4)
    26ba:	0000                	unimp
    26bc:	00ff                	0xff
    26be:	0000                	unimp
    26c0:	ff00                	fsw	fs0,56(a4)
    26c2:	0000                	unimp
    26c4:	0000                	unimp
    26c6:	0000                	unimp
    26c8:	ff00                	fsw	fs0,56(a4)
    26ca:	0000                	unimp
    26cc:	00ff                	0xff
    26ce:	0000                	unimp
    26d0:	ff00                	fsw	fs0,56(a4)
    26d2:	ffff                	0xffff
    26d4:	00ff                	0xff
    26d6:	0000                	unimp
    26d8:	0000                	unimp
    26da:	00ff                	0xff
    26dc:	0000                	unimp
    26de:	0000                	unimp
    26e0:	ff00                	fsw	fs0,56(a4)
    26e2:	0000                	unimp
    26e4:	00ff                	0xff
    26e6:	0000                	unimp
    26e8:	ff00                	fsw	fs0,56(a4)
    26ea:	0000                	unimp
    26ec:	00ff                	0xff
    26ee:	0000                	unimp
    26f0:	0000                	unimp
    26f2:	00ff                	0xff
    26f4:	0000                	unimp
    26f6:	0000                	unimp
    26f8:	0000                	unimp
    26fa:	ff00                	fsw	fs0,56(a4)
    26fc:	0000                	unimp
    26fe:	0000                	unimp
    2700:	ff00                	fsw	fs0,56(a4)
    2702:	00ff                	0xff
    2704:	0000                	unimp
    2706:	0000                	unimp
    2708:	0000                	unimp
    270a:	00ff                	0xff
    270c:	0000                	unimp
    270e:	0000                	unimp
    2710:	00ff                	0xff
    2712:	00ff                	0xff
    2714:	00ff                	0xff
    2716:	0000                	unimp
    2718:	ff00                	fsw	fs0,56(a4)
    271a:	0000                	unimp
    271c:	00ff                	0xff
    271e:	0000                	unimp
    2720:	ff00                	fsw	fs0,56(a4)
    2722:	0000                	unimp
    2724:	00ff                	0xff
    2726:	0000                	unimp
    2728:	ff00                	fsw	fs0,56(a4)
    272a:	0000                	unimp
    272c:	00ff                	0xff
    272e:	0000                	unimp
    2730:	ff00                	fsw	fs0,56(a4)
    2732:	0000                	unimp
    2734:	00ff                	0xff
    2736:	0000                	unimp
    2738:	ff00                	fsw	fs0,56(a4)
	...
    2742:	ffff                	0xffff
    2744:	0000                	unimp
    2746:	0000                	unimp
    2748:	0000                	unimp
    274a:	00ff                	0xff
    274c:	0000                	unimp
    274e:	0000                	unimp
    2750:	ff00                	fsw	fs0,56(a4)
    2752:	0000                	unimp
    2754:	00ff                	0xff
    2756:	0000                	unimp
    2758:	ff00                	fsw	fs0,56(a4)
    275a:	ff00                	fsw	fs0,56(a4)
    275c:	0000                	unimp
    275e:	0000                	unimp
    2760:	00ff                	0xff
    2762:	00ff                	0xff
    2764:	00ff                	0xff
    2766:	0000                	unimp
    2768:	0000                	unimp
    276a:	00ff                	0xff
    276c:	0000                	unimp
    276e:	0000                	unimp
    2770:	ff00                	fsw	fs0,56(a4)
    2772:	ff00                	fsw	fs0,56(a4)
    2774:	0000                	unimp
    2776:	0000                	unimp
    2778:	0000                	unimp
    277a:	00ff                	0xff
    277c:	0000                	unimp
    277e:	0000                	unimp
    2780:	0000                	unimp
    2782:	00ff                	0xff
	...
    2790:	0000                	unimp
    2792:	00ff                	0xff
	...
    27a0:	ffff                	0xffff
    27a2:	0000                	unimp
    27a4:	ff00                	fsw	fs0,56(a4)
    27a6:	0000                	unimp
    27a8:	ff00                	fsw	fs0,56(a4)
    27aa:	0000                	unimp
    27ac:	00ff                	0xff
    27ae:	0000                	unimp
    27b0:	ff00                	fsw	fs0,56(a4)
    27b2:	0000                	unimp
    27b4:	00ff                	0xff
    27b6:	0000                	unimp
    27b8:	ff00                	fsw	fs0,56(a4)
    27ba:	0000                	unimp
    27bc:	00ff                	0xff
    27be:	0000                	unimp
    27c0:	ff00                	fsw	fs0,56(a4)
    27c2:	0000                	unimp
    27c4:	00ff                	0xff
    27c6:	0000                	unimp
    27c8:	ff00                	fsw	fs0,56(a4)
    27ca:	0000                	unimp
    27cc:	00ff                	0xff
    27ce:	0000                	unimp
    27d0:	ff00                	fsw	fs0,56(a4)
	...
    27da:	00ff                	0xff
    27dc:	0000                	unimp
    27de:	0000                	unimp
    27e0:	0000                	unimp
    27e2:	ffff                	0xffff
    27e4:	00ff                	0xff
    27e6:	0000                	unimp
    27e8:	ff00                	fsw	fs0,56(a4)
    27ea:	0000                	unimp
    27ec:	00ff                	0xff
    27ee:	0000                	unimp
    27f0:	0000                	unimp
    27f2:	00ff                	0xff
    27f4:	0000                	unimp
    27f6:	0000                	unimp
    27f8:	0000                	unimp
    27fa:	ff00                	fsw	fs0,56(a4)
    27fc:	0000                	unimp
    27fe:	0000                	unimp
    2800:	ff00                	fsw	fs0,56(a4)
    2802:	ff00                	fsw	fs0,56(a4)
    2804:	0000                	unimp
    2806:	0000                	unimp
    2808:	0000                	unimp
    280a:	00ff                	0xff
    280c:	0000                	unimp
    280e:	0000                	unimp
    2810:	00ff                	0xff
    2812:	00ff                	0xff
    2814:	00ff                	0xff
    2816:	0000                	unimp
    2818:	ff00                	fsw	fs0,56(a4)
    281a:	0000                	unimp
    281c:	00ff                	0xff
    281e:	0000                	unimp
    2820:	ff00                	fsw	fs0,56(a4)
    2822:	0000                	unimp
    2824:	00ff                	0xff
    2826:	0000                	unimp
    2828:	ff00                	fsw	fs0,56(a4)
    282a:	ffff                	0xffff
    282c:	0000                	unimp
    282e:	0000                	unimp
    2830:	0000                	unimp
    2832:	ffff                	0xffff
    2834:	00ff                	0xff
    2836:	0000                	unimp
    2838:	ff00                	fsw	fs0,56(a4)
	...
    2842:	0000                	unimp
    2844:	00ff                	0xff
    2846:	0000                	unimp
    2848:	0000                	unimp
    284a:	00ff                	0xff
    284c:	0000                	unimp
    284e:	0000                	unimp
    2850:	ff00                	fsw	fs0,56(a4)
    2852:	0000                	unimp
    2854:	00ff                	0xff
    2856:	0000                	unimp
    2858:	0000                	unimp
    285a:	00ff                	0xff
    285c:	0000                	unimp
    285e:	0000                	unimp
    2860:	ff00                	fsw	fs0,56(a4)
    2862:	ff00                	fsw	fs0,56(a4)
    2864:	0000                	unimp
    2866:	0000                	unimp
    2868:	ff00                	fsw	fs0,56(a4)
    286a:	ff00                	fsw	fs0,56(a4)
    286c:	0000                	unimp
    286e:	0000                	unimp
    2870:	0000                	unimp
    2872:	00ff                	0xff
    2874:	0000                	unimp
    2876:	0000                	unimp
    2878:	ff00                	fsw	fs0,56(a4)
	...
    2882:	00ff                	0xff
    2884:	0000                	unimp
    2886:	0000                	unimp
    2888:	0000                	unimp
    288a:	00ff                	0xff
    288c:	0000                	unimp
    288e:	0000                	unimp
    2890:	0000                	unimp
    2892:	00ff                	0xff
	...
    28a0:	00ff                	0xff
    28a2:	ffff                	0xffff
    28a4:	ff00                	fsw	fs0,56(a4)
    28a6:	0000                	unimp
    28a8:	ffff                	0xffff
    28aa:	ffff                	0xffff
    28ac:	0000                	unimp
    28ae:	0000                	unimp
    28b0:	0000                	unimp
    28b2:	ffff                	0xffff
    28b4:	00ff                	0xff
    28b6:	0000                	unimp
    28b8:	ff00                	fsw	fs0,56(a4)
    28ba:	ffff                	0xffff
    28bc:	0000                	unimp
    28be:	0000                	unimp
    28c0:	0000                	unimp
    28c2:	ffff                	0xffff
    28c4:	0000                	unimp
    28c6:	0000                	unimp
    28c8:	0000                	unimp
    28ca:	ffff                	0xffff
    28cc:	00ff                	0xff
    28ce:	0000                	unimp
    28d0:	0000                	unimp
    28d2:	ffff                	0xffff
    28d4:	0000                	unimp
    28d6:	0000                	unimp
    28d8:	0000                	unimp
    28da:	00ff                	0xff
	...
    28e4:	00ff                	0xff
    28e6:	0000                	unimp
    28e8:	ff00                	fsw	fs0,56(a4)
    28ea:	0000                	unimp
    28ec:	00ff                	0xff
    28ee:	0000                	unimp
    28f0:	0000                	unimp
    28f2:	00ff                	0xff
    28f4:	0000                	unimp
    28f6:	0000                	unimp
    28f8:	0000                	unimp
    28fa:	ff00                	fsw	fs0,56(a4)
    28fc:	0000                	unimp
    28fe:	0000                	unimp
    2900:	ff00                	fsw	fs0,56(a4)
    2902:	0000                	unimp
    2904:	00ff                	0xff
    2906:	0000                	unimp
    2908:	0000                	unimp
    290a:	ff00                	fsw	fs0,56(a4)
    290c:	0000                	unimp
    290e:	0000                	unimp
    2910:	00ff                	0xff
    2912:	00ff                	0xff
    2914:	00ff                	0xff
    2916:	0000                	unimp
    2918:	ff00                	fsw	fs0,56(a4)
    291a:	0000                	unimp
    291c:	00ff                	0xff
    291e:	0000                	unimp
    2920:	0000                	unimp
    2922:	ffff                	0xffff
    2924:	0000                	unimp
    2926:	0000                	unimp
    2928:	ff00                	fsw	fs0,56(a4)
	...
    2932:	0000                	unimp
    2934:	00ff                	0xff
    2936:	0000                	unimp
    2938:	ff00                	fsw	fs0,56(a4)
    293a:	0000                	unimp
    293c:	0000                	unimp
    293e:	0000                	unimp
    2940:	ff00                	fsw	fs0,56(a4)
    2942:	ffff                	0xffff
    2944:	0000                	unimp
    2946:	0000                	unimp
    2948:	0000                	unimp
    294a:	ff00                	fsw	fs0,56(a4)
    294c:	0000                	unimp
    294e:	0000                	unimp
    2950:	0000                	unimp
    2952:	ffff                	0xffff
    2954:	0000                	unimp
    2956:	0000                	unimp
    2958:	0000                	unimp
    295a:	00ff                	0xff
    295c:	0000                	unimp
    295e:	0000                	unimp
    2960:	ff00                	fsw	fs0,56(a4)
    2962:	ff00                	fsw	fs0,56(a4)
    2964:	0000                	unimp
    2966:	0000                	unimp
    2968:	00ff                	0xff
    296a:	0000                	unimp
    296c:	00ff                	0xff
    296e:	0000                	unimp
    2970:	0000                	unimp
    2972:	00ff                	0xff
    2974:	0000                	unimp
    2976:	0000                	unimp
    2978:	ff00                	fsw	fs0,56(a4)
    297a:	ffff                	0xffff
    297c:	00ff                	0xff
    297e:	0000                	unimp
    2980:	0000                	unimp
    2982:	00ff                	0xff
    2984:	0000                	unimp
    2986:	0000                	unimp
    2988:	0000                	unimp
    298a:	00ff                	0xff
    298c:	0000                	unimp
    298e:	0000                	unimp
    2990:	0000                	unimp
    2992:	00ff                	0xff
	...
    29a0:	ff00                	fsw	fs0,56(a4)
    29a2:	0000                	unimp
    29a4:	00ff                	0xff
	...
    29e2:	ffff                	0xffff
	...
    29f8:	ff00                	fsw	fs0,56(a4)
    29fa:	00ff                	0xff
	...
    2a28:	ff00                	fsw	fs0,56(a4)
	...
    2a32:	0000                	unimp
    2a34:	00ff                	0xff
	...
    2a6e:	0000                	unimp
    2a70:	ffff                	0xffff
	...
    2a82:	ff00                	fsw	fs0,56(a4)
    2a84:	0000                	unimp
    2a86:	0000                	unimp
    2a88:	0000                	unimp
    2a8a:	00ff                	0xff
    2a8c:	0000                	unimp
    2a8e:	0000                	unimp
    2a90:	ff00                	fsw	fs0,56(a4)
	...
    2aa2:	ffff                	0xffff
    2aa4:	0000                	unimp
    2aa6:	0000                	unimp
    2aa8:	72617453          	0x72617453
    2aac:	6974                	flw	fa3,84(a0)
    2aae:	676e                	flw	fa4,216(sp)
    2ab0:	2e2e                	fld	ft8,200(sp)
    2ab2:	0d2e                	slli	s10,s10,0xb
    2ab4:	000a                	c.slli	zero,0x2
    2ab6:	0000                	unimp
    2ab8:	0a0d                	addi	s4,s4,3
    2aba:	654e                	flw	fa0,208(sp)
    2abc:	694e6f6b          	0x694e6f6b
    2ac0:	5b20                	lw	s0,112(a4)
    2ac2:	3076                	fld	ft0,376(sp)
    2ac4:	3130                	fld	fa2,96(a0)
    2ac6:	205d                	jal	2b6c <__init_array_end+0x44>
    2ac8:	3356525b          	0x3356525b
    2acc:	4532                	lw	a0,12(sp)
    2ace:	205d                	jal	2b74 <__init_array_end+0x4c>
    2ad0:	0a0d                	addi	s4,s4,3
    2ad2:	a9c2                	fsd	fa6,208(sp)
    2ad4:	3220                	fld	fs0,96(a2)
    2ad6:	3230                	fld	fa2,96(a2)
    2ad8:	2031                	jal	2ae4 <_GLOBAL__sub_I_gpu.cpp+0x1860>
    2ada:	6e45                	lui	t3,0x11
    2adc:	206e6967          	0x206e6967
    2ae0:	616c6943          	fmadd.s	fs2,fs8,fs6,fa2,unknown
    2ae4:	0d6e7573          	csrrci	a0,0xd6,28
    2ae8:	000a                	c.slli	zero,0x2
    2aea:	0000                	unimp
    2aec:	3130                	fld	fa2,96(a0)
    2aee:	3332                	fld	ft6,296(sp)
    2af0:	3534                	fld	fa3,104(a0)
    2af2:	3736                	fld	fa4,360(sp)
    2af4:	3938                	fld	fa4,112(a0)
    2af6:	4241                	li	tp,16
    2af8:	46454443          	fmadd.q	fs0,fa0,ft4,fs0,rmm
    2afc:	0000                	unimp
    2afe:	0000                	unimp
    2b00:	2020                	fld	fs0,64(s0)
    2b02:	2020                	fld	fs0,64(s0)
    2b04:	2020                	fld	fs0,64(s0)
    2b06:	2020                	fld	fs0,64(s0)
    2b08:	2020                	fld	fs0,64(s0)
    2b0a:	2020                	fld	fs0,64(s0)
    2b0c:	2020                	fld	fs0,64(s0)
    2b0e:	2020                	fld	fs0,64(s0)
    2b10:	2020                	fld	fs0,64(s0)
    2b12:	0020                	addi	s0,sp,8
    2b14:	3130                	fld	fa2,96(a0)
    2b16:	3332                	fld	ft6,296(sp)
    2b18:	3534                	fld	fa3,104(a0)
    2b1a:	3736                	fld	fa4,360(sp)
    2b1c:	3938                	fld	fa4,112(a0)
	...

Disassembly of section .srodata:

00002b20 <_global_impure_ptr>:
    2b20:	2cd0                	fld	fa2,152(s1)
	...

Disassembly of section .init_array:

00002b24 <__init_array_start>:
    2b24:	1284                	addi	s1,sp,352
	...

Disassembly of section .eh_frame:

00002b28 <.eh_frame>:
    2b28:	0010                	0x10
    2b2a:	0000                	unimp
    2b2c:	0000                	unimp
    2b2e:	0000                	unimp
    2b30:	00527a03          	0x527a03
    2b34:	7c01                	lui	s8,0xfffe0
    2b36:	0101                	addi	sp,sp,0
    2b38:	00020d1b          	0x20d1b
    2b3c:	0010                	0x10
    2b3e:	0000                	unimp
    2b40:	0018                	0x18
    2b42:	0000                	unimp
    2b44:	d4bc                	sw	a5,104(s1)
    2b46:	ffff                	0xffff
    2b48:	0064                	addi	s1,sp,12
    2b4a:	0000                	unimp
    2b4c:	0000                	unimp
    2b4e:	0000                	unimp
    2b50:	0010                	0x10
    2b52:	0000                	unimp
    2b54:	002c                	addi	a1,sp,8
    2b56:	0000                	unimp
    2b58:	d50c                	sw	a1,40(a0)
    2b5a:	ffff                	0xffff
	...
    2b64:	0014                	0x14
    2b66:	0000                	unimp
    2b68:	0040                	addi	s0,sp,4
    2b6a:	0000                	unimp
    2b6c:	d8a4                	sw	s1,112(s1)
    2b6e:	ffff                	0xffff
    2b70:	00a8                	addi	a0,sp,72
    2b72:	0000                	unimp
    2b74:	5400                	lw	s0,40(s0)
    2b76:	200e                	fld	ft0,192(sp)
    2b78:	9002                	ebreak
    2b7a:	000e                	c.slli	zero,0x3
    2b7c:	001c                	0x1c
    2b7e:	0000                	unimp
    2b80:	0058                	addi	a4,sp,4
    2b82:	0000                	unimp
    2b84:	d934                	sw	a3,112(a0)
    2b86:	ffff                	0xffff
    2b88:	0074                	addi	a3,sp,12
    2b8a:	0000                	unimp
    2b8c:	4c00                	lw	s0,24(s0)
    2b8e:	300e                	fld	ft0,224(sp)
    2b90:	8158                	0x8158
    2b92:	0201                	addi	tp,tp,0
    2b94:	c148                	sw	a0,4(a0)
    2b96:	0e44                	addi	s1,sp,788
    2b98:	0000                	unimp
    2b9a:	0000                	unimp
    2b9c:	0020                	addi	s0,sp,8
    2b9e:	0000                	unimp
    2ba0:	0078                	addi	a4,sp,12
    2ba2:	0000                	unimp
    2ba4:	d988                	sw	a0,48(a1)
    2ba6:	ffff                	0xffff
    2ba8:	00a0                	addi	s0,sp,72
    2baa:	0000                	unimp
    2bac:	4400                	lw	s0,8(s0)
    2bae:	200e                	fld	ft0,192(sp)
    2bb0:	8964                	0x8964
    2bb2:	93049203          	lh	tp,-1744(s1)
    2bb6:	9405                	srai	s0,s0,0x21
    2bb8:	9506                	add	a0,a0,ra
    2bba:	88018107          	0x88018107
    2bbe:	0002                	c.slli64	zero
    2bc0:	0010                	0x10
    2bc2:	0000                	unimp
    2bc4:	009c                	addi	a5,sp,64
    2bc6:	0000                	unimp
    2bc8:	da04                	sw	s1,48(a2)
    2bca:	ffff                	0xffff
    2bcc:	002c                	addi	a1,sp,8
    2bce:	0000                	unimp
    2bd0:	0000                	unimp
    2bd2:	0000                	unimp
    2bd4:	0018                	0x18
    2bd6:	0000                	unimp
    2bd8:	00b0                	addi	a2,sp,72
    2bda:	0000                	unimp
    2bdc:	da1c                	sw	a5,48(a2)
    2bde:	ffff                	0xffff
    2be0:	0034                	addi	a3,sp,8
    2be2:	0000                	unimp
    2be4:	5400                	lw	s0,40(s0)
    2be6:	100e                	c.slli	zero,0x23
    2be8:	8150                	0x8150
    2bea:	4801                	li	a6,0
    2bec:	44c1                	li	s1,16
    2bee:	000e                	c.slli	zero,0x3
    2bf0:	0028                	addi	a0,sp,8
    2bf2:	0000                	unimp
    2bf4:	00cc                	addi	a1,sp,68
    2bf6:	0000                	unimp
    2bf8:	da34                	sw	a3,112(a2)
    2bfa:	ffff                	0xffff
    2bfc:	038c                	addi	a1,sp,448
    2bfe:	0000                	unimp
    2c00:	5400                	lw	s0,40(s0)
    2c02:	100e                	c.slli	zero,0x23
    2c04:	886c                	0x886c
    2c06:	0201                	addi	tp,tp,0
    2c08:	8944                	0x8944
    2c0a:	9202                	jalr	tp
    2c0c:	03049303          	lh	t1,48(s1)
    2c10:	02f0                	addi	a2,sp,332
    2c12:	44c8                	lw	a0,12(s1)
    2c14:	44c9                	li	s1,18
    2c16:	44d2                	lw	s1,20(sp)
    2c18:	000e44d3          	fadd.s	fs1,ft8,ft0,rmm
    2c1c:	0050                	addi	a2,sp,4
    2c1e:	0000                	unimp
    2c20:	00f8                	addi	a4,sp,76
    2c22:	0000                	unimp
    2c24:	dd94                	sw	a3,56(a1)
    2c26:	ffff                	0xffff
    2c28:	03f8                	addi	a4,sp,460
    2c2a:	0000                	unimp
    2c2c:	4800                	lw	s0,16(s0)
    2c2e:	300e                	fld	ft0,224(sp)
    2c30:	8868                	0x8868
    2c32:	9201                	srli	a2,a2,0x20
    2c34:	89840203          	lb	tp,-1896(s0)
    2c38:	9302                	jalr	t1
    2c3a:	9404                	0x9404
    2c3c:	9505                	srai	a0,a0,0x21
    2c3e:	9606                	add	a2,a2,ra
    2c40:	98089707          	0x98089707
    2c44:	9909                	andi	a0,a0,-30
    2c46:	030a                	slli	t1,t1,0x2
    2c48:	02f0                	addi	a2,sp,332
    2c4a:	c80a                	sw	sp,16(sp)
    2c4c:	c944                	sw	s1,20(a0)
    2c4e:	d244                	sw	s1,36(a2)
    2c50:	d344                	sw	s1,36(a4)
    2c52:	d444                	sw	s1,44(s0)
    2c54:	d544                	sw	s1,44(a0)
    2c56:	d644                	sw	s1,44(a2)
    2c58:	d744                	sw	s1,44(a4)
    2c5a:	d844                	sw	s1,52(s0)
    2c5c:	d944                	sw	s1,52(a0)
    2c5e:	0e44                	addi	s1,sp,788
    2c60:	4400                	lw	s0,8(s0)
    2c62:	000e640b          	0xe640b
    2c66:	c9c8                	sw	a0,20(a1)
    2c68:	d3d2                	sw	s4,228(sp)
    2c6a:	d5d4                	sw	a3,44(a1)
    2c6c:	d7d6                	sw	s5,236(sp)
    2c6e:	d9d8                	sw	a4,52(a1)
    2c70:	001c                	0x1c
    2c72:	0000                	unimp
    2c74:	014c                	addi	a1,sp,132
    2c76:	0000                	unimp
    2c78:	e138                	fsw	fa4,64(a0)
    2c7a:	ffff                	0xffff
    2c7c:	00f8                	addi	a4,sp,76
    2c7e:	0000                	unimp
    2c80:	5c00                	lw	s0,56(s0)
    2c82:	300e                	fld	ft0,224(sp)
    2c84:	4402                	lw	s0,0(sp)
    2c86:	0181                	addi	gp,gp,0
    2c88:	9002                	ebreak
    2c8a:	44c1                	li	s1,16
    2c8c:	000e                	c.slli	zero,0x3
    2c8e:	0000                	unimp
    2c90:	0024                	addi	s1,sp,8
    2c92:	0000                	unimp
    2c94:	016c                	addi	a1,sp,140
    2c96:	0000                	unimp
    2c98:	e210                	fsw	fa2,0(a2)
    2c9a:	ffff                	0xffff
    2c9c:	03dc                	addi	a5,sp,452
    2c9e:	0000                	unimp
    2ca0:	7800                	flw	fs0,48(s0)
    2ca2:	300e                	fld	ft0,224(sp)
    2ca4:	8150                	0x8150
    2ca6:	8801                	andi	s0,s0,0
    2ca8:	0302                	c.slli64	t1
    2caa:	0198                	addi	a4,sp,192
    2cac:	c10a                	sw	sp,128(sp)
    2cae:	c848                	sw	a0,20(s0)
    2cb0:	0e44                	addi	s1,sp,788
    2cb2:	4400                	lw	s0,8(s0)
    2cb4:	0000000b          	0xb
    2cb8:	0010                	0x10
    2cba:	0000                	unimp
    2cbc:	0194                	addi	a3,sp,192
    2cbe:	0000                	unimp
    2cc0:	e5c4                	fsw	fs1,12(a1)
    2cc2:	ffff                	0xffff
    2cc4:	0024                	addi	s1,sp,8
    2cc6:	0000                	unimp
    2cc8:	0000                	unimp
	...

Disassembly of section .data:

00002cd0 <impure_data>:
    2cd0:	0000                	unimp
    2cd2:	0000                	unimp
    2cd4:	2fbc                	fld	fa5,88(a5)
    2cd6:	0000                	unimp
    2cd8:	3024                	fld	fs1,96(s0)
    2cda:	0000                	unimp
    2cdc:	308c                	fld	fa1,32(s1)
	...
    2d76:	0000                	unimp
    2d78:	0001                	nop
    2d7a:	0000                	unimp
    2d7c:	0000                	unimp
    2d7e:	0000                	unimp
    2d80:	330e                	fld	ft6,224(sp)
    2d82:	abcd                	j	3374 <_end+0x21c>
    2d84:	1234                	addi	a3,sp,296
    2d86:	e66d                	bnez	a2,2e70 <impure_data+0x1a0>
    2d88:	deec                	sw	a1,124(a3)
    2d8a:	0005                	c.nop	1
    2d8c:	0000000b          	0xb
	...

000030f8 <IO_UARTRX>:
    30f8:	0008                	0x8
    30fa:	8000                	0x8000

000030fc <IO_UARTRXByteCount>:
    30fc:	0004                	0x4
    30fe:	8000                	0x8000

00003100 <IO_UARTTX>:
    3100:	000c                	0xc
    3102:	8000                	0x8000

00003104 <GraphicsRAMEnd>:
    3104:	0000                	unimp
    3106:	1002                	c.slli	zero,0x20

00003108 <IO_GPUCommandFIFO>:
    3108:	0000                	unimp
    310a:	8000                	0x8000

Disassembly of section .got:

0000310c <_GLOBAL_OFFSET_TABLE_>:
    310c:	0000                	unimp
    310e:	0000                	unimp
    3110:	3950                	fld	fa2,176(a0)
    3112:	0000                	unimp
    3114:	3108                	fld	fa0,32(a0)
    3116:	0000                	unimp
    3118:	30f8                	fld	fa4,224(s1)
    311a:	0000                	unimp
    311c:	3150                	fld	fa2,160(a0)
    311e:	0000                	unimp
    3120:	0078                	addi	a4,sp,12
    3122:	0000                	unimp
    3124:	3104                	fld	fs1,32(a0)
    3126:	0000                	unimp
    3128:	3144                	fld	fs1,160(a0)
    312a:	0000                	unimp
    312c:	0064                	addi	s1,sp,12
    312e:	0000                	unimp
    3130:	3100                	fld	fs0,32(a0)
    3132:	0000                	unimp
    3134:	30fc                	fld	fa5,224(s1)
    3136:	0000                	unimp
    3138:	3154                	fld	fa3,160(a0)
	...

Disassembly of section .got.plt:

0000313c <.got.plt>:
    313c:	ffff                	0xffff
    313e:	ffff                	0xffff
    3140:	0000                	unimp
	...

Disassembly of section .sbss:

00003144 <__malloc_max_total_mem>:
    3144:	0000                	unimp
	...

00003148 <__malloc_max_sbrked_mem>:
    3148:	0000                	unimp
	...

0000314c <__malloc_top_pad>:
    314c:	0000                	unimp
	...

Disassembly of section .bss:

00003150 <font>:
    3150:	0000                	unimp
	...

Disassembly of section .comment:

00000000 <.comment>:
   0:	3a434347          	fmsub.d	ft6,ft6,ft4,ft7,rmm
   4:	2820                	fld	fs0,80(s0)
   6:	29554e47          	fmsub.s	ft8,fa0,fs5,ft5,rmm
   a:	3120                	fld	fs0,96(a0)
   c:	2e30                	fld	fa2,88(a2)
   e:	2e32                	fld	ft8,264(sp)
  10:	0030                	addi	a2,sp,8

Disassembly of section .riscv.attributes:

00000000 <.riscv.attributes>:
   0:	2941                	jal	490 <_Z14LoadBinaryBlobv+0x80>
   2:	0000                	unimp
   4:	7200                	flw	fs0,32(a2)
   6:	7369                	lui	t1,0xffffa
   8:	01007663          	bgeu	zero,a6,14 <_start+0x14>
   c:	001f 0000 1004      	0x10040000001f
  12:	7205                	lui	tp,0xfffe1
  14:	3376                	fld	ft6,376(sp)
  16:	6932                	flw	fs2,12(sp)
  18:	7032                	flw	ft0,44(sp)
  1a:	5f30                	lw	a2,120(a4)
  1c:	326d                	jal	fffff9c6 <__global_pointer$+0xffffc076>
  1e:	3070                	fld	fa2,224(s0)
  20:	665f 7032 0030      	0x307032665f
  26:	0108                	addi	a0,sp,128
  28:	0b0a                	slli	s6,s6,0x2
