
./ROMnekoni.elf:     file format elf32-littleriscv
./ROMnekoni.elf
architecture: riscv:rv32, flags 0x00000112:
EXEC_P, HAS_SYMS, D_PAGED
start address 0x20000000

Program Header:
    LOAD off    0x00001000 vaddr 0x20000000 paddr 0x20000000 align 2**12
         filesz 0x000033e4 memsz 0x000033f4 flags rwx

Sections:
Idx Name          Size      VMA       LMA       File off  Algn
  0 .boot         00000064  20000000  20000000  00001000  2**2
                  CONTENTS, ALLOC, LOAD, READONLY, CODE
  1 .text         0000149c  20000064  20000064  00001064  2**2
                  CONTENTS, ALLOC, LOAD, READONLY, CODE
  2 .rodata       0000187f  20001500  20001500  00002500  2**2
                  CONTENTS, ALLOC, LOAD, READONLY, DATA
  3 .srodata      00000004  20002d80  20002d80  00003d80  2**2
                  CONTENTS, ALLOC, LOAD, READONLY, DATA
  4 .init_array   00000004  20002d84  20002d84  00003d84  2**2
                  CONTENTS, ALLOC, LOAD, DATA
  5 .eh_frame     000001e8  20002d88  20002d88  00003d88  2**2
                  CONTENTS, ALLOC, LOAD, READONLY, DATA
  6 .data         0000043c  20002f70  20002f70  00003f70  2**3
                  CONTENTS, ALLOC, LOAD, DATA
  7 .got          00000030  200033ac  200033ac  000043ac  2**2
                  CONTENTS, ALLOC, LOAD, DATA
  8 .got.plt      00000008  200033dc  200033dc  000043dc  2**2
                  CONTENTS, ALLOC, LOAD, DATA
  9 .sbss         0000000c  200033e4  200033e4  000043e4  2**2
                  ALLOC
 10 .bss          00000004  200033f0  200033f0  000043e4  2**2
                  ALLOC
 11 .comment      00000012  00000000  00000000  000043e4  2**0
                  CONTENTS, READONLY
 12 .riscv.attributes 00000020  00000000  00000000  000043f6  2**0
                  CONTENTS, READONLY
SYMBOL TABLE:
20000000 l    d  .boot	00000000 .boot
20000064 l    d  .text	00000000 .text
20001500 l    d  .rodata	00000000 .rodata
20002d80 l    d  .srodata	00000000 .srodata
20002d84 l    d  .init_array	00000000 .init_array
20002d88 l    d  .eh_frame	00000000 .eh_frame
20002f70 l    d  .data	00000000 .data
200033ac l    d  .got	00000000 .got
200033dc l    d  .got.plt	00000000 .got.plt
200033e4 l    d  .sbss	00000000 .sbss
200033f0 l    d  .bss	00000000 .bss
00000000 l    d  .comment	00000000 .comment
00000000 l    d  .riscv.attributes	00000000 .riscv.attributes
00000000 l    df *ABS*	00000000 rom.cpp
2000004c l       .boot	00000000 noatexitfound
00000000 l    df *ABS*	00000000 atexit.c
00000000 l    df *ABS*	00000000 fini.c
00000000 l    df *ABS*	00000000 init.c
00000000 l    df *ABS*	00000000 memcpy.c
00000000 l    df *ABS*	00000000 __atexit.c
00000000 l    df *ABS*	00000000 uart.cpp
00000000 l    df *ABS*	00000000 gpu.cpp
200014e4 l     F .text	0000001c _GLOBAL__sub_I_gpu.cpp
00000000 l    df *ABS*	00000000 impure.c
20002f70 l     O .data	00000428 impure_data
00000000 l    df *ABS*	00000000 debugger.cpp
00000000 l    df *ABS*	00000000 sdcard.cpp
00000000 l    df *ABS*	00000000 core.cpp
00000000 l    df *ABS*	00000000 console.cpp
00000000 l    df *ABS*	00000000 
20002d7f l       .init_array	00000000 __fini_array_end
20002d7f l       .init_array	00000000 __fini_array_start
20002d88 l       .init_array	00000000 __init_array_end
20002d7f l       .init_array	00000000 __preinit_array_end
200033ac l     O .got	00000000 _GLOBAL_OFFSET_TABLE_
20002d84 l       .init_array	00000000 __init_array_start
20002d7f l       .init_array	00000000 __preinit_array_start
200005ec g     F .text	00000074 _Z13RunBinaryBlobv
20003bf0 g       *ABS*	00000000 __global_pointer$
20002f70 g       .data	00000000 _fdata
200033a8 g     O .data	00000004 IO_GPUCommandFIFO
200033a4 g     O .data	00000004 GraphicsFontStart
200008a0 g     F .text	00000344 _Z8PrintDMAiiPKcb
20002d7f g       .rodata	00000000 _etext
20003bf0 g       .sbss	00000000 _gp
20003398 g     O .data	00000004 IO_UARTRX
20000064 g       .boot	00000000 _boot
200033f0 g     O .bss	00000004 font
20000170 g     F .text	00000128 memcpy
20000418 g     F .text	00000048 .hidden __udivsi3
200033f0 g       .bss	00000000 _bss_start
200033ec g     O .sbss	00000004 __malloc_top_pad
200033e8 g     O .sbss	00000004 __malloc_max_sbrked_mem
20002d80 g     O .srodata	00000004 _global_impure_ptr
200000d4 g     F .text	0000009c __libc_init_array
200033f4 g       .bss	00000000 _bss_end
20000078 g     F .text	0000005c __libc_fini_array
20000460 g     F .text	00000010 .hidden __umodsi3
20000064 g       .boot	00000000 _ftext
20000000 g     F .boot	00000064 _start
20000374 g     F .text	0000009c __register_exitproc
00000a00 g       *ABS*	00000000 _STACK_SIZE
2000086c g     F .text	00000034 _Z8InitFontv
20000298 g     F .text	000000dc memset
20000660 g     F .text	000000a4 main
200004c4 g     F .text	00000128 _Z14LoadBinaryBlobv
200033e4 g     O .sbss	00000004 __malloc_max_total_mem
20000730 g     F .text	0000013c _Z7EchoHexm
20000410 g     F .text	00000084 .hidden __divsi3
20000064 g     F .text	00000014 atexit
200033a0 g     O .data	00000004 IO_UARTTX
20000f80 g     F .text	000000f8 _Z11PrintDMAHexiim
2000339c g     O .data	00000004 IO_UARTRXByteCount
200033f4 g       .bss	00000000 __BSS_END__$
20000704 g     F .text	0000002c _Z8EchoUARTPKc
20000be4 g     F .text	0000039c _Z8PrintDMAiiiPKcb
200033ac g       .data	00000000 _edata
200033f8 g       .bss	00000000 _end
20000494 g     F .text	00000030 .hidden __modsi3
20000064 g     F .boot	00000000 _exit
20001078 g     F .text	0000046c _Z15PrintDMADecimaliiib
200033f0 g       .sbss	00000000 _fbss



Disassembly of section .boot:

20000000 <_start>:
20000000:	00003197          	auipc	gp,0x3
20000004:	3b01a183          	lw	gp,944(gp) # 200033b0 <_GLOBAL_OFFSET_TABLE_+0x4>
20000008:	20008137          	lui	sp,0x20008
2000000c:	ff010113          	addi	sp,sp,-16 # 20007ff0 <__global_pointer$+0x4400>
20000010:	00010413          	mv	s0,sp
20000014:	00003517          	auipc	a0,0x3
20000018:	3b452503          	lw	a0,948(a0) # 200033c8 <_GLOBAL_OFFSET_TABLE_+0x1c>
2000001c:	00003617          	auipc	a2,0x3
20000020:	3bc62603          	lw	a2,956(a2) # 200033d8 <_GLOBAL_OFFSET_TABLE_+0x2c>
20000024:	40a60633          	sub	a2,a2,a0
20000028:	00000593          	li	a1,0
2000002c:	26c000ef          	jal	ra,20000298 <memset>
20000030:	00003517          	auipc	a0,0x3
20000034:	39c52503          	lw	a0,924(a0) # 200033cc <_GLOBAL_OFFSET_TABLE_+0x20>
20000038:	00050a63          	beqz	a0,2000004c <noatexitfound>
2000003c:	00001517          	auipc	a0,0x1
20000040:	00003517          	auipc	a0,0x3
20000044:	38452503          	lw	a0,900(a0) # 200033c4 <_GLOBAL_OFFSET_TABLE_+0x18>
20000048:	01c000ef          	jal	ra,20000064 <_exit>

2000004c <noatexitfound>:
2000004c:	088000ef          	jal	ra,200000d4 <__libc_init_array>
20000050:	00012503          	lw	a0,0(sp)
20000054:	00410593          	addi	a1,sp,4
20000058:	00000613          	li	a2,0
2000005c:	6040006f          	j	20000660 <main>
20000060:	00100073          	ebreak

Disassembly of section .text:

20000064 <atexit>:
20000064:	00050593          	mv	a1,a0
20000068:	00000693          	li	a3,0
2000006c:	00000613          	li	a2,0
20000070:	00000513          	li	a0,0
20000074:	3000006f          	j	20000374 <__register_exitproc>

20000078 <__libc_fini_array>:
20000078:	ff010113          	addi	sp,sp,-16
2000007c:	00812423          	sw	s0,8(sp)
20000080:	200037b7          	lui	a5,0x20003
20000084:	20003437          	lui	s0,0x20003
20000088:	d7f40413          	addi	s0,s0,-641 # 20002d7f <_etext>
2000008c:	d7f78793          	addi	a5,a5,-641 # 20002d7f <_etext>
20000090:	408787b3          	sub	a5,a5,s0
20000094:	00912223          	sw	s1,4(sp)
20000098:	00112623          	sw	ra,12(sp)
2000009c:	4027d493          	srai	s1,a5,0x2
200000a0:	02048063          	beqz	s1,200000c0 <__libc_fini_array+0x48>
200000a4:	ffc78793          	addi	a5,a5,-4
200000a8:	00878433          	add	s0,a5,s0
200000ac:	00042783          	lw	a5,0(s0)
200000b0:	fff48493          	addi	s1,s1,-1
200000b4:	ffc40413          	addi	s0,s0,-4
200000b8:	000780e7          	jalr	a5
200000bc:	fe0498e3          	bnez	s1,200000ac <__libc_fini_array+0x34>
200000c0:	00c12083          	lw	ra,12(sp)
200000c4:	00812403          	lw	s0,8(sp)
200000c8:	00412483          	lw	s1,4(sp)
200000cc:	01010113          	addi	sp,sp,16
200000d0:	00008067          	ret

200000d4 <__libc_init_array>:
200000d4:	ff010113          	addi	sp,sp,-16
200000d8:	00812423          	sw	s0,8(sp)
200000dc:	01212023          	sw	s2,0(sp)
200000e0:	20003437          	lui	s0,0x20003
200000e4:	20003937          	lui	s2,0x20003
200000e8:	d7f40793          	addi	a5,s0,-641 # 20002d7f <_etext>
200000ec:	d7f90913          	addi	s2,s2,-641 # 20002d7f <_etext>
200000f0:	40f90933          	sub	s2,s2,a5
200000f4:	00112623          	sw	ra,12(sp)
200000f8:	00912223          	sw	s1,4(sp)
200000fc:	40295913          	srai	s2,s2,0x2
20000100:	02090063          	beqz	s2,20000120 <__libc_init_array+0x4c>
20000104:	d7f40413          	addi	s0,s0,-641
20000108:	00000493          	li	s1,0
2000010c:	00042783          	lw	a5,0(s0)
20000110:	00148493          	addi	s1,s1,1
20000114:	00440413          	addi	s0,s0,4
20000118:	000780e7          	jalr	a5
2000011c:	fe9918e3          	bne	s2,s1,2000010c <__libc_init_array+0x38>
20000120:	20003437          	lui	s0,0x20003
20000124:	20003937          	lui	s2,0x20003
20000128:	d8440793          	addi	a5,s0,-636 # 20002d84 <__init_array_start>
2000012c:	d8890913          	addi	s2,s2,-632 # 20002d88 <__init_array_end>
20000130:	40f90933          	sub	s2,s2,a5
20000134:	40295913          	srai	s2,s2,0x2
20000138:	02090063          	beqz	s2,20000158 <__libc_init_array+0x84>
2000013c:	d8440413          	addi	s0,s0,-636
20000140:	00000493          	li	s1,0
20000144:	00042783          	lw	a5,0(s0)
20000148:	00148493          	addi	s1,s1,1
2000014c:	00440413          	addi	s0,s0,4
20000150:	000780e7          	jalr	a5
20000154:	fe9918e3          	bne	s2,s1,20000144 <__libc_init_array+0x70>
20000158:	00c12083          	lw	ra,12(sp)
2000015c:	00812403          	lw	s0,8(sp)
20000160:	00412483          	lw	s1,4(sp)
20000164:	00012903          	lw	s2,0(sp)
20000168:	01010113          	addi	sp,sp,16
2000016c:	00008067          	ret

20000170 <memcpy>:
20000170:	00a5c7b3          	xor	a5,a1,a0
20000174:	0037f793          	andi	a5,a5,3
20000178:	00c508b3          	add	a7,a0,a2
2000017c:	06079663          	bnez	a5,200001e8 <memcpy+0x78>
20000180:	00300793          	li	a5,3
20000184:	06c7f263          	bgeu	a5,a2,200001e8 <memcpy+0x78>
20000188:	00357793          	andi	a5,a0,3
2000018c:	00050713          	mv	a4,a0
20000190:	0c079a63          	bnez	a5,20000264 <memcpy+0xf4>
20000194:	ffc8f613          	andi	a2,a7,-4
20000198:	40e606b3          	sub	a3,a2,a4
2000019c:	02000793          	li	a5,32
200001a0:	02000293          	li	t0,32
200001a4:	06d7c263          	blt	a5,a3,20000208 <memcpy+0x98>
200001a8:	00058693          	mv	a3,a1
200001ac:	00070793          	mv	a5,a4
200001b0:	02c77863          	bgeu	a4,a2,200001e0 <memcpy+0x70>
200001b4:	0006a803          	lw	a6,0(a3)
200001b8:	00478793          	addi	a5,a5,4
200001bc:	00468693          	addi	a3,a3,4
200001c0:	ff07ae23          	sw	a6,-4(a5)
200001c4:	fec7e8e3          	bltu	a5,a2,200001b4 <memcpy+0x44>
200001c8:	fff60793          	addi	a5,a2,-1
200001cc:	40e787b3          	sub	a5,a5,a4
200001d0:	ffc7f793          	andi	a5,a5,-4
200001d4:	00478793          	addi	a5,a5,4
200001d8:	00f70733          	add	a4,a4,a5
200001dc:	00f585b3          	add	a1,a1,a5
200001e0:	01176863          	bltu	a4,a7,200001f0 <memcpy+0x80>
200001e4:	00008067          	ret
200001e8:	00050713          	mv	a4,a0
200001ec:	ff157ce3          	bgeu	a0,a7,200001e4 <memcpy+0x74>
200001f0:	0005c783          	lbu	a5,0(a1)
200001f4:	00170713          	addi	a4,a4,1
200001f8:	00158593          	addi	a1,a1,1
200001fc:	fef70fa3          	sb	a5,-1(a4)
20000200:	ff1768e3          	bltu	a4,a7,200001f0 <memcpy+0x80>
20000204:	00008067          	ret
20000208:	0045a683          	lw	a3,4(a1)
2000020c:	01c5a783          	lw	a5,28(a1)
20000210:	0005af83          	lw	t6,0(a1)
20000214:	0085af03          	lw	t5,8(a1)
20000218:	00c5ae83          	lw	t4,12(a1)
2000021c:	0105ae03          	lw	t3,16(a1)
20000220:	0145a303          	lw	t1,20(a1)
20000224:	0185a803          	lw	a6,24(a1)
20000228:	00d72223          	sw	a3,4(a4)
2000022c:	0205a683          	lw	a3,32(a1)
20000230:	01f72023          	sw	t6,0(a4)
20000234:	01e72423          	sw	t5,8(a4)
20000238:	01d72623          	sw	t4,12(a4)
2000023c:	01c72823          	sw	t3,16(a4)
20000240:	00672a23          	sw	t1,20(a4)
20000244:	01072c23          	sw	a6,24(a4)
20000248:	00f72e23          	sw	a5,28(a4)
2000024c:	02470713          	addi	a4,a4,36
20000250:	40e607b3          	sub	a5,a2,a4
20000254:	fed72e23          	sw	a3,-4(a4)
20000258:	02458593          	addi	a1,a1,36
2000025c:	faf2c6e3          	blt	t0,a5,20000208 <memcpy+0x98>
20000260:	f49ff06f          	j	200001a8 <memcpy+0x38>
20000264:	0005c683          	lbu	a3,0(a1)
20000268:	00170713          	addi	a4,a4,1
2000026c:	00377793          	andi	a5,a4,3
20000270:	fed70fa3          	sb	a3,-1(a4)
20000274:	00158593          	addi	a1,a1,1
20000278:	f0078ee3          	beqz	a5,20000194 <memcpy+0x24>
2000027c:	0005c683          	lbu	a3,0(a1)
20000280:	00170713          	addi	a4,a4,1
20000284:	00377793          	andi	a5,a4,3
20000288:	fed70fa3          	sb	a3,-1(a4)
2000028c:	00158593          	addi	a1,a1,1
20000290:	fc079ae3          	bnez	a5,20000264 <memcpy+0xf4>
20000294:	f01ff06f          	j	20000194 <memcpy+0x24>

20000298 <memset>:
20000298:	00f00313          	li	t1,15
2000029c:	00050713          	mv	a4,a0
200002a0:	02c37e63          	bgeu	t1,a2,200002dc <memset+0x44>
200002a4:	00f77793          	andi	a5,a4,15
200002a8:	0a079063          	bnez	a5,20000348 <memset+0xb0>
200002ac:	08059263          	bnez	a1,20000330 <memset+0x98>
200002b0:	ff067693          	andi	a3,a2,-16
200002b4:	00f67613          	andi	a2,a2,15
200002b8:	00e686b3          	add	a3,a3,a4
200002bc:	00b72023          	sw	a1,0(a4)
200002c0:	00b72223          	sw	a1,4(a4)
200002c4:	00b72423          	sw	a1,8(a4)
200002c8:	00b72623          	sw	a1,12(a4)
200002cc:	01070713          	addi	a4,a4,16
200002d0:	fed766e3          	bltu	a4,a3,200002bc <memset+0x24>
200002d4:	00061463          	bnez	a2,200002dc <memset+0x44>
200002d8:	00008067          	ret
200002dc:	40c306b3          	sub	a3,t1,a2
200002e0:	00269693          	slli	a3,a3,0x2
200002e4:	00000297          	auipc	t0,0x0
200002e8:	005686b3          	add	a3,a3,t0
200002ec:	00c68067          	jr	12(a3)
200002f0:	00b70723          	sb	a1,14(a4)
200002f4:	00b706a3          	sb	a1,13(a4)
200002f8:	00b70623          	sb	a1,12(a4)
200002fc:	00b705a3          	sb	a1,11(a4)
20000300:	00b70523          	sb	a1,10(a4)
20000304:	00b704a3          	sb	a1,9(a4)
20000308:	00b70423          	sb	a1,8(a4)
2000030c:	00b703a3          	sb	a1,7(a4)
20000310:	00b70323          	sb	a1,6(a4)
20000314:	00b702a3          	sb	a1,5(a4)
20000318:	00b70223          	sb	a1,4(a4)
2000031c:	00b701a3          	sb	a1,3(a4)
20000320:	00b70123          	sb	a1,2(a4)
20000324:	00b700a3          	sb	a1,1(a4)
20000328:	00b70023          	sb	a1,0(a4)
2000032c:	00008067          	ret
20000330:	0ff5f593          	andi	a1,a1,255
20000334:	00859693          	slli	a3,a1,0x8
20000338:	00d5e5b3          	or	a1,a1,a3
2000033c:	01059693          	slli	a3,a1,0x10
20000340:	00d5e5b3          	or	a1,a1,a3
20000344:	f6dff06f          	j	200002b0 <memset+0x18>
20000348:	00279693          	slli	a3,a5,0x2
2000034c:	00000297          	auipc	t0,0x0
20000350:	005686b3          	add	a3,a3,t0
20000354:	00008293          	mv	t0,ra
20000358:	fa0680e7          	jalr	-96(a3)
2000035c:	00028093          	mv	ra,t0
20000360:	ff078793          	addi	a5,a5,-16
20000364:	40f70733          	sub	a4,a4,a5
20000368:	00f60633          	add	a2,a2,a5
2000036c:	f6c378e3          	bgeu	t1,a2,200002dc <memset+0x44>
20000370:	f3dff06f          	j	200002ac <memset+0x14>

20000374 <__register_exitproc>:
20000374:	200037b7          	lui	a5,0x20003
20000378:	d807a703          	lw	a4,-640(a5) # 20002d80 <_global_impure_ptr>
2000037c:	14872783          	lw	a5,328(a4)
20000380:	04078c63          	beqz	a5,200003d8 <__register_exitproc+0x64>
20000384:	0047a703          	lw	a4,4(a5)
20000388:	01f00813          	li	a6,31
2000038c:	06e84e63          	blt	a6,a4,20000408 <__register_exitproc+0x94>
20000390:	00271813          	slli	a6,a4,0x2
20000394:	02050663          	beqz	a0,200003c0 <__register_exitproc+0x4c>
20000398:	01078333          	add	t1,a5,a6
2000039c:	08c32423          	sw	a2,136(t1)
200003a0:	1887a883          	lw	a7,392(a5)
200003a4:	00100613          	li	a2,1
200003a8:	00e61633          	sll	a2,a2,a4
200003ac:	00c8e8b3          	or	a7,a7,a2
200003b0:	1917a423          	sw	a7,392(a5)
200003b4:	10d32423          	sw	a3,264(t1)
200003b8:	00200693          	li	a3,2
200003bc:	02d50463          	beq	a0,a3,200003e4 <__register_exitproc+0x70>
200003c0:	00170713          	addi	a4,a4,1
200003c4:	00e7a223          	sw	a4,4(a5)
200003c8:	010787b3          	add	a5,a5,a6
200003cc:	00b7a423          	sw	a1,8(a5)
200003d0:	00000513          	li	a0,0
200003d4:	00008067          	ret
200003d8:	14c70793          	addi	a5,a4,332
200003dc:	14f72423          	sw	a5,328(a4)
200003e0:	fa5ff06f          	j	20000384 <__register_exitproc+0x10>
200003e4:	18c7a683          	lw	a3,396(a5)
200003e8:	00170713          	addi	a4,a4,1
200003ec:	00e7a223          	sw	a4,4(a5)
200003f0:	00c6e633          	or	a2,a3,a2
200003f4:	18c7a623          	sw	a2,396(a5)
200003f8:	010787b3          	add	a5,a5,a6
200003fc:	00b7a423          	sw	a1,8(a5)
20000400:	00000513          	li	a0,0
20000404:	00008067          	ret
20000408:	fff00513          	li	a0,-1
2000040c:	00008067          	ret

20000410 <__divsi3>:
20000410:	06054063          	bltz	a0,20000470 <__umodsi3+0x10>
20000414:	0605c663          	bltz	a1,20000480 <__umodsi3+0x20>

20000418 <__udivsi3>:
20000418:	00058613          	mv	a2,a1
2000041c:	00050593          	mv	a1,a0
20000420:	fff00513          	li	a0,-1
20000424:	02060c63          	beqz	a2,2000045c <__udivsi3+0x44>
20000428:	00100693          	li	a3,1
2000042c:	00b67a63          	bgeu	a2,a1,20000440 <__udivsi3+0x28>
20000430:	00c05863          	blez	a2,20000440 <__udivsi3+0x28>
20000434:	00161613          	slli	a2,a2,0x1
20000438:	00169693          	slli	a3,a3,0x1
2000043c:	feb66ae3          	bltu	a2,a1,20000430 <__udivsi3+0x18>
20000440:	00000513          	li	a0,0
20000444:	00c5e663          	bltu	a1,a2,20000450 <__udivsi3+0x38>
20000448:	40c585b3          	sub	a1,a1,a2
2000044c:	00d56533          	or	a0,a0,a3
20000450:	0016d693          	srli	a3,a3,0x1
20000454:	00165613          	srli	a2,a2,0x1
20000458:	fe0696e3          	bnez	a3,20000444 <__udivsi3+0x2c>
2000045c:	00008067          	ret

20000460 <__umodsi3>:
20000460:	00008293          	mv	t0,ra
20000464:	fb5ff0ef          	jal	ra,20000418 <__udivsi3>
20000468:	00058513          	mv	a0,a1
2000046c:	00028067          	jr	t0 # 2000034c <memset+0xb4>
20000470:	40a00533          	neg	a0,a0
20000474:	00b04863          	bgtz	a1,20000484 <__umodsi3+0x24>
20000478:	40b005b3          	neg	a1,a1
2000047c:	f9dff06f          	j	20000418 <__udivsi3>
20000480:	40b005b3          	neg	a1,a1
20000484:	00008293          	mv	t0,ra
20000488:	f91ff0ef          	jal	ra,20000418 <__udivsi3>
2000048c:	40a00533          	neg	a0,a0
20000490:	00028067          	jr	t0

20000494 <__modsi3>:
20000494:	00008293          	mv	t0,ra
20000498:	0005ca63          	bltz	a1,200004ac <__modsi3+0x18>
2000049c:	00054c63          	bltz	a0,200004b4 <__modsi3+0x20>
200004a0:	f79ff0ef          	jal	ra,20000418 <__udivsi3>
200004a4:	00058513          	mv	a0,a1
200004a8:	00028067          	jr	t0
200004ac:	40b005b3          	neg	a1,a1
200004b0:	fe0558e3          	bgez	a0,200004a0 <__modsi3+0xc>
200004b4:	40a00533          	neg	a0,a0
200004b8:	f61ff0ef          	jal	ra,20000418 <__udivsi3>
200004bc:	40b00533          	neg	a0,a1
200004c0:	00028067          	jr	t0

200004c4 <_Z14LoadBinaryBlobv>:
200004c4:	fc010113          	addi	sp,sp,-64
200004c8:	03212823          	sw	s2,48(sp)
200004cc:	03512223          	sw	s5,36(sp)
200004d0:	00003917          	auipc	s2,0x3
200004d4:	f0492903          	lw	s2,-252(s2) # 200033d4 <_GLOBAL_OFFSET_TABLE_+0x28>
200004d8:	00003a97          	auipc	s5,0x3
200004dc:	ee4aaa83          	lw	s5,-284(s5) # 200033bc <_GLOBAL_OFFSET_TABLE_+0x10>
200004e0:	00092783          	lw	a5,0(s2)
200004e4:	000aa583          	lw	a1,0(s5)
200004e8:	01c10613          	addi	a2,sp,28
200004ec:	02010713          	addi	a4,sp,32
200004f0:	02112e23          	sw	ra,60(sp)
200004f4:	02812c23          	sw	s0,56(sp)
200004f8:	02912a23          	sw	s1,52(sp)
200004fc:	03312623          	sw	s3,44(sp)
20000500:	03412423          	sw	s4,40(sp)
20000504:	03612023          	sw	s6,32(sp)
20000508:	00012c23          	sw	zero,24(sp)
2000050c:	00012e23          	sw	zero,28(sp)
20000510:	00060693          	mv	a3,a2
20000514:	00e12623          	sw	a4,12(sp)
20000518:	0007a703          	lw	a4,0(a5)
2000051c:	fe070ee3          	beqz	a4,20000518 <_Z14LoadBinaryBlobv+0x54>
20000520:	0005c703          	lbu	a4,0(a1)
20000524:	00168693          	addi	a3,a3,1
20000528:	fee68fa3          	sb	a4,-1(a3)
2000052c:	00c12703          	lw	a4,12(sp)
20000530:	fee694e3          	bne	a3,a4,20000518 <_Z14LoadBinaryBlobv+0x54>
20000534:	01810693          	addi	a3,sp,24
20000538:	0007a703          	lw	a4,0(a5)
2000053c:	fe070ee3          	beqz	a4,20000538 <_Z14LoadBinaryBlobv+0x74>
20000540:	0005c703          	lbu	a4,0(a1)
20000544:	00168693          	addi	a3,a3,1
20000548:	fee68fa3          	sb	a4,-1(a3)
2000054c:	fec696e3          	bne	a3,a2,20000538 <_Z14LoadBinaryBlobv+0x74>
20000550:	01812483          	lw	s1,24(sp)
20000554:	00048513          	mv	a0,s1
20000558:	1d8000ef          	jal	ra,20000730 <_Z7EchoHexm>
2000055c:	01c12783          	lw	a5,28(sp)
20000560:	00092703          	lw	a4,0(s2)
20000564:	04048663          	beqz	s1,200005b0 <_Z14LoadBinaryBlobv+0xec>
20000568:	00002a37          	lui	s4,0x2
2000056c:	00000413          	li	s0,0
20000570:	fff78993          	addi	s3,a5,-1
20000574:	fffa0a13          	addi	s4,s4,-1 # 1fff <_STACK_SIZE+0x15ff>
20000578:	00002b17          	auipc	s6,0x2
2000057c:	788b0b13          	addi	s6,s6,1928 # 20002d00 <_GLOBAL__sub_I_gpu.cpp+0x181c>
20000580:	00072783          	lw	a5,0(a4)
20000584:	fe078ee3          	beqz	a5,20000580 <_Z14LoadBinaryBlobv+0xbc>
20000588:	000aa783          	lw	a5,0(s5)
2000058c:	00140413          	addi	s0,s0,1
20000590:	008986b3          	add	a3,s3,s0
20000594:	0007c783          	lbu	a5,0(a5)
20000598:	01447733          	and	a4,s0,s4
2000059c:	0ff7f793          	andi	a5,a5,255
200005a0:	00f68023          	sb	a5,0(a3)
200005a4:	02070e63          	beqz	a4,200005e0 <_Z14LoadBinaryBlobv+0x11c>
200005a8:	00092703          	lw	a4,0(s2)
200005ac:	fc849ae3          	bne	s1,s0,20000580 <_Z14LoadBinaryBlobv+0xbc>
200005b0:	03812403          	lw	s0,56(sp)
200005b4:	03c12083          	lw	ra,60(sp)
200005b8:	03412483          	lw	s1,52(sp)
200005bc:	03012903          	lw	s2,48(sp)
200005c0:	02c12983          	lw	s3,44(sp)
200005c4:	02812a03          	lw	s4,40(sp)
200005c8:	02412a83          	lw	s5,36(sp)
200005cc:	02012b03          	lw	s6,32(sp)
200005d0:	00002517          	auipc	a0,0x2
200005d4:	73450513          	addi	a0,a0,1844 # 20002d04 <_GLOBAL__sub_I_gpu.cpp+0x1820>
200005d8:	04010113          	addi	sp,sp,64
200005dc:	1280006f          	j	20000704 <_Z8EchoUARTPKc>
200005e0:	000b0513          	mv	a0,s6
200005e4:	120000ef          	jal	ra,20000704 <_Z8EchoUARTPKc>
200005e8:	fc1ff06f          	j	200005a8 <_Z14LoadBinaryBlobv+0xe4>

200005ec <_Z13RunBinaryBlobv>:
200005ec:	00003797          	auipc	a5,0x3
200005f0:	de87a783          	lw	a5,-536(a5) # 200033d4 <_GLOBAL_OFFSET_TABLE_+0x28>
200005f4:	fd010113          	addi	sp,sp,-48
200005f8:	0007a703          	lw	a4,0(a5)
200005fc:	00003797          	auipc	a5,0x3
20000600:	dc07a783          	lw	a5,-576(a5) # 200033bc <_GLOBAL_OFFSET_TABLE_+0x10>
20000604:	0007a603          	lw	a2,0(a5)
20000608:	02010793          	addi	a5,sp,32
2000060c:	02112623          	sw	ra,44(sp)
20000610:	00012e23          	sw	zero,28(sp)
20000614:	01c10693          	addi	a3,sp,28
20000618:	00f12623          	sw	a5,12(sp)
2000061c:	00072783          	lw	a5,0(a4)
20000620:	fe078ee3          	beqz	a5,2000061c <_Z13RunBinaryBlobv+0x30>
20000624:	00064783          	lbu	a5,0(a2)
20000628:	00168693          	addi	a3,a3,1
2000062c:	fef68fa3          	sb	a5,-1(a3)
20000630:	00c12783          	lw	a5,12(sp)
20000634:	fed794e3          	bne	a5,a3,2000061c <_Z13RunBinaryBlobv+0x30>
20000638:	00002517          	auipc	a0,0x2
2000063c:	6d050513          	addi	a0,a0,1744 # 20002d08 <_GLOBAL__sub_I_gpu.cpp+0x1824>
20000640:	0c4000ef          	jal	ra,20000704 <_Z8EchoUARTPKc>
20000644:	01c12083          	lw	ra,28(sp)
20000648:	0ffff637          	lui	a2,0xffff
2000064c:	00060113          	mv	sp,a2
20000650:	00008067          	ret
20000654:	02c12083          	lw	ra,44(sp)
20000658:	03010113          	addi	sp,sp,48
2000065c:	00008067          	ret

20000660 <main>:
20000660:	fe010113          	addi	sp,sp,-32
20000664:	00002517          	auipc	a0,0x2
20000668:	6b050513          	addi	a0,a0,1712 # 20002d14 <_GLOBAL__sub_I_gpu.cpp+0x1830>
2000066c:	00912a23          	sw	s1,20(sp)
20000670:	01212823          	sw	s2,16(sp)
20000674:	01312623          	sw	s3,12(sp)
20000678:	01412423          	sw	s4,8(sp)
2000067c:	01512223          	sw	s5,4(sp)
20000680:	01612023          	sw	s6,0(sp)
20000684:	00112e23          	sw	ra,28(sp)
20000688:	00812c23          	sw	s0,24(sp)
2000068c:	078000ef          	jal	ra,20000704 <_Z8EchoUARTPKc>
20000690:	00003a17          	auipc	s4,0x3
20000694:	d44a2a03          	lw	s4,-700(s4) # 200033d4 <_GLOBAL_OFFSET_TABLE_+0x28>
20000698:	0ff00693          	li	a3,255
2000069c:	00003997          	auipc	s3,0x3
200006a0:	d209a983          	lw	s3,-736(s3) # 200033bc <_GLOBAL_OFFSET_TABLE_+0x10>
200006a4:	00003917          	auipc	s2,0x3
200006a8:	d2c92903          	lw	s2,-724(s2) # 200033d0 <_GLOBAL_OFFSET_TABLE_+0x24>
200006ac:	00d00493          	li	s1,13
200006b0:	04200a93          	li	s5,66
200006b4:	05200b13          	li	s6,82
200006b8:	000a2703          	lw	a4,0(s4)
200006bc:	00072783          	lw	a5,0(a4)
200006c0:	fe078ee3          	beqz	a5,200006bc <main+0x5c>
200006c4:	0009a703          	lw	a4,0(s3)
200006c8:	00092783          	lw	a5,0(s2)
200006cc:	00074403          	lbu	s0,0(a4)
200006d0:	0ff47413          	andi	s0,s0,255
200006d4:	00878023          	sb	s0,0(a5)
200006d8:	00940663          	beq	s0,s1,200006e4 <main+0x84>
200006dc:	00040693          	mv	a3,s0
200006e0:	fd9ff06f          	j	200006b8 <main+0x58>
200006e4:	01568a63          	beq	a3,s5,200006f8 <main+0x98>
200006e8:	ff669ae3          	bne	a3,s6,200006dc <main+0x7c>
200006ec:	f01ff0ef          	jal	ra,200005ec <_Z13RunBinaryBlobv>
200006f0:	00040693          	mv	a3,s0
200006f4:	fc5ff06f          	j	200006b8 <main+0x58>
200006f8:	dcdff0ef          	jal	ra,200004c4 <_Z14LoadBinaryBlobv>
200006fc:	00040693          	mv	a3,s0
20000700:	fb9ff06f          	j	200006b8 <main+0x58>

20000704 <_Z8EchoUARTPKc>:
20000704:	00054783          	lbu	a5,0(a0)
20000708:	02078263          	beqz	a5,2000072c <_Z8EchoUARTPKc+0x28>
2000070c:	00150513          	addi	a0,a0,1
20000710:	00003697          	auipc	a3,0x3
20000714:	cc06a683          	lw	a3,-832(a3) # 200033d0 <_GLOBAL_OFFSET_TABLE_+0x24>
20000718:	0006a703          	lw	a4,0(a3)
2000071c:	00150513          	addi	a0,a0,1
20000720:	00f70023          	sb	a5,0(a4)
20000724:	fff54783          	lbu	a5,-1(a0)
20000728:	fe0798e3          	bnez	a5,20000718 <_Z8EchoUARTPKc+0x14>
2000072c:	00008067          	ret

20000730 <_Z7EchoHexm>:
20000730:	00002617          	auipc	a2,0x2
20000734:	61c60613          	addi	a2,a2,1564 # 20002d4c <_GLOBAL__sub_I_gpu.cpp+0x1868>
20000738:	00c62803          	lw	a6,12(a2)
2000073c:	00062e03          	lw	t3,0(a2)
20000740:	00462303          	lw	t1,4(a2)
20000744:	00862883          	lw	a7,8(a2)
20000748:	fd010113          	addi	sp,sp,-48
2000074c:	00c55793          	srli	a5,a0,0xc
20000750:	00855693          	srli	a3,a0,0x8
20000754:	01855713          	srli	a4,a0,0x18
20000758:	01012c23          	sw	a6,24(sp)
2000075c:	01c55593          	srli	a1,a0,0x1c
20000760:	02010813          	addi	a6,sp,32
20000764:	00f7f793          	andi	a5,a5,15
20000768:	00f6f693          	andi	a3,a3,15
2000076c:	00f77713          	andi	a4,a4,15
20000770:	02112623          	sw	ra,44(sp)
20000774:	01112a23          	sw	a7,20(sp)
20000778:	01c12623          	sw	t3,12(sp)
2000077c:	00612823          	sw	t1,16(sp)
20000780:	00d806b3          	add	a3,a6,a3
20000784:	00b805b3          	add	a1,a6,a1
20000788:	00e80733          	add	a4,a6,a4
2000078c:	00f807b3          	add	a5,a6,a5
20000790:	00455893          	srli	a7,a0,0x4
20000794:	01455813          	srli	a6,a0,0x14
20000798:	fec6ce83          	lbu	t4,-20(a3)
2000079c:	fec74e03          	lbu	t3,-20(a4)
200007a0:	fec5c683          	lbu	a3,-20(a1)
200007a4:	02010713          	addi	a4,sp,32
200007a8:	fec7c783          	lbu	a5,-20(a5)
200007ac:	00f8f893          	andi	a7,a7,15
200007b0:	00f87813          	andi	a6,a6,15
200007b4:	011708b3          	add	a7,a4,a7
200007b8:	01070833          	add	a6,a4,a6
200007bc:	01055593          	srli	a1,a0,0x10
200007c0:	ffff0737          	lui	a4,0xffff0
200007c4:	fec8c303          	lbu	t1,-20(a7)
200007c8:	0ff70713          	addi	a4,a4,255 # ffff00ff <__global_pointer$+0xdffec50f>
200007cc:	fec84883          	lbu	a7,-20(a6)
200007d0:	00f5f593          	andi	a1,a1,15
200007d4:	02010813          	addi	a6,sp,32
200007d8:	00f57513          	andi	a0,a0,15
200007dc:	008e9e93          	slli	t4,t4,0x8
200007e0:	00e7f7b3          	and	a5,a5,a4
200007e4:	00a80533          	add	a0,a6,a0
200007e8:	008e1e13          	slli	t3,t3,0x8
200007ec:	00e6f733          	and	a4,a3,a4
200007f0:	00b806b3          	add	a3,a6,a1
200007f4:	ff0105b7          	lui	a1,0xff010
200007f8:	fec54803          	lbu	a6,-20(a0)
200007fc:	fff58593          	addi	a1,a1,-1 # ff00ffff <__global_pointer$+0xdf00c40f>
20000800:	fec6c503          	lbu	a0,-20(a3)
20000804:	01d7e7b3          	or	a5,a5,t4
20000808:	01c76733          	or	a4,a4,t3
2000080c:	01031313          	slli	t1,t1,0x10
20000810:	00b7f7b3          	and	a5,a5,a1
20000814:	01089893          	slli	a7,a7,0x10
20000818:	00b77733          	and	a4,a4,a1
2000081c:	010006b7          	lui	a3,0x1000
20000820:	01064e03          	lbu	t3,16(a2)
20000824:	fff68693          	addi	a3,a3,-1 # ffffff <_STACK_SIZE+0xfff5ff>
20000828:	0067e7b3          	or	a5,a5,t1
2000082c:	01176733          	or	a4,a4,a7
20000830:	01851613          	slli	a2,a0,0x18
20000834:	01881593          	slli	a1,a6,0x18
20000838:	00d7f7b3          	and	a5,a5,a3
2000083c:	00d77733          	and	a4,a4,a3
20000840:	00b7e7b3          	or	a5,a5,a1
20000844:	00c76733          	or	a4,a4,a2
20000848:	00010513          	mv	a0,sp
2000084c:	01c10e23          	sb	t3,28(sp)
20000850:	00010423          	sb	zero,8(sp)
20000854:	00e12023          	sw	a4,0(sp)
20000858:	00f12223          	sw	a5,4(sp)
2000085c:	ea9ff0ef          	jal	ra,20000704 <_Z8EchoUARTPKc>
20000860:	02c12083          	lw	ra,44(sp)
20000864:	03010113          	addi	sp,sp,48
20000868:	00008067          	ret

2000086c <_Z8InitFontv>:
2000086c:	00003797          	auipc	a5,0x3
20000870:	b547a783          	lw	a5,-1196(a5) # 200033c0 <_GLOBAL_OFFSET_TABLE_+0x14>
20000874:	0007a503          	lw	a0,0(a5)
20000878:	00002637          	lui	a2,0x2
2000087c:	ff010113          	addi	sp,sp,-16
20000880:	80060613          	addi	a2,a2,-2048 # 1800 <_STACK_SIZE+0xe00>
20000884:	00001597          	auipc	a1,0x1
20000888:	c7c58593          	addi	a1,a1,-900 # 20001500 <_GLOBAL__sub_I_gpu.cpp+0x1c>
2000088c:	00112623          	sw	ra,12(sp)
20000890:	8e1ff0ef          	jal	ra,20000170 <memcpy>
20000894:	00c12083          	lw	ra,12(sp)
20000898:	01010113          	addi	sp,sp,16
2000089c:	00008067          	ret

200008a0 <_Z8PrintDMAiiPKcb>:
200008a0:	00064703          	lbu	a4,0(a2)
200008a4:	32070e63          	beqz	a4,20000be0 <_Z8PrintDMAiiPKcb+0x340>
200008a8:	00003797          	auipc	a5,0x3
200008ac:	b187a783          	lw	a5,-1256(a5) # 200033c0 <_GLOBAL_OFFSET_TABLE_+0x14>
200008b0:	0007a303          	lw	t1,0(a5)
200008b4:	00003797          	auipc	a5,0x3
200008b8:	b007a783          	lw	a5,-1280(a5) # 200033b4 <_GLOBAL_OFFSET_TABLE_+0x8>
200008bc:	00001fb7          	lui	t6,0x1
200008c0:	00d03833          	snez	a6,a3
200008c4:	0007a783          	lw	a5,0(a5)
200008c8:	ac4f8893          	addi	a7,t6,-1340 # ac4 <_STACK_SIZE+0xc4>
200008cc:	01981813          	slli	a6,a6,0x19
200008d0:	00959593          	slli	a1,a1,0x9
200008d4:	01186833          	or	a6,a6,a7
200008d8:	00a585b3          	add	a1,a1,a0
200008dc:	00160893          	addi	a7,a2,1
200008e0:	800f8f13          	addi	t5,t6,-2048
200008e4:	a00f8e93          	addi	t4,t6,-1536
200008e8:	c00f8e13          	addi	t3,t6,-1024
200008ec:	e00f8513          	addi	a0,t6,-512
200008f0:	fe070713          	addi	a4,a4,-32
200008f4:	00068463          	beqz	a3,200008fc <_Z8PrintDMAiiPKcb+0x5c>
200008f8:	2c070c63          	beqz	a4,20000bd0 <_Z8PrintDMAiiPKcb+0x330>
200008fc:	2c074a63          	bltz	a4,20000bd0 <_Z8PrintDMAiiPKcb+0x330>
20000900:	ff010113          	addi	sp,sp,-16
20000904:	00812623          	sw	s0,12(sp)
20000908:	40575393          	srai	t2,a4,0x5
2000090c:	01f77713          	andi	a4,a4,31
20000910:	00371613          	slli	a2,a4,0x3
20000914:	00b39f93          	slli	t6,t2,0xb
20000918:	00cf8fb3          	add	t6,t6,a2
2000091c:	01f30fb3          	add	t6,t1,t6
20000920:	00af9413          	slli	s0,t6,0xa
20000924:	016fdf93          	srli	t6,t6,0x16
20000928:	4025d293          	srai	t0,a1,0x2
2000092c:	20146413          	ori	s0,s0,513
20000930:	00b39713          	slli	a4,t2,0xb
20000934:	00af9f93          	slli	t6,t6,0xa
20000938:	0087a023          	sw	s0,0(a5)
2000093c:	10070713          	addi	a4,a4,256
20000940:	241fef93          	ori	t6,t6,577
20000944:	00a29393          	slli	t2,t0,0xa
20000948:	0162d293          	srli	t0,t0,0x16
2000094c:	01f7a023          	sw	t6,0(a5)
20000950:	2813e393          	ori	t2,t2,641
20000954:	00e60fb3          	add	t6,a2,a4
20000958:	00a29293          	slli	t0,t0,0xa
2000095c:	0077a023          	sw	t2,0(a5)
20000960:	01f30fb3          	add	t6,t1,t6
20000964:	2d12e293          	ori	t0,t0,721
20000968:	0057a023          	sw	t0,0(a5)
2000096c:	016fd393          	srli	t2,t6,0x16
20000970:	00af9293          	slli	t0,t6,0xa
20000974:	20058f93          	addi	t6,a1,512
20000978:	0107a023          	sw	a6,0(a5)
2000097c:	402fdf93          	srai	t6,t6,0x2
20000980:	2012e293          	ori	t0,t0,513
20000984:	00a39393          	slli	t2,t2,0xa
20000988:	0057a023          	sw	t0,0(a5)
2000098c:	00af9413          	slli	s0,t6,0xa
20000990:	2413e393          	ori	t2,t2,577
20000994:	016fd293          	srli	t0,t6,0x16
20000998:	10070f93          	addi	t6,a4,256
2000099c:	0077a023          	sw	t2,0(a5)
200009a0:	00cf8fb3          	add	t6,t6,a2
200009a4:	28146393          	ori	t2,s0,641
200009a8:	00a29293          	slli	t0,t0,0xa
200009ac:	0077a023          	sw	t2,0(a5)
200009b0:	01f30fb3          	add	t6,t1,t6
200009b4:	2d12e293          	ori	t0,t0,721
200009b8:	0057a023          	sw	t0,0(a5)
200009bc:	016fd393          	srli	t2,t6,0x16
200009c0:	00af9293          	slli	t0,t6,0xa
200009c4:	40058f93          	addi	t6,a1,1024
200009c8:	0107a023          	sw	a6,0(a5)
200009cc:	402fdf93          	srai	t6,t6,0x2
200009d0:	2012e293          	ori	t0,t0,513
200009d4:	00a39393          	slli	t2,t2,0xa
200009d8:	0057a023          	sw	t0,0(a5)
200009dc:	00af9413          	slli	s0,t6,0xa
200009e0:	2413e393          	ori	t2,t2,577
200009e4:	016fd293          	srli	t0,t6,0x16
200009e8:	20070f93          	addi	t6,a4,512
200009ec:	0077a023          	sw	t2,0(a5)
200009f0:	00cf8fb3          	add	t6,t6,a2
200009f4:	28146393          	ori	t2,s0,641
200009f8:	00a29293          	slli	t0,t0,0xa
200009fc:	0077a023          	sw	t2,0(a5)
20000a00:	01f30fb3          	add	t6,t1,t6
20000a04:	2d12e293          	ori	t0,t0,721
20000a08:	0057a023          	sw	t0,0(a5)
20000a0c:	016fd393          	srli	t2,t6,0x16
20000a10:	00af9293          	slli	t0,t6,0xa
20000a14:	60058f93          	addi	t6,a1,1536
20000a18:	0107a023          	sw	a6,0(a5)
20000a1c:	402fdf93          	srai	t6,t6,0x2
20000a20:	2012e293          	ori	t0,t0,513
20000a24:	00a39393          	slli	t2,t2,0xa
20000a28:	0057a023          	sw	t0,0(a5)
20000a2c:	00af9413          	slli	s0,t6,0xa
20000a30:	2413e393          	ori	t2,t2,577
20000a34:	016fd293          	srli	t0,t6,0x16
20000a38:	30070f93          	addi	t6,a4,768
20000a3c:	0077a023          	sw	t2,0(a5)
20000a40:	00cf8fb3          	add	t6,t6,a2
20000a44:	28146393          	ori	t2,s0,641
20000a48:	00a29293          	slli	t0,t0,0xa
20000a4c:	0077a023          	sw	t2,0(a5)
20000a50:	01f30fb3          	add	t6,t1,t6
20000a54:	2d12e293          	ori	t0,t0,721
20000a58:	0057a023          	sw	t0,0(a5)
20000a5c:	016fd393          	srli	t2,t6,0x16
20000a60:	00af9293          	slli	t0,t6,0xa
20000a64:	01e58fb3          	add	t6,a1,t5
20000a68:	0107a023          	sw	a6,0(a5)
20000a6c:	402fdf93          	srai	t6,t6,0x2
20000a70:	2012e293          	ori	t0,t0,513
20000a74:	00a39393          	slli	t2,t2,0xa
20000a78:	0057a023          	sw	t0,0(a5)
20000a7c:	00af9413          	slli	s0,t6,0xa
20000a80:	2413e393          	ori	t2,t2,577
20000a84:	016fd293          	srli	t0,t6,0x16
20000a88:	40070f93          	addi	t6,a4,1024
20000a8c:	0077a023          	sw	t2,0(a5)
20000a90:	00cf8fb3          	add	t6,t6,a2
20000a94:	28146393          	ori	t2,s0,641
20000a98:	00a29293          	slli	t0,t0,0xa
20000a9c:	0077a023          	sw	t2,0(a5)
20000aa0:	01f30fb3          	add	t6,t1,t6
20000aa4:	2d12e293          	ori	t0,t0,721
20000aa8:	0057a023          	sw	t0,0(a5)
20000aac:	016fd393          	srli	t2,t6,0x16
20000ab0:	00af9293          	slli	t0,t6,0xa
20000ab4:	01d58fb3          	add	t6,a1,t4
20000ab8:	0107a023          	sw	a6,0(a5)
20000abc:	402fdf93          	srai	t6,t6,0x2
20000ac0:	2012e293          	ori	t0,t0,513
20000ac4:	00a39393          	slli	t2,t2,0xa
20000ac8:	0057a023          	sw	t0,0(a5)
20000acc:	00af9413          	slli	s0,t6,0xa
20000ad0:	2413e393          	ori	t2,t2,577
20000ad4:	016fd293          	srli	t0,t6,0x16
20000ad8:	50070f93          	addi	t6,a4,1280
20000adc:	0077a023          	sw	t2,0(a5)
20000ae0:	00cf8fb3          	add	t6,t6,a2
20000ae4:	28146393          	ori	t2,s0,641
20000ae8:	00a29293          	slli	t0,t0,0xa
20000aec:	0077a023          	sw	t2,0(a5)
20000af0:	01f30fb3          	add	t6,t1,t6
20000af4:	2d12e293          	ori	t0,t0,721
20000af8:	01c583b3          	add	t2,a1,t3
20000afc:	0057a023          	sw	t0,0(a5)
20000b00:	00af9413          	slli	s0,t6,0xa
20000b04:	4023d293          	srai	t0,t2,0x2
20000b08:	016fdf93          	srli	t6,t6,0x16
20000b0c:	0107a023          	sw	a6,0(a5)
20000b10:	0162d393          	srli	t2,t0,0x16
20000b14:	20146413          	ori	s0,s0,513
20000b18:	00af9f93          	slli	t6,t6,0xa
20000b1c:	60070713          	addi	a4,a4,1536
20000b20:	0087a023          	sw	s0,0(a5)
20000b24:	241fef93          	ori	t6,t6,577
20000b28:	00c70733          	add	a4,a4,a2
20000b2c:	00a29293          	slli	t0,t0,0xa
20000b30:	00a39393          	slli	t2,t2,0xa
20000b34:	00e30733          	add	a4,t1,a4
20000b38:	01f7a023          	sw	t6,0(a5)
20000b3c:	2d13e613          	ori	a2,t2,721
20000b40:	2812e293          	ori	t0,t0,641
20000b44:	0057a023          	sw	t0,0(a5)
20000b48:	00a71f93          	slli	t6,a4,0xa
20000b4c:	00c7a023          	sw	a2,0(a5)
20000b50:	01675713          	srli	a4,a4,0x16
20000b54:	00a58633          	add	a2,a1,a0
20000b58:	0107a023          	sw	a6,0(a5)
20000b5c:	40265613          	srai	a2,a2,0x2
20000b60:	201fef93          	ori	t6,t6,513
20000b64:	00a71713          	slli	a4,a4,0xa
20000b68:	01f7a023          	sw	t6,0(a5)
20000b6c:	24176713          	ori	a4,a4,577
20000b70:	00a61f93          	slli	t6,a2,0xa
20000b74:	01665613          	srli	a2,a2,0x16
20000b78:	00e7a023          	sw	a4,0(a5)
20000b7c:	00a61613          	slli	a2,a2,0xa
20000b80:	281fe713          	ori	a4,t6,641
20000b84:	00e7a023          	sw	a4,0(a5)
20000b88:	2d166613          	ori	a2,a2,721
20000b8c:	00c7a023          	sw	a2,0(a5)
20000b90:	0107a023          	sw	a6,0(a5)
20000b94:	0008c703          	lbu	a4,0(a7)
20000b98:	00858593          	addi	a1,a1,8
20000b9c:	00188893          	addi	a7,a7,1
20000ba0:	02070263          	beqz	a4,20000bc4 <_Z8PrintDMAiiPKcb+0x324>
20000ba4:	fe070713          	addi	a4,a4,-32
20000ba8:	00068463          	beqz	a3,20000bb0 <_Z8PrintDMAiiPKcb+0x310>
20000bac:	fe0704e3          	beqz	a4,20000b94 <_Z8PrintDMAiiPKcb+0x2f4>
20000bb0:	d4075ce3          	bgez	a4,20000908 <_Z8PrintDMAiiPKcb+0x68>
20000bb4:	0008c703          	lbu	a4,0(a7)
20000bb8:	00858593          	addi	a1,a1,8
20000bbc:	00188893          	addi	a7,a7,1
20000bc0:	fe0712e3          	bnez	a4,20000ba4 <_Z8PrintDMAiiPKcb+0x304>
20000bc4:	00c12403          	lw	s0,12(sp)
20000bc8:	01010113          	addi	sp,sp,16
20000bcc:	00008067          	ret
20000bd0:	0008c703          	lbu	a4,0(a7)
20000bd4:	00858593          	addi	a1,a1,8
20000bd8:	00188893          	addi	a7,a7,1
20000bdc:	d0071ae3          	bnez	a4,200008f0 <_Z8PrintDMAiiPKcb+0x50>
20000be0:	00008067          	ret

20000be4 <_Z8PrintDMAiiiPKcb>:
20000be4:	38c05c63          	blez	a2,20000f7c <_Z8PrintDMAiiiPKcb+0x398>
20000be8:	000012b7          	lui	t0,0x1
20000bec:	00002797          	auipc	a5,0x2
20000bf0:	7d47a783          	lw	a5,2004(a5) # 200033c0 <_GLOBAL_OFFSET_TABLE_+0x14>
20000bf4:	00e03833          	snez	a6,a4
20000bf8:	ac428e13          	addi	t3,t0,-1340 # ac4 <_STACK_SIZE+0xc4>
20000bfc:	0007a883          	lw	a7,0(a5)
20000c00:	01981813          	slli	a6,a6,0x19
20000c04:	00959593          	slli	a1,a1,0x9
20000c08:	00002797          	auipc	a5,0x2
20000c0c:	7ac7a783          	lw	a5,1964(a5) # 200033b4 <_GLOBAL_OFFSET_TABLE_+0x8>
20000c10:	01c86833          	or	a6,a6,t3
20000c14:	00a585b3          	add	a1,a1,a0
20000c18:	0007a783          	lw	a5,0(a5)
20000c1c:	00068313          	mv	t1,a3
20000c20:	00c68633          	add	a2,a3,a2
20000c24:	07f00f93          	li	t6,127
20000c28:	80028f13          	addi	t5,t0,-2048
20000c2c:	a0028e93          	addi	t4,t0,-1536
20000c30:	c0028e13          	addi	t3,t0,-1024
20000c34:	e0028513          	addi	a0,t0,-512
20000c38:	0100006f          	j	20000c48 <_Z8PrintDMAiiiPKcb+0x64>
20000c3c:	00130313          	addi	t1,t1,1
20000c40:	00858593          	addi	a1,a1,8
20000c44:	32c30c63          	beq	t1,a2,20000f7c <_Z8PrintDMAiiiPKcb+0x398>
20000c48:	00034683          	lbu	a3,0(t1)
20000c4c:	32068863          	beqz	a3,20000f7c <_Z8PrintDMAiiiPKcb+0x398>
20000c50:	fe068693          	addi	a3,a3,-32
20000c54:	00070463          	beqz	a4,20000c5c <_Z8PrintDMAiiiPKcb+0x78>
20000c58:	fe0682e3          	beqz	a3,20000c3c <_Z8PrintDMAiiiPKcb+0x58>
20000c5c:	fe010113          	addi	sp,sp,-32
20000c60:	00812e23          	sw	s0,28(sp)
20000c64:	00912c23          	sw	s1,24(sp)
20000c68:	01212a23          	sw	s2,20(sp)
20000c6c:	01312823          	sw	s3,16(sp)
20000c70:	01412623          	sw	s4,12(sp)
20000c74:	01512423          	sw	s5,8(sp)
20000c78:	01612223          	sw	s6,4(sp)
20000c7c:	2cdfee63          	bltu	t6,a3,20000f58 <_Z8PrintDMAiiiPKcb+0x374>
20000c80:	4056d393          	srai	t2,a3,0x5
20000c84:	01f6f693          	andi	a3,a3,31
20000c88:	00b39a13          	slli	s4,t2,0xb
20000c8c:	00369293          	slli	t0,a3,0x3
20000c90:	005a06b3          	add	a3,s4,t0
20000c94:	200a0993          	addi	s3,s4,512
20000c98:	300a0913          	addi	s2,s4,768
20000c9c:	400a0493          	addi	s1,s4,1024
20000ca0:	500a0413          	addi	s0,s4,1280
20000ca4:	600a0393          	addi	t2,s4,1536
20000ca8:	700a0a93          	addi	s5,s4,1792
20000cac:	100a0a13          	addi	s4,s4,256
20000cb0:	01428a33          	add	s4,t0,s4
20000cb4:	005989b3          	add	s3,s3,t0
20000cb8:	00590933          	add	s2,s2,t0
20000cbc:	005484b3          	add	s1,s1,t0
20000cc0:	00540433          	add	s0,s0,t0
20000cc4:	005383b3          	add	t2,t2,t0
20000cc8:	00d886b3          	add	a3,a7,a3
20000ccc:	005a82b3          	add	t0,s5,t0
20000cd0:	00a69b13          	slli	s6,a3,0xa
20000cd4:	0166da93          	srli	s5,a3,0x16
20000cd8:	201b6b13          	ori	s6,s6,513
20000cdc:	4025d693          	srai	a3,a1,0x2
20000ce0:	00aa9a93          	slli	s5,s5,0xa
20000ce4:	0167a023          	sw	s6,0(a5)
20000ce8:	241aea93          	ori	s5,s5,577
20000cec:	00a69b13          	slli	s6,a3,0xa
20000cf0:	0166d693          	srli	a3,a3,0x16
20000cf4:	0157a023          	sw	s5,0(a5)
20000cf8:	00a69693          	slli	a3,a3,0xa
20000cfc:	281b6a93          	ori	s5,s6,641
20000d00:	0157a023          	sw	s5,0(a5)
20000d04:	01488a33          	add	s4,a7,s4
20000d08:	2d16e693          	ori	a3,a3,721
20000d0c:	00d7a023          	sw	a3,0(a5)
20000d10:	00aa1a93          	slli	s5,s4,0xa
20000d14:	20058693          	addi	a3,a1,512
20000d18:	016a5a13          	srli	s4,s4,0x16
20000d1c:	0107a023          	sw	a6,0(a5)
20000d20:	4026d693          	srai	a3,a3,0x2
20000d24:	201aea93          	ori	s5,s5,513
20000d28:	00aa1a13          	slli	s4,s4,0xa
20000d2c:	0157a023          	sw	s5,0(a5)
20000d30:	241a6a13          	ori	s4,s4,577
20000d34:	00a69a93          	slli	s5,a3,0xa
20000d38:	0166d693          	srli	a3,a3,0x16
20000d3c:	0147a023          	sw	s4,0(a5)
20000d40:	00a69693          	slli	a3,a3,0xa
20000d44:	281aea13          	ori	s4,s5,641
20000d48:	0147a023          	sw	s4,0(a5)
20000d4c:	013889b3          	add	s3,a7,s3
20000d50:	2d16e693          	ori	a3,a3,721
20000d54:	00d7a023          	sw	a3,0(a5)
20000d58:	00a99a13          	slli	s4,s3,0xa
20000d5c:	40058693          	addi	a3,a1,1024
20000d60:	0169d993          	srli	s3,s3,0x16
20000d64:	0107a023          	sw	a6,0(a5)
20000d68:	4026d693          	srai	a3,a3,0x2
20000d6c:	201a6a13          	ori	s4,s4,513
20000d70:	00a99993          	slli	s3,s3,0xa
20000d74:	0147a023          	sw	s4,0(a5)
20000d78:	2419e993          	ori	s3,s3,577
20000d7c:	00a69a13          	slli	s4,a3,0xa
20000d80:	0166d693          	srli	a3,a3,0x16
20000d84:	0137a023          	sw	s3,0(a5)
20000d88:	00a69693          	slli	a3,a3,0xa
20000d8c:	281a6993          	ori	s3,s4,641
20000d90:	0137a023          	sw	s3,0(a5)
20000d94:	01288933          	add	s2,a7,s2
20000d98:	2d16e693          	ori	a3,a3,721
20000d9c:	00d7a023          	sw	a3,0(a5)
20000da0:	00a91993          	slli	s3,s2,0xa
20000da4:	60058693          	addi	a3,a1,1536
20000da8:	01695913          	srli	s2,s2,0x16
20000dac:	0107a023          	sw	a6,0(a5)
20000db0:	4026d693          	srai	a3,a3,0x2
20000db4:	2019e993          	ori	s3,s3,513
20000db8:	00a91913          	slli	s2,s2,0xa
20000dbc:	0137a023          	sw	s3,0(a5)
20000dc0:	24196913          	ori	s2,s2,577
20000dc4:	00a69993          	slli	s3,a3,0xa
20000dc8:	0166d693          	srli	a3,a3,0x16
20000dcc:	0127a023          	sw	s2,0(a5)
20000dd0:	00a69693          	slli	a3,a3,0xa
20000dd4:	2819e913          	ori	s2,s3,641
20000dd8:	0127a023          	sw	s2,0(a5)
20000ddc:	009884b3          	add	s1,a7,s1
20000de0:	2d16e693          	ori	a3,a3,721
20000de4:	00d7a023          	sw	a3,0(a5)
20000de8:	00a49913          	slli	s2,s1,0xa
20000dec:	01e586b3          	add	a3,a1,t5
20000df0:	0164d493          	srli	s1,s1,0x16
20000df4:	0107a023          	sw	a6,0(a5)
20000df8:	4026d693          	srai	a3,a3,0x2
20000dfc:	20196913          	ori	s2,s2,513
20000e00:	00a49493          	slli	s1,s1,0xa
20000e04:	0127a023          	sw	s2,0(a5)
20000e08:	2414e493          	ori	s1,s1,577
20000e0c:	00a69913          	slli	s2,a3,0xa
20000e10:	0166d693          	srli	a3,a3,0x16
20000e14:	0097a023          	sw	s1,0(a5)
20000e18:	00a69693          	slli	a3,a3,0xa
20000e1c:	28196493          	ori	s1,s2,641
20000e20:	0097a023          	sw	s1,0(a5)
20000e24:	00888433          	add	s0,a7,s0
20000e28:	2d16e693          	ori	a3,a3,721
20000e2c:	00d7a023          	sw	a3,0(a5)
20000e30:	00a41493          	slli	s1,s0,0xa
20000e34:	01d586b3          	add	a3,a1,t4
20000e38:	01645413          	srli	s0,s0,0x16
20000e3c:	0107a023          	sw	a6,0(a5)
20000e40:	4026d693          	srai	a3,a3,0x2
20000e44:	2014e493          	ori	s1,s1,513
20000e48:	00a41413          	slli	s0,s0,0xa
20000e4c:	0097a023          	sw	s1,0(a5)
20000e50:	24146413          	ori	s0,s0,577
20000e54:	00a69493          	slli	s1,a3,0xa
20000e58:	0166d693          	srli	a3,a3,0x16
20000e5c:	0087a023          	sw	s0,0(a5)
20000e60:	00a69693          	slli	a3,a3,0xa
20000e64:	2814e413          	ori	s0,s1,641
20000e68:	0087a023          	sw	s0,0(a5)
20000e6c:	007883b3          	add	t2,a7,t2
20000e70:	01c58433          	add	s0,a1,t3
20000e74:	2d16e693          	ori	a3,a3,721
20000e78:	00d7a023          	sw	a3,0(a5)
20000e7c:	00a39493          	slli	s1,t2,0xa
20000e80:	40245693          	srai	a3,s0,0x2
20000e84:	0163d393          	srli	t2,t2,0x16
20000e88:	0107a023          	sw	a6,0(a5)
20000e8c:	0166d413          	srli	s0,a3,0x16
20000e90:	2014e493          	ori	s1,s1,513
20000e94:	00a39393          	slli	t2,t2,0xa
20000e98:	0097a023          	sw	s1,0(a5)
20000e9c:	2413e393          	ori	t2,t2,577
20000ea0:	00a41413          	slli	s0,s0,0xa
20000ea4:	00a69693          	slli	a3,a3,0xa
20000ea8:	005882b3          	add	t0,a7,t0
20000eac:	0077a023          	sw	t2,0(a5)
20000eb0:	2816e693          	ori	a3,a3,641
20000eb4:	2d146393          	ori	t2,s0,721
20000eb8:	00d7a023          	sw	a3,0(a5)
20000ebc:	00a29413          	slli	s0,t0,0xa
20000ec0:	0077a023          	sw	t2,0(a5)
20000ec4:	00a586b3          	add	a3,a1,a0
20000ec8:	0162d293          	srli	t0,t0,0x16
20000ecc:	0107a023          	sw	a6,0(a5)
20000ed0:	4026d693          	srai	a3,a3,0x2
20000ed4:	20146393          	ori	t2,s0,513
20000ed8:	00a29293          	slli	t0,t0,0xa
20000edc:	0077a023          	sw	t2,0(a5)
20000ee0:	2412e293          	ori	t0,t0,577
20000ee4:	00a69393          	slli	t2,a3,0xa
20000ee8:	0166d693          	srli	a3,a3,0x16
20000eec:	0057a023          	sw	t0,0(a5)
20000ef0:	00a69693          	slli	a3,a3,0xa
20000ef4:	2813e293          	ori	t0,t2,641
20000ef8:	0057a023          	sw	t0,0(a5)
20000efc:	2d16e693          	ori	a3,a3,721
20000f00:	00d7a023          	sw	a3,0(a5)
20000f04:	0107a023          	sw	a6,0(a5)
20000f08:	00130313          	addi	t1,t1,1
20000f0c:	00858593          	addi	a1,a1,8
20000f10:	02c30263          	beq	t1,a2,20000f34 <_Z8PrintDMAiiiPKcb+0x350>
20000f14:	00034683          	lbu	a3,0(t1)
20000f18:	00068e63          	beqz	a3,20000f34 <_Z8PrintDMAiiiPKcb+0x350>
20000f1c:	fe068693          	addi	a3,a3,-32
20000f20:	d4070ee3          	beqz	a4,20000c7c <_Z8PrintDMAiiiPKcb+0x98>
20000f24:	d4069ce3          	bnez	a3,20000c7c <_Z8PrintDMAiiiPKcb+0x98>
20000f28:	00130313          	addi	t1,t1,1
20000f2c:	00858593          	addi	a1,a1,8
20000f30:	fec312e3          	bne	t1,a2,20000f14 <_Z8PrintDMAiiiPKcb+0x330>
20000f34:	01c12403          	lw	s0,28(sp)
20000f38:	01812483          	lw	s1,24(sp)
20000f3c:	01412903          	lw	s2,20(sp)
20000f40:	01012983          	lw	s3,16(sp)
20000f44:	00c12a03          	lw	s4,12(sp)
20000f48:	00812a83          	lw	s5,8(sp)
20000f4c:	00412b03          	lw	s6,4(sp)
20000f50:	02010113          	addi	sp,sp,32
20000f54:	00008067          	ret
20000f58:	00088693          	mv	a3,a7
20000f5c:	70000293          	li	t0,1792
20000f60:	60000393          	li	t2,1536
20000f64:	50000413          	li	s0,1280
20000f68:	40000493          	li	s1,1024
20000f6c:	30000913          	li	s2,768
20000f70:	20000993          	li	s3,512
20000f74:	10000a13          	li	s4,256
20000f78:	d59ff06f          	j	20000cd0 <_Z8PrintDMAiiiPKcb+0xec>
20000f7c:	00008067          	ret

20000f80 <_Z11PrintDMAHexiim>:
20000f80:	00002e17          	auipc	t3,0x2
20000f84:	dcce0e13          	addi	t3,t3,-564 # 20002d4c <_GLOBAL__sub_I_gpu.cpp+0x1868>
20000f88:	00ce2f03          	lw	t5,12(t3)
20000f8c:	008e2f83          	lw	t6,8(t3)
20000f90:	000e2383          	lw	t2,0(t3)
20000f94:	004e2283          	lw	t0,4(t3)
20000f98:	fd010113          	addi	sp,sp,-48
20000f9c:	01865313          	srli	t1,a2,0x18
20000fa0:	01465893          	srli	a7,a2,0x14
20000fa4:	01065813          	srli	a6,a2,0x10
20000fa8:	00c65693          	srli	a3,a2,0xc
20000fac:	00865713          	srli	a4,a2,0x8
20000fb0:	00465793          	srli	a5,a2,0x4
20000fb4:	01e12c23          	sw	t5,24(sp)
20000fb8:	01c65e93          	srli	t4,a2,0x1c
20000fbc:	02010f13          	addi	t5,sp,32
20000fc0:	00f37313          	andi	t1,t1,15
20000fc4:	00f8f893          	andi	a7,a7,15
20000fc8:	00f87813          	andi	a6,a6,15
20000fcc:	00f6f693          	andi	a3,a3,15
20000fd0:	00f77713          	andi	a4,a4,15
20000fd4:	00f7f793          	andi	a5,a5,15
20000fd8:	00f67613          	andi	a2,a2,15
20000fdc:	02112623          	sw	ra,44(sp)
20000fe0:	01f12a23          	sw	t6,20(sp)
20000fe4:	00712623          	sw	t2,12(sp)
20000fe8:	00512823          	sw	t0,16(sp)
20000fec:	006f0333          	add	t1,t5,t1
20000ff0:	011f08b3          	add	a7,t5,a7
20000ff4:	010f0833          	add	a6,t5,a6
20000ff8:	00df06b3          	add	a3,t5,a3
20000ffc:	00ef0733          	add	a4,t5,a4
20001000:	00ff07b3          	add	a5,t5,a5
20001004:	00cf0633          	add	a2,t5,a2
20001008:	01df0eb3          	add	t4,t5,t4
2000100c:	010e4f83          	lbu	t6,16(t3)
20001010:	fececf03          	lbu	t5,-20(t4)
20001014:	fec8ce03          	lbu	t3,-20(a7)
20001018:	fec34e83          	lbu	t4,-20(t1)
2000101c:	fec6c883          	lbu	a7,-20(a3)
20001020:	fec84303          	lbu	t1,-20(a6)
20001024:	fec74803          	lbu	a6,-20(a4)
20001028:	fec7c703          	lbu	a4,-20(a5)
2000102c:	fec64783          	lbu	a5,-20(a2)
20001030:	02e00693          	li	a3,46
20001034:	00d11423          	sh	a3,8(sp)
20001038:	00010613          	mv	a2,sp
2000103c:	00100693          	li	a3,1
20001040:	01f10e23          	sb	t6,28(sp)
20001044:	01e10023          	sb	t5,0(sp)
20001048:	01d100a3          	sb	t4,1(sp)
2000104c:	01c10123          	sb	t3,2(sp)
20001050:	006101a3          	sb	t1,3(sp)
20001054:	01110223          	sb	a7,4(sp)
20001058:	010102a3          	sb	a6,5(sp)
2000105c:	00e10323          	sb	a4,6(sp)
20001060:	00f103a3          	sb	a5,7(sp)
20001064:	00010423          	sb	zero,8(sp)
20001068:	839ff0ef          	jal	ra,200008a0 <_Z8PrintDMAiiPKcb>
2000106c:	02c12083          	lw	ra,44(sp)
20001070:	03010113          	addi	sp,sp,48
20001074:	00008067          	ret

20001078 <_Z15PrintDMADecimaliiib>:
20001078:	00002797          	auipc	a5,0x2
2000107c:	ce878793          	addi	a5,a5,-792 # 20002d60 <_GLOBAL__sub_I_gpu.cpp+0x187c>
20001080:	00002717          	auipc	a4,0x2
20001084:	cf470713          	addi	a4,a4,-780 # 20002d74 <_GLOBAL__sub_I_gpu.cpp+0x1890>
20001088:	00072f83          	lw	t6,0(a4)
2000108c:	00472f03          	lw	t5,4(a4)
20001090:	00875e83          	lhu	t4,8(a4)
20001094:	00a74e03          	lbu	t3,10(a4)
20001098:	0007a303          	lw	t1,0(a5)
2000109c:	0047a883          	lw	a7,4(a5)
200010a0:	0087a803          	lw	a6,8(a5)
200010a4:	00c7a703          	lw	a4,12(a5)
200010a8:	0107a783          	lw	a5,16(a5)
200010ac:	fc010113          	addi	sp,sp,-64
200010b0:	02812c23          	sw	s0,56(sp)
200010b4:	02912a23          	sw	s1,52(sp)
200010b8:	03312623          	sw	s3,44(sp)
200010bc:	03412423          	sw	s4,40(sp)
200010c0:	03512223          	sw	s5,36(sp)
200010c4:	00f12e23          	sw	a5,28(sp)
200010c8:	02112e23          	sw	ra,60(sp)
200010cc:	03212823          	sw	s2,48(sp)
200010d0:	01f12023          	sw	t6,0(sp)
200010d4:	01e12223          	sw	t5,4(sp)
200010d8:	01d11423          	sh	t4,8(sp)
200010dc:	01c10523          	sb	t3,10(sp)
200010e0:	00612623          	sw	t1,12(sp)
200010e4:	01112823          	sw	a7,16(sp)
200010e8:	01012a23          	sw	a6,20(sp)
200010ec:	00e12c23          	sw	a4,24(sp)
200010f0:	00060493          	mv	s1,a2
200010f4:	00050993          	mv	s3,a0
200010f8:	00058a13          	mv	s4,a1
200010fc:	00068a93          	mv	s5,a3
20001100:	02d00793          	li	a5,45
20001104:	00100413          	li	s0,1
20001108:	00064663          	bltz	a2,20001114 <_Z15PrintDMADecimaliiib+0x9c>
2000110c:	02000793          	li	a5,32
20001110:	00000413          	li	s0,0
20001114:	3b9ad937          	lui	s2,0x3b9ad
20001118:	a0090593          	addi	a1,s2,-1536 # 3b9aca00 <__global_pointer$+0x1b9a8e10>
2000111c:	00048513          	mv	a0,s1
20001120:	00f10623          	sb	a5,12(sp)
20001124:	aecff0ef          	jal	ra,20000410 <__divsi3>
20001128:	41f55693          	srai	a3,a0,0x1f
2000112c:	9ff90913          	addi	s2,s2,-1537
20001130:	77359737          	lui	a4,0x77359
20001134:	00a6c7b3          	xor	a5,a3,a0
20001138:	01248933          	add	s2,s1,s2
2000113c:	3fe70713          	addi	a4,a4,1022 # 773593fe <__global_pointer$+0x5735580e>
20001140:	40d787b3          	sub	a5,a5,a3
20001144:	1b276663          	bltu	a4,s2,200012f0 <_Z15PrintDMADecimaliiib+0x278>
20001148:	05f5e5b7          	lui	a1,0x5f5e
2000114c:	10058593          	addi	a1,a1,256 # 5f5e100 <_STACK_SIZE+0x5f5d700>
20001150:	00048513          	mv	a0,s1
20001154:	abcff0ef          	jal	ra,20000410 <__divsi3>
20001158:	41f55793          	srai	a5,a0,0x1f
2000115c:	00a7c533          	xor	a0,a5,a0
20001160:	00a00593          	li	a1,10
20001164:	40f50533          	sub	a0,a0,a5
20001168:	b2cff0ef          	jal	ra,20000494 <__modsi3>
2000116c:	1c051263          	bnez	a0,20001330 <_Z15PrintDMADecimaliiib+0x2b8>
20001170:	009895b7          	lui	a1,0x989
20001174:	68058593          	addi	a1,a1,1664 # 989680 <_STACK_SIZE+0x988c80>
20001178:	00048513          	mv	a0,s1
2000117c:	a94ff0ef          	jal	ra,20000410 <__divsi3>
20001180:	41f55793          	srai	a5,a0,0x1f
20001184:	00a7c533          	xor	a0,a5,a0
20001188:	00a00593          	li	a1,10
2000118c:	40f50533          	sub	a0,a0,a5
20001190:	b04ff0ef          	jal	ra,20000494 <__modsi3>
20001194:	1c051c63          	bnez	a0,2000136c <_Z15PrintDMADecimaliiib+0x2f4>
20001198:	000f45b7          	lui	a1,0xf4
2000119c:	24058593          	addi	a1,a1,576 # f4240 <_STACK_SIZE+0xf3840>
200011a0:	00048513          	mv	a0,s1
200011a4:	a6cff0ef          	jal	ra,20000410 <__divsi3>
200011a8:	41f55793          	srai	a5,a0,0x1f
200011ac:	00a7c533          	xor	a0,a5,a0
200011b0:	00a00593          	li	a1,10
200011b4:	40f50533          	sub	a0,a0,a5
200011b8:	adcff0ef          	jal	ra,20000494 <__modsi3>
200011bc:	1e051663          	bnez	a0,200013a8 <_Z15PrintDMADecimaliiib+0x330>
200011c0:	000185b7          	lui	a1,0x18
200011c4:	6a058593          	addi	a1,a1,1696 # 186a0 <_STACK_SIZE+0x17ca0>
200011c8:	00048513          	mv	a0,s1
200011cc:	a44ff0ef          	jal	ra,20000410 <__divsi3>
200011d0:	41f55793          	srai	a5,a0,0x1f
200011d4:	00a7c533          	xor	a0,a5,a0
200011d8:	00a00593          	li	a1,10
200011dc:	40f50533          	sub	a0,a0,a5
200011e0:	ab4ff0ef          	jal	ra,20000494 <__modsi3>
200011e4:	20051063          	bnez	a0,200013e4 <_Z15PrintDMADecimaliiib+0x36c>
200011e8:	000025b7          	lui	a1,0x2
200011ec:	71058593          	addi	a1,a1,1808 # 2710 <_STACK_SIZE+0x1d10>
200011f0:	00048513          	mv	a0,s1
200011f4:	a1cff0ef          	jal	ra,20000410 <__divsi3>
200011f8:	41f55793          	srai	a5,a0,0x1f
200011fc:	00a7c533          	xor	a0,a5,a0
20001200:	00a00593          	li	a1,10
20001204:	40f50533          	sub	a0,a0,a5
20001208:	a8cff0ef          	jal	ra,20000494 <__modsi3>
2000120c:	20051a63          	bnez	a0,20001420 <_Z15PrintDMADecimaliiib+0x3a8>
20001210:	3e800593          	li	a1,1000
20001214:	00048513          	mv	a0,s1
20001218:	9f8ff0ef          	jal	ra,20000410 <__divsi3>
2000121c:	41f55793          	srai	a5,a0,0x1f
20001220:	00a7c533          	xor	a0,a5,a0
20001224:	00a00593          	li	a1,10
20001228:	40f50533          	sub	a0,a0,a5
2000122c:	a68ff0ef          	jal	ra,20000494 <__modsi3>
20001230:	22051463          	bnez	a0,20001458 <_Z15PrintDMADecimaliiib+0x3e0>
20001234:	06400593          	li	a1,100
20001238:	00048513          	mv	a0,s1
2000123c:	9d4ff0ef          	jal	ra,20000410 <__divsi3>
20001240:	41f55793          	srai	a5,a0,0x1f
20001244:	00a7c533          	xor	a0,a5,a0
20001248:	00a00593          	li	a1,10
2000124c:	40f50533          	sub	a0,a0,a5
20001250:	a44ff0ef          	jal	ra,20000494 <__modsi3>
20001254:	22051e63          	bnez	a0,20001490 <_Z15PrintDMADecimaliiib+0x418>
20001258:	00a00593          	li	a1,10
2000125c:	00048513          	mv	a0,s1
20001260:	9b0ff0ef          	jal	ra,20000410 <__divsi3>
20001264:	41f55793          	srai	a5,a0,0x1f
20001268:	00a7c533          	xor	a0,a5,a0
2000126c:	00a00593          	li	a1,10
20001270:	40f50533          	sub	a0,a0,a5
20001274:	a20ff0ef          	jal	ra,20000494 <__modsi3>
20001278:	24051863          	bnez	a0,200014c8 <_Z15PrintDMADecimaliiib+0x450>
2000127c:	41f4d513          	srai	a0,s1,0x1f
20001280:	009544b3          	xor	s1,a0,s1
20001284:	00a00593          	li	a1,10
20001288:	40a48533          	sub	a0,s1,a0
2000128c:	a08ff0ef          	jal	ra,20000494 <__modsi3>
20001290:	02010793          	addi	a5,sp,32
20001294:	00a78533          	add	a0,a5,a0
20001298:	fe054783          	lbu	a5,-32(a0)
2000129c:	02010713          	addi	a4,sp,32
200012a0:	00140493          	addi	s1,s0,1
200012a4:	00870433          	add	s0,a4,s0
200012a8:	fef40623          	sb	a5,-20(s0)
200012ac:	009707b3          	add	a5,a4,s1
200012b0:	00098513          	mv	a0,s3
200012b4:	000a8693          	mv	a3,s5
200012b8:	00c10613          	addi	a2,sp,12
200012bc:	000a0593          	mv	a1,s4
200012c0:	fe078623          	sb	zero,-20(a5)
200012c4:	ddcff0ef          	jal	ra,200008a0 <_Z8PrintDMAiiPKcb>
200012c8:	03c12083          	lw	ra,60(sp)
200012cc:	03812403          	lw	s0,56(sp)
200012d0:	03012903          	lw	s2,48(sp)
200012d4:	02c12983          	lw	s3,44(sp)
200012d8:	02812a03          	lw	s4,40(sp)
200012dc:	02412a83          	lw	s5,36(sp)
200012e0:	00048513          	mv	a0,s1
200012e4:	03412483          	lw	s1,52(sp)
200012e8:	04010113          	addi	sp,sp,64
200012ec:	00008067          	ret
200012f0:	02010713          	addi	a4,sp,32
200012f4:	00f707b3          	add	a5,a4,a5
200012f8:	fe07c703          	lbu	a4,-32(a5)
200012fc:	02010793          	addi	a5,sp,32
20001300:	008787b3          	add	a5,a5,s0
20001304:	05f5e5b7          	lui	a1,0x5f5e
20001308:	fee78623          	sb	a4,-20(a5)
2000130c:	10058593          	addi	a1,a1,256 # 5f5e100 <_STACK_SIZE+0x5f5d700>
20001310:	00048513          	mv	a0,s1
20001314:	8fcff0ef          	jal	ra,20000410 <__divsi3>
20001318:	41f55793          	srai	a5,a0,0x1f
2000131c:	00a7c533          	xor	a0,a5,a0
20001320:	00a00593          	li	a1,10
20001324:	40f50533          	sub	a0,a0,a5
20001328:	96cff0ef          	jal	ra,20000494 <__modsi3>
2000132c:	00140413          	addi	s0,s0,1
20001330:	02010793          	addi	a5,sp,32
20001334:	00a78533          	add	a0,a5,a0
20001338:	fe054703          	lbu	a4,-32(a0)
2000133c:	008787b3          	add	a5,a5,s0
20001340:	009895b7          	lui	a1,0x989
20001344:	fee78623          	sb	a4,-20(a5)
20001348:	68058593          	addi	a1,a1,1664 # 989680 <_STACK_SIZE+0x988c80>
2000134c:	00048513          	mv	a0,s1
20001350:	8c0ff0ef          	jal	ra,20000410 <__divsi3>
20001354:	41f55793          	srai	a5,a0,0x1f
20001358:	00a7c533          	xor	a0,a5,a0
2000135c:	00a00593          	li	a1,10
20001360:	40f50533          	sub	a0,a0,a5
20001364:	930ff0ef          	jal	ra,20000494 <__modsi3>
20001368:	00140413          	addi	s0,s0,1
2000136c:	02010793          	addi	a5,sp,32
20001370:	00a78533          	add	a0,a5,a0
20001374:	fe054703          	lbu	a4,-32(a0)
20001378:	008787b3          	add	a5,a5,s0
2000137c:	000f45b7          	lui	a1,0xf4
20001380:	fee78623          	sb	a4,-20(a5)
20001384:	24058593          	addi	a1,a1,576 # f4240 <_STACK_SIZE+0xf3840>
20001388:	00048513          	mv	a0,s1
2000138c:	884ff0ef          	jal	ra,20000410 <__divsi3>
20001390:	41f55793          	srai	a5,a0,0x1f
20001394:	00a7c533          	xor	a0,a5,a0
20001398:	00a00593          	li	a1,10
2000139c:	40f50533          	sub	a0,a0,a5
200013a0:	8f4ff0ef          	jal	ra,20000494 <__modsi3>
200013a4:	00140413          	addi	s0,s0,1
200013a8:	02010793          	addi	a5,sp,32
200013ac:	00a78533          	add	a0,a5,a0
200013b0:	fe054703          	lbu	a4,-32(a0)
200013b4:	008787b3          	add	a5,a5,s0
200013b8:	000185b7          	lui	a1,0x18
200013bc:	fee78623          	sb	a4,-20(a5)
200013c0:	6a058593          	addi	a1,a1,1696 # 186a0 <_STACK_SIZE+0x17ca0>
200013c4:	00048513          	mv	a0,s1
200013c8:	848ff0ef          	jal	ra,20000410 <__divsi3>
200013cc:	41f55793          	srai	a5,a0,0x1f
200013d0:	00a7c533          	xor	a0,a5,a0
200013d4:	00a00593          	li	a1,10
200013d8:	40f50533          	sub	a0,a0,a5
200013dc:	8b8ff0ef          	jal	ra,20000494 <__modsi3>
200013e0:	00140413          	addi	s0,s0,1
200013e4:	02010793          	addi	a5,sp,32
200013e8:	00a78533          	add	a0,a5,a0
200013ec:	fe054703          	lbu	a4,-32(a0)
200013f0:	008787b3          	add	a5,a5,s0
200013f4:	000025b7          	lui	a1,0x2
200013f8:	fee78623          	sb	a4,-20(a5)
200013fc:	71058593          	addi	a1,a1,1808 # 2710 <_STACK_SIZE+0x1d10>
20001400:	00048513          	mv	a0,s1
20001404:	80cff0ef          	jal	ra,20000410 <__divsi3>
20001408:	41f55793          	srai	a5,a0,0x1f
2000140c:	00a7c533          	xor	a0,a5,a0
20001410:	00a00593          	li	a1,10
20001414:	40f50533          	sub	a0,a0,a5
20001418:	87cff0ef          	jal	ra,20000494 <__modsi3>
2000141c:	00140413          	addi	s0,s0,1
20001420:	02010793          	addi	a5,sp,32
20001424:	00a78533          	add	a0,a5,a0
20001428:	fe054703          	lbu	a4,-32(a0)
2000142c:	008787b3          	add	a5,a5,s0
20001430:	3e800593          	li	a1,1000
20001434:	fee78623          	sb	a4,-20(a5)
20001438:	00048513          	mv	a0,s1
2000143c:	fd5fe0ef          	jal	ra,20000410 <__divsi3>
20001440:	41f55793          	srai	a5,a0,0x1f
20001444:	00a7c533          	xor	a0,a5,a0
20001448:	00a00593          	li	a1,10
2000144c:	40f50533          	sub	a0,a0,a5
20001450:	844ff0ef          	jal	ra,20000494 <__modsi3>
20001454:	00140413          	addi	s0,s0,1
20001458:	02010793          	addi	a5,sp,32
2000145c:	00a78533          	add	a0,a5,a0
20001460:	fe054703          	lbu	a4,-32(a0)
20001464:	008787b3          	add	a5,a5,s0
20001468:	06400593          	li	a1,100
2000146c:	fee78623          	sb	a4,-20(a5)
20001470:	00048513          	mv	a0,s1
20001474:	f9dfe0ef          	jal	ra,20000410 <__divsi3>
20001478:	41f55793          	srai	a5,a0,0x1f
2000147c:	00a7c533          	xor	a0,a5,a0
20001480:	00a00593          	li	a1,10
20001484:	40f50533          	sub	a0,a0,a5
20001488:	80cff0ef          	jal	ra,20000494 <__modsi3>
2000148c:	00140413          	addi	s0,s0,1
20001490:	02010793          	addi	a5,sp,32
20001494:	00a78533          	add	a0,a5,a0
20001498:	fe054703          	lbu	a4,-32(a0)
2000149c:	008787b3          	add	a5,a5,s0
200014a0:	00a00593          	li	a1,10
200014a4:	fee78623          	sb	a4,-20(a5)
200014a8:	00048513          	mv	a0,s1
200014ac:	f65fe0ef          	jal	ra,20000410 <__divsi3>
200014b0:	41f55793          	srai	a5,a0,0x1f
200014b4:	00a7c533          	xor	a0,a5,a0
200014b8:	00a00593          	li	a1,10
200014bc:	40f50533          	sub	a0,a0,a5
200014c0:	fd5fe0ef          	jal	ra,20000494 <__modsi3>
200014c4:	00140413          	addi	s0,s0,1
200014c8:	02010793          	addi	a5,sp,32
200014cc:	00a78533          	add	a0,a5,a0
200014d0:	fe054703          	lbu	a4,-32(a0)
200014d4:	008787b3          	add	a5,a5,s0
200014d8:	00140413          	addi	s0,s0,1
200014dc:	fee78623          	sb	a4,-20(a5)
200014e0:	d9dff06f          	j	2000127c <_Z15PrintDMADecimaliiib+0x204>

200014e4 <_GLOBAL__sub_I_gpu.cpp>:
200014e4:	00002797          	auipc	a5,0x2
200014e8:	ed47a783          	lw	a5,-300(a5) # 200033b8 <_GLOBAL_OFFSET_TABLE_+0xc>
200014ec:	0007a703          	lw	a4,0(a5)
200014f0:	00002797          	auipc	a5,0x2
200014f4:	ed07a783          	lw	a5,-304(a5) # 200033c0 <_GLOBAL_OFFSET_TABLE_+0x14>
200014f8:	00e7a023          	sw	a4,0(a5)
200014fc:	00008067          	ret

Disassembly of section .rodata:

20001500 <_etext-0x187f>:
	...
20001508:	0000                	unimp
2000150a:	00ff                	0xff
2000150c:	0000                	unimp
2000150e:	0000                	unimp
20001510:	ff00                	fsw	fs0,56(a4)
20001512:	ff00                	fsw	fs0,56(a4)
20001514:	0000                	unimp
20001516:	0000                	unimp
20001518:	0000                	unimp
2000151a:	00ff                	0xff
2000151c:	00ff                	0xff
2000151e:	0000                	unimp
20001520:	ff00                	fsw	fs0,56(a4)
20001522:	ffff                	0xffff
20001524:	0000                	unimp
20001526:	0000                	unimp
20001528:	ff00                	fsw	fs0,56(a4)
2000152a:	ffff                	0xffff
2000152c:	00ff                	0xff
2000152e:	0000                	unimp
20001530:	0000                	unimp
20001532:	00ff                	0xff
20001534:	0000                	unimp
20001536:	0000                	unimp
20001538:	0000                	unimp
2000153a:	00ff                	0xff
2000153c:	0000                	unimp
2000153e:	0000                	unimp
20001540:	0000                	unimp
20001542:	ff00                	fsw	fs0,56(a4)
20001544:	0000                	unimp
20001546:	0000                	unimp
20001548:	ff00                	fsw	fs0,56(a4)
	...
20001552:	00ff                	0xff
	...
2000157c:	00ff                	0xff
2000157e:	0000                	unimp
20001580:	ff00                	fsw	fs0,56(a4)
20001582:	ffff                	0xffff
20001584:	0000                	unimp
20001586:	0000                	unimp
20001588:	0000                	unimp
2000158a:	00ff                	0xff
2000158c:	0000                	unimp
2000158e:	0000                	unimp
20001590:	ff00                	fsw	fs0,56(a4)
20001592:	ffff                	0xffff
20001594:	0000                	unimp
20001596:	0000                	unimp
20001598:	ffff                	0xffff
2000159a:	ffff                	0xffff
2000159c:	00ff                	0xff
2000159e:	0000                	unimp
200015a0:	0000                	unimp
200015a2:	ff00                	fsw	fs0,56(a4)
200015a4:	0000                	unimp
200015a6:	0000                	unimp
200015a8:	ffff                	0xffff
200015aa:	ffff                	0xffff
200015ac:	00ff                	0xff
200015ae:	0000                	unimp
200015b0:	0000                	unimp
200015b2:	ffff                	0xffff
200015b4:	0000                	unimp
200015b6:	0000                	unimp
200015b8:	ffff                	0xffff
200015ba:	ffff                	0xffff
200015bc:	00ff                	0xff
200015be:	0000                	unimp
200015c0:	ff00                	fsw	fs0,56(a4)
200015c2:	ffff                	0xffff
200015c4:	0000                	unimp
200015c6:	0000                	unimp
200015c8:	ff00                	fsw	fs0,56(a4)
200015ca:	ffff                	0xffff
	...
200015f8:	0000                	unimp
200015fa:	ffff                	0xffff
	...
20001608:	0000                	unimp
2000160a:	00ff                	0xff
2000160c:	0000                	unimp
2000160e:	0000                	unimp
20001610:	ff00                	fsw	fs0,56(a4)
20001612:	ff00                	fsw	fs0,56(a4)
20001614:	0000                	unimp
20001616:	0000                	unimp
20001618:	ffff                	0xffff
2000161a:	ffff                	0xffff
2000161c:	00ff                	0xff
2000161e:	0000                	unimp
20001620:	00ff                	0xff
20001622:	00ff                	0xff
20001624:	00ff                	0xff
20001626:	0000                	unimp
20001628:	00ff                	0xff
2000162a:	00ff                	0xff
2000162c:	00ff                	0xff
2000162e:	0000                	unimp
20001630:	ff00                	fsw	fs0,56(a4)
20001632:	ff00                	fsw	fs0,56(a4)
20001634:	0000                	unimp
20001636:	0000                	unimp
20001638:	0000                	unimp
2000163a:	00ff                	0xff
2000163c:	0000                	unimp
2000163e:	0000                	unimp
20001640:	0000                	unimp
20001642:	00ff                	0xff
20001644:	0000                	unimp
20001646:	0000                	unimp
20001648:	0000                	unimp
2000164a:	00ff                	0xff
2000164c:	0000                	unimp
2000164e:	0000                	unimp
20001650:	00ff                	0xff
20001652:	00ff                	0xff
20001654:	00ff                	0xff
20001656:	0000                	unimp
20001658:	0000                	unimp
2000165a:	00ff                	0xff
	...
2000167c:	00ff                	0xff
2000167e:	0000                	unimp
20001680:	00ff                	0xff
20001682:	0000                	unimp
20001684:	00ff                	0xff
20001686:	0000                	unimp
20001688:	ff00                	fsw	fs0,56(a4)
2000168a:	00ff                	0xff
2000168c:	0000                	unimp
2000168e:	0000                	unimp
20001690:	00ff                	0xff
20001692:	0000                	unimp
20001694:	00ff                	0xff
20001696:	0000                	unimp
20001698:	0000                	unimp
2000169a:	ff00                	fsw	fs0,56(a4)
2000169c:	0000                	unimp
2000169e:	0000                	unimp
200016a0:	0000                	unimp
200016a2:	ffff                	0xffff
200016a4:	0000                	unimp
200016a6:	0000                	unimp
200016a8:	00ff                	0xff
200016aa:	0000                	unimp
200016ac:	0000                	unimp
200016ae:	0000                	unimp
200016b0:	ff00                	fsw	fs0,56(a4)
	...
200016ba:	0000                	unimp
200016bc:	00ff                	0xff
200016be:	0000                	unimp
200016c0:	00ff                	0xff
200016c2:	0000                	unimp
200016c4:	00ff                	0xff
200016c6:	0000                	unimp
200016c8:	00ff                	0xff
200016ca:	0000                	unimp
200016cc:	00ff                	0xff
	...
200016e2:	ff00                	fsw	fs0,56(a4)
	...
200016f0:	ff00                	fsw	fs0,56(a4)
200016f2:	0000                	unimp
200016f4:	0000                	unimp
200016f6:	0000                	unimp
200016f8:	ff00                	fsw	fs0,56(a4)
200016fa:	0000                	unimp
200016fc:	00ff                	0xff
	...
2000170a:	00ff                	0xff
	...
20001718:	ff00                	fsw	fs0,56(a4)
2000171a:	ff00                	fsw	fs0,56(a4)
2000171c:	0000                	unimp
2000171e:	0000                	unimp
20001720:	00ff                	0xff
20001722:	00ff                	0xff
20001724:	0000                	unimp
20001726:	0000                	unimp
20001728:	00ff                	0xff
2000172a:	ffff                	0xffff
2000172c:	0000                	unimp
2000172e:	0000                	unimp
20001730:	0000                	unimp
20001732:	00ff                	0xff
	...
20001740:	ff00                	fsw	fs0,56(a4)
	...
2000174a:	ff00                	fsw	fs0,56(a4)
2000174c:	0000                	unimp
2000174e:	0000                	unimp
20001750:	ff00                	fsw	fs0,56(a4)
20001752:	ffff                	0xffff
20001754:	0000                	unimp
20001756:	0000                	unimp
20001758:	0000                	unimp
2000175a:	00ff                	0xff
	...
20001778:	0000                	unimp
2000177a:	ff00                	fsw	fs0,56(a4)
2000177c:	0000                	unimp
2000177e:	0000                	unimp
20001780:	00ff                	0xff
20001782:	ff00                	fsw	fs0,56(a4)
20001784:	00ff                	0xff
20001786:	0000                	unimp
20001788:	0000                	unimp
2000178a:	00ff                	0xff
	...
20001794:	00ff                	0xff
20001796:	0000                	unimp
20001798:	0000                	unimp
2000179a:	00ff                	0xff
2000179c:	0000                	unimp
2000179e:	0000                	unimp
200017a0:	ff00                	fsw	fs0,56(a4)
200017a2:	ff00                	fsw	fs0,56(a4)
200017a4:	0000                	unimp
200017a6:	0000                	unimp
200017a8:	ffff                	0xffff
200017aa:	ffff                	0xffff
200017ac:	0000                	unimp
200017ae:	0000                	unimp
200017b0:	00ff                	0xff
	...
200017ba:	ff00                	fsw	fs0,56(a4)
200017bc:	0000                	unimp
200017be:	0000                	unimp
200017c0:	00ff                	0xff
200017c2:	0000                	unimp
200017c4:	00ff                	0xff
200017c6:	0000                	unimp
200017c8:	00ff                	0xff
200017ca:	0000                	unimp
200017cc:	00ff                	0xff
200017ce:	0000                	unimp
200017d0:	0000                	unimp
200017d2:	00ff                	0xff
200017d4:	0000                	unimp
200017d6:	0000                	unimp
200017d8:	0000                	unimp
200017da:	00ff                	0xff
200017dc:	0000                	unimp
200017de:	0000                	unimp
200017e0:	0000                	unimp
200017e2:	00ff                	0xff
200017e4:	0000                	unimp
200017e6:	0000                	unimp
200017e8:	ffff                	0xffff
200017ea:	ffff                	0xffff
200017ec:	00ff                	0xff
200017ee:	0000                	unimp
200017f0:	0000                	unimp
200017f2:	00ff                	0xff
	...
200017fc:	00ff                	0xff
	...
2000180a:	00ff                	0xff
	...
20001818:	ffff                	0xffff
2000181a:	ffff                	0xffff
2000181c:	00ff                	0xff
2000181e:	0000                	unimp
20001820:	ff00                	fsw	fs0,56(a4)
20001822:	ffff                	0xffff
20001824:	0000                	unimp
20001826:	0000                	unimp
20001828:	ff00                	fsw	fs0,56(a4)
2000182a:	ffff                	0xffff
2000182c:	00ff                	0xff
2000182e:	0000                	unimp
20001830:	ff00                	fsw	fs0,56(a4)
20001832:	ff00                	fsw	fs0,56(a4)
20001834:	ff00                	fsw	fs0,56(a4)
	...
2000183e:	0000                	unimp
20001840:	ff00                	fsw	fs0,56(a4)
	...
2000184a:	ff00                	fsw	fs0,56(a4)
2000184c:	0000                	unimp
2000184e:	0000                	unimp
20001850:	ff00                	fsw	fs0,56(a4)
20001852:	ff00                	fsw	fs0,56(a4)
20001854:	0000                	unimp
20001856:	0000                	unimp
20001858:	ffff                	0xffff
2000185a:	ffff                	0xffff
2000185c:	00ff                	0xff
	...
20001866:	0000                	unimp
20001868:	ff00                	fsw	fs0,56(a4)
2000186a:	ffff                	0xffff
2000186c:	00ff                	0xff
	...
2000187a:	ff00                	fsw	fs0,56(a4)
2000187c:	0000                	unimp
2000187e:	0000                	unimp
20001880:	00ff                	0xff
20001882:	00ff                	0xff
20001884:	00ff                	0xff
20001886:	0000                	unimp
20001888:	0000                	unimp
2000188a:	00ff                	0xff
2000188c:	0000                	unimp
2000188e:	0000                	unimp
20001890:	0000                	unimp
20001892:	ff00                	fsw	fs0,56(a4)
20001894:	0000                	unimp
20001896:	0000                	unimp
20001898:	ff00                	fsw	fs0,56(a4)
2000189a:	ffff                	0xffff
2000189c:	0000                	unimp
2000189e:	0000                	unimp
200018a0:	00ff                	0xff
200018a2:	ff00                	fsw	fs0,56(a4)
	...
200018ac:	00ff                	0xff
200018ae:	0000                	unimp
200018b0:	ffff                	0xffff
200018b2:	ffff                	0xffff
200018b4:	0000                	unimp
200018b6:	0000                	unimp
200018b8:	0000                	unimp
200018ba:	ff00                	fsw	fs0,56(a4)
200018bc:	0000                	unimp
200018be:	0000                	unimp
200018c0:	ff00                	fsw	fs0,56(a4)
200018c2:	ffff                	0xffff
200018c4:	0000                	unimp
200018c6:	0000                	unimp
200018c8:	ff00                	fsw	fs0,56(a4)
200018ca:	ffff                	0xffff
200018cc:	00ff                	0xff
	...
200018de:	0000                	unimp
200018e0:	ff00                	fsw	fs0,56(a4)
	...
200018f2:	ff00                	fsw	fs0,56(a4)
200018f4:	0000                	unimp
200018f6:	0000                	unimp
200018f8:	0000                	unimp
200018fa:	ff00                	fsw	fs0,56(a4)
	...
20001908:	0000                	unimp
2000190a:	00ff                	0xff
	...
20001918:	00ff                	0xff
2000191a:	00ff                	0xff
2000191c:	0000                	unimp
2000191e:	0000                	unimp
20001920:	0000                	unimp
20001922:	00ff                	0xff
20001924:	00ff                	0xff
20001926:	0000                	unimp
20001928:	0000                	unimp
2000192a:	ffff                	0xffff
2000192c:	ff00                	fsw	fs0,56(a4)
2000192e:	0000                	unimp
20001930:	00ff                	0xff
20001932:	0000                	unimp
20001934:	00ff                	0xff
	...
2000193e:	0000                	unimp
20001940:	ff00                	fsw	fs0,56(a4)
	...
2000194a:	ff00                	fsw	fs0,56(a4)
2000194c:	0000                	unimp
2000194e:	0000                	unimp
20001950:	00ff                	0xff
20001952:	0000                	unimp
20001954:	00ff                	0xff
20001956:	0000                	unimp
20001958:	0000                	unimp
2000195a:	00ff                	0xff
	...
20001978:	0000                	unimp
2000197a:	00ff                	0xff
2000197c:	0000                	unimp
2000197e:	0000                	unimp
20001980:	ffff                	0xffff
20001982:	0000                	unimp
20001984:	00ff                	0xff
20001986:	0000                	unimp
20001988:	0000                	unimp
2000198a:	00ff                	0xff
2000198c:	0000                	unimp
2000198e:	0000                	unimp
20001990:	0000                	unimp
20001992:	00ff                	0xff
	...
2000199c:	00ff                	0xff
2000199e:	0000                	unimp
200019a0:	ffff                	0xffff
200019a2:	ffff                	0xffff
200019a4:	00ff                	0xff
200019a6:	0000                	unimp
200019a8:	0000                	unimp
200019aa:	0000                	unimp
200019ac:	00ff                	0xff
200019ae:	0000                	unimp
200019b0:	00ff                	0xff
200019b2:	0000                	unimp
200019b4:	00ff                	0xff
200019b6:	0000                	unimp
200019b8:	0000                	unimp
200019ba:	00ff                	0xff
200019bc:	0000                	unimp
200019be:	0000                	unimp
200019c0:	00ff                	0xff
200019c2:	0000                	unimp
200019c4:	00ff                	0xff
200019c6:	0000                	unimp
200019c8:	0000                	unimp
200019ca:	0000                	unimp
200019cc:	00ff                	0xff
	...
200019e2:	00ff                	0xff
200019e4:	0000                	unimp
200019e6:	0000                	unimp
200019e8:	ffff                	0xffff
200019ea:	ffff                	0xffff
200019ec:	00ff                	0xff
200019ee:	0000                	unimp
200019f0:	0000                	unimp
200019f2:	00ff                	0xff
200019f4:	0000                	unimp
200019f6:	0000                	unimp
200019f8:	0000                	unimp
200019fa:	00ff                	0xff
	...
20001a20:	00ff                	0xff
20001a22:	00ff                	0xff
20001a24:	00ff                	0xff
20001a26:	0000                	unimp
20001a28:	ff00                	fsw	fs0,56(a4)
20001a2a:	ff00                	fsw	fs0,56(a4)
20001a2c:	ff00                	fsw	fs0,56(a4)
20001a2e:	0000                	unimp
20001a30:	00ff                	0xff
20001a32:	0000                	unimp
20001a34:	00ff                	0xff
	...
20001a3e:	0000                	unimp
20001a40:	ff00                	fsw	fs0,56(a4)
	...
20001a4a:	ff00                	fsw	fs0,56(a4)
	...
20001a58:	0000                	unimp
20001a5a:	00ff                	0xff
20001a5c:	0000                	unimp
20001a5e:	0000                	unimp
20001a60:	0000                	unimp
20001a62:	00ff                	0xff
	...
20001a78:	0000                	unimp
20001a7a:	00ff                	0xff
20001a7c:	0000                	unimp
20001a7e:	0000                	unimp
20001a80:	00ff                	0xff
20001a82:	0000                	unimp
20001a84:	00ff                	0xff
20001a86:	0000                	unimp
20001a88:	0000                	unimp
20001a8a:	00ff                	0xff
20001a8c:	0000                	unimp
20001a8e:	0000                	unimp
20001a90:	ff00                	fsw	fs0,56(a4)
20001a92:	0000                	unimp
20001a94:	0000                	unimp
20001a96:	0000                	unimp
20001a98:	00ff                	0xff
20001a9a:	0000                	unimp
20001a9c:	00ff                	0xff
20001a9e:	0000                	unimp
20001aa0:	0000                	unimp
20001aa2:	ff00                	fsw	fs0,56(a4)
20001aa4:	0000                	unimp
20001aa6:	0000                	unimp
20001aa8:	00ff                	0xff
20001aaa:	0000                	unimp
20001aac:	00ff                	0xff
20001aae:	0000                	unimp
20001ab0:	00ff                	0xff
20001ab2:	0000                	unimp
20001ab4:	00ff                	0xff
20001ab6:	0000                	unimp
20001ab8:	0000                	unimp
20001aba:	00ff                	0xff
20001abc:	0000                	unimp
20001abe:	0000                	unimp
20001ac0:	00ff                	0xff
20001ac2:	0000                	unimp
20001ac4:	00ff                	0xff
20001ac6:	0000                	unimp
20001ac8:	0000                	unimp
20001aca:	ff00                	fsw	fs0,56(a4)
	...
20001ad8:	0000                	unimp
20001ada:	00ff                	0xff
20001adc:	0000                	unimp
20001ade:	0000                	unimp
20001ae0:	0000                	unimp
20001ae2:	ff00                	fsw	fs0,56(a4)
	...
20001af0:	ff00                	fsw	fs0,56(a4)
	...
20001b0a:	00ff                	0xff
	...
20001b20:	ff00                	fsw	fs0,56(a4)
20001b22:	ffff                	0xffff
20001b24:	0000                	unimp
20001b26:	0000                	unimp
20001b28:	ff00                	fsw	fs0,56(a4)
20001b2a:	0000                	unimp
20001b2c:	00ff                	0xff
20001b2e:	0000                	unimp
20001b30:	ff00                	fsw	fs0,56(a4)
20001b32:	ffff                	0xffff
20001b34:	ff00                	fsw	fs0,56(a4)
	...
20001b42:	00ff                	0xff
20001b44:	0000                	unimp
20001b46:	0000                	unimp
20001b48:	0000                	unimp
20001b4a:	00ff                	0xff
	...
20001b60:	0000                	unimp
20001b62:	00ff                	0xff
	...
20001b70:	0000                	unimp
20001b72:	00ff                	0xff
20001b74:	0000                	unimp
20001b76:	0000                	unimp
20001b78:	ff00                	fsw	fs0,56(a4)
20001b7a:	0000                	unimp
20001b7c:	0000                	unimp
20001b7e:	0000                	unimp
20001b80:	ff00                	fsw	fs0,56(a4)
20001b82:	ffff                	0xffff
20001b84:	0000                	unimp
20001b86:	0000                	unimp
20001b88:	0000                	unimp
20001b8a:	00ff                	0xff
20001b8c:	0000                	unimp
20001b8e:	0000                	unimp
20001b90:	ffff                	0xffff
20001b92:	ffff                	0xffff
20001b94:	00ff                	0xff
20001b96:	0000                	unimp
20001b98:	ff00                	fsw	fs0,56(a4)
20001b9a:	ffff                	0xffff
20001b9c:	0000                	unimp
20001b9e:	0000                	unimp
20001ba0:	0000                	unimp
20001ba2:	ff00                	fsw	fs0,56(a4)
20001ba4:	0000                	unimp
20001ba6:	0000                	unimp
20001ba8:	ff00                	fsw	fs0,56(a4)
20001baa:	ffff                	0xffff
20001bac:	0000                	unimp
20001bae:	0000                	unimp
20001bb0:	ff00                	fsw	fs0,56(a4)
20001bb2:	ffff                	0xffff
20001bb4:	0000                	unimp
20001bb6:	0000                	unimp
20001bb8:	0000                	unimp
20001bba:	00ff                	0xff
20001bbc:	0000                	unimp
20001bbe:	0000                	unimp
20001bc0:	ff00                	fsw	fs0,56(a4)
20001bc2:	ffff                	0xffff
20001bc4:	0000                	unimp
20001bc6:	0000                	unimp
20001bc8:	ff00                	fsw	fs0,56(a4)
20001bca:	00ff                	0xff
20001bcc:	0000                	unimp
20001bce:	0000                	unimp
20001bd0:	0000                	unimp
20001bd2:	00ff                	0xff
20001bd4:	0000                	unimp
20001bd6:	0000                	unimp
20001bd8:	0000                	unimp
20001bda:	00ff                	0xff
	...
20001bf8:	0000                	unimp
20001bfa:	00ff                	0xff
	...
20001c20:	0000                	unimp
20001c22:	00ff                	0xff
	...
20001c40:	0000                	unimp
20001c42:	ff00                	fsw	fs0,56(a4)
20001c44:	0000                	unimp
20001c46:	0000                	unimp
20001c48:	ff00                	fsw	fs0,56(a4)
	...
20001c5e:	0000                	unimp
20001c60:	ff00                	fsw	fs0,56(a4)
	...
20001c76:	0000                	unimp
20001c78:	ff00                	fsw	fs0,56(a4)
	...
20001cd6:	0000                	unimp
20001cd8:	ff00                	fsw	fs0,56(a4)
	...
20001d02:	ffff                	0xffff
20001d04:	0000                	unimp
20001d06:	0000                	unimp
20001d08:	0000                	unimp
20001d0a:	00ff                	0xff
20001d0c:	0000                	unimp
20001d0e:	0000                	unimp
20001d10:	ffff                	0xffff
20001d12:	ffff                	0xffff
20001d14:	0000                	unimp
20001d16:	0000                	unimp
20001d18:	ff00                	fsw	fs0,56(a4)
20001d1a:	ffff                	0xffff
20001d1c:	0000                	unimp
20001d1e:	0000                	unimp
20001d20:	ffff                	0xffff
20001d22:	00ff                	0xff
20001d24:	0000                	unimp
20001d26:	0000                	unimp
20001d28:	ff00                	fsw	fs0,56(a4)
20001d2a:	ffff                	0xffff
20001d2c:	00ff                	0xff
20001d2e:	0000                	unimp
20001d30:	ff00                	fsw	fs0,56(a4)
20001d32:	ffff                	0xffff
20001d34:	00ff                	0xff
20001d36:	0000                	unimp
20001d38:	ff00                	fsw	fs0,56(a4)
20001d3a:	ffff                	0xffff
20001d3c:	0000                	unimp
20001d3e:	0000                	unimp
20001d40:	00ff                	0xff
20001d42:	0000                	unimp
20001d44:	00ff                	0xff
20001d46:	0000                	unimp
20001d48:	0000                	unimp
20001d4a:	00ff                	0xff
	...
20001d54:	00ff                	0xff
20001d56:	0000                	unimp
20001d58:	00ff                	0xff
20001d5a:	0000                	unimp
20001d5c:	00ff                	0xff
20001d5e:	0000                	unimp
20001d60:	ff00                	fsw	fs0,56(a4)
20001d62:	0000                	unimp
20001d64:	0000                	unimp
20001d66:	0000                	unimp
20001d68:	00ff                	0xff
20001d6a:	0000                	unimp
20001d6c:	00ff                	0xff
20001d6e:	0000                	unimp
20001d70:	ffff                	0xffff
20001d72:	0000                	unimp
20001d74:	00ff                	0xff
20001d76:	0000                	unimp
20001d78:	ff00                	fsw	fs0,56(a4)
20001d7a:	ffff                	0xffff
20001d7c:	0000                	unimp
20001d7e:	0000                	unimp
20001d80:	ffff                	0xffff
20001d82:	ffff                	0xffff
20001d84:	0000                	unimp
20001d86:	0000                	unimp
20001d88:	ff00                	fsw	fs0,56(a4)
20001d8a:	ffff                	0xffff
20001d8c:	0000                	unimp
20001d8e:	0000                	unimp
20001d90:	ffff                	0xffff
20001d92:	ffff                	0xffff
20001d94:	0000                	unimp
20001d96:	0000                	unimp
20001d98:	ff00                	fsw	fs0,56(a4)
20001d9a:	ffff                	0xffff
20001d9c:	0000                	unimp
20001d9e:	0000                	unimp
20001da0:	ffff                	0xffff
20001da2:	ffff                	0xffff
20001da4:	00ff                	0xff
20001da6:	0000                	unimp
20001da8:	00ff                	0xff
20001daa:	0000                	unimp
20001dac:	00ff                	0xff
20001dae:	0000                	unimp
20001db0:	00ff                	0xff
20001db2:	0000                	unimp
20001db4:	00ff                	0xff
20001db6:	0000                	unimp
20001db8:	00ff                	0xff
20001dba:	0000                	unimp
20001dbc:	00ff                	0xff
20001dbe:	0000                	unimp
20001dc0:	00ff                	0xff
20001dc2:	0000                	unimp
20001dc4:	00ff                	0xff
20001dc6:	0000                	unimp
20001dc8:	00ff                	0xff
20001dca:	0000                	unimp
20001dcc:	00ff                	0xff
20001dce:	0000                	unimp
20001dd0:	ff00                	fsw	fs0,56(a4)
20001dd2:	ffff                	0xffff
20001dd4:	00ff                	0xff
20001dd6:	0000                	unimp
20001dd8:	0000                	unimp
20001dda:	ffff                	0xffff
20001ddc:	0000                	unimp
20001dde:	0000                	unimp
20001de0:	ff00                	fsw	fs0,56(a4)
20001de2:	0000                	unimp
20001de4:	0000                	unimp
20001de6:	0000                	unimp
20001de8:	ff00                	fsw	fs0,56(a4)
20001dea:	00ff                	0xff
20001dec:	0000                	unimp
20001dee:	0000                	unimp
20001df0:	0000                	unimp
20001df2:	00ff                	0xff
	...
20001e00:	ff00                	fsw	fs0,56(a4)
20001e02:	0000                	unimp
20001e04:	00ff                	0xff
20001e06:	0000                	unimp
20001e08:	0000                	unimp
20001e0a:	00ff                	0xff
20001e0c:	0000                	unimp
20001e0e:	0000                	unimp
20001e10:	00ff                	0xff
20001e12:	0000                	unimp
20001e14:	00ff                	0xff
20001e16:	0000                	unimp
20001e18:	00ff                	0xff
20001e1a:	0000                	unimp
20001e1c:	00ff                	0xff
20001e1e:	0000                	unimp
20001e20:	00ff                	0xff
20001e22:	ff00                	fsw	fs0,56(a4)
20001e24:	0000                	unimp
20001e26:	0000                	unimp
20001e28:	ff00                	fsw	fs0,56(a4)
20001e2a:	0000                	unimp
20001e2c:	0000                	unimp
20001e2e:	0000                	unimp
20001e30:	ff00                	fsw	fs0,56(a4)
20001e32:	0000                	unimp
20001e34:	0000                	unimp
20001e36:	0000                	unimp
20001e38:	00ff                	0xff
20001e3a:	0000                	unimp
20001e3c:	00ff                	0xff
20001e3e:	0000                	unimp
20001e40:	00ff                	0xff
20001e42:	0000                	unimp
20001e44:	00ff                	0xff
20001e46:	0000                	unimp
20001e48:	0000                	unimp
20001e4a:	00ff                	0xff
	...
20001e54:	00ff                	0xff
20001e56:	0000                	unimp
20001e58:	00ff                	0xff
20001e5a:	ff00                	fsw	fs0,56(a4)
20001e5c:	0000                	unimp
20001e5e:	0000                	unimp
20001e60:	ff00                	fsw	fs0,56(a4)
20001e62:	0000                	unimp
20001e64:	0000                	unimp
20001e66:	0000                	unimp
20001e68:	ffff                	0xffff
20001e6a:	ff00                	fsw	fs0,56(a4)
20001e6c:	00ff                	0xff
20001e6e:	0000                	unimp
20001e70:	ffff                	0xffff
20001e72:	0000                	unimp
20001e74:	00ff                	0xff
20001e76:	0000                	unimp
20001e78:	00ff                	0xff
20001e7a:	0000                	unimp
20001e7c:	00ff                	0xff
20001e7e:	0000                	unimp
20001e80:	00ff                	0xff
20001e82:	0000                	unimp
20001e84:	00ff                	0xff
20001e86:	0000                	unimp
20001e88:	00ff                	0xff
20001e8a:	0000                	unimp
20001e8c:	00ff                	0xff
20001e8e:	0000                	unimp
20001e90:	00ff                	0xff
20001e92:	0000                	unimp
20001e94:	00ff                	0xff
20001e96:	0000                	unimp
20001e98:	00ff                	0xff
20001e9a:	0000                	unimp
20001e9c:	00ff                	0xff
20001e9e:	0000                	unimp
20001ea0:	0000                	unimp
20001ea2:	00ff                	0xff
20001ea4:	0000                	unimp
20001ea6:	0000                	unimp
20001ea8:	00ff                	0xff
20001eaa:	0000                	unimp
20001eac:	00ff                	0xff
20001eae:	0000                	unimp
20001eb0:	00ff                	0xff
20001eb2:	0000                	unimp
20001eb4:	00ff                	0xff
20001eb6:	0000                	unimp
20001eb8:	00ff                	0xff
20001eba:	0000                	unimp
20001ebc:	00ff                	0xff
20001ebe:	0000                	unimp
20001ec0:	00ff                	0xff
20001ec2:	0000                	unimp
20001ec4:	00ff                	0xff
20001ec6:	0000                	unimp
20001ec8:	00ff                	0xff
20001eca:	0000                	unimp
20001ecc:	00ff                	0xff
20001ece:	0000                	unimp
20001ed0:	0000                	unimp
20001ed2:	0000                	unimp
20001ed4:	00ff                	0xff
20001ed6:	0000                	unimp
20001ed8:	0000                	unimp
20001eda:	00ff                	0xff
20001edc:	0000                	unimp
20001ede:	0000                	unimp
20001ee0:	ff00                	fsw	fs0,56(a4)
	...
20001eea:	00ff                	0xff
20001eec:	0000                	unimp
20001eee:	0000                	unimp
20001ef0:	ff00                	fsw	fs0,56(a4)
20001ef2:	ff00                	fsw	fs0,56(a4)
	...
20001f00:	00ff                	0xff
20001f02:	ffff                	0xffff
20001f04:	ff00                	fsw	fs0,56(a4)
20001f06:	0000                	unimp
20001f08:	ff00                	fsw	fs0,56(a4)
20001f0a:	ff00                	fsw	fs0,56(a4)
20001f0c:	0000                	unimp
20001f0e:	0000                	unimp
20001f10:	00ff                	0xff
20001f12:	0000                	unimp
20001f14:	00ff                	0xff
20001f16:	0000                	unimp
20001f18:	00ff                	0xff
20001f1a:	0000                	unimp
20001f1c:	0000                	unimp
20001f1e:	0000                	unimp
20001f20:	00ff                	0xff
20001f22:	0000                	unimp
20001f24:	00ff                	0xff
20001f26:	0000                	unimp
20001f28:	ff00                	fsw	fs0,56(a4)
20001f2a:	0000                	unimp
20001f2c:	0000                	unimp
20001f2e:	0000                	unimp
20001f30:	ff00                	fsw	fs0,56(a4)
20001f32:	0000                	unimp
20001f34:	0000                	unimp
20001f36:	0000                	unimp
20001f38:	00ff                	0xff
20001f3a:	0000                	unimp
20001f3c:	0000                	unimp
20001f3e:	0000                	unimp
20001f40:	00ff                	0xff
20001f42:	0000                	unimp
20001f44:	00ff                	0xff
20001f46:	0000                	unimp
20001f48:	0000                	unimp
20001f4a:	00ff                	0xff
	...
20001f54:	00ff                	0xff
20001f56:	0000                	unimp
20001f58:	00ff                	0xff
20001f5a:	00ff                	0xff
20001f5c:	0000                	unimp
20001f5e:	0000                	unimp
20001f60:	ff00                	fsw	fs0,56(a4)
20001f62:	0000                	unimp
20001f64:	0000                	unimp
20001f66:	0000                	unimp
20001f68:	00ff                	0xff
20001f6a:	00ff                	0xff
20001f6c:	00ff                	0xff
20001f6e:	0000                	unimp
20001f70:	00ff                	0xff
20001f72:	00ff                	0xff
20001f74:	00ff                	0xff
20001f76:	0000                	unimp
20001f78:	00ff                	0xff
20001f7a:	0000                	unimp
20001f7c:	00ff                	0xff
20001f7e:	0000                	unimp
20001f80:	00ff                	0xff
20001f82:	0000                	unimp
20001f84:	00ff                	0xff
20001f86:	0000                	unimp
20001f88:	00ff                	0xff
20001f8a:	0000                	unimp
20001f8c:	00ff                	0xff
20001f8e:	0000                	unimp
20001f90:	00ff                	0xff
20001f92:	0000                	unimp
20001f94:	00ff                	0xff
20001f96:	0000                	unimp
20001f98:	00ff                	0xff
	...
20001fa2:	00ff                	0xff
20001fa4:	0000                	unimp
20001fa6:	0000                	unimp
20001fa8:	00ff                	0xff
20001faa:	0000                	unimp
20001fac:	00ff                	0xff
20001fae:	0000                	unimp
20001fb0:	00ff                	0xff
20001fb2:	0000                	unimp
20001fb4:	00ff                	0xff
20001fb6:	0000                	unimp
20001fb8:	00ff                	0xff
20001fba:	00ff                	0xff
20001fbc:	00ff                	0xff
20001fbe:	0000                	unimp
20001fc0:	ff00                	fsw	fs0,56(a4)
20001fc2:	ff00                	fsw	fs0,56(a4)
20001fc4:	0000                	unimp
20001fc6:	0000                	unimp
20001fc8:	ff00                	fsw	fs0,56(a4)
20001fca:	ff00                	fsw	fs0,56(a4)
20001fcc:	0000                	unimp
20001fce:	0000                	unimp
20001fd0:	0000                	unimp
20001fd2:	ff00                	fsw	fs0,56(a4)
20001fd4:	0000                	unimp
20001fd6:	0000                	unimp
20001fd8:	0000                	unimp
20001fda:	00ff                	0xff
20001fdc:	0000                	unimp
20001fde:	0000                	unimp
20001fe0:	0000                	unimp
20001fe2:	00ff                	0xff
20001fe4:	0000                	unimp
20001fe6:	0000                	unimp
20001fe8:	0000                	unimp
20001fea:	00ff                	0xff
	...
20002000:	ffff                	0xffff
20002002:	ff00                	fsw	fs0,56(a4)
20002004:	ff00                	fsw	fs0,56(a4)
20002006:	0000                	unimp
20002008:	ff00                	fsw	fs0,56(a4)
2000200a:	ff00                	fsw	fs0,56(a4)
2000200c:	0000                	unimp
2000200e:	0000                	unimp
20002010:	ffff                	0xffff
20002012:	ffff                	0xffff
20002014:	0000                	unimp
20002016:	0000                	unimp
20002018:	00ff                	0xff
2000201a:	0000                	unimp
2000201c:	0000                	unimp
2000201e:	0000                	unimp
20002020:	00ff                	0xff
20002022:	0000                	unimp
20002024:	00ff                	0xff
20002026:	0000                	unimp
20002028:	ff00                	fsw	fs0,56(a4)
2000202a:	ffff                	0xffff
2000202c:	0000                	unimp
2000202e:	0000                	unimp
20002030:	ff00                	fsw	fs0,56(a4)
20002032:	ffff                	0xffff
20002034:	0000                	unimp
20002036:	0000                	unimp
20002038:	00ff                	0xff
2000203a:	ff00                	fsw	fs0,56(a4)
2000203c:	00ff                	0xff
2000203e:	0000                	unimp
20002040:	ffff                	0xffff
20002042:	ffff                	0xffff
20002044:	00ff                	0xff
20002046:	0000                	unimp
20002048:	0000                	unimp
2000204a:	00ff                	0xff
	...
20002054:	00ff                	0xff
20002056:	0000                	unimp
20002058:	ffff                	0xffff
2000205a:	0000                	unimp
2000205c:	0000                	unimp
2000205e:	0000                	unimp
20002060:	ff00                	fsw	fs0,56(a4)
20002062:	0000                	unimp
20002064:	0000                	unimp
20002066:	0000                	unimp
20002068:	00ff                	0xff
2000206a:	0000                	unimp
2000206c:	00ff                	0xff
2000206e:	0000                	unimp
20002070:	00ff                	0xff
20002072:	00ff                	0xff
20002074:	00ff                	0xff
20002076:	0000                	unimp
20002078:	00ff                	0xff
2000207a:	0000                	unimp
2000207c:	00ff                	0xff
2000207e:	0000                	unimp
20002080:	ffff                	0xffff
20002082:	ffff                	0xffff
20002084:	0000                	unimp
20002086:	0000                	unimp
20002088:	00ff                	0xff
2000208a:	0000                	unimp
2000208c:	00ff                	0xff
2000208e:	0000                	unimp
20002090:	ffff                	0xffff
20002092:	ffff                	0xffff
20002094:	0000                	unimp
20002096:	0000                	unimp
20002098:	ff00                	fsw	fs0,56(a4)
2000209a:	ffff                	0xffff
2000209c:	0000                	unimp
2000209e:	0000                	unimp
200020a0:	0000                	unimp
200020a2:	00ff                	0xff
200020a4:	0000                	unimp
200020a6:	0000                	unimp
200020a8:	00ff                	0xff
200020aa:	0000                	unimp
200020ac:	00ff                	0xff
200020ae:	0000                	unimp
200020b0:	ff00                	fsw	fs0,56(a4)
200020b2:	ff00                	fsw	fs0,56(a4)
200020b4:	0000                	unimp
200020b6:	0000                	unimp
200020b8:	00ff                	0xff
200020ba:	00ff                	0xff
200020bc:	00ff                	0xff
200020be:	0000                	unimp
200020c0:	0000                	unimp
200020c2:	00ff                	0xff
200020c4:	0000                	unimp
200020c6:	0000                	unimp
200020c8:	0000                	unimp
200020ca:	00ff                	0xff
200020cc:	0000                	unimp
200020ce:	0000                	unimp
200020d0:	0000                	unimp
200020d2:	00ff                	0xff
200020d4:	0000                	unimp
200020d6:	0000                	unimp
200020d8:	0000                	unimp
200020da:	00ff                	0xff
200020dc:	0000                	unimp
200020de:	0000                	unimp
200020e0:	0000                	unimp
200020e2:	00ff                	0xff
200020e4:	0000                	unimp
200020e6:	0000                	unimp
200020e8:	0000                	unimp
200020ea:	00ff                	0xff
	...
20002100:	ffff                	0xffff
20002102:	ff00                	fsw	fs0,56(a4)
20002104:	ff00                	fsw	fs0,56(a4)
20002106:	0000                	unimp
20002108:	ffff                	0xffff
2000210a:	ffff                	0xffff
2000210c:	00ff                	0xff
2000210e:	0000                	unimp
20002110:	00ff                	0xff
20002112:	0000                	unimp
20002114:	00ff                	0xff
20002116:	0000                	unimp
20002118:	00ff                	0xff
2000211a:	0000                	unimp
2000211c:	0000                	unimp
2000211e:	0000                	unimp
20002120:	00ff                	0xff
20002122:	0000                	unimp
20002124:	00ff                	0xff
20002126:	0000                	unimp
20002128:	ff00                	fsw	fs0,56(a4)
2000212a:	0000                	unimp
2000212c:	0000                	unimp
2000212e:	0000                	unimp
20002130:	ff00                	fsw	fs0,56(a4)
20002132:	0000                	unimp
20002134:	0000                	unimp
20002136:	0000                	unimp
20002138:	00ff                	0xff
2000213a:	0000                	unimp
2000213c:	00ff                	0xff
2000213e:	0000                	unimp
20002140:	00ff                	0xff
20002142:	0000                	unimp
20002144:	00ff                	0xff
20002146:	0000                	unimp
20002148:	0000                	unimp
2000214a:	00ff                	0xff
2000214c:	0000                	unimp
2000214e:	0000                	unimp
20002150:	00ff                	0xff
20002152:	0000                	unimp
20002154:	00ff                	0xff
20002156:	0000                	unimp
20002158:	00ff                	0xff
2000215a:	00ff                	0xff
2000215c:	0000                	unimp
2000215e:	0000                	unimp
20002160:	ff00                	fsw	fs0,56(a4)
20002162:	0000                	unimp
20002164:	0000                	unimp
20002166:	0000                	unimp
20002168:	00ff                	0xff
2000216a:	0000                	unimp
2000216c:	00ff                	0xff
2000216e:	0000                	unimp
20002170:	00ff                	0xff
20002172:	ff00                	fsw	fs0,56(a4)
20002174:	00ff                	0xff
20002176:	0000                	unimp
20002178:	00ff                	0xff
2000217a:	0000                	unimp
2000217c:	00ff                	0xff
2000217e:	0000                	unimp
20002180:	00ff                	0xff
20002182:	0000                	unimp
20002184:	0000                	unimp
20002186:	0000                	unimp
20002188:	00ff                	0xff
2000218a:	0000                	unimp
2000218c:	00ff                	0xff
2000218e:	0000                	unimp
20002190:	00ff                	0xff
20002192:	00ff                	0xff
	...
2000219c:	00ff                	0xff
2000219e:	0000                	unimp
200021a0:	0000                	unimp
200021a2:	00ff                	0xff
200021a4:	0000                	unimp
200021a6:	0000                	unimp
200021a8:	00ff                	0xff
200021aa:	0000                	unimp
200021ac:	00ff                	0xff
200021ae:	0000                	unimp
200021b0:	ff00                	fsw	fs0,56(a4)
200021b2:	ff00                	fsw	fs0,56(a4)
200021b4:	0000                	unimp
200021b6:	0000                	unimp
200021b8:	ff00                	fsw	fs0,56(a4)
200021ba:	ff00                	fsw	fs0,56(a4)
200021bc:	0000                	unimp
200021be:	0000                	unimp
200021c0:	ff00                	fsw	fs0,56(a4)
200021c2:	ff00                	fsw	fs0,56(a4)
200021c4:	0000                	unimp
200021c6:	0000                	unimp
200021c8:	0000                	unimp
200021ca:	00ff                	0xff
200021cc:	0000                	unimp
200021ce:	0000                	unimp
200021d0:	ff00                	fsw	fs0,56(a4)
	...
200021da:	00ff                	0xff
200021dc:	0000                	unimp
200021de:	0000                	unimp
200021e0:	0000                	unimp
200021e2:	ff00                	fsw	fs0,56(a4)
200021e4:	0000                	unimp
200021e6:	0000                	unimp
200021e8:	0000                	unimp
200021ea:	00ff                	0xff
	...
20002200:	00ff                	0xff
20002202:	ffff                	0xffff
20002204:	00ff                	0xff
20002206:	0000                	unimp
20002208:	00ff                	0xff
2000220a:	0000                	unimp
2000220c:	00ff                	0xff
2000220e:	0000                	unimp
20002210:	00ff                	0xff
20002212:	0000                	unimp
20002214:	00ff                	0xff
20002216:	0000                	unimp
20002218:	00ff                	0xff
2000221a:	0000                	unimp
2000221c:	00ff                	0xff
2000221e:	0000                	unimp
20002220:	00ff                	0xff
20002222:	ff00                	fsw	fs0,56(a4)
20002224:	0000                	unimp
20002226:	0000                	unimp
20002228:	ff00                	fsw	fs0,56(a4)
2000222a:	0000                	unimp
2000222c:	0000                	unimp
2000222e:	0000                	unimp
20002230:	ff00                	fsw	fs0,56(a4)
20002232:	0000                	unimp
20002234:	0000                	unimp
20002236:	0000                	unimp
20002238:	00ff                	0xff
2000223a:	0000                	unimp
2000223c:	00ff                	0xff
2000223e:	0000                	unimp
20002240:	00ff                	0xff
20002242:	0000                	unimp
20002244:	00ff                	0xff
20002246:	0000                	unimp
20002248:	0000                	unimp
2000224a:	00ff                	0xff
2000224c:	0000                	unimp
2000224e:	0000                	unimp
20002250:	00ff                	0xff
20002252:	0000                	unimp
20002254:	00ff                	0xff
20002256:	0000                	unimp
20002258:	00ff                	0xff
2000225a:	ff00                	fsw	fs0,56(a4)
2000225c:	0000                	unimp
2000225e:	0000                	unimp
20002260:	ff00                	fsw	fs0,56(a4)
20002262:	0000                	unimp
20002264:	0000                	unimp
20002266:	0000                	unimp
20002268:	00ff                	0xff
2000226a:	0000                	unimp
2000226c:	00ff                	0xff
2000226e:	0000                	unimp
20002270:	00ff                	0xff
20002272:	ff00                	fsw	fs0,56(a4)
20002274:	00ff                	0xff
20002276:	0000                	unimp
20002278:	00ff                	0xff
2000227a:	0000                	unimp
2000227c:	00ff                	0xff
2000227e:	0000                	unimp
20002280:	00ff                	0xff
20002282:	0000                	unimp
20002284:	0000                	unimp
20002286:	0000                	unimp
20002288:	00ff                	0xff
2000228a:	00ff                	0xff
2000228c:	00ff                	0xff
2000228e:	0000                	unimp
20002290:	00ff                	0xff
20002292:	ff00                	fsw	fs0,56(a4)
20002294:	0000                	unimp
20002296:	0000                	unimp
20002298:	00ff                	0xff
2000229a:	0000                	unimp
2000229c:	00ff                	0xff
2000229e:	0000                	unimp
200022a0:	0000                	unimp
200022a2:	00ff                	0xff
200022a4:	0000                	unimp
200022a6:	0000                	unimp
200022a8:	00ff                	0xff
200022aa:	0000                	unimp
200022ac:	00ff                	0xff
200022ae:	0000                	unimp
200022b0:	0000                	unimp
200022b2:	00ff                	0xff
200022b4:	0000                	unimp
200022b6:	0000                	unimp
200022b8:	ff00                	fsw	fs0,56(a4)
200022ba:	ff00                	fsw	fs0,56(a4)
200022bc:	0000                	unimp
200022be:	0000                	unimp
200022c0:	00ff                	0xff
200022c2:	0000                	unimp
200022c4:	00ff                	0xff
200022c6:	0000                	unimp
200022c8:	0000                	unimp
200022ca:	00ff                	0xff
200022cc:	0000                	unimp
200022ce:	0000                	unimp
200022d0:	ff00                	fsw	fs0,56(a4)
	...
200022da:	00ff                	0xff
200022dc:	0000                	unimp
200022de:	0000                	unimp
200022e0:	0000                	unimp
200022e2:	ff00                	fsw	fs0,56(a4)
200022e4:	0000                	unimp
200022e6:	0000                	unimp
200022e8:	0000                	unimp
200022ea:	00ff                	0xff
	...
20002300:	ff00                	fsw	fs0,56(a4)
20002302:	0000                	unimp
20002304:	0000                	unimp
20002306:	0000                	unimp
20002308:	00ff                	0xff
2000230a:	0000                	unimp
2000230c:	00ff                	0xff
2000230e:	0000                	unimp
20002310:	ffff                	0xffff
20002312:	ffff                	0xffff
20002314:	0000                	unimp
20002316:	0000                	unimp
20002318:	ff00                	fsw	fs0,56(a4)
2000231a:	ffff                	0xffff
2000231c:	0000                	unimp
2000231e:	0000                	unimp
20002320:	ffff                	0xffff
20002322:	00ff                	0xff
20002324:	0000                	unimp
20002326:	0000                	unimp
20002328:	ff00                	fsw	fs0,56(a4)
2000232a:	ffff                	0xffff
2000232c:	00ff                	0xff
2000232e:	0000                	unimp
20002330:	ff00                	fsw	fs0,56(a4)
20002332:	0000                	unimp
20002334:	0000                	unimp
20002336:	0000                	unimp
20002338:	ff00                	fsw	fs0,56(a4)
2000233a:	ffff                	0xffff
2000233c:	0000                	unimp
2000233e:	0000                	unimp
20002340:	00ff                	0xff
20002342:	0000                	unimp
20002344:	00ff                	0xff
20002346:	0000                	unimp
20002348:	0000                	unimp
2000234a:	00ff                	0xff
2000234c:	0000                	unimp
2000234e:	0000                	unimp
20002350:	ff00                	fsw	fs0,56(a4)
20002352:	ffff                	0xffff
20002354:	0000                	unimp
20002356:	0000                	unimp
20002358:	00ff                	0xff
2000235a:	0000                	unimp
2000235c:	00ff                	0xff
2000235e:	0000                	unimp
20002360:	ff00                	fsw	fs0,56(a4)
20002362:	ffff                	0xffff
20002364:	00ff                	0xff
20002366:	0000                	unimp
20002368:	00ff                	0xff
2000236a:	0000                	unimp
2000236c:	00ff                	0xff
2000236e:	0000                	unimp
20002370:	00ff                	0xff
20002372:	0000                	unimp
20002374:	00ff                	0xff
20002376:	0000                	unimp
20002378:	ff00                	fsw	fs0,56(a4)
2000237a:	ffff                	0xffff
2000237c:	0000                	unimp
2000237e:	0000                	unimp
20002380:	00ff                	0xff
20002382:	0000                	unimp
20002384:	0000                	unimp
20002386:	0000                	unimp
20002388:	ff00                	fsw	fs0,56(a4)
2000238a:	ffff                	0xffff
2000238c:	0000                	unimp
2000238e:	0000                	unimp
20002390:	00ff                	0xff
20002392:	0000                	unimp
20002394:	00ff                	0xff
20002396:	0000                	unimp
20002398:	ff00                	fsw	fs0,56(a4)
2000239a:	ffff                	0xffff
2000239c:	0000                	unimp
2000239e:	0000                	unimp
200023a0:	0000                	unimp
200023a2:	00ff                	0xff
200023a4:	0000                	unimp
200023a6:	0000                	unimp
200023a8:	ff00                	fsw	fs0,56(a4)
200023aa:	ffff                	0xffff
200023ac:	0000                	unimp
200023ae:	0000                	unimp
200023b0:	0000                	unimp
200023b2:	00ff                	0xff
200023b4:	0000                	unimp
200023b6:	0000                	unimp
200023b8:	ff00                	fsw	fs0,56(a4)
200023ba:	ff00                	fsw	fs0,56(a4)
200023bc:	0000                	unimp
200023be:	0000                	unimp
200023c0:	00ff                	0xff
200023c2:	0000                	unimp
200023c4:	00ff                	0xff
200023c6:	0000                	unimp
200023c8:	0000                	unimp
200023ca:	00ff                	0xff
200023cc:	0000                	unimp
200023ce:	0000                	unimp
200023d0:	ff00                	fsw	fs0,56(a4)
200023d2:	ffff                	0xffff
200023d4:	00ff                	0xff
200023d6:	0000                	unimp
200023d8:	0000                	unimp
200023da:	00ff                	0xff
	...
200023e4:	00ff                	0xff
200023e6:	0000                	unimp
200023e8:	0000                	unimp
200023ea:	00ff                	0xff
	...
20002400:	0000                	unimp
20002402:	ffff                	0xffff
	...
20002488:	0000                	unimp
2000248a:	ff00                	fsw	fs0,56(a4)
	...
200024d8:	0000                	unimp
200024da:	ffff                	0xffff
	...
200024e4:	00ff                	0xff
200024e6:	0000                	unimp
200024e8:	ff00                	fsw	fs0,56(a4)
200024ea:	00ff                	0xff
	...
200024f8:	ffff                	0xffff
200024fa:	ffff                	0xffff
200024fc:	ffff                	0xffff
200024fe:	0000                	unimp
20002500:	0000                	unimp
20002502:	ffff                	0xffff
	...
20002510:	ff00                	fsw	fs0,56(a4)
	...
20002522:	0000                	unimp
20002524:	00ff                	0xff
	...
20002532:	ff00                	fsw	fs0,56(a4)
20002534:	00ff                	0xff
	...
2000253e:	0000                	unimp
20002540:	ff00                	fsw	fs0,56(a4)
	...
2000254a:	00ff                	0xff
2000254c:	0000                	unimp
2000254e:	0000                	unimp
20002550:	0000                	unimp
20002552:	ff00                	fsw	fs0,56(a4)
20002554:	0000                	unimp
20002556:	0000                	unimp
20002558:	ff00                	fsw	fs0,56(a4)
	...
20002562:	00ff                	0xff
	...
200025a0:	0000                	unimp
200025a2:	00ff                	0xff
	...
200025d8:	0000                	unimp
200025da:	ff00                	fsw	fs0,56(a4)
200025dc:	0000                	unimp
200025de:	0000                	unimp
200025e0:	0000                	unimp
200025e2:	00ff                	0xff
200025e4:	0000                	unimp
200025e6:	0000                	unimp
200025e8:	ff00                	fsw	fs0,56(a4)
200025ea:	0000                	unimp
200025ec:	0000                	unimp
200025ee:	0000                	unimp
200025f0:	ff00                	fsw	fs0,56(a4)
200025f2:	00ff                	0xff
200025f4:	00ff                	0xff
200025f6:	0000                	unimp
200025f8:	0000                	unimp
200025fa:	ffff                	0xffff
200025fc:	0000                	unimp
200025fe:	0000                	unimp
20002600:	ff00                	fsw	fs0,56(a4)
	...
2000260e:	0000                	unimp
20002610:	ff00                	fsw	fs0,56(a4)
	...
20002622:	0000                	unimp
20002624:	00ff                	0xff
	...
20002632:	00ff                	0xff
	...
20002640:	ff00                	fsw	fs0,56(a4)
	...
20002656:	0000                	unimp
20002658:	ff00                	fsw	fs0,56(a4)
	...
20002662:	00ff                	0xff
	...
200026a0:	0000                	unimp
200026a2:	00ff                	0xff
	...
200026d8:	0000                	unimp
200026da:	00ff                	0xff
200026dc:	0000                	unimp
200026de:	0000                	unimp
200026e0:	0000                	unimp
200026e2:	00ff                	0xff
200026e4:	0000                	unimp
200026e6:	0000                	unimp
200026e8:	0000                	unimp
200026ea:	00ff                	0xff
200026ec:	0000                	unimp
200026ee:	0000                	unimp
200026f0:	00ff                	0xff
200026f2:	ffff                	0xffff
200026f4:	0000                	unimp
200026f6:	0000                	unimp
200026f8:	ff00                	fsw	fs0,56(a4)
200026fa:	0000                	unimp
200026fc:	00ff                	0xff
200026fe:	0000                	unimp
20002700:	ff00                	fsw	fs0,56(a4)
	...
2000270a:	ffff                	0xffff
2000270c:	0000                	unimp
2000270e:	0000                	unimp
20002710:	ff00                	fsw	fs0,56(a4)
20002712:	ffff                	0xffff
20002714:	0000                	unimp
20002716:	0000                	unimp
20002718:	0000                	unimp
2000271a:	ffff                	0xffff
2000271c:	0000                	unimp
2000271e:	0000                	unimp
20002720:	0000                	unimp
20002722:	ffff                	0xffff
20002724:	00ff                	0xff
20002726:	0000                	unimp
20002728:	0000                	unimp
2000272a:	ffff                	0xffff
2000272c:	0000                	unimp
2000272e:	0000                	unimp
20002730:	ff00                	fsw	fs0,56(a4)
20002732:	ffff                	0xffff
20002734:	0000                	unimp
20002736:	0000                	unimp
20002738:	0000                	unimp
2000273a:	ffff                	0xffff
2000273c:	00ff                	0xff
2000273e:	0000                	unimp
20002740:	ff00                	fsw	fs0,56(a4)
20002742:	ffff                	0xffff
20002744:	0000                	unimp
20002746:	0000                	unimp
20002748:	0000                	unimp
2000274a:	00ff                	0xff
2000274c:	0000                	unimp
2000274e:	0000                	unimp
20002750:	0000                	unimp
20002752:	ff00                	fsw	fs0,56(a4)
20002754:	0000                	unimp
20002756:	0000                	unimp
20002758:	ff00                	fsw	fs0,56(a4)
2000275a:	0000                	unimp
2000275c:	00ff                	0xff
2000275e:	0000                	unimp
20002760:	0000                	unimp
20002762:	00ff                	0xff
20002764:	0000                	unimp
20002766:	0000                	unimp
20002768:	ffff                	0xffff
2000276a:	ff00                	fsw	fs0,56(a4)
2000276c:	0000                	unimp
2000276e:	0000                	unimp
20002770:	ff00                	fsw	fs0,56(a4)
20002772:	ffff                	0xffff
20002774:	0000                	unimp
20002776:	0000                	unimp
20002778:	0000                	unimp
2000277a:	ffff                	0xffff
2000277c:	0000                	unimp
2000277e:	0000                	unimp
20002780:	ff00                	fsw	fs0,56(a4)
20002782:	ffff                	0xffff
20002784:	0000                	unimp
20002786:	0000                	unimp
20002788:	0000                	unimp
2000278a:	ffff                	0xffff
2000278c:	00ff                	0xff
2000278e:	0000                	unimp
20002790:	ff00                	fsw	fs0,56(a4)
20002792:	ff00                	fsw	fs0,56(a4)
20002794:	00ff                	0xff
20002796:	0000                	unimp
20002798:	0000                	unimp
2000279a:	ffff                	0xffff
2000279c:	00ff                	0xff
2000279e:	0000                	unimp
200027a0:	ff00                	fsw	fs0,56(a4)
200027a2:	ffff                	0xffff
200027a4:	0000                	unimp
200027a6:	0000                	unimp
200027a8:	ff00                	fsw	fs0,56(a4)
200027aa:	0000                	unimp
200027ac:	00ff                	0xff
200027ae:	0000                	unimp
200027b0:	00ff                	0xff
200027b2:	0000                	unimp
200027b4:	00ff                	0xff
200027b6:	0000                	unimp
200027b8:	00ff                	0xff
200027ba:	0000                	unimp
200027bc:	00ff                	0xff
200027be:	0000                	unimp
200027c0:	00ff                	0xff
200027c2:	0000                	unimp
200027c4:	00ff                	0xff
200027c6:	0000                	unimp
200027c8:	00ff                	0xff
200027ca:	0000                	unimp
200027cc:	00ff                	0xff
200027ce:	0000                	unimp
200027d0:	ff00                	fsw	fs0,56(a4)
200027d2:	ffff                	0xffff
200027d4:	00ff                	0xff
200027d6:	0000                	unimp
200027d8:	0000                	unimp
200027da:	00ff                	0xff
200027dc:	0000                	unimp
200027de:	0000                	unimp
200027e0:	0000                	unimp
200027e2:	00ff                	0xff
200027e4:	0000                	unimp
200027e6:	0000                	unimp
200027e8:	0000                	unimp
200027ea:	00ff                	0xff
	...
200027f8:	00ff                	0xff
200027fa:	ffff                	0xffff
200027fc:	ff00                	fsw	fs0,56(a4)
200027fe:	0000                	unimp
20002800:	ffff                	0xffff
20002802:	00ff                	0xff
	...
2000280c:	00ff                	0xff
2000280e:	0000                	unimp
20002810:	ff00                	fsw	fs0,56(a4)
20002812:	0000                	unimp
20002814:	00ff                	0xff
20002816:	0000                	unimp
20002818:	ff00                	fsw	fs0,56(a4)
2000281a:	0000                	unimp
2000281c:	00ff                	0xff
2000281e:	0000                	unimp
20002820:	ff00                	fsw	fs0,56(a4)
20002822:	0000                	unimp
20002824:	00ff                	0xff
20002826:	0000                	unimp
20002828:	ff00                	fsw	fs0,56(a4)
2000282a:	0000                	unimp
2000282c:	00ff                	0xff
2000282e:	0000                	unimp
20002830:	0000                	unimp
20002832:	00ff                	0xff
20002834:	0000                	unimp
20002836:	0000                	unimp
20002838:	ff00                	fsw	fs0,56(a4)
2000283a:	0000                	unimp
2000283c:	00ff                	0xff
2000283e:	0000                	unimp
20002840:	ff00                	fsw	fs0,56(a4)
20002842:	0000                	unimp
20002844:	00ff                	0xff
20002846:	0000                	unimp
20002848:	0000                	unimp
2000284a:	00ff                	0xff
2000284c:	0000                	unimp
2000284e:	0000                	unimp
20002850:	0000                	unimp
20002852:	ff00                	fsw	fs0,56(a4)
20002854:	0000                	unimp
20002856:	0000                	unimp
20002858:	ff00                	fsw	fs0,56(a4)
2000285a:	ff00                	fsw	fs0,56(a4)
2000285c:	0000                	unimp
2000285e:	0000                	unimp
20002860:	0000                	unimp
20002862:	00ff                	0xff
20002864:	0000                	unimp
20002866:	0000                	unimp
20002868:	00ff                	0xff
2000286a:	00ff                	0xff
2000286c:	00ff                	0xff
2000286e:	0000                	unimp
20002870:	ff00                	fsw	fs0,56(a4)
20002872:	0000                	unimp
20002874:	00ff                	0xff
20002876:	0000                	unimp
20002878:	ff00                	fsw	fs0,56(a4)
2000287a:	0000                	unimp
2000287c:	00ff                	0xff
2000287e:	0000                	unimp
20002880:	ff00                	fsw	fs0,56(a4)
20002882:	0000                	unimp
20002884:	00ff                	0xff
20002886:	0000                	unimp
20002888:	ff00                	fsw	fs0,56(a4)
2000288a:	0000                	unimp
2000288c:	00ff                	0xff
2000288e:	0000                	unimp
20002890:	ff00                	fsw	fs0,56(a4)
20002892:	00ff                	0xff
20002894:	0000                	unimp
20002896:	0000                	unimp
20002898:	ff00                	fsw	fs0,56(a4)
	...
200028a2:	00ff                	0xff
200028a4:	0000                	unimp
200028a6:	0000                	unimp
200028a8:	ff00                	fsw	fs0,56(a4)
200028aa:	0000                	unimp
200028ac:	00ff                	0xff
200028ae:	0000                	unimp
200028b0:	ff00                	fsw	fs0,56(a4)
200028b2:	ff00                	fsw	fs0,56(a4)
200028b4:	0000                	unimp
200028b6:	0000                	unimp
200028b8:	00ff                	0xff
200028ba:	0000                	unimp
200028bc:	00ff                	0xff
200028be:	0000                	unimp
200028c0:	ff00                	fsw	fs0,56(a4)
200028c2:	ff00                	fsw	fs0,56(a4)
200028c4:	0000                	unimp
200028c6:	0000                	unimp
200028c8:	ff00                	fsw	fs0,56(a4)
200028ca:	ff00                	fsw	fs0,56(a4)
200028cc:	0000                	unimp
200028ce:	0000                	unimp
200028d0:	0000                	unimp
200028d2:	ff00                	fsw	fs0,56(a4)
200028d4:	0000                	unimp
200028d6:	0000                	unimp
200028d8:	ff00                	fsw	fs0,56(a4)
	...
200028ea:	ff00                	fsw	fs0,56(a4)
	...
200028f8:	ffff                	0xffff
200028fa:	0000                	unimp
200028fc:	ff00                	fsw	fs0,56(a4)
200028fe:	0000                	unimp
20002900:	ff00                	fsw	fs0,56(a4)
	...
2000290a:	ffff                	0xffff
2000290c:	00ff                	0xff
2000290e:	0000                	unimp
20002910:	ff00                	fsw	fs0,56(a4)
20002912:	0000                	unimp
20002914:	00ff                	0xff
20002916:	0000                	unimp
20002918:	ff00                	fsw	fs0,56(a4)
2000291a:	0000                	unimp
2000291c:	0000                	unimp
2000291e:	0000                	unimp
20002920:	ff00                	fsw	fs0,56(a4)
20002922:	0000                	unimp
20002924:	00ff                	0xff
20002926:	0000                	unimp
20002928:	ff00                	fsw	fs0,56(a4)
2000292a:	ffff                	0xffff
2000292c:	00ff                	0xff
2000292e:	0000                	unimp
20002930:	0000                	unimp
20002932:	00ff                	0xff
20002934:	0000                	unimp
20002936:	0000                	unimp
20002938:	ff00                	fsw	fs0,56(a4)
2000293a:	0000                	unimp
2000293c:	00ff                	0xff
2000293e:	0000                	unimp
20002940:	ff00                	fsw	fs0,56(a4)
20002942:	0000                	unimp
20002944:	00ff                	0xff
20002946:	0000                	unimp
20002948:	0000                	unimp
2000294a:	00ff                	0xff
2000294c:	0000                	unimp
2000294e:	0000                	unimp
20002950:	0000                	unimp
20002952:	ff00                	fsw	fs0,56(a4)
20002954:	0000                	unimp
20002956:	0000                	unimp
20002958:	ff00                	fsw	fs0,56(a4)
2000295a:	00ff                	0xff
2000295c:	0000                	unimp
2000295e:	0000                	unimp
20002960:	0000                	unimp
20002962:	00ff                	0xff
20002964:	0000                	unimp
20002966:	0000                	unimp
20002968:	00ff                	0xff
2000296a:	00ff                	0xff
2000296c:	00ff                	0xff
2000296e:	0000                	unimp
20002970:	ff00                	fsw	fs0,56(a4)
20002972:	0000                	unimp
20002974:	00ff                	0xff
20002976:	0000                	unimp
20002978:	ff00                	fsw	fs0,56(a4)
2000297a:	0000                	unimp
2000297c:	00ff                	0xff
2000297e:	0000                	unimp
20002980:	ff00                	fsw	fs0,56(a4)
20002982:	0000                	unimp
20002984:	00ff                	0xff
20002986:	0000                	unimp
20002988:	ff00                	fsw	fs0,56(a4)
2000298a:	0000                	unimp
2000298c:	00ff                	0xff
2000298e:	0000                	unimp
20002990:	ff00                	fsw	fs0,56(a4)
	...
2000299a:	ffff                	0xffff
2000299c:	0000                	unimp
2000299e:	0000                	unimp
200029a0:	0000                	unimp
200029a2:	00ff                	0xff
200029a4:	0000                	unimp
200029a6:	0000                	unimp
200029a8:	ff00                	fsw	fs0,56(a4)
200029aa:	0000                	unimp
200029ac:	00ff                	0xff
200029ae:	0000                	unimp
200029b0:	ff00                	fsw	fs0,56(a4)
200029b2:	ff00                	fsw	fs0,56(a4)
200029b4:	0000                	unimp
200029b6:	0000                	unimp
200029b8:	00ff                	0xff
200029ba:	00ff                	0xff
200029bc:	00ff                	0xff
200029be:	0000                	unimp
200029c0:	0000                	unimp
200029c2:	00ff                	0xff
200029c4:	0000                	unimp
200029c6:	0000                	unimp
200029c8:	ff00                	fsw	fs0,56(a4)
200029ca:	ff00                	fsw	fs0,56(a4)
200029cc:	0000                	unimp
200029ce:	0000                	unimp
200029d0:	0000                	unimp
200029d2:	00ff                	0xff
200029d4:	0000                	unimp
200029d6:	0000                	unimp
200029d8:	0000                	unimp
200029da:	00ff                	0xff
	...
200029e8:	0000                	unimp
200029ea:	00ff                	0xff
	...
200029f8:	ffff                	0xffff
200029fa:	0000                	unimp
200029fc:	ff00                	fsw	fs0,56(a4)
200029fe:	0000                	unimp
20002a00:	ff00                	fsw	fs0,56(a4)
20002a02:	0000                	unimp
20002a04:	00ff                	0xff
20002a06:	0000                	unimp
20002a08:	ff00                	fsw	fs0,56(a4)
20002a0a:	0000                	unimp
20002a0c:	00ff                	0xff
20002a0e:	0000                	unimp
20002a10:	ff00                	fsw	fs0,56(a4)
20002a12:	0000                	unimp
20002a14:	00ff                	0xff
20002a16:	0000                	unimp
20002a18:	ff00                	fsw	fs0,56(a4)
20002a1a:	0000                	unimp
20002a1c:	00ff                	0xff
20002a1e:	0000                	unimp
20002a20:	ff00                	fsw	fs0,56(a4)
20002a22:	0000                	unimp
20002a24:	00ff                	0xff
20002a26:	0000                	unimp
20002a28:	ff00                	fsw	fs0,56(a4)
	...
20002a32:	00ff                	0xff
20002a34:	0000                	unimp
20002a36:	0000                	unimp
20002a38:	0000                	unimp
20002a3a:	ffff                	0xffff
20002a3c:	00ff                	0xff
20002a3e:	0000                	unimp
20002a40:	ff00                	fsw	fs0,56(a4)
20002a42:	0000                	unimp
20002a44:	00ff                	0xff
20002a46:	0000                	unimp
20002a48:	0000                	unimp
20002a4a:	00ff                	0xff
20002a4c:	0000                	unimp
20002a4e:	0000                	unimp
20002a50:	0000                	unimp
20002a52:	ff00                	fsw	fs0,56(a4)
20002a54:	0000                	unimp
20002a56:	0000                	unimp
20002a58:	ff00                	fsw	fs0,56(a4)
20002a5a:	ff00                	fsw	fs0,56(a4)
20002a5c:	0000                	unimp
20002a5e:	0000                	unimp
20002a60:	0000                	unimp
20002a62:	00ff                	0xff
20002a64:	0000                	unimp
20002a66:	0000                	unimp
20002a68:	00ff                	0xff
20002a6a:	00ff                	0xff
20002a6c:	00ff                	0xff
20002a6e:	0000                	unimp
20002a70:	ff00                	fsw	fs0,56(a4)
20002a72:	0000                	unimp
20002a74:	00ff                	0xff
20002a76:	0000                	unimp
20002a78:	ff00                	fsw	fs0,56(a4)
20002a7a:	0000                	unimp
20002a7c:	00ff                	0xff
20002a7e:	0000                	unimp
20002a80:	ff00                	fsw	fs0,56(a4)
20002a82:	ffff                	0xffff
20002a84:	0000                	unimp
20002a86:	0000                	unimp
20002a88:	0000                	unimp
20002a8a:	ffff                	0xffff
20002a8c:	00ff                	0xff
20002a8e:	0000                	unimp
20002a90:	ff00                	fsw	fs0,56(a4)
	...
20002a9a:	0000                	unimp
20002a9c:	00ff                	0xff
20002a9e:	0000                	unimp
20002aa0:	0000                	unimp
20002aa2:	00ff                	0xff
20002aa4:	0000                	unimp
20002aa6:	0000                	unimp
20002aa8:	ff00                	fsw	fs0,56(a4)
20002aaa:	0000                	unimp
20002aac:	00ff                	0xff
20002aae:	0000                	unimp
20002ab0:	0000                	unimp
20002ab2:	00ff                	0xff
20002ab4:	0000                	unimp
20002ab6:	0000                	unimp
20002ab8:	ff00                	fsw	fs0,56(a4)
20002aba:	ff00                	fsw	fs0,56(a4)
20002abc:	0000                	unimp
20002abe:	0000                	unimp
20002ac0:	ff00                	fsw	fs0,56(a4)
20002ac2:	ff00                	fsw	fs0,56(a4)
20002ac4:	0000                	unimp
20002ac6:	0000                	unimp
20002ac8:	0000                	unimp
20002aca:	00ff                	0xff
20002acc:	0000                	unimp
20002ace:	0000                	unimp
20002ad0:	ff00                	fsw	fs0,56(a4)
	...
20002ada:	00ff                	0xff
20002adc:	0000                	unimp
20002ade:	0000                	unimp
20002ae0:	0000                	unimp
20002ae2:	00ff                	0xff
20002ae4:	0000                	unimp
20002ae6:	0000                	unimp
20002ae8:	0000                	unimp
20002aea:	00ff                	0xff
	...
20002af8:	00ff                	0xff
20002afa:	ffff                	0xffff
20002afc:	ff00                	fsw	fs0,56(a4)
20002afe:	0000                	unimp
20002b00:	ffff                	0xffff
20002b02:	ffff                	0xffff
20002b04:	0000                	unimp
20002b06:	0000                	unimp
20002b08:	0000                	unimp
20002b0a:	ffff                	0xffff
20002b0c:	00ff                	0xff
20002b0e:	0000                	unimp
20002b10:	ff00                	fsw	fs0,56(a4)
20002b12:	ffff                	0xffff
20002b14:	0000                	unimp
20002b16:	0000                	unimp
20002b18:	0000                	unimp
20002b1a:	ffff                	0xffff
20002b1c:	0000                	unimp
20002b1e:	0000                	unimp
20002b20:	0000                	unimp
20002b22:	ffff                	0xffff
20002b24:	00ff                	0xff
20002b26:	0000                	unimp
20002b28:	0000                	unimp
20002b2a:	ffff                	0xffff
20002b2c:	0000                	unimp
20002b2e:	0000                	unimp
20002b30:	0000                	unimp
20002b32:	00ff                	0xff
	...
20002b3c:	00ff                	0xff
20002b3e:	0000                	unimp
20002b40:	ff00                	fsw	fs0,56(a4)
20002b42:	0000                	unimp
20002b44:	00ff                	0xff
20002b46:	0000                	unimp
20002b48:	0000                	unimp
20002b4a:	00ff                	0xff
20002b4c:	0000                	unimp
20002b4e:	0000                	unimp
20002b50:	0000                	unimp
20002b52:	ff00                	fsw	fs0,56(a4)
20002b54:	0000                	unimp
20002b56:	0000                	unimp
20002b58:	ff00                	fsw	fs0,56(a4)
20002b5a:	0000                	unimp
20002b5c:	00ff                	0xff
20002b5e:	0000                	unimp
20002b60:	0000                	unimp
20002b62:	ff00                	fsw	fs0,56(a4)
20002b64:	0000                	unimp
20002b66:	0000                	unimp
20002b68:	00ff                	0xff
20002b6a:	00ff                	0xff
20002b6c:	00ff                	0xff
20002b6e:	0000                	unimp
20002b70:	ff00                	fsw	fs0,56(a4)
20002b72:	0000                	unimp
20002b74:	00ff                	0xff
20002b76:	0000                	unimp
20002b78:	0000                	unimp
20002b7a:	ffff                	0xffff
20002b7c:	0000                	unimp
20002b7e:	0000                	unimp
20002b80:	ff00                	fsw	fs0,56(a4)
	...
20002b8a:	0000                	unimp
20002b8c:	00ff                	0xff
20002b8e:	0000                	unimp
20002b90:	ff00                	fsw	fs0,56(a4)
20002b92:	0000                	unimp
20002b94:	0000                	unimp
20002b96:	0000                	unimp
20002b98:	ff00                	fsw	fs0,56(a4)
20002b9a:	ffff                	0xffff
20002b9c:	0000                	unimp
20002b9e:	0000                	unimp
20002ba0:	0000                	unimp
20002ba2:	ff00                	fsw	fs0,56(a4)
20002ba4:	0000                	unimp
20002ba6:	0000                	unimp
20002ba8:	0000                	unimp
20002baa:	ffff                	0xffff
20002bac:	0000                	unimp
20002bae:	0000                	unimp
20002bb0:	0000                	unimp
20002bb2:	00ff                	0xff
20002bb4:	0000                	unimp
20002bb6:	0000                	unimp
20002bb8:	ff00                	fsw	fs0,56(a4)
20002bba:	ff00                	fsw	fs0,56(a4)
20002bbc:	0000                	unimp
20002bbe:	0000                	unimp
20002bc0:	00ff                	0xff
20002bc2:	0000                	unimp
20002bc4:	00ff                	0xff
20002bc6:	0000                	unimp
20002bc8:	0000                	unimp
20002bca:	00ff                	0xff
20002bcc:	0000                	unimp
20002bce:	0000                	unimp
20002bd0:	ff00                	fsw	fs0,56(a4)
20002bd2:	ffff                	0xffff
20002bd4:	00ff                	0xff
20002bd6:	0000                	unimp
20002bd8:	0000                	unimp
20002bda:	00ff                	0xff
20002bdc:	0000                	unimp
20002bde:	0000                	unimp
20002be0:	0000                	unimp
20002be2:	00ff                	0xff
20002be4:	0000                	unimp
20002be6:	0000                	unimp
20002be8:	0000                	unimp
20002bea:	00ff                	0xff
	...
20002bf8:	ff00                	fsw	fs0,56(a4)
20002bfa:	0000                	unimp
20002bfc:	00ff                	0xff
	...
20002c3a:	ffff                	0xffff
	...
20002c50:	ff00                	fsw	fs0,56(a4)
20002c52:	00ff                	0xff
	...
20002c80:	ff00                	fsw	fs0,56(a4)
	...
20002c8a:	0000                	unimp
20002c8c:	00ff                	0xff
	...
20002cc6:	0000                	unimp
20002cc8:	ffff                	0xffff
	...
20002cda:	ff00                	fsw	fs0,56(a4)
20002cdc:	0000                	unimp
20002cde:	0000                	unimp
20002ce0:	0000                	unimp
20002ce2:	00ff                	0xff
20002ce4:	0000                	unimp
20002ce6:	0000                	unimp
20002ce8:	ff00                	fsw	fs0,56(a4)
	...
20002cfa:	ffff                	0xffff
20002cfc:	0000                	unimp
20002cfe:	0000                	unimp
20002d00:	002e                	c.slli	zero,0xb
20002d02:	0000                	unimp
20002d04:	000a                	c.slli	zero,0x2
20002d06:	0000                	unimp
20002d08:	530a                	lw	t1,160(sp)
20002d0a:	6174                	flw	fa3,68(a0)
20002d0c:	7472                	flw	fs0,60(sp)
20002d0e:	6e69                	lui	t3,0x1a
20002d10:	00000a67          	jalr	s4,zero # 0 <_STACK_SIZE-0xa00>
20002d14:	4a325b1b          	0x4a325b1b
20002d18:	4e0a                	lw	t3,128(sp)
20002d1a:	6b65                	lui	s6,0x19
20002d1c:	20694e6f          	jal	t3,20096f22 <__global_pointer$+0x93332>
20002d20:	3030765b          	0x3030765b
20002d24:	5d31                	li	s10,-20
20002d26:	5b20                	lw	s0,112(a4)
20002d28:	5652                	lw	a2,52(sp)
20002d2a:	5a493233          	0x5a493233
20002d2e:	6369                	lui	t1,0x1a
20002d30:	0a5d7273          	csrrci	tp,0xa5,26
20002d34:	a9c2                	fsd	fa6,208(sp)
20002d36:	3220                	fld	fs0,96(a2)
20002d38:	3230                	fld	fa2,96(a2)
20002d3a:	2031                	jal	20002d46 <_GLOBAL__sub_I_gpu.cpp+0x1862>
20002d3c:	6e45                	lui	t3,0x11
20002d3e:	206e6967          	0x206e6967
20002d42:	616c6943          	fmadd.s	fs2,fs8,fs6,fa2,unknown
20002d46:	0a6e7573          	csrrci	a0,0xa6,28
20002d4a:	0000                	unimp
20002d4c:	3130                	fld	fa2,96(a0)
20002d4e:	3332                	fld	ft6,296(sp)
20002d50:	3534                	fld	fa3,104(a0)
20002d52:	3736                	fld	fa4,360(sp)
20002d54:	3938                	fld	fa4,112(a0)
20002d56:	4241                	li	tp,16
20002d58:	46454443          	fmadd.q	fs0,fa0,ft4,fs0,rmm
20002d5c:	0000                	unimp
20002d5e:	0000                	unimp
20002d60:	2020                	fld	fs0,64(s0)
20002d62:	2020                	fld	fs0,64(s0)
20002d64:	2020                	fld	fs0,64(s0)
20002d66:	2020                	fld	fs0,64(s0)
20002d68:	2020                	fld	fs0,64(s0)
20002d6a:	2020                	fld	fs0,64(s0)
20002d6c:	2020                	fld	fs0,64(s0)
20002d6e:	2020                	fld	fs0,64(s0)
20002d70:	2020                	fld	fs0,64(s0)
20002d72:	0020                	addi	s0,sp,8
20002d74:	3130                	fld	fa2,96(a0)
20002d76:	3332                	fld	ft6,296(sp)
20002d78:	3534                	fld	fa3,104(a0)
20002d7a:	3736                	fld	fa4,360(sp)
20002d7c:	3938                	fld	fa4,112(a0)
	...

Disassembly of section .srodata:

20002d80 <_global_impure_ptr>:
20002d80:	2f70                	fld	fa2,216(a4)
20002d82:	2000                	fld	fs0,0(s0)

Disassembly of section .init_array:

20002d84 <__init_array_start>:
20002d84:	14e4                	addi	s1,sp,620
20002d86:	2000                	fld	fs0,0(s0)

Disassembly of section .eh_frame:

20002d88 <.eh_frame>:
20002d88:	0010                	0x10
20002d8a:	0000                	unimp
20002d8c:	0000                	unimp
20002d8e:	0000                	unimp
20002d90:	00527a03          	0x527a03
20002d94:	7c01                	lui	s8,0xfffe0
20002d96:	0101                	addi	sp,sp,0
20002d98:	00020d1b          	0x20d1b
20002d9c:	0010                	0x10
20002d9e:	0000                	unimp
20002da0:	0018                	0x18
20002da2:	0000                	unimp
20002da4:	d25c                	sw	a5,36(a2)
20002da6:	ffff                	0xffff
20002da8:	0064                	addi	s1,sp,12
20002daa:	0000                	unimp
20002dac:	0000                	unimp
20002dae:	0000                	unimp
20002db0:	0010                	0x10
20002db2:	0000                	unimp
20002db4:	002c                	addi	a1,sp,8
20002db6:	0000                	unimp
20002db8:	d2ac                	sw	a1,96(a3)
20002dba:	ffff                	0xffff
	...
20002dc4:	003c                	addi	a5,sp,8
20002dc6:	0000                	unimp
20002dc8:	0040                	addi	s0,sp,4
20002dca:	0000                	unimp
20002dcc:	d6f8                	sw	a4,108(a3)
20002dce:	ffff                	0xffff
20002dd0:	0128                	addi	a0,sp,136
20002dd2:	0000                	unimp
20002dd4:	4400                	lw	s0,8(s0)
20002dd6:	400e                	0x400e
20002dd8:	9248                	0x9248
20002dda:	9504                	0x9504
20002ddc:	01817807          	0x1817807
20002de0:	0288                	addi	a0,sp,320
20002de2:	0389                	addi	t2,t2,2
20002de4:	06940593          	addi	a1,s0,105
20002de8:	0896                	slli	a7,a7,0x5
20002dea:	ac02                	fsd	ft0,24(sp)
20002dec:	c80a                	sw	sp,16(sp)
20002dee:	c144                	sw	s1,4(a0)
20002df0:	c944                	sw	s1,20(a0)
20002df2:	d244                	sw	s1,36(a2)
20002df4:	d344                	sw	s1,36(a4)
20002df6:	d444                	sw	s1,44(s0)
20002df8:	d544                	sw	s1,44(a0)
20002dfa:	d644                	sw	s1,44(a2)
20002dfc:	0e4c                	addi	a1,sp,788
20002dfe:	4400                	lw	s0,8(s0)
20002e00:	0000000b          	0xb
20002e04:	001c                	0x1c
20002e06:	0000                	unimp
20002e08:	0080                	addi	s0,sp,64
20002e0a:	0000                	unimp
20002e0c:	d7e0                	sw	s0,108(a5)
20002e0e:	ffff                	0xffff
20002e10:	0074                	addi	a3,sp,12
20002e12:	0000                	unimp
20002e14:	4c00                	lw	s0,24(s0)
20002e16:	300e                	fld	ft0,224(sp)
20002e18:	8158                	0x8158
20002e1a:	0201                	addi	tp,tp,0
20002e1c:	c148                	sw	a0,4(a0)
20002e1e:	0e44                	addi	s1,sp,788
20002e20:	0000                	unimp
20002e22:	0000                	unimp
20002e24:	0024                	addi	s1,sp,8
20002e26:	0000                	unimp
20002e28:	00a0                	addi	s0,sp,72
20002e2a:	0000                	unimp
20002e2c:	d834                	sw	a3,112(s0)
20002e2e:	ffff                	0xffff
20002e30:	00a4                	addi	s1,sp,72
20002e32:	0000                	unimp
20002e34:	4400                	lw	s0,8(s0)
20002e36:	200e                	fld	ft0,192(sp)
20002e38:	8968                	0x8968
20002e3a:	93049203          	lh	tp,-1744(s1)
20002e3e:	9405                	srai	s0,s0,0x21
20002e40:	9506                	add	a0,a0,ra
20002e42:	81089607          	0x81089607
20002e46:	8801                	andi	s0,s0,0
20002e48:	0002                	c.slli64	zero
20002e4a:	0000                	unimp
20002e4c:	0010                	0x10
20002e4e:	0000                	unimp
20002e50:	00c8                	addi	a0,sp,68
20002e52:	0000                	unimp
20002e54:	d8b0                	sw	a2,112(s1)
20002e56:	ffff                	0xffff
20002e58:	002c                	addi	a1,sp,8
20002e5a:	0000                	unimp
20002e5c:	0000                	unimp
20002e5e:	0000                	unimp
20002e60:	001c                	0x1c
20002e62:	0000                	unimp
20002e64:	00dc                	addi	a5,sp,68
20002e66:	0000                	unimp
20002e68:	d8c8                	sw	a0,52(s1)
20002e6a:	ffff                	0xffff
20002e6c:	013c                	addi	a5,sp,136
20002e6e:	0000                	unimp
20002e70:	5c00                	lw	s0,56(s0)
20002e72:	300e                	fld	ft0,224(sp)
20002e74:	8168                	0x8168
20002e76:	0201                	addi	tp,tp,0
20002e78:	c1f0                	sw	a2,68(a1)
20002e7a:	0e44                	addi	s1,sp,788
20002e7c:	0000                	unimp
20002e7e:	0000                	unimp
20002e80:	0018                	0x18
20002e82:	0000                	unimp
20002e84:	00fc                	addi	a5,sp,76
20002e86:	0000                	unimp
20002e88:	d9e4                	sw	s1,116(a1)
20002e8a:	ffff                	0xffff
20002e8c:	0034                	addi	a3,sp,8
20002e8e:	0000                	unimp
20002e90:	5400                	lw	s0,40(s0)
20002e92:	100e                	c.slli	zero,0x23
20002e94:	8150                	0x8150
20002e96:	4801                	li	a6,0
20002e98:	44c1                	li	s1,16
20002e9a:	000e                	c.slli	zero,0x3
20002e9c:	001c                	0x1c
20002e9e:	0000                	unimp
20002ea0:	0118                	addi	a4,sp,128
20002ea2:	0000                	unimp
20002ea4:	d9fc                	sw	a5,116(a1)
20002ea6:	ffff                	0xffff
20002ea8:	0344                	addi	s1,sp,388
20002eaa:	0000                	unimp
20002eac:	0200                	addi	s0,sp,256
20002eae:	0e64                	addi	s1,sp,796
20002eb0:	4410                	lw	a2,8(s0)
20002eb2:	0188                	addi	a0,sp,192
20002eb4:	c802c003          	lbu	zero,-896(t0)
20002eb8:	0e44                	addi	s1,sp,788
20002eba:	0000                	unimp
20002ebc:	0040                	addi	s0,sp,4
20002ebe:	0000                	unimp
20002ec0:	0138                	addi	a4,sp,136
20002ec2:	0000                	unimp
20002ec4:	dd20                	sw	s0,120(a0)
20002ec6:	ffff                	0xffff
20002ec8:	039c                	addi	a5,sp,448
20002eca:	0000                	unimp
20002ecc:	0200                	addi	s0,sp,256
20002ece:	0e7c                	addi	a5,sp,796
20002ed0:	5c20                	lw	s0,120(s0)
20002ed2:	0188                	addi	a0,sp,192
20002ed4:	0289                	addi	t0,t0,2
20002ed6:	0392                	slli	t2,t2,0x4
20002ed8:	05940493          	addi	s1,s0,89
20002edc:	0695                	addi	a3,a3,5
20002ede:	0796                	slli	a5,a5,0x5
20002ee0:	0a02bc03          	0xa02bc03
20002ee4:	44c8                	lw	a0,12(s1)
20002ee6:	44c9                	li	s1,18
20002ee8:	44d2                	lw	s1,20(sp)
20002eea:	44d444d3          	0x44d444d3
20002eee:	44d5                	li	s1,21
20002ef0:	44d6                	lw	s1,84(sp)
20002ef2:	000e                	c.slli	zero,0x3
20002ef4:	0b44                	addi	s1,sp,404
20002ef6:	0e64                	addi	s1,sp,796
20002ef8:	c800                	sw	s0,16(s0)
20002efa:	d2c9                	beqz	a3,20002e7c <__init_array_end+0xf4>
20002efc:	d6d5d4d3          	0xd6d5d4d3
20002f00:	001c                	0x1c
20002f02:	0000                	unimp
20002f04:	017c                	addi	a5,sp,140
20002f06:	0000                	unimp
20002f08:	e078                	fsw	fa4,68(s0)
20002f0a:	ffff                	0xffff
20002f0c:	00f8                	addi	a4,sp,76
20002f0e:	0000                	unimp
20002f10:	5c00                	lw	s0,56(s0)
20002f12:	300e                	fld	ft0,224(sp)
20002f14:	4402                	lw	s0,0(sp)
20002f16:	0181                	addi	gp,gp,0
20002f18:	9002                	ebreak
20002f1a:	44c1                	li	s1,16
20002f1c:	000e                	c.slli	zero,0x3
20002f1e:	0000                	unimp
20002f20:	0038                	addi	a4,sp,8
20002f22:	0000                	unimp
20002f24:	019c                	addi	a5,sp,192
20002f26:	0000                	unimp
20002f28:	e150                	fsw	fa2,4(a0)
20002f2a:	ffff                	0xffff
20002f2c:	046c                	addi	a1,sp,524
20002f2e:	0000                	unimp
20002f30:	7800                	flw	fs0,48(s0)
20002f32:	400e                	0x400e
20002f34:	8860                	0x8860
20002f36:	8902                	jr	s2
20002f38:	94059303          	lh	t1,-1728(a1)
20002f3c:	9506                	add	a0,a0,ra
20002f3e:	92018107          	0x92018107
20002f42:	0304                	addi	s1,sp,384
20002f44:	01fc                	addi	a5,sp,204
20002f46:	c10a                	sw	sp,128(sp)
20002f48:	c844                	sw	s1,20(s0)
20002f4a:	d244                	sw	s1,36(a2)
20002f4c:	d344                	sw	s1,36(a4)
20002f4e:	d444                	sw	s1,44(s0)
20002f50:	d544                	sw	s1,44(a0)
20002f52:	c948                	sw	a0,20(a0)
20002f54:	0e44                	addi	s1,sp,788
20002f56:	4400                	lw	s0,8(s0)
20002f58:	0000000b          	0xb
20002f5c:	0010                	0x10
20002f5e:	0000                	unimp
20002f60:	01d8                	addi	a4,sp,196
20002f62:	0000                	unimp
20002f64:	e580                	fsw	fs0,8(a1)
20002f66:	ffff                	0xffff
20002f68:	001c                	0x1c
20002f6a:	0000                	unimp
20002f6c:	0000                	unimp
	...

Disassembly of section .data:

20002f70 <impure_data>:
20002f70:	0000                	unimp
20002f72:	0000                	unimp
20002f74:	325c                	fld	fa5,160(a2)
20002f76:	2000                	fld	fs0,0(s0)
20002f78:	32c4                	fld	fs1,160(a3)
20002f7a:	2000                	fld	fs0,0(s0)
20002f7c:	332c                	fld	fa1,96(a4)
20002f7e:	2000                	fld	fs0,0(s0)
	...
20003018:	0001                	nop
2000301a:	0000                	unimp
2000301c:	0000                	unimp
2000301e:	0000                	unimp
20003020:	330e                	fld	ft6,224(sp)
20003022:	abcd                	j	20003614 <_end+0x21c>
20003024:	1234                	addi	a3,sp,296
20003026:	e66d                	bnez	a2,20003110 <impure_data+0x1a0>
20003028:	deec                	sw	a1,124(a3)
2000302a:	0005                	c.nop	1
2000302c:	0000000b          	0xb
	...

20003398 <IO_UARTRX>:
20003398:	0008                	0x8
2000339a:	8000                	0x8000

2000339c <IO_UARTRXByteCount>:
2000339c:	0004                	0x4
2000339e:	8000                	0x8000

200033a0 <IO_UARTTX>:
200033a0:	000c                	0xc
200033a2:	8000                	0x8000

200033a4 <GraphicsFontStart>:
200033a4:	e800                	fsw	fs0,16(s0)
200033a6:	1001                	c.nop	-32

200033a8 <IO_GPUCommandFIFO>:
200033a8:	0000                	unimp
200033aa:	8000                	0x8000

Disassembly of section .got:

200033ac <_GLOBAL_OFFSET_TABLE_>:
200033ac:	0000                	unimp
200033ae:	0000                	unimp
200033b0:	3bf0                	fld	fa2,240(a5)
200033b2:	2000                	fld	fs0,0(s0)
200033b4:	33a8                	fld	fa0,96(a5)
200033b6:	2000                	fld	fs0,0(s0)
200033b8:	33a4                	fld	fs1,96(a5)
200033ba:	2000                	fld	fs0,0(s0)
200033bc:	3398                	fld	fa4,32(a5)
200033be:	2000                	fld	fs0,0(s0)
200033c0:	33f0                	fld	fa2,224(a5)
200033c2:	2000                	fld	fs0,0(s0)
200033c4:	0078                	addi	a4,sp,12
200033c6:	2000                	fld	fs0,0(s0)
200033c8:	33e4                	fld	fs1,224(a5)
200033ca:	2000                	fld	fs0,0(s0)
200033cc:	0064                	addi	s1,sp,12
200033ce:	2000                	fld	fs0,0(s0)
200033d0:	33a0                	fld	fs0,96(a5)
200033d2:	2000                	fld	fs0,0(s0)
200033d4:	339c                	fld	fa5,32(a5)
200033d6:	2000                	fld	fs0,0(s0)
200033d8:	33f4                	fld	fa3,224(a5)
200033da:	2000                	fld	fs0,0(s0)

Disassembly of section .got.plt:

200033dc <.got.plt>:
200033dc:	ffff                	0xffff
200033de:	ffff                	0xffff
200033e0:	0000                	unimp
	...

Disassembly of section .sbss:

200033e4 <__malloc_max_total_mem>:
200033e4:	0000                	unimp
	...

200033e8 <__malloc_max_sbrked_mem>:
200033e8:	0000                	unimp
	...

200033ec <__malloc_top_pad>:
200033ec:	0000                	unimp
	...

Disassembly of section .bss:

200033f0 <font>:
200033f0:	0000                	unimp
	...

Disassembly of section .comment:

00000000 <.comment>:
   0:	3a434347          	fmsub.d	ft6,ft6,ft4,ft7,rmm
   4:	2820                	fld	fs0,80(s0)
   6:	29554e47          	fmsub.s	ft8,fa0,fs5,ft5,rmm
   a:	3120                	fld	fs0,96(a0)
   c:	2e30                	fld	fa2,88(a2)
   e:	2e32                	fld	ft8,264(sp)
  10:	0030                	addi	a2,sp,8

Disassembly of section .riscv.attributes:

00000000 <.riscv.attributes>:
   0:	1f41                	addi	t5,t5,-16
   2:	0000                	unimp
   4:	7200                	flw	fs0,32(a2)
   6:	7369                	lui	t1,0xffffa
   8:	01007663          	bgeu	zero,a6,14 <_STACK_SIZE-0x9ec>
   c:	0015                	c.nop	5
   e:	0000                	unimp
  10:	1004                	addi	s1,sp,32
  12:	7205                	lui	tp,0xfffe1
  14:	3376                	fld	ft6,376(sp)
  16:	6932                	flw	fs2,12(sp)
  18:	7032                	flw	ft0,44(sp)
  1a:	0030                	addi	a2,sp,8
  1c:	0108                	addi	a0,sp,128
  1e:	0b0a                	slli	s6,s6,0x2
