
./audiotest.elf:     file format elf32-littleriscv
./audiotest.elf
architecture: riscv:rv32, flags 0x00000112:
EXEC_P, HAS_SYMS, D_PAGED
start address 0x00010168

Program Header:
    LOAD off    0x00000000 vaddr 0x00010000 paddr 0x00010000 align 2**12
         filesz 0x00002ba8 memsz 0x00002ba8 flags r-x
    LOAD off    0x00003000 vaddr 0x00013000 paddr 0x00013000 align 2**12
         filesz 0x000015a8 memsz 0x000015c8 flags rw-

Sections:
Idx Name          Size      VMA       LMA       File off  Algn
  0 .text         00001300  00010074  00010074  00000074  2**2
                  CONTENTS, ALLOC, LOAD, READONLY, CODE
  1 .rodata       00001834  00011374  00011374  00001374  2**2
                  CONTENTS, ALLOC, LOAD, READONLY, DATA
  2 .eh_frame     00000138  00013000  00013000  00003000  2**2
                  CONTENTS, ALLOC, LOAD, DATA
  3 .init_array   0000000c  00013138  00013138  00003138  2**2
                  CONTENTS, ALLOC, LOAD, DATA
  4 .fini_array   00000004  00013144  00013144  00003144  2**2
                  CONTENTS, ALLOC, LOAD, DATA
  5 .data         00001438  00013148  00013148  00003148  2**3
                  CONTENTS, ALLOC, LOAD, DATA
  6 .got          00000020  00014580  00014580  00004580  2**2
                  CONTENTS, ALLOC, LOAD, DATA
  7 .sdata        00000008  000145a0  000145a0  000045a0  2**2
                  CONTENTS, ALLOC, LOAD, DATA
  8 .bss          00000020  000145a8  000145a8  000045a8  2**2
                  ALLOC
  9 .comment      00000012  00000000  00000000  000045a8  2**0
                  CONTENTS, READONLY
 10 .riscv.attributes 0000002a  00000000  00000000  000045ba  2**0
                  CONTENTS, READONLY
 11 .debug_aranges 00000020  00000000  00000000  000045e4  2**0
                  CONTENTS, READONLY, DEBUGGING, OCTETS
 12 .debug_info   000007b2  00000000  00000000  00004604  2**0
                  CONTENTS, READONLY, DEBUGGING, OCTETS
 13 .debug_abbrev 0000019d  00000000  00000000  00004db6  2**0
                  CONTENTS, READONLY, DEBUGGING, OCTETS
 14 .debug_line   0000074f  00000000  00000000  00004f53  2**0
                  CONTENTS, READONLY, DEBUGGING, OCTETS
 15 .debug_str    0000028d  00000000  00000000  000056a2  2**0
                  CONTENTS, READONLY, DEBUGGING, OCTETS
 16 .debug_loc    00000bcd  00000000  00000000  0000592f  2**0
                  CONTENTS, READONLY, DEBUGGING, OCTETS
 17 .debug_ranges 000000f8  00000000  00000000  000064fc  2**0
                  CONTENTS, READONLY, DEBUGGING, OCTETS
SYMBOL TABLE:
00010074 l    d  .text	00000000 .text
00011374 l    d  .rodata	00000000 .rodata
00013000 l    d  .eh_frame	00000000 .eh_frame
00013138 l    d  .init_array	00000000 .init_array
00013144 l    d  .fini_array	00000000 .fini_array
00013148 l    d  .data	00000000 .data
00014580 l    d  .got	00000000 .got
000145a0 l    d  .sdata	00000000 .sdata
000145a8 l    d  .bss	00000000 .bss
00000000 l    d  .comment	00000000 .comment
00000000 l    d  .riscv.attributes	00000000 .riscv.attributes
00000000 l    d  .debug_aranges	00000000 .debug_aranges
00000000 l    d  .debug_info	00000000 .debug_info
00000000 l    d  .debug_abbrev	00000000 .debug_abbrev
00000000 l    d  .debug_line	00000000 .debug_line
00000000 l    d  .debug_str	00000000 .debug_str
00000000 l    d  .debug_loc	00000000 .debug_loc
00000000 l    d  .debug_ranges	00000000 .debug_ranges
00000000 l    df *ABS*	00000000 audiotest.cpp
00000000 l    df *ABS*	00000000 gpu.cpp
00010134 l     F .text	0000001c _GLOBAL__sub_I_gpu.cpp
00000000 l    df *ABS*	00000000 __call_atexit.c
00010150 l     F .text	00000018 register_fini
00000000 l    df *ABS*	00000000 crtstuff.c
00013000 l     O .eh_frame	00000000 __EH_FRAME_BEGIN__
000101b8 l     F .text	00000000 __do_global_dtors_aux
000145a8 l     O .bss	00000001 completed.1
00013144 l     O .fini_array	00000000 __do_global_dtors_aux_fini_array_entry
00010204 l     F .text	00000000 frame_dummy
000145ac l     O .bss	00000018 object.0
0001313c l     O .init_array	00000000 __frame_dummy_init_array_entry
00000000 l    df *ABS*	00000000 errno.c
00000000 l    df *ABS*	00000000 exit.c
00000000 l    df *ABS*	00000000 init.c
00000000 l    df *ABS*	00000000 memcpy.c
00000000 l    df *ABS*	00000000 fini.c
00000000 l    df *ABS*	00000000 atexit.c
00000000 l    df *ABS*	00000000 __atexit.c
00000000 l    df *ABS*	00000000 sys_exit.c
00000000 l    df *ABS*	00000000 debugger.cpp
00000000 l    df *ABS*	00000000 sdcard.cpp
00000000 l    df *ABS*	00000000 uart.cpp
00000000 l    df *ABS*	00000000 core.cpp
00000000 l    df *ABS*	00000000 console.cpp
00000000 l    df *ABS*	00000000 crtstuff.c
00013134 l     O .eh_frame	00000000 __FRAME_END__
00000000 l    df *ABS*	00000000 apu.cpp
00000000 l    df *ABS*	00000000 impure.c
00014158 l     O .data	00000428 impure_data
00000000 l    df *ABS*	00000000 libgcc2.c
00000000 l    df *ABS*	00000000 
00013148 l       .fini_array	00000000 __fini_array_end
00013144 l       .fini_array	00000000 __fini_array_start
00013144 l       .init_array	00000000 __init_array_end
00013138 l       .init_array	00000000 __preinit_array_end
00014588 l     O .got	00000000 _GLOBAL_OFFSET_TABLE_
00013138 l       .init_array	00000000 __init_array_start
00013138 l       .init_array	00000000 __preinit_array_start
00013dc8 g       *ABS*	00000000 __global_pointer$
0001414c g     O .data	00000004 IO_GPUCommandFIFO
00014148 g     O .data	00000004 GraphicsFontStart
00010e44 g     F .text	00000008 __errno
00010290 g     F .text	00000344 _Z8PrintDMAiiPKcb
000145a0 g       .sdata	00000000 __SDATA_BEGIN__
000145c4 g     O .bss	00000004 font
00010f18 g     F .text	00000128 memcpy
00010228 g     F .text	00000034 _Z4ssini
00014150 g     O .data	00000004 IO_AudioFIFO
000145a0 g     O .sdata	00000004 _global_impure_ptr
00010e7c g     F .text	0000009c __libc_init_array
0001123c g     F .text	0000005c __libc_fini_array
0001111c g     F .text	00000120 __call_exitprocs
00010168 g     F .text	00000050 _start
000112ac g     F .text	00000098 __register_exitproc
000145c8 g       .bss	00000000 __BSS_END__
000145a8 g       .bss	00000000 __bss_start
0001025c g     F .text	00000034 _Z8InitFontv
00011040 g     F .text	000000dc memset
00010074 g     F .text	000000c0 main
00011298 g     F .text	00000014 atexit
000145a4 g     O .sdata	00000004 _impure_ptr
00010970 g     F .text	000000f8 _Z11PrintDMAHexiim
00013148 g     O .data	00001000 sinewave
00013148 g       .data	00000000 __DATA_BEGIN__
000105d4 g     F .text	0000039c _Z8PrintDMAiiiPKcb
000145a8 g       .sdata	00000000 _edata
000145c8 g       .bss	00000000 _end
00010e4c g     F .text	00000030 exit
00011344 g     F .text	00000030 _exit
00010a68 g     F .text	000003dc _Z15PrintDMADecimaliiib



Disassembly of section .text:

00010074 <main>:
   10074:	fc010113          	addi	sp,sp,-64
   10078:	03412423          	sw	s4,40(sp)
   1007c:	00010a37          	lui	s4,0x10
   10080:	03212823          	sw	s2,48(sp)
   10084:	03312623          	sw	s3,44(sp)
   10088:	03512223          	sw	s5,36(sp)
   1008c:	03612023          	sw	s6,32(sp)
   10090:	01712e23          	sw	s7,28(sp)
   10094:	01812c23          	sw	s8,24(sp)
   10098:	01912a23          	sw	s9,20(sp)
   1009c:	01a12823          	sw	s10,16(sp)
   100a0:	01b12623          	sw	s11,12(sp)
   100a4:	02112e23          	sw	ra,60(sp)
   100a8:	02812c23          	sw	s0,56(sp)
   100ac:	02912a23          	sw	s1,52(sp)
   100b0:	00000993          	li	s3,0
   100b4:	00000913          	li	s2,0
   100b8:	00000c13          	li	s8,0
   100bc:	00000b93          	li	s7,0
   100c0:	00100d13          	li	s10,1
   100c4:	00100c93          	li	s9,1
   100c8:	00004d97          	auipc	s11,0x4
   100cc:	4d0dad83          	lw	s11,1232(s11) # 14598 <_GLOBAL_OFFSET_TABLE_+0x10>
   100d0:	fffa0a13          	addi	s4,s4,-1 # ffff <main-0x75>
   100d4:	00600b13          	li	s6,6
   100d8:	00c00a93          	li	s5,12
   100dc:	039d04b3          	mul	s1,s10,s9
   100e0:	001b8b93          	addi	s7,s7,1
   100e4:	001c0c13          	addi	s8,s8,1
   100e8:	01248533          	add	a0,s1,s2
   100ec:	13c000ef          	jal	ra,10228 <_Z4ssini>
   100f0:	00050413          	mv	s0,a0
   100f4:	01348533          	add	a0,s1,s3
   100f8:	130000ef          	jal	ra,10228 <_Z4ssini>
   100fc:	000da783          	lw	a5,0(s11)
   10100:	01041413          	slli	s0,s0,0x10
   10104:	01457533          	and	a0,a0,s4
   10108:	00a46433          	or	s0,s0,a0
   1010c:	0087a023          	sw	s0,0(a5)
   10110:	017b5863          	bge	s6,s7,10120 <main+0xac>
   10114:	000d0913          	mv	s2,s10
   10118:	00000b93          	li	s7,0
   1011c:	001d0d13          	addi	s10,s10,1
   10120:	fb8adee3          	bge	s5,s8,100dc <main+0x68>
   10124:	000c8993          	mv	s3,s9
   10128:	00000c13          	li	s8,0
   1012c:	001c8c93          	addi	s9,s9,1
   10130:	fadff06f          	j	100dc <main+0x68>

00010134 <_GLOBAL__sub_I_gpu.cpp>:
   10134:	00004797          	auipc	a5,0x4
   10138:	45c7a783          	lw	a5,1116(a5) # 14590 <_GLOBAL_OFFSET_TABLE_+0x8>
   1013c:	0007a703          	lw	a4,0(a5)
   10140:	00004797          	auipc	a5,0x4
   10144:	4547a783          	lw	a5,1108(a5) # 14594 <_GLOBAL_OFFSET_TABLE_+0xc>
   10148:	00e7a023          	sw	a4,0(a5)
   1014c:	00008067          	ret

00010150 <register_fini>:
   10150:	00000793          	li	a5,0
   10154:	00078863          	beqz	a5,10164 <register_fini+0x14>
   10158:	00011537          	lui	a0,0x11
   1015c:	23c50513          	addi	a0,a0,572 # 1123c <__libc_fini_array>
   10160:	1380106f          	j	11298 <atexit>
   10164:	00008067          	ret

00010168 <_start>:
   10168:	00004197          	auipc	gp,0x4
   1016c:	c6018193          	addi	gp,gp,-928 # 13dc8 <__global_pointer$>
   10170:	7e018513          	addi	a0,gp,2016 # 145a8 <completed.1>
   10174:	00004617          	auipc	a2,0x4
   10178:	45460613          	addi	a2,a2,1108 # 145c8 <__BSS_END__>
   1017c:	40a60633          	sub	a2,a2,a0
   10180:	00000593          	li	a1,0
   10184:	6bd000ef          	jal	ra,11040 <memset>
   10188:	00001517          	auipc	a0,0x1
   1018c:	11050513          	addi	a0,a0,272 # 11298 <atexit>
   10190:	00050863          	beqz	a0,101a0 <_start+0x38>
   10194:	00001517          	auipc	a0,0x1
   10198:	0a850513          	addi	a0,a0,168 # 1123c <__libc_fini_array>
   1019c:	0fc010ef          	jal	ra,11298 <atexit>
   101a0:	4dd000ef          	jal	ra,10e7c <__libc_init_array>
   101a4:	00012503          	lw	a0,0(sp)
   101a8:	00410593          	addi	a1,sp,4
   101ac:	00000613          	li	a2,0
   101b0:	ec5ff0ef          	jal	ra,10074 <main>
   101b4:	4990006f          	j	10e4c <exit>

000101b8 <__do_global_dtors_aux>:
   101b8:	7e01c703          	lbu	a4,2016(gp) # 145a8 <completed.1>
   101bc:	04071263          	bnez	a4,10200 <__do_global_dtors_aux+0x48>
   101c0:	ff010113          	addi	sp,sp,-16
   101c4:	00812423          	sw	s0,8(sp)
   101c8:	00078413          	mv	s0,a5
   101cc:	00112623          	sw	ra,12(sp)
   101d0:	00000793          	li	a5,0
   101d4:	00078a63          	beqz	a5,101e8 <__do_global_dtors_aux+0x30>
   101d8:	00013537          	lui	a0,0x13
   101dc:	00050513          	mv	a0,a0
   101e0:	00000097          	auipc	ra,0x0
   101e4:	000000e7          	jalr	zero # 0 <main-0x10074>
   101e8:	00100793          	li	a5,1
   101ec:	00c12083          	lw	ra,12(sp)
   101f0:	7ef18023          	sb	a5,2016(gp) # 145a8 <completed.1>
   101f4:	00812403          	lw	s0,8(sp)
   101f8:	01010113          	addi	sp,sp,16
   101fc:	00008067          	ret
   10200:	00008067          	ret

00010204 <frame_dummy>:
   10204:	00000793          	li	a5,0
   10208:	00078e63          	beqz	a5,10224 <frame_dummy+0x20>
   1020c:	000145b7          	lui	a1,0x14
   10210:	00013537          	lui	a0,0x13
   10214:	5ac58593          	addi	a1,a1,1452 # 145ac <object.0>
   10218:	00050513          	mv	a0,a0
   1021c:	00000317          	auipc	t1,0x0
   10220:	00000067          	jr	zero # 0 <main-0x10074>
   10224:	00008067          	ret

00010228 <_Z4ssini>:
   10228:	41f55793          	srai	a5,a0,0x1f
   1022c:	0167d793          	srli	a5,a5,0x16
   10230:	00f50533          	add	a0,a0,a5
   10234:	3ff57513          	andi	a0,a0,1023
   10238:	40f50533          	sub	a0,a0,a5
   1023c:	00251513          	slli	a0,a0,0x2
   10240:	00004797          	auipc	a5,0x4
   10244:	35c7a783          	lw	a5,860(a5) # 1459c <_GLOBAL_OFFSET_TABLE_+0x14>
   10248:	00a78533          	add	a0,a5,a0
   1024c:	00052783          	lw	a5,0(a0) # 13000 <__EH_FRAME_BEGIN__>
   10250:	ffffc537          	lui	a0,0xffffc
   10254:	00f50533          	add	a0,a0,a5
   10258:	00008067          	ret

0001025c <_Z8InitFontv>:
   1025c:	00004797          	auipc	a5,0x4
   10260:	3387a783          	lw	a5,824(a5) # 14594 <_GLOBAL_OFFSET_TABLE_+0xc>
   10264:	0007a503          	lw	a0,0(a5)
   10268:	00002637          	lui	a2,0x2
   1026c:	ff010113          	addi	sp,sp,-16
   10270:	80060613          	addi	a2,a2,-2048 # 1800 <main-0xe874>
   10274:	00001597          	auipc	a1,0x1
   10278:	13458593          	addi	a1,a1,308 # 113a8 <_exit+0x64>
   1027c:	00112623          	sw	ra,12(sp)
   10280:	499000ef          	jal	ra,10f18 <memcpy>
   10284:	00c12083          	lw	ra,12(sp)
   10288:	01010113          	addi	sp,sp,16
   1028c:	00008067          	ret

00010290 <_Z8PrintDMAiiPKcb>:
   10290:	00064703          	lbu	a4,0(a2)
   10294:	32070e63          	beqz	a4,105d0 <_Z8PrintDMAiiPKcb+0x340>
   10298:	00004797          	auipc	a5,0x4
   1029c:	2fc7a783          	lw	a5,764(a5) # 14594 <_GLOBAL_OFFSET_TABLE_+0xc>
   102a0:	0007a303          	lw	t1,0(a5)
   102a4:	00004797          	auipc	a5,0x4
   102a8:	2e87a783          	lw	a5,744(a5) # 1458c <_GLOBAL_OFFSET_TABLE_+0x4>
   102ac:	00001fb7          	lui	t6,0x1
   102b0:	00d03833          	snez	a6,a3
   102b4:	0007a783          	lw	a5,0(a5)
   102b8:	ac4f8893          	addi	a7,t6,-1340 # ac4 <main-0xf5b0>
   102bc:	01981813          	slli	a6,a6,0x19
   102c0:	00959593          	slli	a1,a1,0x9
   102c4:	01186833          	or	a6,a6,a7
   102c8:	00a585b3          	add	a1,a1,a0
   102cc:	00160893          	addi	a7,a2,1
   102d0:	800f8f13          	addi	t5,t6,-2048
   102d4:	a00f8e93          	addi	t4,t6,-1536
   102d8:	c00f8e13          	addi	t3,t6,-1024
   102dc:	e00f8513          	addi	a0,t6,-512
   102e0:	fe070713          	addi	a4,a4,-32
   102e4:	00068463          	beqz	a3,102ec <_Z8PrintDMAiiPKcb+0x5c>
   102e8:	2c070c63          	beqz	a4,105c0 <_Z8PrintDMAiiPKcb+0x330>
   102ec:	2c074a63          	bltz	a4,105c0 <_Z8PrintDMAiiPKcb+0x330>
   102f0:	ff010113          	addi	sp,sp,-16
   102f4:	00812623          	sw	s0,12(sp)
   102f8:	40575393          	srai	t2,a4,0x5
   102fc:	01f77713          	andi	a4,a4,31
   10300:	00371613          	slli	a2,a4,0x3
   10304:	00b39f93          	slli	t6,t2,0xb
   10308:	00cf8fb3          	add	t6,t6,a2
   1030c:	01f30fb3          	add	t6,t1,t6
   10310:	00af9413          	slli	s0,t6,0xa
   10314:	016fdf93          	srli	t6,t6,0x16
   10318:	4025d293          	srai	t0,a1,0x2
   1031c:	20146413          	ori	s0,s0,513
   10320:	00b39713          	slli	a4,t2,0xb
   10324:	00af9f93          	slli	t6,t6,0xa
   10328:	0087a023          	sw	s0,0(a5)
   1032c:	10070713          	addi	a4,a4,256
   10330:	241fef93          	ori	t6,t6,577
   10334:	00a29393          	slli	t2,t0,0xa
   10338:	0162d293          	srli	t0,t0,0x16
   1033c:	01f7a023          	sw	t6,0(a5)
   10340:	2813e393          	ori	t2,t2,641
   10344:	00e60fb3          	add	t6,a2,a4
   10348:	00a29293          	slli	t0,t0,0xa
   1034c:	0077a023          	sw	t2,0(a5)
   10350:	01f30fb3          	add	t6,t1,t6
   10354:	2d12e293          	ori	t0,t0,721
   10358:	0057a023          	sw	t0,0(a5)
   1035c:	016fd393          	srli	t2,t6,0x16
   10360:	00af9293          	slli	t0,t6,0xa
   10364:	20058f93          	addi	t6,a1,512
   10368:	0107a023          	sw	a6,0(a5)
   1036c:	402fdf93          	srai	t6,t6,0x2
   10370:	2012e293          	ori	t0,t0,513
   10374:	00a39393          	slli	t2,t2,0xa
   10378:	0057a023          	sw	t0,0(a5)
   1037c:	00af9413          	slli	s0,t6,0xa
   10380:	2413e393          	ori	t2,t2,577
   10384:	016fd293          	srli	t0,t6,0x16
   10388:	10070f93          	addi	t6,a4,256
   1038c:	0077a023          	sw	t2,0(a5)
   10390:	00cf8fb3          	add	t6,t6,a2
   10394:	28146393          	ori	t2,s0,641
   10398:	00a29293          	slli	t0,t0,0xa
   1039c:	0077a023          	sw	t2,0(a5)
   103a0:	01f30fb3          	add	t6,t1,t6
   103a4:	2d12e293          	ori	t0,t0,721
   103a8:	0057a023          	sw	t0,0(a5)
   103ac:	016fd393          	srli	t2,t6,0x16
   103b0:	00af9293          	slli	t0,t6,0xa
   103b4:	40058f93          	addi	t6,a1,1024
   103b8:	0107a023          	sw	a6,0(a5)
   103bc:	402fdf93          	srai	t6,t6,0x2
   103c0:	2012e293          	ori	t0,t0,513
   103c4:	00a39393          	slli	t2,t2,0xa
   103c8:	0057a023          	sw	t0,0(a5)
   103cc:	00af9413          	slli	s0,t6,0xa
   103d0:	2413e393          	ori	t2,t2,577
   103d4:	016fd293          	srli	t0,t6,0x16
   103d8:	20070f93          	addi	t6,a4,512
   103dc:	0077a023          	sw	t2,0(a5)
   103e0:	00cf8fb3          	add	t6,t6,a2
   103e4:	28146393          	ori	t2,s0,641
   103e8:	00a29293          	slli	t0,t0,0xa
   103ec:	0077a023          	sw	t2,0(a5)
   103f0:	01f30fb3          	add	t6,t1,t6
   103f4:	2d12e293          	ori	t0,t0,721
   103f8:	0057a023          	sw	t0,0(a5)
   103fc:	016fd393          	srli	t2,t6,0x16
   10400:	00af9293          	slli	t0,t6,0xa
   10404:	60058f93          	addi	t6,a1,1536
   10408:	0107a023          	sw	a6,0(a5)
   1040c:	402fdf93          	srai	t6,t6,0x2
   10410:	2012e293          	ori	t0,t0,513
   10414:	00a39393          	slli	t2,t2,0xa
   10418:	0057a023          	sw	t0,0(a5)
   1041c:	00af9413          	slli	s0,t6,0xa
   10420:	2413e393          	ori	t2,t2,577
   10424:	016fd293          	srli	t0,t6,0x16
   10428:	30070f93          	addi	t6,a4,768
   1042c:	0077a023          	sw	t2,0(a5)
   10430:	00cf8fb3          	add	t6,t6,a2
   10434:	28146393          	ori	t2,s0,641
   10438:	00a29293          	slli	t0,t0,0xa
   1043c:	0077a023          	sw	t2,0(a5)
   10440:	01f30fb3          	add	t6,t1,t6
   10444:	2d12e293          	ori	t0,t0,721
   10448:	0057a023          	sw	t0,0(a5)
   1044c:	016fd393          	srli	t2,t6,0x16
   10450:	00af9293          	slli	t0,t6,0xa
   10454:	01e58fb3          	add	t6,a1,t5
   10458:	0107a023          	sw	a6,0(a5)
   1045c:	402fdf93          	srai	t6,t6,0x2
   10460:	2012e293          	ori	t0,t0,513
   10464:	00a39393          	slli	t2,t2,0xa
   10468:	0057a023          	sw	t0,0(a5)
   1046c:	00af9413          	slli	s0,t6,0xa
   10470:	2413e393          	ori	t2,t2,577
   10474:	016fd293          	srli	t0,t6,0x16
   10478:	40070f93          	addi	t6,a4,1024
   1047c:	0077a023          	sw	t2,0(a5)
   10480:	00cf8fb3          	add	t6,t6,a2
   10484:	28146393          	ori	t2,s0,641
   10488:	00a29293          	slli	t0,t0,0xa
   1048c:	0077a023          	sw	t2,0(a5)
   10490:	01f30fb3          	add	t6,t1,t6
   10494:	2d12e293          	ori	t0,t0,721
   10498:	0057a023          	sw	t0,0(a5)
   1049c:	016fd393          	srli	t2,t6,0x16
   104a0:	00af9293          	slli	t0,t6,0xa
   104a4:	01d58fb3          	add	t6,a1,t4
   104a8:	0107a023          	sw	a6,0(a5)
   104ac:	402fdf93          	srai	t6,t6,0x2
   104b0:	2012e293          	ori	t0,t0,513
   104b4:	00a39393          	slli	t2,t2,0xa
   104b8:	0057a023          	sw	t0,0(a5)
   104bc:	00af9413          	slli	s0,t6,0xa
   104c0:	2413e393          	ori	t2,t2,577
   104c4:	016fd293          	srli	t0,t6,0x16
   104c8:	50070f93          	addi	t6,a4,1280
   104cc:	0077a023          	sw	t2,0(a5)
   104d0:	00cf8fb3          	add	t6,t6,a2
   104d4:	28146393          	ori	t2,s0,641
   104d8:	00a29293          	slli	t0,t0,0xa
   104dc:	0077a023          	sw	t2,0(a5)
   104e0:	01f30fb3          	add	t6,t1,t6
   104e4:	2d12e293          	ori	t0,t0,721
   104e8:	01c583b3          	add	t2,a1,t3
   104ec:	0057a023          	sw	t0,0(a5)
   104f0:	00af9413          	slli	s0,t6,0xa
   104f4:	4023d293          	srai	t0,t2,0x2
   104f8:	016fdf93          	srli	t6,t6,0x16
   104fc:	0107a023          	sw	a6,0(a5)
   10500:	0162d393          	srli	t2,t0,0x16
   10504:	20146413          	ori	s0,s0,513
   10508:	00af9f93          	slli	t6,t6,0xa
   1050c:	60070713          	addi	a4,a4,1536
   10510:	0087a023          	sw	s0,0(a5)
   10514:	241fef93          	ori	t6,t6,577
   10518:	00c70733          	add	a4,a4,a2
   1051c:	00a29293          	slli	t0,t0,0xa
   10520:	00a39393          	slli	t2,t2,0xa
   10524:	00e30733          	add	a4,t1,a4
   10528:	01f7a023          	sw	t6,0(a5)
   1052c:	2d13e613          	ori	a2,t2,721
   10530:	2812e293          	ori	t0,t0,641
   10534:	0057a023          	sw	t0,0(a5)
   10538:	00a71f93          	slli	t6,a4,0xa
   1053c:	00c7a023          	sw	a2,0(a5)
   10540:	01675713          	srli	a4,a4,0x16
   10544:	00a58633          	add	a2,a1,a0
   10548:	0107a023          	sw	a6,0(a5)
   1054c:	40265613          	srai	a2,a2,0x2
   10550:	201fef93          	ori	t6,t6,513
   10554:	00a71713          	slli	a4,a4,0xa
   10558:	01f7a023          	sw	t6,0(a5)
   1055c:	24176713          	ori	a4,a4,577
   10560:	00a61f93          	slli	t6,a2,0xa
   10564:	01665613          	srli	a2,a2,0x16
   10568:	00e7a023          	sw	a4,0(a5)
   1056c:	00a61613          	slli	a2,a2,0xa
   10570:	281fe713          	ori	a4,t6,641
   10574:	00e7a023          	sw	a4,0(a5)
   10578:	2d166613          	ori	a2,a2,721
   1057c:	00c7a023          	sw	a2,0(a5)
   10580:	0107a023          	sw	a6,0(a5)
   10584:	0008c703          	lbu	a4,0(a7)
   10588:	00858593          	addi	a1,a1,8
   1058c:	00188893          	addi	a7,a7,1
   10590:	02070263          	beqz	a4,105b4 <_Z8PrintDMAiiPKcb+0x324>
   10594:	fe070713          	addi	a4,a4,-32
   10598:	00068463          	beqz	a3,105a0 <_Z8PrintDMAiiPKcb+0x310>
   1059c:	fe0704e3          	beqz	a4,10584 <_Z8PrintDMAiiPKcb+0x2f4>
   105a0:	d4075ce3          	bgez	a4,102f8 <_Z8PrintDMAiiPKcb+0x68>
   105a4:	0008c703          	lbu	a4,0(a7)
   105a8:	00858593          	addi	a1,a1,8
   105ac:	00188893          	addi	a7,a7,1
   105b0:	fe0712e3          	bnez	a4,10594 <_Z8PrintDMAiiPKcb+0x304>
   105b4:	00c12403          	lw	s0,12(sp)
   105b8:	01010113          	addi	sp,sp,16
   105bc:	00008067          	ret
   105c0:	0008c703          	lbu	a4,0(a7)
   105c4:	00858593          	addi	a1,a1,8
   105c8:	00188893          	addi	a7,a7,1
   105cc:	d0071ae3          	bnez	a4,102e0 <_Z8PrintDMAiiPKcb+0x50>
   105d0:	00008067          	ret

000105d4 <_Z8PrintDMAiiiPKcb>:
   105d4:	38c05c63          	blez	a2,1096c <_Z8PrintDMAiiiPKcb+0x398>
   105d8:	000012b7          	lui	t0,0x1
   105dc:	00004797          	auipc	a5,0x4
   105e0:	fb87a783          	lw	a5,-72(a5) # 14594 <_GLOBAL_OFFSET_TABLE_+0xc>
   105e4:	00e03833          	snez	a6,a4
   105e8:	ac428e13          	addi	t3,t0,-1340 # ac4 <main-0xf5b0>
   105ec:	0007a883          	lw	a7,0(a5)
   105f0:	01981813          	slli	a6,a6,0x19
   105f4:	00959593          	slli	a1,a1,0x9
   105f8:	00004797          	auipc	a5,0x4
   105fc:	f947a783          	lw	a5,-108(a5) # 1458c <_GLOBAL_OFFSET_TABLE_+0x4>
   10600:	01c86833          	or	a6,a6,t3
   10604:	00a585b3          	add	a1,a1,a0
   10608:	0007a783          	lw	a5,0(a5)
   1060c:	00068313          	mv	t1,a3
   10610:	00c68633          	add	a2,a3,a2
   10614:	07f00f93          	li	t6,127
   10618:	80028f13          	addi	t5,t0,-2048
   1061c:	a0028e93          	addi	t4,t0,-1536
   10620:	c0028e13          	addi	t3,t0,-1024
   10624:	e0028513          	addi	a0,t0,-512
   10628:	0100006f          	j	10638 <_Z8PrintDMAiiiPKcb+0x64>
   1062c:	00130313          	addi	t1,t1,1 # 1021d <frame_dummy+0x19>
   10630:	00858593          	addi	a1,a1,8
   10634:	32c30c63          	beq	t1,a2,1096c <_Z8PrintDMAiiiPKcb+0x398>
   10638:	00034683          	lbu	a3,0(t1)
   1063c:	32068863          	beqz	a3,1096c <_Z8PrintDMAiiiPKcb+0x398>
   10640:	fe068693          	addi	a3,a3,-32
   10644:	00070463          	beqz	a4,1064c <_Z8PrintDMAiiiPKcb+0x78>
   10648:	fe0682e3          	beqz	a3,1062c <_Z8PrintDMAiiiPKcb+0x58>
   1064c:	fe010113          	addi	sp,sp,-32
   10650:	00812e23          	sw	s0,28(sp)
   10654:	00912c23          	sw	s1,24(sp)
   10658:	01212a23          	sw	s2,20(sp)
   1065c:	01312823          	sw	s3,16(sp)
   10660:	01412623          	sw	s4,12(sp)
   10664:	01512423          	sw	s5,8(sp)
   10668:	01612223          	sw	s6,4(sp)
   1066c:	2cdfee63          	bltu	t6,a3,10948 <_Z8PrintDMAiiiPKcb+0x374>
   10670:	4056d393          	srai	t2,a3,0x5
   10674:	01f6f693          	andi	a3,a3,31
   10678:	00b39a13          	slli	s4,t2,0xb
   1067c:	00369293          	slli	t0,a3,0x3
   10680:	005a06b3          	add	a3,s4,t0
   10684:	200a0993          	addi	s3,s4,512
   10688:	300a0913          	addi	s2,s4,768
   1068c:	400a0493          	addi	s1,s4,1024
   10690:	500a0413          	addi	s0,s4,1280
   10694:	600a0393          	addi	t2,s4,1536
   10698:	700a0a93          	addi	s5,s4,1792
   1069c:	100a0a13          	addi	s4,s4,256
   106a0:	01428a33          	add	s4,t0,s4
   106a4:	005989b3          	add	s3,s3,t0
   106a8:	00590933          	add	s2,s2,t0
   106ac:	005484b3          	add	s1,s1,t0
   106b0:	00540433          	add	s0,s0,t0
   106b4:	005383b3          	add	t2,t2,t0
   106b8:	00d886b3          	add	a3,a7,a3
   106bc:	005a82b3          	add	t0,s5,t0
   106c0:	00a69b13          	slli	s6,a3,0xa
   106c4:	0166da93          	srli	s5,a3,0x16
   106c8:	201b6b13          	ori	s6,s6,513
   106cc:	4025d693          	srai	a3,a1,0x2
   106d0:	00aa9a93          	slli	s5,s5,0xa
   106d4:	0167a023          	sw	s6,0(a5)
   106d8:	241aea93          	ori	s5,s5,577
   106dc:	00a69b13          	slli	s6,a3,0xa
   106e0:	0166d693          	srli	a3,a3,0x16
   106e4:	0157a023          	sw	s5,0(a5)
   106e8:	00a69693          	slli	a3,a3,0xa
   106ec:	281b6a93          	ori	s5,s6,641
   106f0:	0157a023          	sw	s5,0(a5)
   106f4:	01488a33          	add	s4,a7,s4
   106f8:	2d16e693          	ori	a3,a3,721
   106fc:	00d7a023          	sw	a3,0(a5)
   10700:	00aa1a93          	slli	s5,s4,0xa
   10704:	20058693          	addi	a3,a1,512
   10708:	016a5a13          	srli	s4,s4,0x16
   1070c:	0107a023          	sw	a6,0(a5)
   10710:	4026d693          	srai	a3,a3,0x2
   10714:	201aea93          	ori	s5,s5,513
   10718:	00aa1a13          	slli	s4,s4,0xa
   1071c:	0157a023          	sw	s5,0(a5)
   10720:	241a6a13          	ori	s4,s4,577
   10724:	00a69a93          	slli	s5,a3,0xa
   10728:	0166d693          	srli	a3,a3,0x16
   1072c:	0147a023          	sw	s4,0(a5)
   10730:	00a69693          	slli	a3,a3,0xa
   10734:	281aea13          	ori	s4,s5,641
   10738:	0147a023          	sw	s4,0(a5)
   1073c:	013889b3          	add	s3,a7,s3
   10740:	2d16e693          	ori	a3,a3,721
   10744:	00d7a023          	sw	a3,0(a5)
   10748:	00a99a13          	slli	s4,s3,0xa
   1074c:	40058693          	addi	a3,a1,1024
   10750:	0169d993          	srli	s3,s3,0x16
   10754:	0107a023          	sw	a6,0(a5)
   10758:	4026d693          	srai	a3,a3,0x2
   1075c:	201a6a13          	ori	s4,s4,513
   10760:	00a99993          	slli	s3,s3,0xa
   10764:	0147a023          	sw	s4,0(a5)
   10768:	2419e993          	ori	s3,s3,577
   1076c:	00a69a13          	slli	s4,a3,0xa
   10770:	0166d693          	srli	a3,a3,0x16
   10774:	0137a023          	sw	s3,0(a5)
   10778:	00a69693          	slli	a3,a3,0xa
   1077c:	281a6993          	ori	s3,s4,641
   10780:	0137a023          	sw	s3,0(a5)
   10784:	01288933          	add	s2,a7,s2
   10788:	2d16e693          	ori	a3,a3,721
   1078c:	00d7a023          	sw	a3,0(a5)
   10790:	00a91993          	slli	s3,s2,0xa
   10794:	60058693          	addi	a3,a1,1536
   10798:	01695913          	srli	s2,s2,0x16
   1079c:	0107a023          	sw	a6,0(a5)
   107a0:	4026d693          	srai	a3,a3,0x2
   107a4:	2019e993          	ori	s3,s3,513
   107a8:	00a91913          	slli	s2,s2,0xa
   107ac:	0137a023          	sw	s3,0(a5)
   107b0:	24196913          	ori	s2,s2,577
   107b4:	00a69993          	slli	s3,a3,0xa
   107b8:	0166d693          	srli	a3,a3,0x16
   107bc:	0127a023          	sw	s2,0(a5)
   107c0:	00a69693          	slli	a3,a3,0xa
   107c4:	2819e913          	ori	s2,s3,641
   107c8:	0127a023          	sw	s2,0(a5)
   107cc:	009884b3          	add	s1,a7,s1
   107d0:	2d16e693          	ori	a3,a3,721
   107d4:	00d7a023          	sw	a3,0(a5)
   107d8:	00a49913          	slli	s2,s1,0xa
   107dc:	01e586b3          	add	a3,a1,t5
   107e0:	0164d493          	srli	s1,s1,0x16
   107e4:	0107a023          	sw	a6,0(a5)
   107e8:	4026d693          	srai	a3,a3,0x2
   107ec:	20196913          	ori	s2,s2,513
   107f0:	00a49493          	slli	s1,s1,0xa
   107f4:	0127a023          	sw	s2,0(a5)
   107f8:	2414e493          	ori	s1,s1,577
   107fc:	00a69913          	slli	s2,a3,0xa
   10800:	0166d693          	srli	a3,a3,0x16
   10804:	0097a023          	sw	s1,0(a5)
   10808:	00a69693          	slli	a3,a3,0xa
   1080c:	28196493          	ori	s1,s2,641
   10810:	0097a023          	sw	s1,0(a5)
   10814:	00888433          	add	s0,a7,s0
   10818:	2d16e693          	ori	a3,a3,721
   1081c:	00d7a023          	sw	a3,0(a5)
   10820:	00a41493          	slli	s1,s0,0xa
   10824:	01d586b3          	add	a3,a1,t4
   10828:	01645413          	srli	s0,s0,0x16
   1082c:	0107a023          	sw	a6,0(a5)
   10830:	4026d693          	srai	a3,a3,0x2
   10834:	2014e493          	ori	s1,s1,513
   10838:	00a41413          	slli	s0,s0,0xa
   1083c:	0097a023          	sw	s1,0(a5)
   10840:	24146413          	ori	s0,s0,577
   10844:	00a69493          	slli	s1,a3,0xa
   10848:	0166d693          	srli	a3,a3,0x16
   1084c:	0087a023          	sw	s0,0(a5)
   10850:	00a69693          	slli	a3,a3,0xa
   10854:	2814e413          	ori	s0,s1,641
   10858:	0087a023          	sw	s0,0(a5)
   1085c:	007883b3          	add	t2,a7,t2
   10860:	01c58433          	add	s0,a1,t3
   10864:	2d16e693          	ori	a3,a3,721
   10868:	00d7a023          	sw	a3,0(a5)
   1086c:	00a39493          	slli	s1,t2,0xa
   10870:	40245693          	srai	a3,s0,0x2
   10874:	0163d393          	srli	t2,t2,0x16
   10878:	0107a023          	sw	a6,0(a5)
   1087c:	0166d413          	srli	s0,a3,0x16
   10880:	2014e493          	ori	s1,s1,513
   10884:	00a39393          	slli	t2,t2,0xa
   10888:	0097a023          	sw	s1,0(a5)
   1088c:	2413e393          	ori	t2,t2,577
   10890:	00a41413          	slli	s0,s0,0xa
   10894:	00a69693          	slli	a3,a3,0xa
   10898:	005882b3          	add	t0,a7,t0
   1089c:	0077a023          	sw	t2,0(a5)
   108a0:	2816e693          	ori	a3,a3,641
   108a4:	2d146393          	ori	t2,s0,721
   108a8:	00d7a023          	sw	a3,0(a5)
   108ac:	00a29413          	slli	s0,t0,0xa
   108b0:	0077a023          	sw	t2,0(a5)
   108b4:	00a586b3          	add	a3,a1,a0
   108b8:	0162d293          	srli	t0,t0,0x16
   108bc:	0107a023          	sw	a6,0(a5)
   108c0:	4026d693          	srai	a3,a3,0x2
   108c4:	20146393          	ori	t2,s0,513
   108c8:	00a29293          	slli	t0,t0,0xa
   108cc:	0077a023          	sw	t2,0(a5)
   108d0:	2412e293          	ori	t0,t0,577
   108d4:	00a69393          	slli	t2,a3,0xa
   108d8:	0166d693          	srli	a3,a3,0x16
   108dc:	0057a023          	sw	t0,0(a5)
   108e0:	00a69693          	slli	a3,a3,0xa
   108e4:	2813e293          	ori	t0,t2,641
   108e8:	0057a023          	sw	t0,0(a5)
   108ec:	2d16e693          	ori	a3,a3,721
   108f0:	00d7a023          	sw	a3,0(a5)
   108f4:	0107a023          	sw	a6,0(a5)
   108f8:	00130313          	addi	t1,t1,1
   108fc:	00858593          	addi	a1,a1,8
   10900:	02c30263          	beq	t1,a2,10924 <_Z8PrintDMAiiiPKcb+0x350>
   10904:	00034683          	lbu	a3,0(t1)
   10908:	00068e63          	beqz	a3,10924 <_Z8PrintDMAiiiPKcb+0x350>
   1090c:	fe068693          	addi	a3,a3,-32
   10910:	d4070ee3          	beqz	a4,1066c <_Z8PrintDMAiiiPKcb+0x98>
   10914:	d4069ce3          	bnez	a3,1066c <_Z8PrintDMAiiiPKcb+0x98>
   10918:	00130313          	addi	t1,t1,1
   1091c:	00858593          	addi	a1,a1,8
   10920:	fec312e3          	bne	t1,a2,10904 <_Z8PrintDMAiiiPKcb+0x330>
   10924:	01c12403          	lw	s0,28(sp)
   10928:	01812483          	lw	s1,24(sp)
   1092c:	01412903          	lw	s2,20(sp)
   10930:	01012983          	lw	s3,16(sp)
   10934:	00c12a03          	lw	s4,12(sp)
   10938:	00812a83          	lw	s5,8(sp)
   1093c:	00412b03          	lw	s6,4(sp)
   10940:	02010113          	addi	sp,sp,32
   10944:	00008067          	ret
   10948:	00088693          	mv	a3,a7
   1094c:	70000293          	li	t0,1792
   10950:	60000393          	li	t2,1536
   10954:	50000413          	li	s0,1280
   10958:	40000493          	li	s1,1024
   1095c:	30000913          	li	s2,768
   10960:	20000993          	li	s3,512
   10964:	10000a13          	li	s4,256
   10968:	d59ff06f          	j	106c0 <_Z8PrintDMAiiiPKcb+0xec>
   1096c:	00008067          	ret

00010970 <_Z11PrintDMAHexiim>:
   10970:	00001e17          	auipc	t3,0x1
   10974:	a04e0e13          	addi	t3,t3,-1532 # 11374 <_exit+0x30>
   10978:	00ce2f03          	lw	t5,12(t3)
   1097c:	008e2f83          	lw	t6,8(t3)
   10980:	000e2383          	lw	t2,0(t3)
   10984:	004e2283          	lw	t0,4(t3)
   10988:	fd010113          	addi	sp,sp,-48
   1098c:	01865313          	srli	t1,a2,0x18
   10990:	01465893          	srli	a7,a2,0x14
   10994:	01065813          	srli	a6,a2,0x10
   10998:	00c65693          	srli	a3,a2,0xc
   1099c:	00865713          	srli	a4,a2,0x8
   109a0:	00465793          	srli	a5,a2,0x4
   109a4:	01e12c23          	sw	t5,24(sp)
   109a8:	01c65e93          	srli	t4,a2,0x1c
   109ac:	02010f13          	addi	t5,sp,32
   109b0:	00f37313          	andi	t1,t1,15
   109b4:	00f8f893          	andi	a7,a7,15
   109b8:	00f87813          	andi	a6,a6,15
   109bc:	00f6f693          	andi	a3,a3,15
   109c0:	00f77713          	andi	a4,a4,15
   109c4:	00f7f793          	andi	a5,a5,15
   109c8:	00f67613          	andi	a2,a2,15
   109cc:	02112623          	sw	ra,44(sp)
   109d0:	01f12a23          	sw	t6,20(sp)
   109d4:	00712623          	sw	t2,12(sp)
   109d8:	00512823          	sw	t0,16(sp)
   109dc:	006f0333          	add	t1,t5,t1
   109e0:	011f08b3          	add	a7,t5,a7
   109e4:	010f0833          	add	a6,t5,a6
   109e8:	00df06b3          	add	a3,t5,a3
   109ec:	00ef0733          	add	a4,t5,a4
   109f0:	00ff07b3          	add	a5,t5,a5
   109f4:	00cf0633          	add	a2,t5,a2
   109f8:	01df0eb3          	add	t4,t5,t4
   109fc:	010e4f83          	lbu	t6,16(t3)
   10a00:	fececf03          	lbu	t5,-20(t4)
   10a04:	fec8ce03          	lbu	t3,-20(a7)
   10a08:	fec34e83          	lbu	t4,-20(t1)
   10a0c:	fec6c883          	lbu	a7,-20(a3)
   10a10:	fec84303          	lbu	t1,-20(a6)
   10a14:	fec74803          	lbu	a6,-20(a4)
   10a18:	fec7c703          	lbu	a4,-20(a5)
   10a1c:	fec64783          	lbu	a5,-20(a2)
   10a20:	02e00693          	li	a3,46
   10a24:	00d11423          	sh	a3,8(sp)
   10a28:	00010613          	mv	a2,sp
   10a2c:	00100693          	li	a3,1
   10a30:	01f10e23          	sb	t6,28(sp)
   10a34:	01e10023          	sb	t5,0(sp)
   10a38:	01d100a3          	sb	t4,1(sp)
   10a3c:	01c10123          	sb	t3,2(sp)
   10a40:	006101a3          	sb	t1,3(sp)
   10a44:	01110223          	sb	a7,4(sp)
   10a48:	010102a3          	sb	a6,5(sp)
   10a4c:	00e10323          	sb	a4,6(sp)
   10a50:	00f103a3          	sb	a5,7(sp)
   10a54:	00010423          	sb	zero,8(sp)
   10a58:	839ff0ef          	jal	ra,10290 <_Z8PrintDMAiiPKcb>
   10a5c:	02c12083          	lw	ra,44(sp)
   10a60:	03010113          	addi	sp,sp,48
   10a64:	00008067          	ret

00010a68 <_Z15PrintDMADecimaliiib>:
   10a68:	00001797          	auipc	a5,0x1
   10a6c:	92078793          	addi	a5,a5,-1760 # 11388 <_exit+0x44>
   10a70:	00001717          	auipc	a4,0x1
   10a74:	92c70713          	addi	a4,a4,-1748 # 1139c <_exit+0x58>
   10a78:	0047a883          	lw	a7,4(a5)
   10a7c:	00072f83          	lw	t6,0(a4)
   10a80:	00472f03          	lw	t5,4(a4)
   10a84:	00875e83          	lhu	t4,8(a4)
   10a88:	00a74e03          	lbu	t3,10(a4)
   10a8c:	0007a303          	lw	t1,0(a5)
   10a90:	0087a803          	lw	a6,8(a5)
   10a94:	00c7a703          	lw	a4,12(a5)
   10a98:	0107a783          	lw	a5,16(a5)
   10a9c:	fd010113          	addi	sp,sp,-48
   10aa0:	01112823          	sw	a7,16(sp)
   10aa4:	00f12e23          	sw	a5,28(sp)
   10aa8:	02112623          	sw	ra,44(sp)
   10aac:	02812423          	sw	s0,40(sp)
   10ab0:	01f12023          	sw	t6,0(sp)
   10ab4:	01e12223          	sw	t5,4(sp)
   10ab8:	01d11423          	sh	t4,8(sp)
   10abc:	01c10523          	sb	t3,10(sp)
   10ac0:	00612623          	sw	t1,12(sp)
   10ac4:	01012a23          	sw	a6,20(sp)
   10ac8:	00e12c23          	sw	a4,24(sp)
   10acc:	02d00893          	li	a7,45
   10ad0:	00100793          	li	a5,1
   10ad4:	00064663          	bltz	a2,10ae0 <_Z15PrintDMADecimaliiib+0x78>
   10ad8:	02000893          	li	a7,32
   10adc:	00000793          	li	a5,0
   10ae0:	3b9ad737          	lui	a4,0x3b9ad
   10ae4:	a0070813          	addi	a6,a4,-1536 # 3b9aca00 <__BSS_END__+0x3b998438>
   10ae8:	03064833          	div	a6,a2,a6
   10aec:	9ff70713          	addi	a4,a4,-1537
   10af0:	01110623          	sb	a7,12(sp)
   10af4:	773598b7          	lui	a7,0x77359
   10af8:	00e60733          	add	a4,a2,a4
   10afc:	3fe88893          	addi	a7,a7,1022 # 773593fe <__BSS_END__+0x77344e36>
   10b00:	41f85313          	srai	t1,a6,0x1f
   10b04:	01034833          	xor	a6,t1,a6
   10b08:	40680833          	sub	a6,a6,t1
   10b0c:	14e8e663          	bltu	a7,a4,10c58 <_Z15PrintDMADecimaliiib+0x1f0>
   10b10:	05f5e737          	lui	a4,0x5f5e
   10b14:	10070713          	addi	a4,a4,256 # 5f5e100 <__BSS_END__+0x5f49b38>
   10b18:	02e64733          	div	a4,a2,a4
   10b1c:	00a00893          	li	a7,10
   10b20:	41f75313          	srai	t1,a4,0x1f
   10b24:	00e34833          	xor	a6,t1,a4
   10b28:	40680833          	sub	a6,a6,t1
   10b2c:	03186833          	rem	a6,a6,a7
   10b30:	16081263          	bnez	a6,10c94 <_Z15PrintDMADecimaliiib+0x22c>
   10b34:	00989737          	lui	a4,0x989
   10b38:	68070713          	addi	a4,a4,1664 # 989680 <__BSS_END__+0x9750b8>
   10b3c:	02e64733          	div	a4,a2,a4
   10b40:	41f75313          	srai	t1,a4,0x1f
   10b44:	00e34833          	xor	a6,t1,a4
   10b48:	40680833          	sub	a6,a6,t1
   10b4c:	03186833          	rem	a6,a6,a7
   10b50:	18081063          	bnez	a6,10cd0 <_Z15PrintDMADecimaliiib+0x268>
   10b54:	000f4737          	lui	a4,0xf4
   10b58:	24070713          	addi	a4,a4,576 # f4240 <__BSS_END__+0xdfc78>
   10b5c:	02e64733          	div	a4,a2,a4
   10b60:	41f75313          	srai	t1,a4,0x1f
   10b64:	00e34833          	xor	a6,t1,a4
   10b68:	40680833          	sub	a6,a6,t1
   10b6c:	03186833          	rem	a6,a6,a7
   10b70:	18081e63          	bnez	a6,10d0c <_Z15PrintDMADecimaliiib+0x2a4>
   10b74:	00018737          	lui	a4,0x18
   10b78:	6a070713          	addi	a4,a4,1696 # 186a0 <__BSS_END__+0x40d8>
   10b7c:	02e64733          	div	a4,a2,a4
   10b80:	41f75313          	srai	t1,a4,0x1f
   10b84:	00e34833          	xor	a6,t1,a4
   10b88:	40680833          	sub	a6,a6,t1
   10b8c:	03186833          	rem	a6,a6,a7
   10b90:	1a081c63          	bnez	a6,10d48 <_Z15PrintDMADecimaliiib+0x2e0>
   10b94:	00002737          	lui	a4,0x2
   10b98:	71070713          	addi	a4,a4,1808 # 2710 <main-0xd964>
   10b9c:	02e64733          	div	a4,a2,a4
   10ba0:	41f75813          	srai	a6,a4,0x1f
   10ba4:	00e84733          	xor	a4,a6,a4
   10ba8:	41070733          	sub	a4,a4,a6
   10bac:	03176733          	rem	a4,a4,a7
   10bb0:	1c071a63          	bnez	a4,10d84 <_Z15PrintDMADecimaliiib+0x31c>
   10bb4:	3e800713          	li	a4,1000
   10bb8:	02e64733          	div	a4,a2,a4
   10bbc:	41f75313          	srai	t1,a4,0x1f
   10bc0:	00e34833          	xor	a6,t1,a4
   10bc4:	40680833          	sub	a6,a6,t1
   10bc8:	03186833          	rem	a6,a6,a7
   10bcc:	1e081863          	bnez	a6,10dbc <_Z15PrintDMADecimaliiib+0x354>
   10bd0:	06400713          	li	a4,100
   10bd4:	02e64733          	div	a4,a2,a4
   10bd8:	41f75813          	srai	a6,a4,0x1f
   10bdc:	00e84733          	xor	a4,a6,a4
   10be0:	41070733          	sub	a4,a4,a6
   10be4:	03176733          	rem	a4,a4,a7
   10be8:	20071663          	bnez	a4,10df4 <_Z15PrintDMADecimaliiib+0x38c>
   10bec:	03164733          	div	a4,a2,a7
   10bf0:	41f75813          	srai	a6,a4,0x1f
   10bf4:	00e84733          	xor	a4,a6,a4
   10bf8:	41070733          	sub	a4,a4,a6
   10bfc:	031768b3          	rem	a7,a4,a7
   10c00:	22089463          	bnez	a7,10e28 <_Z15PrintDMADecimaliiib+0x3c0>
   10c04:	41f65813          	srai	a6,a2,0x1f
   10c08:	00c84733          	xor	a4,a6,a2
   10c0c:	41070733          	sub	a4,a4,a6
   10c10:	00a00613          	li	a2,10
   10c14:	02c76733          	rem	a4,a4,a2
   10c18:	02010893          	addi	a7,sp,32
   10c1c:	02010613          	addi	a2,sp,32
   10c20:	00178413          	addi	s0,a5,1
   10c24:	00f607b3          	add	a5,a2,a5
   10c28:	00860833          	add	a6,a2,s0
   10c2c:	00c10613          	addi	a2,sp,12
   10c30:	00e88733          	add	a4,a7,a4
   10c34:	fe074703          	lbu	a4,-32(a4)
   10c38:	fee78623          	sb	a4,-20(a5)
   10c3c:	fe080623          	sb	zero,-20(a6)
   10c40:	e50ff0ef          	jal	ra,10290 <_Z8PrintDMAiiPKcb>
   10c44:	02c12083          	lw	ra,44(sp)
   10c48:	00040513          	mv	a0,s0
   10c4c:	02812403          	lw	s0,40(sp)
   10c50:	03010113          	addi	sp,sp,48
   10c54:	00008067          	ret
   10c58:	05f5e737          	lui	a4,0x5f5e
   10c5c:	10070713          	addi	a4,a4,256 # 5f5e100 <__BSS_END__+0x5f49b38>
   10c60:	02e64733          	div	a4,a2,a4
   10c64:	02010893          	addi	a7,sp,32
   10c68:	01088833          	add	a6,a7,a6
   10c6c:	fe084883          	lbu	a7,-32(a6)
   10c70:	02010813          	addi	a6,sp,32
   10c74:	00f80833          	add	a6,a6,a5
   10c78:	ff180623          	sb	a7,-20(a6)
   10c7c:	00178793          	addi	a5,a5,1
   10c80:	41f75893          	srai	a7,a4,0x1f
   10c84:	00e8c833          	xor	a6,a7,a4
   10c88:	41180833          	sub	a6,a6,a7
   10c8c:	00a00713          	li	a4,10
   10c90:	02e86833          	rem	a6,a6,a4
   10c94:	00989737          	lui	a4,0x989
   10c98:	68070713          	addi	a4,a4,1664 # 989680 <__BSS_END__+0x9750b8>
   10c9c:	02010893          	addi	a7,sp,32
   10ca0:	01088833          	add	a6,a7,a6
   10ca4:	fe084883          	lbu	a7,-32(a6)
   10ca8:	02010813          	addi	a6,sp,32
   10cac:	00f80833          	add	a6,a6,a5
   10cb0:	ff180623          	sb	a7,-20(a6)
   10cb4:	00178793          	addi	a5,a5,1
   10cb8:	02e64733          	div	a4,a2,a4
   10cbc:	41f75893          	srai	a7,a4,0x1f
   10cc0:	00e8c833          	xor	a6,a7,a4
   10cc4:	41180833          	sub	a6,a6,a7
   10cc8:	00a00713          	li	a4,10
   10ccc:	02e86833          	rem	a6,a6,a4
   10cd0:	000f4737          	lui	a4,0xf4
   10cd4:	24070713          	addi	a4,a4,576 # f4240 <__BSS_END__+0xdfc78>
   10cd8:	02010893          	addi	a7,sp,32
   10cdc:	01088833          	add	a6,a7,a6
   10ce0:	fe084883          	lbu	a7,-32(a6)
   10ce4:	02010813          	addi	a6,sp,32
   10ce8:	00f80833          	add	a6,a6,a5
   10cec:	ff180623          	sb	a7,-20(a6)
   10cf0:	00178793          	addi	a5,a5,1
   10cf4:	02e64733          	div	a4,a2,a4
   10cf8:	41f75893          	srai	a7,a4,0x1f
   10cfc:	00e8c833          	xor	a6,a7,a4
   10d00:	41180833          	sub	a6,a6,a7
   10d04:	00a00713          	li	a4,10
   10d08:	02e86833          	rem	a6,a6,a4
   10d0c:	00018737          	lui	a4,0x18
   10d10:	6a070713          	addi	a4,a4,1696 # 186a0 <__BSS_END__+0x40d8>
   10d14:	02010893          	addi	a7,sp,32
   10d18:	01088833          	add	a6,a7,a6
   10d1c:	fe084883          	lbu	a7,-32(a6)
   10d20:	02010813          	addi	a6,sp,32
   10d24:	00f80833          	add	a6,a6,a5
   10d28:	ff180623          	sb	a7,-20(a6)
   10d2c:	00178793          	addi	a5,a5,1
   10d30:	02e64733          	div	a4,a2,a4
   10d34:	41f75893          	srai	a7,a4,0x1f
   10d38:	00e8c833          	xor	a6,a7,a4
   10d3c:	41180833          	sub	a6,a6,a7
   10d40:	00a00713          	li	a4,10
   10d44:	02e86833          	rem	a6,a6,a4
   10d48:	00002737          	lui	a4,0x2
   10d4c:	71070713          	addi	a4,a4,1808 # 2710 <main-0xd964>
   10d50:	02010893          	addi	a7,sp,32
   10d54:	01088833          	add	a6,a7,a6
   10d58:	fe084883          	lbu	a7,-32(a6)
   10d5c:	02010813          	addi	a6,sp,32
   10d60:	00f80833          	add	a6,a6,a5
   10d64:	ff180623          	sb	a7,-20(a6)
   10d68:	00178793          	addi	a5,a5,1
   10d6c:	02e64733          	div	a4,a2,a4
   10d70:	41f75813          	srai	a6,a4,0x1f
   10d74:	00e84733          	xor	a4,a6,a4
   10d78:	41070733          	sub	a4,a4,a6
   10d7c:	00a00813          	li	a6,10
   10d80:	03076733          	rem	a4,a4,a6
   10d84:	3e800813          	li	a6,1000
   10d88:	02010893          	addi	a7,sp,32
   10d8c:	00e88733          	add	a4,a7,a4
   10d90:	fe074883          	lbu	a7,-32(a4)
   10d94:	02010713          	addi	a4,sp,32
   10d98:	00f70733          	add	a4,a4,a5
   10d9c:	ff170623          	sb	a7,-20(a4)
   10da0:	00178793          	addi	a5,a5,1
   10da4:	03064833          	div	a6,a2,a6
   10da8:	41f85713          	srai	a4,a6,0x1f
   10dac:	01074833          	xor	a6,a4,a6
   10db0:	40e80833          	sub	a6,a6,a4
   10db4:	00a00713          	li	a4,10
   10db8:	02e86833          	rem	a6,a6,a4
   10dbc:	06400713          	li	a4,100
   10dc0:	02010893          	addi	a7,sp,32
   10dc4:	01088833          	add	a6,a7,a6
   10dc8:	fe084883          	lbu	a7,-32(a6)
   10dcc:	02010813          	addi	a6,sp,32
   10dd0:	00f80833          	add	a6,a6,a5
   10dd4:	ff180623          	sb	a7,-20(a6)
   10dd8:	00178793          	addi	a5,a5,1
   10ddc:	02e64733          	div	a4,a2,a4
   10de0:	41f75813          	srai	a6,a4,0x1f
   10de4:	00e84733          	xor	a4,a6,a4
   10de8:	41070733          	sub	a4,a4,a6
   10dec:	00a00813          	li	a6,10
   10df0:	03076733          	rem	a4,a4,a6
   10df4:	00a00313          	li	t1,10
   10df8:	02010893          	addi	a7,sp,32
   10dfc:	00e88733          	add	a4,a7,a4
   10e00:	fe074883          	lbu	a7,-32(a4)
   10e04:	02010713          	addi	a4,sp,32
   10e08:	00f70733          	add	a4,a4,a5
   10e0c:	ff170623          	sb	a7,-20(a4)
   10e10:	00178793          	addi	a5,a5,1
   10e14:	02664833          	div	a6,a2,t1
   10e18:	41f85713          	srai	a4,a6,0x1f
   10e1c:	010748b3          	xor	a7,a4,a6
   10e20:	40e888b3          	sub	a7,a7,a4
   10e24:	0268e8b3          	rem	a7,a7,t1
   10e28:	02010713          	addi	a4,sp,32
   10e2c:	011708b3          	add	a7,a4,a7
   10e30:	fe08c803          	lbu	a6,-32(a7)
   10e34:	00f70733          	add	a4,a4,a5
   10e38:	00178793          	addi	a5,a5,1
   10e3c:	ff070623          	sb	a6,-20(a4)
   10e40:	dc5ff06f          	j	10c04 <_Z15PrintDMADecimaliiib+0x19c>

00010e44 <__errno>:
   10e44:	7dc1a503          	lw	a0,2012(gp) # 145a4 <_impure_ptr>
   10e48:	00008067          	ret

00010e4c <exit>:
   10e4c:	ff010113          	addi	sp,sp,-16
   10e50:	00000593          	li	a1,0
   10e54:	00812423          	sw	s0,8(sp)
   10e58:	00112623          	sw	ra,12(sp)
   10e5c:	00050413          	mv	s0,a0
   10e60:	2bc000ef          	jal	ra,1111c <__call_exitprocs>
   10e64:	7d81a503          	lw	a0,2008(gp) # 145a0 <_global_impure_ptr>
   10e68:	03c52783          	lw	a5,60(a0) # ffffc03c <__BSS_END__+0xfffe7a74>
   10e6c:	00078463          	beqz	a5,10e74 <exit+0x28>
   10e70:	000780e7          	jalr	a5
   10e74:	00040513          	mv	a0,s0
   10e78:	4cc000ef          	jal	ra,11344 <_exit>

00010e7c <__libc_init_array>:
   10e7c:	ff010113          	addi	sp,sp,-16
   10e80:	00812423          	sw	s0,8(sp)
   10e84:	01212023          	sw	s2,0(sp)
   10e88:	00013437          	lui	s0,0x13
   10e8c:	00013937          	lui	s2,0x13
   10e90:	13840793          	addi	a5,s0,312 # 13138 <__init_array_start>
   10e94:	13890913          	addi	s2,s2,312 # 13138 <__init_array_start>
   10e98:	40f90933          	sub	s2,s2,a5
   10e9c:	00112623          	sw	ra,12(sp)
   10ea0:	00912223          	sw	s1,4(sp)
   10ea4:	40295913          	srai	s2,s2,0x2
   10ea8:	02090063          	beqz	s2,10ec8 <__libc_init_array+0x4c>
   10eac:	13840413          	addi	s0,s0,312
   10eb0:	00000493          	li	s1,0
   10eb4:	00042783          	lw	a5,0(s0)
   10eb8:	00148493          	addi	s1,s1,1
   10ebc:	00440413          	addi	s0,s0,4
   10ec0:	000780e7          	jalr	a5
   10ec4:	fe9918e3          	bne	s2,s1,10eb4 <__libc_init_array+0x38>
   10ec8:	00013437          	lui	s0,0x13
   10ecc:	00013937          	lui	s2,0x13
   10ed0:	13840793          	addi	a5,s0,312 # 13138 <__init_array_start>
   10ed4:	14490913          	addi	s2,s2,324 # 13144 <__do_global_dtors_aux_fini_array_entry>
   10ed8:	40f90933          	sub	s2,s2,a5
   10edc:	40295913          	srai	s2,s2,0x2
   10ee0:	02090063          	beqz	s2,10f00 <__libc_init_array+0x84>
   10ee4:	13840413          	addi	s0,s0,312
   10ee8:	00000493          	li	s1,0
   10eec:	00042783          	lw	a5,0(s0)
   10ef0:	00148493          	addi	s1,s1,1
   10ef4:	00440413          	addi	s0,s0,4
   10ef8:	000780e7          	jalr	a5
   10efc:	fe9918e3          	bne	s2,s1,10eec <__libc_init_array+0x70>
   10f00:	00c12083          	lw	ra,12(sp)
   10f04:	00812403          	lw	s0,8(sp)
   10f08:	00412483          	lw	s1,4(sp)
   10f0c:	00012903          	lw	s2,0(sp)
   10f10:	01010113          	addi	sp,sp,16
   10f14:	00008067          	ret

00010f18 <memcpy>:
   10f18:	00a5c7b3          	xor	a5,a1,a0
   10f1c:	0037f793          	andi	a5,a5,3
   10f20:	00c508b3          	add	a7,a0,a2
   10f24:	06079663          	bnez	a5,10f90 <memcpy+0x78>
   10f28:	00300793          	li	a5,3
   10f2c:	06c7f263          	bgeu	a5,a2,10f90 <memcpy+0x78>
   10f30:	00357793          	andi	a5,a0,3
   10f34:	00050713          	mv	a4,a0
   10f38:	0c079a63          	bnez	a5,1100c <memcpy+0xf4>
   10f3c:	ffc8f613          	andi	a2,a7,-4
   10f40:	40e606b3          	sub	a3,a2,a4
   10f44:	02000793          	li	a5,32
   10f48:	02000293          	li	t0,32
   10f4c:	06d7c263          	blt	a5,a3,10fb0 <memcpy+0x98>
   10f50:	00058693          	mv	a3,a1
   10f54:	00070793          	mv	a5,a4
   10f58:	02c77863          	bgeu	a4,a2,10f88 <memcpy+0x70>
   10f5c:	0006a803          	lw	a6,0(a3)
   10f60:	00478793          	addi	a5,a5,4
   10f64:	00468693          	addi	a3,a3,4
   10f68:	ff07ae23          	sw	a6,-4(a5)
   10f6c:	fec7e8e3          	bltu	a5,a2,10f5c <memcpy+0x44>
   10f70:	fff60793          	addi	a5,a2,-1
   10f74:	40e787b3          	sub	a5,a5,a4
   10f78:	ffc7f793          	andi	a5,a5,-4
   10f7c:	00478793          	addi	a5,a5,4
   10f80:	00f70733          	add	a4,a4,a5
   10f84:	00f585b3          	add	a1,a1,a5
   10f88:	01176863          	bltu	a4,a7,10f98 <memcpy+0x80>
   10f8c:	00008067          	ret
   10f90:	00050713          	mv	a4,a0
   10f94:	ff157ce3          	bgeu	a0,a7,10f8c <memcpy+0x74>
   10f98:	0005c783          	lbu	a5,0(a1)
   10f9c:	00170713          	addi	a4,a4,1
   10fa0:	00158593          	addi	a1,a1,1
   10fa4:	fef70fa3          	sb	a5,-1(a4)
   10fa8:	ff1768e3          	bltu	a4,a7,10f98 <memcpy+0x80>
   10fac:	00008067          	ret
   10fb0:	0045a683          	lw	a3,4(a1)
   10fb4:	01c5a783          	lw	a5,28(a1)
   10fb8:	0005af83          	lw	t6,0(a1)
   10fbc:	0085af03          	lw	t5,8(a1)
   10fc0:	00c5ae83          	lw	t4,12(a1)
   10fc4:	0105ae03          	lw	t3,16(a1)
   10fc8:	0145a303          	lw	t1,20(a1)
   10fcc:	0185a803          	lw	a6,24(a1)
   10fd0:	00d72223          	sw	a3,4(a4)
   10fd4:	0205a683          	lw	a3,32(a1)
   10fd8:	01f72023          	sw	t6,0(a4)
   10fdc:	01e72423          	sw	t5,8(a4)
   10fe0:	01d72623          	sw	t4,12(a4)
   10fe4:	01c72823          	sw	t3,16(a4)
   10fe8:	00672a23          	sw	t1,20(a4)
   10fec:	01072c23          	sw	a6,24(a4)
   10ff0:	00f72e23          	sw	a5,28(a4)
   10ff4:	02470713          	addi	a4,a4,36
   10ff8:	40e607b3          	sub	a5,a2,a4
   10ffc:	fed72e23          	sw	a3,-4(a4)
   11000:	02458593          	addi	a1,a1,36
   11004:	faf2c6e3          	blt	t0,a5,10fb0 <memcpy+0x98>
   11008:	f49ff06f          	j	10f50 <memcpy+0x38>
   1100c:	0005c683          	lbu	a3,0(a1)
   11010:	00170713          	addi	a4,a4,1
   11014:	00377793          	andi	a5,a4,3
   11018:	fed70fa3          	sb	a3,-1(a4)
   1101c:	00158593          	addi	a1,a1,1
   11020:	f0078ee3          	beqz	a5,10f3c <memcpy+0x24>
   11024:	0005c683          	lbu	a3,0(a1)
   11028:	00170713          	addi	a4,a4,1
   1102c:	00377793          	andi	a5,a4,3
   11030:	fed70fa3          	sb	a3,-1(a4)
   11034:	00158593          	addi	a1,a1,1
   11038:	fc079ae3          	bnez	a5,1100c <memcpy+0xf4>
   1103c:	f01ff06f          	j	10f3c <memcpy+0x24>

00011040 <memset>:
   11040:	00f00313          	li	t1,15
   11044:	00050713          	mv	a4,a0
   11048:	02c37e63          	bgeu	t1,a2,11084 <memset+0x44>
   1104c:	00f77793          	andi	a5,a4,15
   11050:	0a079063          	bnez	a5,110f0 <memset+0xb0>
   11054:	08059263          	bnez	a1,110d8 <memset+0x98>
   11058:	ff067693          	andi	a3,a2,-16
   1105c:	00f67613          	andi	a2,a2,15
   11060:	00e686b3          	add	a3,a3,a4
   11064:	00b72023          	sw	a1,0(a4)
   11068:	00b72223          	sw	a1,4(a4)
   1106c:	00b72423          	sw	a1,8(a4)
   11070:	00b72623          	sw	a1,12(a4)
   11074:	01070713          	addi	a4,a4,16
   11078:	fed766e3          	bltu	a4,a3,11064 <memset+0x24>
   1107c:	00061463          	bnez	a2,11084 <memset+0x44>
   11080:	00008067          	ret
   11084:	40c306b3          	sub	a3,t1,a2
   11088:	00269693          	slli	a3,a3,0x2
   1108c:	00000297          	auipc	t0,0x0
   11090:	005686b3          	add	a3,a3,t0
   11094:	00c68067          	jr	12(a3)
   11098:	00b70723          	sb	a1,14(a4)
   1109c:	00b706a3          	sb	a1,13(a4)
   110a0:	00b70623          	sb	a1,12(a4)
   110a4:	00b705a3          	sb	a1,11(a4)
   110a8:	00b70523          	sb	a1,10(a4)
   110ac:	00b704a3          	sb	a1,9(a4)
   110b0:	00b70423          	sb	a1,8(a4)
   110b4:	00b703a3          	sb	a1,7(a4)
   110b8:	00b70323          	sb	a1,6(a4)
   110bc:	00b702a3          	sb	a1,5(a4)
   110c0:	00b70223          	sb	a1,4(a4)
   110c4:	00b701a3          	sb	a1,3(a4)
   110c8:	00b70123          	sb	a1,2(a4)
   110cc:	00b700a3          	sb	a1,1(a4)
   110d0:	00b70023          	sb	a1,0(a4)
   110d4:	00008067          	ret
   110d8:	0ff5f593          	andi	a1,a1,255
   110dc:	00859693          	slli	a3,a1,0x8
   110e0:	00d5e5b3          	or	a1,a1,a3
   110e4:	01059693          	slli	a3,a1,0x10
   110e8:	00d5e5b3          	or	a1,a1,a3
   110ec:	f6dff06f          	j	11058 <memset+0x18>
   110f0:	00279693          	slli	a3,a5,0x2
   110f4:	00000297          	auipc	t0,0x0
   110f8:	005686b3          	add	a3,a3,t0
   110fc:	00008293          	mv	t0,ra
   11100:	fa0680e7          	jalr	-96(a3)
   11104:	00028093          	mv	ra,t0
   11108:	ff078793          	addi	a5,a5,-16
   1110c:	40f70733          	sub	a4,a4,a5
   11110:	00f60633          	add	a2,a2,a5
   11114:	f6c378e3          	bgeu	t1,a2,11084 <memset+0x44>
   11118:	f3dff06f          	j	11054 <memset+0x14>

0001111c <__call_exitprocs>:
   1111c:	fd010113          	addi	sp,sp,-48
   11120:	01412c23          	sw	s4,24(sp)
   11124:	7d81aa03          	lw	s4,2008(gp) # 145a0 <_global_impure_ptr>
   11128:	03212023          	sw	s2,32(sp)
   1112c:	02112623          	sw	ra,44(sp)
   11130:	148a2903          	lw	s2,328(s4)
   11134:	02812423          	sw	s0,40(sp)
   11138:	02912223          	sw	s1,36(sp)
   1113c:	01312e23          	sw	s3,28(sp)
   11140:	01512a23          	sw	s5,20(sp)
   11144:	01612823          	sw	s6,16(sp)
   11148:	01712623          	sw	s7,12(sp)
   1114c:	01812423          	sw	s8,8(sp)
   11150:	04090063          	beqz	s2,11190 <__call_exitprocs+0x74>
   11154:	00050b13          	mv	s6,a0
   11158:	00058b93          	mv	s7,a1
   1115c:	00100a93          	li	s5,1
   11160:	fff00993          	li	s3,-1
   11164:	00492483          	lw	s1,4(s2)
   11168:	fff48413          	addi	s0,s1,-1
   1116c:	02044263          	bltz	s0,11190 <__call_exitprocs+0x74>
   11170:	00249493          	slli	s1,s1,0x2
   11174:	009904b3          	add	s1,s2,s1
   11178:	040b8463          	beqz	s7,111c0 <__call_exitprocs+0xa4>
   1117c:	1044a783          	lw	a5,260(s1)
   11180:	05778063          	beq	a5,s7,111c0 <__call_exitprocs+0xa4>
   11184:	fff40413          	addi	s0,s0,-1
   11188:	ffc48493          	addi	s1,s1,-4
   1118c:	ff3416e3          	bne	s0,s3,11178 <__call_exitprocs+0x5c>
   11190:	02c12083          	lw	ra,44(sp)
   11194:	02812403          	lw	s0,40(sp)
   11198:	02412483          	lw	s1,36(sp)
   1119c:	02012903          	lw	s2,32(sp)
   111a0:	01c12983          	lw	s3,28(sp)
   111a4:	01812a03          	lw	s4,24(sp)
   111a8:	01412a83          	lw	s5,20(sp)
   111ac:	01012b03          	lw	s6,16(sp)
   111b0:	00c12b83          	lw	s7,12(sp)
   111b4:	00812c03          	lw	s8,8(sp)
   111b8:	03010113          	addi	sp,sp,48
   111bc:	00008067          	ret
   111c0:	00492783          	lw	a5,4(s2)
   111c4:	0044a683          	lw	a3,4(s1)
   111c8:	fff78793          	addi	a5,a5,-1
   111cc:	04878e63          	beq	a5,s0,11228 <__call_exitprocs+0x10c>
   111d0:	0004a223          	sw	zero,4(s1)
   111d4:	fa0688e3          	beqz	a3,11184 <__call_exitprocs+0x68>
   111d8:	18892783          	lw	a5,392(s2)
   111dc:	008a9733          	sll	a4,s5,s0
   111e0:	00492c03          	lw	s8,4(s2)
   111e4:	00f777b3          	and	a5,a4,a5
   111e8:	02079263          	bnez	a5,1120c <__call_exitprocs+0xf0>
   111ec:	000680e7          	jalr	a3
   111f0:	00492703          	lw	a4,4(s2)
   111f4:	148a2783          	lw	a5,328(s4)
   111f8:	01871463          	bne	a4,s8,11200 <__call_exitprocs+0xe4>
   111fc:	f92784e3          	beq	a5,s2,11184 <__call_exitprocs+0x68>
   11200:	f80788e3          	beqz	a5,11190 <__call_exitprocs+0x74>
   11204:	00078913          	mv	s2,a5
   11208:	f5dff06f          	j	11164 <__call_exitprocs+0x48>
   1120c:	18c92783          	lw	a5,396(s2)
   11210:	0844a583          	lw	a1,132(s1)
   11214:	00f77733          	and	a4,a4,a5
   11218:	00071c63          	bnez	a4,11230 <__call_exitprocs+0x114>
   1121c:	000b0513          	mv	a0,s6
   11220:	000680e7          	jalr	a3
   11224:	fcdff06f          	j	111f0 <__call_exitprocs+0xd4>
   11228:	00892223          	sw	s0,4(s2)
   1122c:	fa9ff06f          	j	111d4 <__call_exitprocs+0xb8>
   11230:	00058513          	mv	a0,a1
   11234:	000680e7          	jalr	a3
   11238:	fb9ff06f          	j	111f0 <__call_exitprocs+0xd4>

0001123c <__libc_fini_array>:
   1123c:	ff010113          	addi	sp,sp,-16
   11240:	00812423          	sw	s0,8(sp)
   11244:	000137b7          	lui	a5,0x13
   11248:	00013437          	lui	s0,0x13
   1124c:	14440413          	addi	s0,s0,324 # 13144 <__do_global_dtors_aux_fini_array_entry>
   11250:	14878793          	addi	a5,a5,328 # 13148 <sinewave>
   11254:	408787b3          	sub	a5,a5,s0
   11258:	00912223          	sw	s1,4(sp)
   1125c:	00112623          	sw	ra,12(sp)
   11260:	4027d493          	srai	s1,a5,0x2
   11264:	02048063          	beqz	s1,11284 <__libc_fini_array+0x48>
   11268:	ffc78793          	addi	a5,a5,-4
   1126c:	00878433          	add	s0,a5,s0
   11270:	00042783          	lw	a5,0(s0)
   11274:	fff48493          	addi	s1,s1,-1
   11278:	ffc40413          	addi	s0,s0,-4
   1127c:	000780e7          	jalr	a5
   11280:	fe0498e3          	bnez	s1,11270 <__libc_fini_array+0x34>
   11284:	00c12083          	lw	ra,12(sp)
   11288:	00812403          	lw	s0,8(sp)
   1128c:	00412483          	lw	s1,4(sp)
   11290:	01010113          	addi	sp,sp,16
   11294:	00008067          	ret

00011298 <atexit>:
   11298:	00050593          	mv	a1,a0
   1129c:	00000693          	li	a3,0
   112a0:	00000613          	li	a2,0
   112a4:	00000513          	li	a0,0
   112a8:	0040006f          	j	112ac <__register_exitproc>

000112ac <__register_exitproc>:
   112ac:	7d81a703          	lw	a4,2008(gp) # 145a0 <_global_impure_ptr>
   112b0:	14872783          	lw	a5,328(a4)
   112b4:	04078c63          	beqz	a5,1130c <__register_exitproc+0x60>
   112b8:	0047a703          	lw	a4,4(a5)
   112bc:	01f00813          	li	a6,31
   112c0:	06e84e63          	blt	a6,a4,1133c <__register_exitproc+0x90>
   112c4:	00271813          	slli	a6,a4,0x2
   112c8:	02050663          	beqz	a0,112f4 <__register_exitproc+0x48>
   112cc:	01078333          	add	t1,a5,a6
   112d0:	08c32423          	sw	a2,136(t1)
   112d4:	1887a883          	lw	a7,392(a5)
   112d8:	00100613          	li	a2,1
   112dc:	00e61633          	sll	a2,a2,a4
   112e0:	00c8e8b3          	or	a7,a7,a2
   112e4:	1917a423          	sw	a7,392(a5)
   112e8:	10d32423          	sw	a3,264(t1)
   112ec:	00200693          	li	a3,2
   112f0:	02d50463          	beq	a0,a3,11318 <__register_exitproc+0x6c>
   112f4:	00170713          	addi	a4,a4,1
   112f8:	00e7a223          	sw	a4,4(a5)
   112fc:	010787b3          	add	a5,a5,a6
   11300:	00b7a423          	sw	a1,8(a5)
   11304:	00000513          	li	a0,0
   11308:	00008067          	ret
   1130c:	14c70793          	addi	a5,a4,332
   11310:	14f72423          	sw	a5,328(a4)
   11314:	fa5ff06f          	j	112b8 <__register_exitproc+0xc>
   11318:	18c7a683          	lw	a3,396(a5)
   1131c:	00170713          	addi	a4,a4,1
   11320:	00e7a223          	sw	a4,4(a5)
   11324:	00c6e633          	or	a2,a3,a2
   11328:	18c7a623          	sw	a2,396(a5)
   1132c:	010787b3          	add	a5,a5,a6
   11330:	00b7a423          	sw	a1,8(a5)
   11334:	00000513          	li	a0,0
   11338:	00008067          	ret
   1133c:	fff00513          	li	a0,-1
   11340:	00008067          	ret

00011344 <_exit>:
   11344:	05d00893          	li	a7,93
   11348:	00000073          	ecall
   1134c:	00054463          	bltz	a0,11354 <_exit+0x10>
   11350:	0000006f          	j	11350 <_exit+0xc>
   11354:	ff010113          	addi	sp,sp,-16
   11358:	00812423          	sw	s0,8(sp)
   1135c:	00050413          	mv	s0,a0
   11360:	00112623          	sw	ra,12(sp)
   11364:	40800433          	neg	s0,s0
   11368:	addff0ef          	jal	ra,10e44 <__errno>
   1136c:	00852023          	sw	s0,0(a0)
   11370:	0000006f          	j	11370 <_exit+0x2c>

Disassembly of section .rodata:

00011374 <.rodata>:
   11374:	3130                	fld	fa2,96(a0)
   11376:	3332                	fld	ft6,296(sp)
   11378:	3534                	fld	fa3,104(a0)
   1137a:	3736                	fld	fa4,360(sp)
   1137c:	3938                	fld	fa4,112(a0)
   1137e:	4241                	li	tp,16
   11380:	46454443          	fmadd.q	fs0,fa0,ft4,fs0,rmm
   11384:	0000                	unimp
   11386:	0000                	unimp
   11388:	2020                	fld	fs0,64(s0)
   1138a:	2020                	fld	fs0,64(s0)
   1138c:	2020                	fld	fs0,64(s0)
   1138e:	2020                	fld	fs0,64(s0)
   11390:	2020                	fld	fs0,64(s0)
   11392:	2020                	fld	fs0,64(s0)
   11394:	2020                	fld	fs0,64(s0)
   11396:	2020                	fld	fs0,64(s0)
   11398:	2020                	fld	fs0,64(s0)
   1139a:	0020                	addi	s0,sp,8
   1139c:	3130                	fld	fa2,96(a0)
   1139e:	3332                	fld	ft6,296(sp)
   113a0:	3534                	fld	fa3,104(a0)
   113a2:	3736                	fld	fa4,360(sp)
   113a4:	3938                	fld	fa4,112(a0)
	...
   113b2:	00ff                	0xff
   113b4:	0000                	unimp
   113b6:	0000                	unimp
   113b8:	ff00                	fsw	fs0,56(a4)
   113ba:	ff00                	fsw	fs0,56(a4)
   113bc:	0000                	unimp
   113be:	0000                	unimp
   113c0:	0000                	unimp
   113c2:	00ff                	0xff
   113c4:	00ff                	0xff
   113c6:	0000                	unimp
   113c8:	ff00                	fsw	fs0,56(a4)
   113ca:	ffff                	0xffff
   113cc:	0000                	unimp
   113ce:	0000                	unimp
   113d0:	ff00                	fsw	fs0,56(a4)
   113d2:	ffff                	0xffff
   113d4:	00ff                	0xff
   113d6:	0000                	unimp
   113d8:	0000                	unimp
   113da:	00ff                	0xff
   113dc:	0000                	unimp
   113de:	0000                	unimp
   113e0:	0000                	unimp
   113e2:	00ff                	0xff
   113e4:	0000                	unimp
   113e6:	0000                	unimp
   113e8:	0000                	unimp
   113ea:	ff00                	fsw	fs0,56(a4)
   113ec:	0000                	unimp
   113ee:	0000                	unimp
   113f0:	ff00                	fsw	fs0,56(a4)
	...
   113fa:	00ff                	0xff
	...
   11424:	00ff                	0xff
   11426:	0000                	unimp
   11428:	ff00                	fsw	fs0,56(a4)
   1142a:	ffff                	0xffff
   1142c:	0000                	unimp
   1142e:	0000                	unimp
   11430:	0000                	unimp
   11432:	00ff                	0xff
   11434:	0000                	unimp
   11436:	0000                	unimp
   11438:	ff00                	fsw	fs0,56(a4)
   1143a:	ffff                	0xffff
   1143c:	0000                	unimp
   1143e:	0000                	unimp
   11440:	ffff                	0xffff
   11442:	ffff                	0xffff
   11444:	00ff                	0xff
   11446:	0000                	unimp
   11448:	0000                	unimp
   1144a:	ff00                	fsw	fs0,56(a4)
   1144c:	0000                	unimp
   1144e:	0000                	unimp
   11450:	ffff                	0xffff
   11452:	ffff                	0xffff
   11454:	00ff                	0xff
   11456:	0000                	unimp
   11458:	0000                	unimp
   1145a:	ffff                	0xffff
   1145c:	0000                	unimp
   1145e:	0000                	unimp
   11460:	ffff                	0xffff
   11462:	ffff                	0xffff
   11464:	00ff                	0xff
   11466:	0000                	unimp
   11468:	ff00                	fsw	fs0,56(a4)
   1146a:	ffff                	0xffff
   1146c:	0000                	unimp
   1146e:	0000                	unimp
   11470:	ff00                	fsw	fs0,56(a4)
   11472:	ffff                	0xffff
	...
   114a0:	0000                	unimp
   114a2:	ffff                	0xffff
	...
   114b0:	0000                	unimp
   114b2:	00ff                	0xff
   114b4:	0000                	unimp
   114b6:	0000                	unimp
   114b8:	ff00                	fsw	fs0,56(a4)
   114ba:	ff00                	fsw	fs0,56(a4)
   114bc:	0000                	unimp
   114be:	0000                	unimp
   114c0:	ffff                	0xffff
   114c2:	ffff                	0xffff
   114c4:	00ff                	0xff
   114c6:	0000                	unimp
   114c8:	00ff                	0xff
   114ca:	00ff                	0xff
   114cc:	00ff                	0xff
   114ce:	0000                	unimp
   114d0:	00ff                	0xff
   114d2:	00ff                	0xff
   114d4:	00ff                	0xff
   114d6:	0000                	unimp
   114d8:	ff00                	fsw	fs0,56(a4)
   114da:	ff00                	fsw	fs0,56(a4)
   114dc:	0000                	unimp
   114de:	0000                	unimp
   114e0:	0000                	unimp
   114e2:	00ff                	0xff
   114e4:	0000                	unimp
   114e6:	0000                	unimp
   114e8:	0000                	unimp
   114ea:	00ff                	0xff
   114ec:	0000                	unimp
   114ee:	0000                	unimp
   114f0:	0000                	unimp
   114f2:	00ff                	0xff
   114f4:	0000                	unimp
   114f6:	0000                	unimp
   114f8:	00ff                	0xff
   114fa:	00ff                	0xff
   114fc:	00ff                	0xff
   114fe:	0000                	unimp
   11500:	0000                	unimp
   11502:	00ff                	0xff
	...
   11524:	00ff                	0xff
   11526:	0000                	unimp
   11528:	00ff                	0xff
   1152a:	0000                	unimp
   1152c:	00ff                	0xff
   1152e:	0000                	unimp
   11530:	ff00                	fsw	fs0,56(a4)
   11532:	00ff                	0xff
   11534:	0000                	unimp
   11536:	0000                	unimp
   11538:	00ff                	0xff
   1153a:	0000                	unimp
   1153c:	00ff                	0xff
   1153e:	0000                	unimp
   11540:	0000                	unimp
   11542:	ff00                	fsw	fs0,56(a4)
   11544:	0000                	unimp
   11546:	0000                	unimp
   11548:	0000                	unimp
   1154a:	ffff                	0xffff
   1154c:	0000                	unimp
   1154e:	0000                	unimp
   11550:	00ff                	0xff
   11552:	0000                	unimp
   11554:	0000                	unimp
   11556:	0000                	unimp
   11558:	ff00                	fsw	fs0,56(a4)
	...
   11562:	0000                	unimp
   11564:	00ff                	0xff
   11566:	0000                	unimp
   11568:	00ff                	0xff
   1156a:	0000                	unimp
   1156c:	00ff                	0xff
   1156e:	0000                	unimp
   11570:	00ff                	0xff
   11572:	0000                	unimp
   11574:	00ff                	0xff
	...
   1158a:	ff00                	fsw	fs0,56(a4)
	...
   11598:	ff00                	fsw	fs0,56(a4)
   1159a:	0000                	unimp
   1159c:	0000                	unimp
   1159e:	0000                	unimp
   115a0:	ff00                	fsw	fs0,56(a4)
   115a2:	0000                	unimp
   115a4:	00ff                	0xff
	...
   115b2:	00ff                	0xff
	...
   115c0:	ff00                	fsw	fs0,56(a4)
   115c2:	ff00                	fsw	fs0,56(a4)
   115c4:	0000                	unimp
   115c6:	0000                	unimp
   115c8:	00ff                	0xff
   115ca:	00ff                	0xff
   115cc:	0000                	unimp
   115ce:	0000                	unimp
   115d0:	00ff                	0xff
   115d2:	ffff                	0xffff
   115d4:	0000                	unimp
   115d6:	0000                	unimp
   115d8:	0000                	unimp
   115da:	00ff                	0xff
	...
   115e8:	ff00                	fsw	fs0,56(a4)
	...
   115f2:	ff00                	fsw	fs0,56(a4)
   115f4:	0000                	unimp
   115f6:	0000                	unimp
   115f8:	ff00                	fsw	fs0,56(a4)
   115fa:	ffff                	0xffff
   115fc:	0000                	unimp
   115fe:	0000                	unimp
   11600:	0000                	unimp
   11602:	00ff                	0xff
	...
   11620:	0000                	unimp
   11622:	ff00                	fsw	fs0,56(a4)
   11624:	0000                	unimp
   11626:	0000                	unimp
   11628:	00ff                	0xff
   1162a:	ff00                	fsw	fs0,56(a4)
   1162c:	00ff                	0xff
   1162e:	0000                	unimp
   11630:	0000                	unimp
   11632:	00ff                	0xff
	...
   1163c:	00ff                	0xff
   1163e:	0000                	unimp
   11640:	0000                	unimp
   11642:	00ff                	0xff
   11644:	0000                	unimp
   11646:	0000                	unimp
   11648:	ff00                	fsw	fs0,56(a4)
   1164a:	ff00                	fsw	fs0,56(a4)
   1164c:	0000                	unimp
   1164e:	0000                	unimp
   11650:	ffff                	0xffff
   11652:	ffff                	0xffff
   11654:	0000                	unimp
   11656:	0000                	unimp
   11658:	00ff                	0xff
	...
   11662:	ff00                	fsw	fs0,56(a4)
   11664:	0000                	unimp
   11666:	0000                	unimp
   11668:	00ff                	0xff
   1166a:	0000                	unimp
   1166c:	00ff                	0xff
   1166e:	0000                	unimp
   11670:	00ff                	0xff
   11672:	0000                	unimp
   11674:	00ff                	0xff
   11676:	0000                	unimp
   11678:	0000                	unimp
   1167a:	00ff                	0xff
   1167c:	0000                	unimp
   1167e:	0000                	unimp
   11680:	0000                	unimp
   11682:	00ff                	0xff
   11684:	0000                	unimp
   11686:	0000                	unimp
   11688:	0000                	unimp
   1168a:	00ff                	0xff
   1168c:	0000                	unimp
   1168e:	0000                	unimp
   11690:	ffff                	0xffff
   11692:	ffff                	0xffff
   11694:	00ff                	0xff
   11696:	0000                	unimp
   11698:	0000                	unimp
   1169a:	00ff                	0xff
	...
   116a4:	00ff                	0xff
	...
   116b2:	00ff                	0xff
	...
   116c0:	ffff                	0xffff
   116c2:	ffff                	0xffff
   116c4:	00ff                	0xff
   116c6:	0000                	unimp
   116c8:	ff00                	fsw	fs0,56(a4)
   116ca:	ffff                	0xffff
   116cc:	0000                	unimp
   116ce:	0000                	unimp
   116d0:	ff00                	fsw	fs0,56(a4)
   116d2:	ffff                	0xffff
   116d4:	00ff                	0xff
   116d6:	0000                	unimp
   116d8:	ff00                	fsw	fs0,56(a4)
   116da:	ff00                	fsw	fs0,56(a4)
   116dc:	ff00                	fsw	fs0,56(a4)
	...
   116e6:	0000                	unimp
   116e8:	ff00                	fsw	fs0,56(a4)
	...
   116f2:	ff00                	fsw	fs0,56(a4)
   116f4:	0000                	unimp
   116f6:	0000                	unimp
   116f8:	ff00                	fsw	fs0,56(a4)
   116fa:	ff00                	fsw	fs0,56(a4)
   116fc:	0000                	unimp
   116fe:	0000                	unimp
   11700:	ffff                	0xffff
   11702:	ffff                	0xffff
   11704:	00ff                	0xff
	...
   1170e:	0000                	unimp
   11710:	ff00                	fsw	fs0,56(a4)
   11712:	ffff                	0xffff
   11714:	00ff                	0xff
	...
   11722:	ff00                	fsw	fs0,56(a4)
   11724:	0000                	unimp
   11726:	0000                	unimp
   11728:	00ff                	0xff
   1172a:	00ff                	0xff
   1172c:	00ff                	0xff
   1172e:	0000                	unimp
   11730:	0000                	unimp
   11732:	00ff                	0xff
   11734:	0000                	unimp
   11736:	0000                	unimp
   11738:	0000                	unimp
   1173a:	ff00                	fsw	fs0,56(a4)
   1173c:	0000                	unimp
   1173e:	0000                	unimp
   11740:	ff00                	fsw	fs0,56(a4)
   11742:	ffff                	0xffff
   11744:	0000                	unimp
   11746:	0000                	unimp
   11748:	00ff                	0xff
   1174a:	ff00                	fsw	fs0,56(a4)
	...
   11754:	00ff                	0xff
   11756:	0000                	unimp
   11758:	ffff                	0xffff
   1175a:	ffff                	0xffff
   1175c:	0000                	unimp
   1175e:	0000                	unimp
   11760:	0000                	unimp
   11762:	ff00                	fsw	fs0,56(a4)
   11764:	0000                	unimp
   11766:	0000                	unimp
   11768:	ff00                	fsw	fs0,56(a4)
   1176a:	ffff                	0xffff
   1176c:	0000                	unimp
   1176e:	0000                	unimp
   11770:	ff00                	fsw	fs0,56(a4)
   11772:	ffff                	0xffff
   11774:	00ff                	0xff
	...
   11786:	0000                	unimp
   11788:	ff00                	fsw	fs0,56(a4)
	...
   1179a:	ff00                	fsw	fs0,56(a4)
   1179c:	0000                	unimp
   1179e:	0000                	unimp
   117a0:	0000                	unimp
   117a2:	ff00                	fsw	fs0,56(a4)
	...
   117b0:	0000                	unimp
   117b2:	00ff                	0xff
	...
   117c0:	00ff                	0xff
   117c2:	00ff                	0xff
   117c4:	0000                	unimp
   117c6:	0000                	unimp
   117c8:	0000                	unimp
   117ca:	00ff                	0xff
   117cc:	00ff                	0xff
   117ce:	0000                	unimp
   117d0:	0000                	unimp
   117d2:	ffff                	0xffff
   117d4:	ff00                	fsw	fs0,56(a4)
   117d6:	0000                	unimp
   117d8:	00ff                	0xff
   117da:	0000                	unimp
   117dc:	00ff                	0xff
	...
   117e6:	0000                	unimp
   117e8:	ff00                	fsw	fs0,56(a4)
	...
   117f2:	ff00                	fsw	fs0,56(a4)
   117f4:	0000                	unimp
   117f6:	0000                	unimp
   117f8:	00ff                	0xff
   117fa:	0000                	unimp
   117fc:	00ff                	0xff
   117fe:	0000                	unimp
   11800:	0000                	unimp
   11802:	00ff                	0xff
	...
   11820:	0000                	unimp
   11822:	00ff                	0xff
   11824:	0000                	unimp
   11826:	0000                	unimp
   11828:	ffff                	0xffff
   1182a:	0000                	unimp
   1182c:	00ff                	0xff
   1182e:	0000                	unimp
   11830:	0000                	unimp
   11832:	00ff                	0xff
   11834:	0000                	unimp
   11836:	0000                	unimp
   11838:	0000                	unimp
   1183a:	00ff                	0xff
	...
   11844:	00ff                	0xff
   11846:	0000                	unimp
   11848:	ffff                	0xffff
   1184a:	ffff                	0xffff
   1184c:	00ff                	0xff
   1184e:	0000                	unimp
   11850:	0000                	unimp
   11852:	0000                	unimp
   11854:	00ff                	0xff
   11856:	0000                	unimp
   11858:	00ff                	0xff
   1185a:	0000                	unimp
   1185c:	00ff                	0xff
   1185e:	0000                	unimp
   11860:	0000                	unimp
   11862:	00ff                	0xff
   11864:	0000                	unimp
   11866:	0000                	unimp
   11868:	00ff                	0xff
   1186a:	0000                	unimp
   1186c:	00ff                	0xff
   1186e:	0000                	unimp
   11870:	0000                	unimp
   11872:	0000                	unimp
   11874:	00ff                	0xff
	...
   1188a:	00ff                	0xff
   1188c:	0000                	unimp
   1188e:	0000                	unimp
   11890:	ffff                	0xffff
   11892:	ffff                	0xffff
   11894:	00ff                	0xff
   11896:	0000                	unimp
   11898:	0000                	unimp
   1189a:	00ff                	0xff
   1189c:	0000                	unimp
   1189e:	0000                	unimp
   118a0:	0000                	unimp
   118a2:	00ff                	0xff
	...
   118c8:	00ff                	0xff
   118ca:	00ff                	0xff
   118cc:	00ff                	0xff
   118ce:	0000                	unimp
   118d0:	ff00                	fsw	fs0,56(a4)
   118d2:	ff00                	fsw	fs0,56(a4)
   118d4:	ff00                	fsw	fs0,56(a4)
   118d6:	0000                	unimp
   118d8:	00ff                	0xff
   118da:	0000                	unimp
   118dc:	00ff                	0xff
	...
   118e6:	0000                	unimp
   118e8:	ff00                	fsw	fs0,56(a4)
	...
   118f2:	ff00                	fsw	fs0,56(a4)
	...
   11900:	0000                	unimp
   11902:	00ff                	0xff
   11904:	0000                	unimp
   11906:	0000                	unimp
   11908:	0000                	unimp
   1190a:	00ff                	0xff
	...
   11920:	0000                	unimp
   11922:	00ff                	0xff
   11924:	0000                	unimp
   11926:	0000                	unimp
   11928:	00ff                	0xff
   1192a:	0000                	unimp
   1192c:	00ff                	0xff
   1192e:	0000                	unimp
   11930:	0000                	unimp
   11932:	00ff                	0xff
   11934:	0000                	unimp
   11936:	0000                	unimp
   11938:	ff00                	fsw	fs0,56(a4)
   1193a:	0000                	unimp
   1193c:	0000                	unimp
   1193e:	0000                	unimp
   11940:	00ff                	0xff
   11942:	0000                	unimp
   11944:	00ff                	0xff
   11946:	0000                	unimp
   11948:	0000                	unimp
   1194a:	ff00                	fsw	fs0,56(a4)
   1194c:	0000                	unimp
   1194e:	0000                	unimp
   11950:	00ff                	0xff
   11952:	0000                	unimp
   11954:	00ff                	0xff
   11956:	0000                	unimp
   11958:	00ff                	0xff
   1195a:	0000                	unimp
   1195c:	00ff                	0xff
   1195e:	0000                	unimp
   11960:	0000                	unimp
   11962:	00ff                	0xff
   11964:	0000                	unimp
   11966:	0000                	unimp
   11968:	00ff                	0xff
   1196a:	0000                	unimp
   1196c:	00ff                	0xff
   1196e:	0000                	unimp
   11970:	0000                	unimp
   11972:	ff00                	fsw	fs0,56(a4)
	...
   11980:	0000                	unimp
   11982:	00ff                	0xff
   11984:	0000                	unimp
   11986:	0000                	unimp
   11988:	0000                	unimp
   1198a:	ff00                	fsw	fs0,56(a4)
	...
   11998:	ff00                	fsw	fs0,56(a4)
	...
   119b2:	00ff                	0xff
	...
   119c8:	ff00                	fsw	fs0,56(a4)
   119ca:	ffff                	0xffff
   119cc:	0000                	unimp
   119ce:	0000                	unimp
   119d0:	ff00                	fsw	fs0,56(a4)
   119d2:	0000                	unimp
   119d4:	00ff                	0xff
   119d6:	0000                	unimp
   119d8:	ff00                	fsw	fs0,56(a4)
   119da:	ffff                	0xffff
   119dc:	ff00                	fsw	fs0,56(a4)
	...
   119ea:	00ff                	0xff
   119ec:	0000                	unimp
   119ee:	0000                	unimp
   119f0:	0000                	unimp
   119f2:	00ff                	0xff
	...
   11a08:	0000                	unimp
   11a0a:	00ff                	0xff
	...
   11a18:	0000                	unimp
   11a1a:	00ff                	0xff
   11a1c:	0000                	unimp
   11a1e:	0000                	unimp
   11a20:	ff00                	fsw	fs0,56(a4)
   11a22:	0000                	unimp
   11a24:	0000                	unimp
   11a26:	0000                	unimp
   11a28:	ff00                	fsw	fs0,56(a4)
   11a2a:	ffff                	0xffff
   11a2c:	0000                	unimp
   11a2e:	0000                	unimp
   11a30:	0000                	unimp
   11a32:	00ff                	0xff
   11a34:	0000                	unimp
   11a36:	0000                	unimp
   11a38:	ffff                	0xffff
   11a3a:	ffff                	0xffff
   11a3c:	00ff                	0xff
   11a3e:	0000                	unimp
   11a40:	ff00                	fsw	fs0,56(a4)
   11a42:	ffff                	0xffff
   11a44:	0000                	unimp
   11a46:	0000                	unimp
   11a48:	0000                	unimp
   11a4a:	ff00                	fsw	fs0,56(a4)
   11a4c:	0000                	unimp
   11a4e:	0000                	unimp
   11a50:	ff00                	fsw	fs0,56(a4)
   11a52:	ffff                	0xffff
   11a54:	0000                	unimp
   11a56:	0000                	unimp
   11a58:	ff00                	fsw	fs0,56(a4)
   11a5a:	ffff                	0xffff
   11a5c:	0000                	unimp
   11a5e:	0000                	unimp
   11a60:	0000                	unimp
   11a62:	00ff                	0xff
   11a64:	0000                	unimp
   11a66:	0000                	unimp
   11a68:	ff00                	fsw	fs0,56(a4)
   11a6a:	ffff                	0xffff
   11a6c:	0000                	unimp
   11a6e:	0000                	unimp
   11a70:	ff00                	fsw	fs0,56(a4)
   11a72:	00ff                	0xff
   11a74:	0000                	unimp
   11a76:	0000                	unimp
   11a78:	0000                	unimp
   11a7a:	00ff                	0xff
   11a7c:	0000                	unimp
   11a7e:	0000                	unimp
   11a80:	0000                	unimp
   11a82:	00ff                	0xff
	...
   11aa0:	0000                	unimp
   11aa2:	00ff                	0xff
	...
   11ac8:	0000                	unimp
   11aca:	00ff                	0xff
	...
   11ae8:	0000                	unimp
   11aea:	ff00                	fsw	fs0,56(a4)
   11aec:	0000                	unimp
   11aee:	0000                	unimp
   11af0:	ff00                	fsw	fs0,56(a4)
	...
   11b06:	0000                	unimp
   11b08:	ff00                	fsw	fs0,56(a4)
	...
   11b1e:	0000                	unimp
   11b20:	ff00                	fsw	fs0,56(a4)
	...
   11b7e:	0000                	unimp
   11b80:	ff00                	fsw	fs0,56(a4)
	...
   11baa:	ffff                	0xffff
   11bac:	0000                	unimp
   11bae:	0000                	unimp
   11bb0:	0000                	unimp
   11bb2:	00ff                	0xff
   11bb4:	0000                	unimp
   11bb6:	0000                	unimp
   11bb8:	ffff                	0xffff
   11bba:	ffff                	0xffff
   11bbc:	0000                	unimp
   11bbe:	0000                	unimp
   11bc0:	ff00                	fsw	fs0,56(a4)
   11bc2:	ffff                	0xffff
   11bc4:	0000                	unimp
   11bc6:	0000                	unimp
   11bc8:	ffff                	0xffff
   11bca:	00ff                	0xff
   11bcc:	0000                	unimp
   11bce:	0000                	unimp
   11bd0:	ff00                	fsw	fs0,56(a4)
   11bd2:	ffff                	0xffff
   11bd4:	00ff                	0xff
   11bd6:	0000                	unimp
   11bd8:	ff00                	fsw	fs0,56(a4)
   11bda:	ffff                	0xffff
   11bdc:	00ff                	0xff
   11bde:	0000                	unimp
   11be0:	ff00                	fsw	fs0,56(a4)
   11be2:	ffff                	0xffff
   11be4:	0000                	unimp
   11be6:	0000                	unimp
   11be8:	00ff                	0xff
   11bea:	0000                	unimp
   11bec:	00ff                	0xff
   11bee:	0000                	unimp
   11bf0:	0000                	unimp
   11bf2:	00ff                	0xff
	...
   11bfc:	00ff                	0xff
   11bfe:	0000                	unimp
   11c00:	00ff                	0xff
   11c02:	0000                	unimp
   11c04:	00ff                	0xff
   11c06:	0000                	unimp
   11c08:	ff00                	fsw	fs0,56(a4)
   11c0a:	0000                	unimp
   11c0c:	0000                	unimp
   11c0e:	0000                	unimp
   11c10:	00ff                	0xff
   11c12:	0000                	unimp
   11c14:	00ff                	0xff
   11c16:	0000                	unimp
   11c18:	ffff                	0xffff
   11c1a:	0000                	unimp
   11c1c:	00ff                	0xff
   11c1e:	0000                	unimp
   11c20:	ff00                	fsw	fs0,56(a4)
   11c22:	ffff                	0xffff
   11c24:	0000                	unimp
   11c26:	0000                	unimp
   11c28:	ffff                	0xffff
   11c2a:	ffff                	0xffff
   11c2c:	0000                	unimp
   11c2e:	0000                	unimp
   11c30:	ff00                	fsw	fs0,56(a4)
   11c32:	ffff                	0xffff
   11c34:	0000                	unimp
   11c36:	0000                	unimp
   11c38:	ffff                	0xffff
   11c3a:	ffff                	0xffff
   11c3c:	0000                	unimp
   11c3e:	0000                	unimp
   11c40:	ff00                	fsw	fs0,56(a4)
   11c42:	ffff                	0xffff
   11c44:	0000                	unimp
   11c46:	0000                	unimp
   11c48:	ffff                	0xffff
   11c4a:	ffff                	0xffff
   11c4c:	00ff                	0xff
   11c4e:	0000                	unimp
   11c50:	00ff                	0xff
   11c52:	0000                	unimp
   11c54:	00ff                	0xff
   11c56:	0000                	unimp
   11c58:	00ff                	0xff
   11c5a:	0000                	unimp
   11c5c:	00ff                	0xff
   11c5e:	0000                	unimp
   11c60:	00ff                	0xff
   11c62:	0000                	unimp
   11c64:	00ff                	0xff
   11c66:	0000                	unimp
   11c68:	00ff                	0xff
   11c6a:	0000                	unimp
   11c6c:	00ff                	0xff
   11c6e:	0000                	unimp
   11c70:	00ff                	0xff
   11c72:	0000                	unimp
   11c74:	00ff                	0xff
   11c76:	0000                	unimp
   11c78:	ff00                	fsw	fs0,56(a4)
   11c7a:	ffff                	0xffff
   11c7c:	00ff                	0xff
   11c7e:	0000                	unimp
   11c80:	0000                	unimp
   11c82:	ffff                	0xffff
   11c84:	0000                	unimp
   11c86:	0000                	unimp
   11c88:	ff00                	fsw	fs0,56(a4)
   11c8a:	0000                	unimp
   11c8c:	0000                	unimp
   11c8e:	0000                	unimp
   11c90:	ff00                	fsw	fs0,56(a4)
   11c92:	00ff                	0xff
   11c94:	0000                	unimp
   11c96:	0000                	unimp
   11c98:	0000                	unimp
   11c9a:	00ff                	0xff
	...
   11ca8:	ff00                	fsw	fs0,56(a4)
   11caa:	0000                	unimp
   11cac:	00ff                	0xff
   11cae:	0000                	unimp
   11cb0:	0000                	unimp
   11cb2:	00ff                	0xff
   11cb4:	0000                	unimp
   11cb6:	0000                	unimp
   11cb8:	00ff                	0xff
   11cba:	0000                	unimp
   11cbc:	00ff                	0xff
   11cbe:	0000                	unimp
   11cc0:	00ff                	0xff
   11cc2:	0000                	unimp
   11cc4:	00ff                	0xff
   11cc6:	0000                	unimp
   11cc8:	00ff                	0xff
   11cca:	ff00                	fsw	fs0,56(a4)
   11ccc:	0000                	unimp
   11cce:	0000                	unimp
   11cd0:	ff00                	fsw	fs0,56(a4)
   11cd2:	0000                	unimp
   11cd4:	0000                	unimp
   11cd6:	0000                	unimp
   11cd8:	ff00                	fsw	fs0,56(a4)
   11cda:	0000                	unimp
   11cdc:	0000                	unimp
   11cde:	0000                	unimp
   11ce0:	00ff                	0xff
   11ce2:	0000                	unimp
   11ce4:	00ff                	0xff
   11ce6:	0000                	unimp
   11ce8:	00ff                	0xff
   11cea:	0000                	unimp
   11cec:	00ff                	0xff
   11cee:	0000                	unimp
   11cf0:	0000                	unimp
   11cf2:	00ff                	0xff
	...
   11cfc:	00ff                	0xff
   11cfe:	0000                	unimp
   11d00:	00ff                	0xff
   11d02:	ff00                	fsw	fs0,56(a4)
   11d04:	0000                	unimp
   11d06:	0000                	unimp
   11d08:	ff00                	fsw	fs0,56(a4)
   11d0a:	0000                	unimp
   11d0c:	0000                	unimp
   11d0e:	0000                	unimp
   11d10:	ffff                	0xffff
   11d12:	ff00                	fsw	fs0,56(a4)
   11d14:	00ff                	0xff
   11d16:	0000                	unimp
   11d18:	ffff                	0xffff
   11d1a:	0000                	unimp
   11d1c:	00ff                	0xff
   11d1e:	0000                	unimp
   11d20:	00ff                	0xff
   11d22:	0000                	unimp
   11d24:	00ff                	0xff
   11d26:	0000                	unimp
   11d28:	00ff                	0xff
   11d2a:	0000                	unimp
   11d2c:	00ff                	0xff
   11d2e:	0000                	unimp
   11d30:	00ff                	0xff
   11d32:	0000                	unimp
   11d34:	00ff                	0xff
   11d36:	0000                	unimp
   11d38:	00ff                	0xff
   11d3a:	0000                	unimp
   11d3c:	00ff                	0xff
   11d3e:	0000                	unimp
   11d40:	00ff                	0xff
   11d42:	0000                	unimp
   11d44:	00ff                	0xff
   11d46:	0000                	unimp
   11d48:	0000                	unimp
   11d4a:	00ff                	0xff
   11d4c:	0000                	unimp
   11d4e:	0000                	unimp
   11d50:	00ff                	0xff
   11d52:	0000                	unimp
   11d54:	00ff                	0xff
   11d56:	0000                	unimp
   11d58:	00ff                	0xff
   11d5a:	0000                	unimp
   11d5c:	00ff                	0xff
   11d5e:	0000                	unimp
   11d60:	00ff                	0xff
   11d62:	0000                	unimp
   11d64:	00ff                	0xff
   11d66:	0000                	unimp
   11d68:	00ff                	0xff
   11d6a:	0000                	unimp
   11d6c:	00ff                	0xff
   11d6e:	0000                	unimp
   11d70:	00ff                	0xff
   11d72:	0000                	unimp
   11d74:	00ff                	0xff
   11d76:	0000                	unimp
   11d78:	0000                	unimp
   11d7a:	0000                	unimp
   11d7c:	00ff                	0xff
   11d7e:	0000                	unimp
   11d80:	0000                	unimp
   11d82:	00ff                	0xff
   11d84:	0000                	unimp
   11d86:	0000                	unimp
   11d88:	ff00                	fsw	fs0,56(a4)
	...
   11d92:	00ff                	0xff
   11d94:	0000                	unimp
   11d96:	0000                	unimp
   11d98:	ff00                	fsw	fs0,56(a4)
   11d9a:	ff00                	fsw	fs0,56(a4)
	...
   11da8:	00ff                	0xff
   11daa:	ffff                	0xffff
   11dac:	ff00                	fsw	fs0,56(a4)
   11dae:	0000                	unimp
   11db0:	ff00                	fsw	fs0,56(a4)
   11db2:	ff00                	fsw	fs0,56(a4)
   11db4:	0000                	unimp
   11db6:	0000                	unimp
   11db8:	00ff                	0xff
   11dba:	0000                	unimp
   11dbc:	00ff                	0xff
   11dbe:	0000                	unimp
   11dc0:	00ff                	0xff
   11dc2:	0000                	unimp
   11dc4:	0000                	unimp
   11dc6:	0000                	unimp
   11dc8:	00ff                	0xff
   11dca:	0000                	unimp
   11dcc:	00ff                	0xff
   11dce:	0000                	unimp
   11dd0:	ff00                	fsw	fs0,56(a4)
   11dd2:	0000                	unimp
   11dd4:	0000                	unimp
   11dd6:	0000                	unimp
   11dd8:	ff00                	fsw	fs0,56(a4)
   11dda:	0000                	unimp
   11ddc:	0000                	unimp
   11dde:	0000                	unimp
   11de0:	00ff                	0xff
   11de2:	0000                	unimp
   11de4:	0000                	unimp
   11de6:	0000                	unimp
   11de8:	00ff                	0xff
   11dea:	0000                	unimp
   11dec:	00ff                	0xff
   11dee:	0000                	unimp
   11df0:	0000                	unimp
   11df2:	00ff                	0xff
	...
   11dfc:	00ff                	0xff
   11dfe:	0000                	unimp
   11e00:	00ff                	0xff
   11e02:	00ff                	0xff
   11e04:	0000                	unimp
   11e06:	0000                	unimp
   11e08:	ff00                	fsw	fs0,56(a4)
   11e0a:	0000                	unimp
   11e0c:	0000                	unimp
   11e0e:	0000                	unimp
   11e10:	00ff                	0xff
   11e12:	00ff                	0xff
   11e14:	00ff                	0xff
   11e16:	0000                	unimp
   11e18:	00ff                	0xff
   11e1a:	00ff                	0xff
   11e1c:	00ff                	0xff
   11e1e:	0000                	unimp
   11e20:	00ff                	0xff
   11e22:	0000                	unimp
   11e24:	00ff                	0xff
   11e26:	0000                	unimp
   11e28:	00ff                	0xff
   11e2a:	0000                	unimp
   11e2c:	00ff                	0xff
   11e2e:	0000                	unimp
   11e30:	00ff                	0xff
   11e32:	0000                	unimp
   11e34:	00ff                	0xff
   11e36:	0000                	unimp
   11e38:	00ff                	0xff
   11e3a:	0000                	unimp
   11e3c:	00ff                	0xff
   11e3e:	0000                	unimp
   11e40:	00ff                	0xff
	...
   11e4a:	00ff                	0xff
   11e4c:	0000                	unimp
   11e4e:	0000                	unimp
   11e50:	00ff                	0xff
   11e52:	0000                	unimp
   11e54:	00ff                	0xff
   11e56:	0000                	unimp
   11e58:	00ff                	0xff
   11e5a:	0000                	unimp
   11e5c:	00ff                	0xff
   11e5e:	0000                	unimp
   11e60:	00ff                	0xff
   11e62:	00ff                	0xff
   11e64:	00ff                	0xff
   11e66:	0000                	unimp
   11e68:	ff00                	fsw	fs0,56(a4)
   11e6a:	ff00                	fsw	fs0,56(a4)
   11e6c:	0000                	unimp
   11e6e:	0000                	unimp
   11e70:	ff00                	fsw	fs0,56(a4)
   11e72:	ff00                	fsw	fs0,56(a4)
   11e74:	0000                	unimp
   11e76:	0000                	unimp
   11e78:	0000                	unimp
   11e7a:	ff00                	fsw	fs0,56(a4)
   11e7c:	0000                	unimp
   11e7e:	0000                	unimp
   11e80:	0000                	unimp
   11e82:	00ff                	0xff
   11e84:	0000                	unimp
   11e86:	0000                	unimp
   11e88:	0000                	unimp
   11e8a:	00ff                	0xff
   11e8c:	0000                	unimp
   11e8e:	0000                	unimp
   11e90:	0000                	unimp
   11e92:	00ff                	0xff
	...
   11ea8:	ffff                	0xffff
   11eaa:	ff00                	fsw	fs0,56(a4)
   11eac:	ff00                	fsw	fs0,56(a4)
   11eae:	0000                	unimp
   11eb0:	ff00                	fsw	fs0,56(a4)
   11eb2:	ff00                	fsw	fs0,56(a4)
   11eb4:	0000                	unimp
   11eb6:	0000                	unimp
   11eb8:	ffff                	0xffff
   11eba:	ffff                	0xffff
   11ebc:	0000                	unimp
   11ebe:	0000                	unimp
   11ec0:	00ff                	0xff
   11ec2:	0000                	unimp
   11ec4:	0000                	unimp
   11ec6:	0000                	unimp
   11ec8:	00ff                	0xff
   11eca:	0000                	unimp
   11ecc:	00ff                	0xff
   11ece:	0000                	unimp
   11ed0:	ff00                	fsw	fs0,56(a4)
   11ed2:	ffff                	0xffff
   11ed4:	0000                	unimp
   11ed6:	0000                	unimp
   11ed8:	ff00                	fsw	fs0,56(a4)
   11eda:	ffff                	0xffff
   11edc:	0000                	unimp
   11ede:	0000                	unimp
   11ee0:	00ff                	0xff
   11ee2:	ff00                	fsw	fs0,56(a4)
   11ee4:	00ff                	0xff
   11ee6:	0000                	unimp
   11ee8:	ffff                	0xffff
   11eea:	ffff                	0xffff
   11eec:	00ff                	0xff
   11eee:	0000                	unimp
   11ef0:	0000                	unimp
   11ef2:	00ff                	0xff
	...
   11efc:	00ff                	0xff
   11efe:	0000                	unimp
   11f00:	ffff                	0xffff
   11f02:	0000                	unimp
   11f04:	0000                	unimp
   11f06:	0000                	unimp
   11f08:	ff00                	fsw	fs0,56(a4)
   11f0a:	0000                	unimp
   11f0c:	0000                	unimp
   11f0e:	0000                	unimp
   11f10:	00ff                	0xff
   11f12:	0000                	unimp
   11f14:	00ff                	0xff
   11f16:	0000                	unimp
   11f18:	00ff                	0xff
   11f1a:	00ff                	0xff
   11f1c:	00ff                	0xff
   11f1e:	0000                	unimp
   11f20:	00ff                	0xff
   11f22:	0000                	unimp
   11f24:	00ff                	0xff
   11f26:	0000                	unimp
   11f28:	ffff                	0xffff
   11f2a:	ffff                	0xffff
   11f2c:	0000                	unimp
   11f2e:	0000                	unimp
   11f30:	00ff                	0xff
   11f32:	0000                	unimp
   11f34:	00ff                	0xff
   11f36:	0000                	unimp
   11f38:	ffff                	0xffff
   11f3a:	ffff                	0xffff
   11f3c:	0000                	unimp
   11f3e:	0000                	unimp
   11f40:	ff00                	fsw	fs0,56(a4)
   11f42:	ffff                	0xffff
   11f44:	0000                	unimp
   11f46:	0000                	unimp
   11f48:	0000                	unimp
   11f4a:	00ff                	0xff
   11f4c:	0000                	unimp
   11f4e:	0000                	unimp
   11f50:	00ff                	0xff
   11f52:	0000                	unimp
   11f54:	00ff                	0xff
   11f56:	0000                	unimp
   11f58:	ff00                	fsw	fs0,56(a4)
   11f5a:	ff00                	fsw	fs0,56(a4)
   11f5c:	0000                	unimp
   11f5e:	0000                	unimp
   11f60:	00ff                	0xff
   11f62:	00ff                	0xff
   11f64:	00ff                	0xff
   11f66:	0000                	unimp
   11f68:	0000                	unimp
   11f6a:	00ff                	0xff
   11f6c:	0000                	unimp
   11f6e:	0000                	unimp
   11f70:	0000                	unimp
   11f72:	00ff                	0xff
   11f74:	0000                	unimp
   11f76:	0000                	unimp
   11f78:	0000                	unimp
   11f7a:	00ff                	0xff
   11f7c:	0000                	unimp
   11f7e:	0000                	unimp
   11f80:	0000                	unimp
   11f82:	00ff                	0xff
   11f84:	0000                	unimp
   11f86:	0000                	unimp
   11f88:	0000                	unimp
   11f8a:	00ff                	0xff
   11f8c:	0000                	unimp
   11f8e:	0000                	unimp
   11f90:	0000                	unimp
   11f92:	00ff                	0xff
	...
   11fa8:	ffff                	0xffff
   11faa:	ff00                	fsw	fs0,56(a4)
   11fac:	ff00                	fsw	fs0,56(a4)
   11fae:	0000                	unimp
   11fb0:	ffff                	0xffff
   11fb2:	ffff                	0xffff
   11fb4:	00ff                	0xff
   11fb6:	0000                	unimp
   11fb8:	00ff                	0xff
   11fba:	0000                	unimp
   11fbc:	00ff                	0xff
   11fbe:	0000                	unimp
   11fc0:	00ff                	0xff
   11fc2:	0000                	unimp
   11fc4:	0000                	unimp
   11fc6:	0000                	unimp
   11fc8:	00ff                	0xff
   11fca:	0000                	unimp
   11fcc:	00ff                	0xff
   11fce:	0000                	unimp
   11fd0:	ff00                	fsw	fs0,56(a4)
   11fd2:	0000                	unimp
   11fd4:	0000                	unimp
   11fd6:	0000                	unimp
   11fd8:	ff00                	fsw	fs0,56(a4)
   11fda:	0000                	unimp
   11fdc:	0000                	unimp
   11fde:	0000                	unimp
   11fe0:	00ff                	0xff
   11fe2:	0000                	unimp
   11fe4:	00ff                	0xff
   11fe6:	0000                	unimp
   11fe8:	00ff                	0xff
   11fea:	0000                	unimp
   11fec:	00ff                	0xff
   11fee:	0000                	unimp
   11ff0:	0000                	unimp
   11ff2:	00ff                	0xff
   11ff4:	0000                	unimp
   11ff6:	0000                	unimp
   11ff8:	00ff                	0xff
   11ffa:	0000                	unimp
   11ffc:	00ff                	0xff
   11ffe:	0000                	unimp
   12000:	00ff                	0xff
   12002:	00ff                	0xff
   12004:	0000                	unimp
   12006:	0000                	unimp
   12008:	ff00                	fsw	fs0,56(a4)
   1200a:	0000                	unimp
   1200c:	0000                	unimp
   1200e:	0000                	unimp
   12010:	00ff                	0xff
   12012:	0000                	unimp
   12014:	00ff                	0xff
   12016:	0000                	unimp
   12018:	00ff                	0xff
   1201a:	ff00                	fsw	fs0,56(a4)
   1201c:	00ff                	0xff
   1201e:	0000                	unimp
   12020:	00ff                	0xff
   12022:	0000                	unimp
   12024:	00ff                	0xff
   12026:	0000                	unimp
   12028:	00ff                	0xff
   1202a:	0000                	unimp
   1202c:	0000                	unimp
   1202e:	0000                	unimp
   12030:	00ff                	0xff
   12032:	0000                	unimp
   12034:	00ff                	0xff
   12036:	0000                	unimp
   12038:	00ff                	0xff
   1203a:	00ff                	0xff
	...
   12044:	00ff                	0xff
   12046:	0000                	unimp
   12048:	0000                	unimp
   1204a:	00ff                	0xff
   1204c:	0000                	unimp
   1204e:	0000                	unimp
   12050:	00ff                	0xff
   12052:	0000                	unimp
   12054:	00ff                	0xff
   12056:	0000                	unimp
   12058:	ff00                	fsw	fs0,56(a4)
   1205a:	ff00                	fsw	fs0,56(a4)
   1205c:	0000                	unimp
   1205e:	0000                	unimp
   12060:	ff00                	fsw	fs0,56(a4)
   12062:	ff00                	fsw	fs0,56(a4)
   12064:	0000                	unimp
   12066:	0000                	unimp
   12068:	ff00                	fsw	fs0,56(a4)
   1206a:	ff00                	fsw	fs0,56(a4)
   1206c:	0000                	unimp
   1206e:	0000                	unimp
   12070:	0000                	unimp
   12072:	00ff                	0xff
   12074:	0000                	unimp
   12076:	0000                	unimp
   12078:	ff00                	fsw	fs0,56(a4)
	...
   12082:	00ff                	0xff
   12084:	0000                	unimp
   12086:	0000                	unimp
   12088:	0000                	unimp
   1208a:	ff00                	fsw	fs0,56(a4)
   1208c:	0000                	unimp
   1208e:	0000                	unimp
   12090:	0000                	unimp
   12092:	00ff                	0xff
	...
   120a8:	00ff                	0xff
   120aa:	ffff                	0xffff
   120ac:	00ff                	0xff
   120ae:	0000                	unimp
   120b0:	00ff                	0xff
   120b2:	0000                	unimp
   120b4:	00ff                	0xff
   120b6:	0000                	unimp
   120b8:	00ff                	0xff
   120ba:	0000                	unimp
   120bc:	00ff                	0xff
   120be:	0000                	unimp
   120c0:	00ff                	0xff
   120c2:	0000                	unimp
   120c4:	00ff                	0xff
   120c6:	0000                	unimp
   120c8:	00ff                	0xff
   120ca:	ff00                	fsw	fs0,56(a4)
   120cc:	0000                	unimp
   120ce:	0000                	unimp
   120d0:	ff00                	fsw	fs0,56(a4)
   120d2:	0000                	unimp
   120d4:	0000                	unimp
   120d6:	0000                	unimp
   120d8:	ff00                	fsw	fs0,56(a4)
   120da:	0000                	unimp
   120dc:	0000                	unimp
   120de:	0000                	unimp
   120e0:	00ff                	0xff
   120e2:	0000                	unimp
   120e4:	00ff                	0xff
   120e6:	0000                	unimp
   120e8:	00ff                	0xff
   120ea:	0000                	unimp
   120ec:	00ff                	0xff
   120ee:	0000                	unimp
   120f0:	0000                	unimp
   120f2:	00ff                	0xff
   120f4:	0000                	unimp
   120f6:	0000                	unimp
   120f8:	00ff                	0xff
   120fa:	0000                	unimp
   120fc:	00ff                	0xff
   120fe:	0000                	unimp
   12100:	00ff                	0xff
   12102:	ff00                	fsw	fs0,56(a4)
   12104:	0000                	unimp
   12106:	0000                	unimp
   12108:	ff00                	fsw	fs0,56(a4)
   1210a:	0000                	unimp
   1210c:	0000                	unimp
   1210e:	0000                	unimp
   12110:	00ff                	0xff
   12112:	0000                	unimp
   12114:	00ff                	0xff
   12116:	0000                	unimp
   12118:	00ff                	0xff
   1211a:	ff00                	fsw	fs0,56(a4)
   1211c:	00ff                	0xff
   1211e:	0000                	unimp
   12120:	00ff                	0xff
   12122:	0000                	unimp
   12124:	00ff                	0xff
   12126:	0000                	unimp
   12128:	00ff                	0xff
   1212a:	0000                	unimp
   1212c:	0000                	unimp
   1212e:	0000                	unimp
   12130:	00ff                	0xff
   12132:	00ff                	0xff
   12134:	00ff                	0xff
   12136:	0000                	unimp
   12138:	00ff                	0xff
   1213a:	ff00                	fsw	fs0,56(a4)
   1213c:	0000                	unimp
   1213e:	0000                	unimp
   12140:	00ff                	0xff
   12142:	0000                	unimp
   12144:	00ff                	0xff
   12146:	0000                	unimp
   12148:	0000                	unimp
   1214a:	00ff                	0xff
   1214c:	0000                	unimp
   1214e:	0000                	unimp
   12150:	00ff                	0xff
   12152:	0000                	unimp
   12154:	00ff                	0xff
   12156:	0000                	unimp
   12158:	0000                	unimp
   1215a:	00ff                	0xff
   1215c:	0000                	unimp
   1215e:	0000                	unimp
   12160:	ff00                	fsw	fs0,56(a4)
   12162:	ff00                	fsw	fs0,56(a4)
   12164:	0000                	unimp
   12166:	0000                	unimp
   12168:	00ff                	0xff
   1216a:	0000                	unimp
   1216c:	00ff                	0xff
   1216e:	0000                	unimp
   12170:	0000                	unimp
   12172:	00ff                	0xff
   12174:	0000                	unimp
   12176:	0000                	unimp
   12178:	ff00                	fsw	fs0,56(a4)
	...
   12182:	00ff                	0xff
   12184:	0000                	unimp
   12186:	0000                	unimp
   12188:	0000                	unimp
   1218a:	ff00                	fsw	fs0,56(a4)
   1218c:	0000                	unimp
   1218e:	0000                	unimp
   12190:	0000                	unimp
   12192:	00ff                	0xff
	...
   121a8:	ff00                	fsw	fs0,56(a4)
   121aa:	0000                	unimp
   121ac:	0000                	unimp
   121ae:	0000                	unimp
   121b0:	00ff                	0xff
   121b2:	0000                	unimp
   121b4:	00ff                	0xff
   121b6:	0000                	unimp
   121b8:	ffff                	0xffff
   121ba:	ffff                	0xffff
   121bc:	0000                	unimp
   121be:	0000                	unimp
   121c0:	ff00                	fsw	fs0,56(a4)
   121c2:	ffff                	0xffff
   121c4:	0000                	unimp
   121c6:	0000                	unimp
   121c8:	ffff                	0xffff
   121ca:	00ff                	0xff
   121cc:	0000                	unimp
   121ce:	0000                	unimp
   121d0:	ff00                	fsw	fs0,56(a4)
   121d2:	ffff                	0xffff
   121d4:	00ff                	0xff
   121d6:	0000                	unimp
   121d8:	ff00                	fsw	fs0,56(a4)
   121da:	0000                	unimp
   121dc:	0000                	unimp
   121de:	0000                	unimp
   121e0:	ff00                	fsw	fs0,56(a4)
   121e2:	ffff                	0xffff
   121e4:	0000                	unimp
   121e6:	0000                	unimp
   121e8:	00ff                	0xff
   121ea:	0000                	unimp
   121ec:	00ff                	0xff
   121ee:	0000                	unimp
   121f0:	0000                	unimp
   121f2:	00ff                	0xff
   121f4:	0000                	unimp
   121f6:	0000                	unimp
   121f8:	ff00                	fsw	fs0,56(a4)
   121fa:	ffff                	0xffff
   121fc:	0000                	unimp
   121fe:	0000                	unimp
   12200:	00ff                	0xff
   12202:	0000                	unimp
   12204:	00ff                	0xff
   12206:	0000                	unimp
   12208:	ff00                	fsw	fs0,56(a4)
   1220a:	ffff                	0xffff
   1220c:	00ff                	0xff
   1220e:	0000                	unimp
   12210:	00ff                	0xff
   12212:	0000                	unimp
   12214:	00ff                	0xff
   12216:	0000                	unimp
   12218:	00ff                	0xff
   1221a:	0000                	unimp
   1221c:	00ff                	0xff
   1221e:	0000                	unimp
   12220:	ff00                	fsw	fs0,56(a4)
   12222:	ffff                	0xffff
   12224:	0000                	unimp
   12226:	0000                	unimp
   12228:	00ff                	0xff
   1222a:	0000                	unimp
   1222c:	0000                	unimp
   1222e:	0000                	unimp
   12230:	ff00                	fsw	fs0,56(a4)
   12232:	ffff                	0xffff
   12234:	0000                	unimp
   12236:	0000                	unimp
   12238:	00ff                	0xff
   1223a:	0000                	unimp
   1223c:	00ff                	0xff
   1223e:	0000                	unimp
   12240:	ff00                	fsw	fs0,56(a4)
   12242:	ffff                	0xffff
   12244:	0000                	unimp
   12246:	0000                	unimp
   12248:	0000                	unimp
   1224a:	00ff                	0xff
   1224c:	0000                	unimp
   1224e:	0000                	unimp
   12250:	ff00                	fsw	fs0,56(a4)
   12252:	ffff                	0xffff
   12254:	0000                	unimp
   12256:	0000                	unimp
   12258:	0000                	unimp
   1225a:	00ff                	0xff
   1225c:	0000                	unimp
   1225e:	0000                	unimp
   12260:	ff00                	fsw	fs0,56(a4)
   12262:	ff00                	fsw	fs0,56(a4)
   12264:	0000                	unimp
   12266:	0000                	unimp
   12268:	00ff                	0xff
   1226a:	0000                	unimp
   1226c:	00ff                	0xff
   1226e:	0000                	unimp
   12270:	0000                	unimp
   12272:	00ff                	0xff
   12274:	0000                	unimp
   12276:	0000                	unimp
   12278:	ff00                	fsw	fs0,56(a4)
   1227a:	ffff                	0xffff
   1227c:	00ff                	0xff
   1227e:	0000                	unimp
   12280:	0000                	unimp
   12282:	00ff                	0xff
	...
   1228c:	00ff                	0xff
   1228e:	0000                	unimp
   12290:	0000                	unimp
   12292:	00ff                	0xff
	...
   122a8:	0000                	unimp
   122aa:	ffff                	0xffff
	...
   12330:	0000                	unimp
   12332:	ff00                	fsw	fs0,56(a4)
	...
   12380:	0000                	unimp
   12382:	ffff                	0xffff
	...
   1238c:	00ff                	0xff
   1238e:	0000                	unimp
   12390:	ff00                	fsw	fs0,56(a4)
   12392:	00ff                	0xff
	...
   123a0:	ffff                	0xffff
   123a2:	ffff                	0xffff
   123a4:	ffff                	0xffff
   123a6:	0000                	unimp
   123a8:	0000                	unimp
   123aa:	ffff                	0xffff
	...
   123b8:	ff00                	fsw	fs0,56(a4)
	...
   123ca:	0000                	unimp
   123cc:	00ff                	0xff
	...
   123da:	ff00                	fsw	fs0,56(a4)
   123dc:	00ff                	0xff
	...
   123e6:	0000                	unimp
   123e8:	ff00                	fsw	fs0,56(a4)
	...
   123f2:	00ff                	0xff
   123f4:	0000                	unimp
   123f6:	0000                	unimp
   123f8:	0000                	unimp
   123fa:	ff00                	fsw	fs0,56(a4)
   123fc:	0000                	unimp
   123fe:	0000                	unimp
   12400:	ff00                	fsw	fs0,56(a4)
	...
   1240a:	00ff                	0xff
	...
   12448:	0000                	unimp
   1244a:	00ff                	0xff
	...
   12480:	0000                	unimp
   12482:	ff00                	fsw	fs0,56(a4)
   12484:	0000                	unimp
   12486:	0000                	unimp
   12488:	0000                	unimp
   1248a:	00ff                	0xff
   1248c:	0000                	unimp
   1248e:	0000                	unimp
   12490:	ff00                	fsw	fs0,56(a4)
   12492:	0000                	unimp
   12494:	0000                	unimp
   12496:	0000                	unimp
   12498:	ff00                	fsw	fs0,56(a4)
   1249a:	00ff                	0xff
   1249c:	00ff                	0xff
   1249e:	0000                	unimp
   124a0:	0000                	unimp
   124a2:	ffff                	0xffff
   124a4:	0000                	unimp
   124a6:	0000                	unimp
   124a8:	ff00                	fsw	fs0,56(a4)
	...
   124b6:	0000                	unimp
   124b8:	ff00                	fsw	fs0,56(a4)
	...
   124ca:	0000                	unimp
   124cc:	00ff                	0xff
	...
   124da:	00ff                	0xff
	...
   124e8:	ff00                	fsw	fs0,56(a4)
	...
   124fe:	0000                	unimp
   12500:	ff00                	fsw	fs0,56(a4)
	...
   1250a:	00ff                	0xff
	...
   12548:	0000                	unimp
   1254a:	00ff                	0xff
	...
   12580:	0000                	unimp
   12582:	00ff                	0xff
   12584:	0000                	unimp
   12586:	0000                	unimp
   12588:	0000                	unimp
   1258a:	00ff                	0xff
   1258c:	0000                	unimp
   1258e:	0000                	unimp
   12590:	0000                	unimp
   12592:	00ff                	0xff
   12594:	0000                	unimp
   12596:	0000                	unimp
   12598:	00ff                	0xff
   1259a:	ffff                	0xffff
   1259c:	0000                	unimp
   1259e:	0000                	unimp
   125a0:	ff00                	fsw	fs0,56(a4)
   125a2:	0000                	unimp
   125a4:	00ff                	0xff
   125a6:	0000                	unimp
   125a8:	ff00                	fsw	fs0,56(a4)
	...
   125b2:	ffff                	0xffff
   125b4:	0000                	unimp
   125b6:	0000                	unimp
   125b8:	ff00                	fsw	fs0,56(a4)
   125ba:	ffff                	0xffff
   125bc:	0000                	unimp
   125be:	0000                	unimp
   125c0:	0000                	unimp
   125c2:	ffff                	0xffff
   125c4:	0000                	unimp
   125c6:	0000                	unimp
   125c8:	0000                	unimp
   125ca:	ffff                	0xffff
   125cc:	00ff                	0xff
   125ce:	0000                	unimp
   125d0:	0000                	unimp
   125d2:	ffff                	0xffff
   125d4:	0000                	unimp
   125d6:	0000                	unimp
   125d8:	ff00                	fsw	fs0,56(a4)
   125da:	ffff                	0xffff
   125dc:	0000                	unimp
   125de:	0000                	unimp
   125e0:	0000                	unimp
   125e2:	ffff                	0xffff
   125e4:	00ff                	0xff
   125e6:	0000                	unimp
   125e8:	ff00                	fsw	fs0,56(a4)
   125ea:	ffff                	0xffff
   125ec:	0000                	unimp
   125ee:	0000                	unimp
   125f0:	0000                	unimp
   125f2:	00ff                	0xff
   125f4:	0000                	unimp
   125f6:	0000                	unimp
   125f8:	0000                	unimp
   125fa:	ff00                	fsw	fs0,56(a4)
   125fc:	0000                	unimp
   125fe:	0000                	unimp
   12600:	ff00                	fsw	fs0,56(a4)
   12602:	0000                	unimp
   12604:	00ff                	0xff
   12606:	0000                	unimp
   12608:	0000                	unimp
   1260a:	00ff                	0xff
   1260c:	0000                	unimp
   1260e:	0000                	unimp
   12610:	ffff                	0xffff
   12612:	ff00                	fsw	fs0,56(a4)
   12614:	0000                	unimp
   12616:	0000                	unimp
   12618:	ff00                	fsw	fs0,56(a4)
   1261a:	ffff                	0xffff
   1261c:	0000                	unimp
   1261e:	0000                	unimp
   12620:	0000                	unimp
   12622:	ffff                	0xffff
   12624:	0000                	unimp
   12626:	0000                	unimp
   12628:	ff00                	fsw	fs0,56(a4)
   1262a:	ffff                	0xffff
   1262c:	0000                	unimp
   1262e:	0000                	unimp
   12630:	0000                	unimp
   12632:	ffff                	0xffff
   12634:	00ff                	0xff
   12636:	0000                	unimp
   12638:	ff00                	fsw	fs0,56(a4)
   1263a:	ff00                	fsw	fs0,56(a4)
   1263c:	00ff                	0xff
   1263e:	0000                	unimp
   12640:	0000                	unimp
   12642:	ffff                	0xffff
   12644:	00ff                	0xff
   12646:	0000                	unimp
   12648:	ff00                	fsw	fs0,56(a4)
   1264a:	ffff                	0xffff
   1264c:	0000                	unimp
   1264e:	0000                	unimp
   12650:	ff00                	fsw	fs0,56(a4)
   12652:	0000                	unimp
   12654:	00ff                	0xff
   12656:	0000                	unimp
   12658:	00ff                	0xff
   1265a:	0000                	unimp
   1265c:	00ff                	0xff
   1265e:	0000                	unimp
   12660:	00ff                	0xff
   12662:	0000                	unimp
   12664:	00ff                	0xff
   12666:	0000                	unimp
   12668:	00ff                	0xff
   1266a:	0000                	unimp
   1266c:	00ff                	0xff
   1266e:	0000                	unimp
   12670:	00ff                	0xff
   12672:	0000                	unimp
   12674:	00ff                	0xff
   12676:	0000                	unimp
   12678:	ff00                	fsw	fs0,56(a4)
   1267a:	ffff                	0xffff
   1267c:	00ff                	0xff
   1267e:	0000                	unimp
   12680:	0000                	unimp
   12682:	00ff                	0xff
   12684:	0000                	unimp
   12686:	0000                	unimp
   12688:	0000                	unimp
   1268a:	00ff                	0xff
   1268c:	0000                	unimp
   1268e:	0000                	unimp
   12690:	0000                	unimp
   12692:	00ff                	0xff
	...
   126a0:	00ff                	0xff
   126a2:	ffff                	0xffff
   126a4:	ff00                	fsw	fs0,56(a4)
   126a6:	0000                	unimp
   126a8:	ffff                	0xffff
   126aa:	00ff                	0xff
	...
   126b4:	00ff                	0xff
   126b6:	0000                	unimp
   126b8:	ff00                	fsw	fs0,56(a4)
   126ba:	0000                	unimp
   126bc:	00ff                	0xff
   126be:	0000                	unimp
   126c0:	ff00                	fsw	fs0,56(a4)
   126c2:	0000                	unimp
   126c4:	00ff                	0xff
   126c6:	0000                	unimp
   126c8:	ff00                	fsw	fs0,56(a4)
   126ca:	0000                	unimp
   126cc:	00ff                	0xff
   126ce:	0000                	unimp
   126d0:	ff00                	fsw	fs0,56(a4)
   126d2:	0000                	unimp
   126d4:	00ff                	0xff
   126d6:	0000                	unimp
   126d8:	0000                	unimp
   126da:	00ff                	0xff
   126dc:	0000                	unimp
   126de:	0000                	unimp
   126e0:	ff00                	fsw	fs0,56(a4)
   126e2:	0000                	unimp
   126e4:	00ff                	0xff
   126e6:	0000                	unimp
   126e8:	ff00                	fsw	fs0,56(a4)
   126ea:	0000                	unimp
   126ec:	00ff                	0xff
   126ee:	0000                	unimp
   126f0:	0000                	unimp
   126f2:	00ff                	0xff
   126f4:	0000                	unimp
   126f6:	0000                	unimp
   126f8:	0000                	unimp
   126fa:	ff00                	fsw	fs0,56(a4)
   126fc:	0000                	unimp
   126fe:	0000                	unimp
   12700:	ff00                	fsw	fs0,56(a4)
   12702:	ff00                	fsw	fs0,56(a4)
   12704:	0000                	unimp
   12706:	0000                	unimp
   12708:	0000                	unimp
   1270a:	00ff                	0xff
   1270c:	0000                	unimp
   1270e:	0000                	unimp
   12710:	00ff                	0xff
   12712:	00ff                	0xff
   12714:	00ff                	0xff
   12716:	0000                	unimp
   12718:	ff00                	fsw	fs0,56(a4)
   1271a:	0000                	unimp
   1271c:	00ff                	0xff
   1271e:	0000                	unimp
   12720:	ff00                	fsw	fs0,56(a4)
   12722:	0000                	unimp
   12724:	00ff                	0xff
   12726:	0000                	unimp
   12728:	ff00                	fsw	fs0,56(a4)
   1272a:	0000                	unimp
   1272c:	00ff                	0xff
   1272e:	0000                	unimp
   12730:	ff00                	fsw	fs0,56(a4)
   12732:	0000                	unimp
   12734:	00ff                	0xff
   12736:	0000                	unimp
   12738:	ff00                	fsw	fs0,56(a4)
   1273a:	00ff                	0xff
   1273c:	0000                	unimp
   1273e:	0000                	unimp
   12740:	ff00                	fsw	fs0,56(a4)
	...
   1274a:	00ff                	0xff
   1274c:	0000                	unimp
   1274e:	0000                	unimp
   12750:	ff00                	fsw	fs0,56(a4)
   12752:	0000                	unimp
   12754:	00ff                	0xff
   12756:	0000                	unimp
   12758:	ff00                	fsw	fs0,56(a4)
   1275a:	ff00                	fsw	fs0,56(a4)
   1275c:	0000                	unimp
   1275e:	0000                	unimp
   12760:	00ff                	0xff
   12762:	0000                	unimp
   12764:	00ff                	0xff
   12766:	0000                	unimp
   12768:	ff00                	fsw	fs0,56(a4)
   1276a:	ff00                	fsw	fs0,56(a4)
   1276c:	0000                	unimp
   1276e:	0000                	unimp
   12770:	ff00                	fsw	fs0,56(a4)
   12772:	ff00                	fsw	fs0,56(a4)
   12774:	0000                	unimp
   12776:	0000                	unimp
   12778:	0000                	unimp
   1277a:	ff00                	fsw	fs0,56(a4)
   1277c:	0000                	unimp
   1277e:	0000                	unimp
   12780:	ff00                	fsw	fs0,56(a4)
	...
   12792:	ff00                	fsw	fs0,56(a4)
	...
   127a0:	ffff                	0xffff
   127a2:	0000                	unimp
   127a4:	ff00                	fsw	fs0,56(a4)
   127a6:	0000                	unimp
   127a8:	ff00                	fsw	fs0,56(a4)
	...
   127b2:	ffff                	0xffff
   127b4:	00ff                	0xff
   127b6:	0000                	unimp
   127b8:	ff00                	fsw	fs0,56(a4)
   127ba:	0000                	unimp
   127bc:	00ff                	0xff
   127be:	0000                	unimp
   127c0:	ff00                	fsw	fs0,56(a4)
   127c2:	0000                	unimp
   127c4:	0000                	unimp
   127c6:	0000                	unimp
   127c8:	ff00                	fsw	fs0,56(a4)
   127ca:	0000                	unimp
   127cc:	00ff                	0xff
   127ce:	0000                	unimp
   127d0:	ff00                	fsw	fs0,56(a4)
   127d2:	ffff                	0xffff
   127d4:	00ff                	0xff
   127d6:	0000                	unimp
   127d8:	0000                	unimp
   127da:	00ff                	0xff
   127dc:	0000                	unimp
   127de:	0000                	unimp
   127e0:	ff00                	fsw	fs0,56(a4)
   127e2:	0000                	unimp
   127e4:	00ff                	0xff
   127e6:	0000                	unimp
   127e8:	ff00                	fsw	fs0,56(a4)
   127ea:	0000                	unimp
   127ec:	00ff                	0xff
   127ee:	0000                	unimp
   127f0:	0000                	unimp
   127f2:	00ff                	0xff
   127f4:	0000                	unimp
   127f6:	0000                	unimp
   127f8:	0000                	unimp
   127fa:	ff00                	fsw	fs0,56(a4)
   127fc:	0000                	unimp
   127fe:	0000                	unimp
   12800:	ff00                	fsw	fs0,56(a4)
   12802:	00ff                	0xff
   12804:	0000                	unimp
   12806:	0000                	unimp
   12808:	0000                	unimp
   1280a:	00ff                	0xff
   1280c:	0000                	unimp
   1280e:	0000                	unimp
   12810:	00ff                	0xff
   12812:	00ff                	0xff
   12814:	00ff                	0xff
   12816:	0000                	unimp
   12818:	ff00                	fsw	fs0,56(a4)
   1281a:	0000                	unimp
   1281c:	00ff                	0xff
   1281e:	0000                	unimp
   12820:	ff00                	fsw	fs0,56(a4)
   12822:	0000                	unimp
   12824:	00ff                	0xff
   12826:	0000                	unimp
   12828:	ff00                	fsw	fs0,56(a4)
   1282a:	0000                	unimp
   1282c:	00ff                	0xff
   1282e:	0000                	unimp
   12830:	ff00                	fsw	fs0,56(a4)
   12832:	0000                	unimp
   12834:	00ff                	0xff
   12836:	0000                	unimp
   12838:	ff00                	fsw	fs0,56(a4)
	...
   12842:	ffff                	0xffff
   12844:	0000                	unimp
   12846:	0000                	unimp
   12848:	0000                	unimp
   1284a:	00ff                	0xff
   1284c:	0000                	unimp
   1284e:	0000                	unimp
   12850:	ff00                	fsw	fs0,56(a4)
   12852:	0000                	unimp
   12854:	00ff                	0xff
   12856:	0000                	unimp
   12858:	ff00                	fsw	fs0,56(a4)
   1285a:	ff00                	fsw	fs0,56(a4)
   1285c:	0000                	unimp
   1285e:	0000                	unimp
   12860:	00ff                	0xff
   12862:	00ff                	0xff
   12864:	00ff                	0xff
   12866:	0000                	unimp
   12868:	0000                	unimp
   1286a:	00ff                	0xff
   1286c:	0000                	unimp
   1286e:	0000                	unimp
   12870:	ff00                	fsw	fs0,56(a4)
   12872:	ff00                	fsw	fs0,56(a4)
   12874:	0000                	unimp
   12876:	0000                	unimp
   12878:	0000                	unimp
   1287a:	00ff                	0xff
   1287c:	0000                	unimp
   1287e:	0000                	unimp
   12880:	0000                	unimp
   12882:	00ff                	0xff
	...
   12890:	0000                	unimp
   12892:	00ff                	0xff
	...
   128a0:	ffff                	0xffff
   128a2:	0000                	unimp
   128a4:	ff00                	fsw	fs0,56(a4)
   128a6:	0000                	unimp
   128a8:	ff00                	fsw	fs0,56(a4)
   128aa:	0000                	unimp
   128ac:	00ff                	0xff
   128ae:	0000                	unimp
   128b0:	ff00                	fsw	fs0,56(a4)
   128b2:	0000                	unimp
   128b4:	00ff                	0xff
   128b6:	0000                	unimp
   128b8:	ff00                	fsw	fs0,56(a4)
   128ba:	0000                	unimp
   128bc:	00ff                	0xff
   128be:	0000                	unimp
   128c0:	ff00                	fsw	fs0,56(a4)
   128c2:	0000                	unimp
   128c4:	00ff                	0xff
   128c6:	0000                	unimp
   128c8:	ff00                	fsw	fs0,56(a4)
   128ca:	0000                	unimp
   128cc:	00ff                	0xff
   128ce:	0000                	unimp
   128d0:	ff00                	fsw	fs0,56(a4)
	...
   128da:	00ff                	0xff
   128dc:	0000                	unimp
   128de:	0000                	unimp
   128e0:	0000                	unimp
   128e2:	ffff                	0xffff
   128e4:	00ff                	0xff
   128e6:	0000                	unimp
   128e8:	ff00                	fsw	fs0,56(a4)
   128ea:	0000                	unimp
   128ec:	00ff                	0xff
   128ee:	0000                	unimp
   128f0:	0000                	unimp
   128f2:	00ff                	0xff
   128f4:	0000                	unimp
   128f6:	0000                	unimp
   128f8:	0000                	unimp
   128fa:	ff00                	fsw	fs0,56(a4)
   128fc:	0000                	unimp
   128fe:	0000                	unimp
   12900:	ff00                	fsw	fs0,56(a4)
   12902:	ff00                	fsw	fs0,56(a4)
   12904:	0000                	unimp
   12906:	0000                	unimp
   12908:	0000                	unimp
   1290a:	00ff                	0xff
   1290c:	0000                	unimp
   1290e:	0000                	unimp
   12910:	00ff                	0xff
   12912:	00ff                	0xff
   12914:	00ff                	0xff
   12916:	0000                	unimp
   12918:	ff00                	fsw	fs0,56(a4)
   1291a:	0000                	unimp
   1291c:	00ff                	0xff
   1291e:	0000                	unimp
   12920:	ff00                	fsw	fs0,56(a4)
   12922:	0000                	unimp
   12924:	00ff                	0xff
   12926:	0000                	unimp
   12928:	ff00                	fsw	fs0,56(a4)
   1292a:	ffff                	0xffff
   1292c:	0000                	unimp
   1292e:	0000                	unimp
   12930:	0000                	unimp
   12932:	ffff                	0xffff
   12934:	00ff                	0xff
   12936:	0000                	unimp
   12938:	ff00                	fsw	fs0,56(a4)
	...
   12942:	0000                	unimp
   12944:	00ff                	0xff
   12946:	0000                	unimp
   12948:	0000                	unimp
   1294a:	00ff                	0xff
   1294c:	0000                	unimp
   1294e:	0000                	unimp
   12950:	ff00                	fsw	fs0,56(a4)
   12952:	0000                	unimp
   12954:	00ff                	0xff
   12956:	0000                	unimp
   12958:	0000                	unimp
   1295a:	00ff                	0xff
   1295c:	0000                	unimp
   1295e:	0000                	unimp
   12960:	ff00                	fsw	fs0,56(a4)
   12962:	ff00                	fsw	fs0,56(a4)
   12964:	0000                	unimp
   12966:	0000                	unimp
   12968:	ff00                	fsw	fs0,56(a4)
   1296a:	ff00                	fsw	fs0,56(a4)
   1296c:	0000                	unimp
   1296e:	0000                	unimp
   12970:	0000                	unimp
   12972:	00ff                	0xff
   12974:	0000                	unimp
   12976:	0000                	unimp
   12978:	ff00                	fsw	fs0,56(a4)
	...
   12982:	00ff                	0xff
   12984:	0000                	unimp
   12986:	0000                	unimp
   12988:	0000                	unimp
   1298a:	00ff                	0xff
   1298c:	0000                	unimp
   1298e:	0000                	unimp
   12990:	0000                	unimp
   12992:	00ff                	0xff
	...
   129a0:	00ff                	0xff
   129a2:	ffff                	0xffff
   129a4:	ff00                	fsw	fs0,56(a4)
   129a6:	0000                	unimp
   129a8:	ffff                	0xffff
   129aa:	ffff                	0xffff
   129ac:	0000                	unimp
   129ae:	0000                	unimp
   129b0:	0000                	unimp
   129b2:	ffff                	0xffff
   129b4:	00ff                	0xff
   129b6:	0000                	unimp
   129b8:	ff00                	fsw	fs0,56(a4)
   129ba:	ffff                	0xffff
   129bc:	0000                	unimp
   129be:	0000                	unimp
   129c0:	0000                	unimp
   129c2:	ffff                	0xffff
   129c4:	0000                	unimp
   129c6:	0000                	unimp
   129c8:	0000                	unimp
   129ca:	ffff                	0xffff
   129cc:	00ff                	0xff
   129ce:	0000                	unimp
   129d0:	0000                	unimp
   129d2:	ffff                	0xffff
   129d4:	0000                	unimp
   129d6:	0000                	unimp
   129d8:	0000                	unimp
   129da:	00ff                	0xff
	...
   129e4:	00ff                	0xff
   129e6:	0000                	unimp
   129e8:	ff00                	fsw	fs0,56(a4)
   129ea:	0000                	unimp
   129ec:	00ff                	0xff
   129ee:	0000                	unimp
   129f0:	0000                	unimp
   129f2:	00ff                	0xff
   129f4:	0000                	unimp
   129f6:	0000                	unimp
   129f8:	0000                	unimp
   129fa:	ff00                	fsw	fs0,56(a4)
   129fc:	0000                	unimp
   129fe:	0000                	unimp
   12a00:	ff00                	fsw	fs0,56(a4)
   12a02:	0000                	unimp
   12a04:	00ff                	0xff
   12a06:	0000                	unimp
   12a08:	0000                	unimp
   12a0a:	ff00                	fsw	fs0,56(a4)
   12a0c:	0000                	unimp
   12a0e:	0000                	unimp
   12a10:	00ff                	0xff
   12a12:	00ff                	0xff
   12a14:	00ff                	0xff
   12a16:	0000                	unimp
   12a18:	ff00                	fsw	fs0,56(a4)
   12a1a:	0000                	unimp
   12a1c:	00ff                	0xff
   12a1e:	0000                	unimp
   12a20:	0000                	unimp
   12a22:	ffff                	0xffff
   12a24:	0000                	unimp
   12a26:	0000                	unimp
   12a28:	ff00                	fsw	fs0,56(a4)
	...
   12a32:	0000                	unimp
   12a34:	00ff                	0xff
   12a36:	0000                	unimp
   12a38:	ff00                	fsw	fs0,56(a4)
   12a3a:	0000                	unimp
   12a3c:	0000                	unimp
   12a3e:	0000                	unimp
   12a40:	ff00                	fsw	fs0,56(a4)
   12a42:	ffff                	0xffff
   12a44:	0000                	unimp
   12a46:	0000                	unimp
   12a48:	0000                	unimp
   12a4a:	ff00                	fsw	fs0,56(a4)
   12a4c:	0000                	unimp
   12a4e:	0000                	unimp
   12a50:	0000                	unimp
   12a52:	ffff                	0xffff
   12a54:	0000                	unimp
   12a56:	0000                	unimp
   12a58:	0000                	unimp
   12a5a:	00ff                	0xff
   12a5c:	0000                	unimp
   12a5e:	0000                	unimp
   12a60:	ff00                	fsw	fs0,56(a4)
   12a62:	ff00                	fsw	fs0,56(a4)
   12a64:	0000                	unimp
   12a66:	0000                	unimp
   12a68:	00ff                	0xff
   12a6a:	0000                	unimp
   12a6c:	00ff                	0xff
   12a6e:	0000                	unimp
   12a70:	0000                	unimp
   12a72:	00ff                	0xff
   12a74:	0000                	unimp
   12a76:	0000                	unimp
   12a78:	ff00                	fsw	fs0,56(a4)
   12a7a:	ffff                	0xffff
   12a7c:	00ff                	0xff
   12a7e:	0000                	unimp
   12a80:	0000                	unimp
   12a82:	00ff                	0xff
   12a84:	0000                	unimp
   12a86:	0000                	unimp
   12a88:	0000                	unimp
   12a8a:	00ff                	0xff
   12a8c:	0000                	unimp
   12a8e:	0000                	unimp
   12a90:	0000                	unimp
   12a92:	00ff                	0xff
	...
   12aa0:	ff00                	fsw	fs0,56(a4)
   12aa2:	0000                	unimp
   12aa4:	00ff                	0xff
	...
   12ae2:	ffff                	0xffff
	...
   12af8:	ff00                	fsw	fs0,56(a4)
   12afa:	00ff                	0xff
	...
   12b28:	ff00                	fsw	fs0,56(a4)
	...
   12b32:	0000                	unimp
   12b34:	00ff                	0xff
	...
   12b6e:	0000                	unimp
   12b70:	ffff                	0xffff
	...
   12b82:	ff00                	fsw	fs0,56(a4)
   12b84:	0000                	unimp
   12b86:	0000                	unimp
   12b88:	0000                	unimp
   12b8a:	00ff                	0xff
   12b8c:	0000                	unimp
   12b8e:	0000                	unimp
   12b90:	ff00                	fsw	fs0,56(a4)
	...
   12ba2:	ffff                	0xffff
   12ba4:	0000                	unimp
	...

Disassembly of section .eh_frame:

00013000 <__EH_FRAME_BEGIN__>:
   13000:	0010                	0x10
   13002:	0000                	unimp
   13004:	0000                	unimp
   13006:	0000                	unimp
   13008:	00527a03          	0x527a03
   1300c:	7c01                	lui	s8,0xfffe0
   1300e:	0101                	addi	sp,sp,0
   13010:	00020d1b          	0x20d1b
   13014:	0010                	0x10
   13016:	0000                	unimp
   13018:	0018                	0x18
   1301a:	0000                	unimp
   1301c:	d20c                	sw	a1,32(a2)
   1301e:	ffff                	0xffff
   13020:	0034                	addi	a3,sp,8
   13022:	0000                	unimp
   13024:	0000                	unimp
   13026:	0000                	unimp
   13028:	002c                	addi	a1,sp,8
   1302a:	0000                	unimp
   1302c:	002c                	addi	a1,sp,8
   1302e:	0000                	unimp
   13030:	d044                	sw	s1,36(s0)
   13032:	ffff                	0xffff
   13034:	00c0                	addi	s0,sp,68
   13036:	0000                	unimp
   13038:	4400                	lw	s0,8(s0)
   1303a:	400e                	0x400e
   1303c:	9444                	0x9444
   1303e:	7406                	flw	fs0,96(sp)
   13040:	0492                	slli	s1,s1,0x4
   13042:	07950593          	addi	a1,a0,121
   13046:	0896                	slli	a7,a7,0x5
   13048:	0a980997          	auipc	s3,0xa980
   1304c:	0b99                	addi	s7,s7,6
   1304e:	0c9a                	slli	s9,s9,0x6
   13050:	01810d9b          	0x1810d9b
   13054:	0288                	addi	a0,sp,320
   13056:	0389                	addi	t2,t2,2
   13058:	0018                	0x18
   1305a:	0000                	unimp
   1305c:	005c                	addi	a5,sp,4
   1305e:	0000                	unimp
   13060:	d1fc                	sw	a5,100(a1)
   13062:	ffff                	0xffff
   13064:	0034                	addi	a3,sp,8
   13066:	0000                	unimp
   13068:	5400                	lw	s0,40(s0)
   1306a:	100e                	c.slli	zero,0x23
   1306c:	8150                	0x8150
   1306e:	4801                	li	a6,0
   13070:	44c1                	li	s1,16
   13072:	000e                	c.slli	zero,0x3
   13074:	001c                	0x1c
   13076:	0000                	unimp
   13078:	0078                	addi	a4,sp,12
   1307a:	0000                	unimp
   1307c:	d214                	sw	a3,32(a2)
   1307e:	ffff                	0xffff
   13080:	0344                	addi	s1,sp,388
   13082:	0000                	unimp
   13084:	0200                	addi	s0,sp,256
   13086:	0e64                	addi	s1,sp,796
   13088:	4410                	lw	a2,8(s0)
   1308a:	0188                	addi	a0,sp,192
   1308c:	c802c003          	lbu	zero,-896(t0) # 10d74 <_Z15PrintDMADecimaliiib+0x30c>
   13090:	0e44                	addi	s1,sp,788
   13092:	0000                	unimp
   13094:	0040                	addi	s0,sp,4
   13096:	0000                	unimp
   13098:	0098                	addi	a4,sp,64
   1309a:	0000                	unimp
   1309c:	d538                	sw	a4,104(a0)
   1309e:	ffff                	0xffff
   130a0:	039c                	addi	a5,sp,448
   130a2:	0000                	unimp
   130a4:	0200                	addi	s0,sp,256
   130a6:	0e7c                	addi	a5,sp,796
   130a8:	5c20                	lw	s0,120(s0)
   130aa:	0188                	addi	a0,sp,192
   130ac:	0289                	addi	t0,t0,2
   130ae:	0392                	slli	t2,t2,0x4
   130b0:	05940493          	addi	s1,s0,89
   130b4:	0695                	addi	a3,a3,5
   130b6:	0796                	slli	a5,a5,0x5
   130b8:	0a02bc03          	0xa02bc03
   130bc:	44c8                	lw	a0,12(s1)
   130be:	44c9                	li	s1,18
   130c0:	44d2                	lw	s1,20(sp)
   130c2:	44d444d3          	0x44d444d3
   130c6:	44d5                	li	s1,21
   130c8:	44d6                	lw	s1,84(sp)
   130ca:	000e                	c.slli	zero,0x3
   130cc:	0b44                	addi	s1,sp,404
   130ce:	0e64                	addi	s1,sp,796
   130d0:	c800                	sw	s0,16(s0)
   130d2:	d2c9                	beqz	a3,13054 <__EH_FRAME_BEGIN__+0x54>
   130d4:	d6d5d4d3          	0xd6d5d4d3
   130d8:	001c                	0x1c
   130da:	0000                	unimp
   130dc:	00dc                	addi	a5,sp,68
   130de:	0000                	unimp
   130e0:	d890                	sw	a2,48(s1)
   130e2:	ffff                	0xffff
   130e4:	00f8                	addi	a4,sp,76
   130e6:	0000                	unimp
   130e8:	5c00                	lw	s0,56(s0)
   130ea:	300e                	fld	ft0,224(sp)
   130ec:	4402                	lw	s0,0(sp)
   130ee:	0181                	addi	gp,gp,0
   130f0:	9002                	ebreak
   130f2:	44c1                	li	s1,16
   130f4:	000e                	c.slli	zero,0x3
   130f6:	0000                	unimp
   130f8:	0024                	addi	s1,sp,8
   130fa:	0000                	unimp
   130fc:	00fc                	addi	a5,sp,76
   130fe:	0000                	unimp
   13100:	d968                	sw	a0,116(a0)
   13102:	ffff                	0xffff
   13104:	03dc                	addi	a5,sp,452
   13106:	0000                	unimp
   13108:	7800                	flw	fs0,48(s0)
   1310a:	300e                	fld	ft0,224(sp)
   1310c:	8150                	0x8150
   1310e:	8801                	andi	s0,s0,0
   13110:	0302                	c.slli64	t1
   13112:	0198                	addi	a4,sp,192
   13114:	c10a                	sw	sp,128(sp)
   13116:	c848                	sw	a0,20(s0)
   13118:	0e44                	addi	s1,sp,788
   1311a:	4400                	lw	s0,8(s0)
   1311c:	0000000b          	0xb
   13120:	0010                	0x10
   13122:	0000                	unimp
   13124:	0124                	addi	s1,sp,136
   13126:	0000                	unimp
   13128:	d00c                	sw	a1,32(s0)
   1312a:	ffff                	0xffff
   1312c:	001c                	0x1c
   1312e:	0000                	unimp
   13130:	0000                	unimp
	...

00013134 <__FRAME_END__>:
   13134:	0000                	unimp
	...

Disassembly of section .init_array:

00013138 <__init_array_start>:
   13138:	0150                	addi	a2,sp,132
   1313a:	0001                	nop

0001313c <__frame_dummy_init_array_entry>:
   1313c:	0204                	addi	s1,sp,256
   1313e:	0001                	nop
   13140:	0134                	addi	a3,sp,136
   13142:	0001                	nop

Disassembly of section .fini_array:

00013144 <__do_global_dtors_aux_fini_array_entry>:
   13144:	01b8                	addi	a4,sp,200
   13146:	0001                	nop

Disassembly of section .data:

00013148 <sinewave>:
   13148:	4000                	lw	s0,0(s0)
   1314a:	0000                	unimp
   1314c:	4065                	c.li	zero,25
   1314e:	0000                	unimp
   13150:	40c9                	li	ra,18
   13152:	0000                	unimp
   13154:	412e                	lw	sp,200(sp)
   13156:	0000                	unimp
   13158:	4192                	lw	gp,4(sp)
   1315a:	0000                	unimp
   1315c:	000041f7          	0x41f7
   13160:	0000425b          	0x425b
   13164:	42c0                	lw	s0,4(a3)
   13166:	0000                	unimp
   13168:	4324                	lw	s1,64(a4)
   1316a:	0000                	unimp
   1316c:	4388                	lw	a0,0(a5)
   1316e:	0000                	unimp
   13170:	43ed                	li	t2,27
   13172:	0000                	unimp
   13174:	4451                	li	s0,20
   13176:	0000                	unimp
   13178:	44b5                	li	s1,13
   1317a:	0000                	unimp
   1317c:	451a                	lw	a0,132(sp)
   1317e:	0000                	unimp
   13180:	457e                	lw	a0,220(sp)
   13182:	0000                	unimp
   13184:	45e2                	lw	a1,24(sp)
   13186:	0000                	unimp
   13188:	4646                	lw	a2,80(sp)
   1318a:	0000                	unimp
   1318c:	46aa                	lw	a3,136(sp)
   1318e:	0000                	unimp
   13190:	470e                	lw	a4,192(sp)
   13192:	0000                	unimp
   13194:	4772                	lw	a4,28(sp)
   13196:	0000                	unimp
   13198:	47d6                	lw	a5,84(sp)
   1319a:	0000                	unimp
   1319c:	4839                	li	a6,14
   1319e:	0000                	unimp
   131a0:	489d                	li	a7,7
   131a2:	0000                	unimp
   131a4:	4901                	li	s2,0
   131a6:	0000                	unimp
   131a8:	4964                	lw	s1,84(a0)
   131aa:	0000                	unimp
   131ac:	000049c7          	fmsub.s	fs3,ft0,ft0,ft0,rmm
   131b0:	00004a2b          	0x4a2b
   131b4:	4a8e                	lw	s5,192(sp)
   131b6:	0000                	unimp
   131b8:	4af1                	li	s5,28
   131ba:	0000                	unimp
   131bc:	4b54                	lw	a3,20(a4)
   131be:	0000                	unimp
   131c0:	00004bb7          	lui	s7,0x4
   131c4:	4c1a                	lw	s8,132(sp)
   131c6:	0000                	unimp
   131c8:	4c7c                	lw	a5,92(s0)
   131ca:	0000                	unimp
   131cc:	4cdf 0000 4d41      	0x4d4100004cdf
   131d2:	0000                	unimp
   131d4:	4da4                	lw	s1,88(a1)
   131d6:	0000                	unimp
   131d8:	4e06                	lw	t3,64(sp)
   131da:	0000                	unimp
   131dc:	4e68                	lw	a0,92(a2)
   131de:	0000                	unimp
   131e0:	4eca                	lw	t4,144(sp)
   131e2:	0000                	unimp
   131e4:	00004f2b          	0x4f2b
   131e8:	4f8d                	li	t6,3
   131ea:	0000                	unimp
   131ec:	4fee                	lw	t6,216(sp)
   131ee:	0000                	unimp
   131f0:	5050                	lw	a2,36(s0)
   131f2:	0000                	unimp
   131f4:	50b1                	li	ra,-20
   131f6:	0000                	unimp
   131f8:	5112                	lw	sp,36(sp)
   131fa:	0000                	unimp
   131fc:	00005173          	csrrwi	sp,ustatus,0
   13200:	000051d3          	fadd.s	ft3,ft0,ft0,unknown
   13204:	5234                	lw	a3,96(a2)
   13206:	0000                	unimp
   13208:	5294                	lw	a3,32(a3)
   1320a:	0000                	unimp
   1320c:	52f4                	lw	a3,100(a3)
   1320e:	0000                	unimp
   13210:	5354                	lw	a3,36(a4)
   13212:	0000                	unimp
   13214:	53b4                	lw	a3,96(a5)
   13216:	0000                	unimp
   13218:	00005413          	srli	s0,zero,0x0
   1321c:	00005473          	csrrwi	s0,ustatus,0
   13220:	54d2                	lw	s1,52(sp)
   13222:	0000                	unimp
   13224:	5531                	li	a0,-20
   13226:	0000                	unimp
   13228:	5590                	lw	a2,40(a1)
   1322a:	0000                	unimp
   1322c:	55ee                	lw	a1,248(sp)
   1322e:	0000                	unimp
   13230:	564c                	lw	a1,44(a2)
   13232:	0000                	unimp
   13234:	000056ab          	0x56ab
   13238:	5709                	li	a4,-30
   1323a:	0000                	unimp
   1323c:	5766                	lw	a4,120(sp)
   1323e:	0000                	unimp
   13240:	57c4                	lw	s1,44(a5)
   13242:	0000                	unimp
   13244:	5821                	li	a6,-24
   13246:	0000                	unimp
   13248:	587e                	lw	a6,252(sp)
   1324a:	0000                	unimp
   1324c:	000058db          	0x58db
   13250:	00005937          	lui	s2,0x5
   13254:	00005993          	srli	s3,zero,0x0
   13258:	000059ef          	jal	s3,18258 <__BSS_END__+0x3c90>
   1325c:	00005a4b          	fnmsub.s	fs4,ft0,ft0,ft0,unknown
   13260:	00005aa7          	0x5aa7
   13264:	5b02                	lw	s6,32(sp)
   13266:	0000                	unimp
   13268:	5b5d                	li	s6,-9
   1326a:	0000                	unimp
   1326c:	5bb8                	lw	a4,112(a5)
   1326e:	0000                	unimp
   13270:	5c12                	lw	s8,36(sp)
   13272:	0000                	unimp
   13274:	5c6c                	lw	a1,124(s0)
   13276:	0000                	unimp
   13278:	5cc6                	lw	s9,112(sp)
   1327a:	0000                	unimp
   1327c:	5d20                	lw	s0,120(a0)
   1327e:	0000                	unimp
   13280:	5d79                	li	s10,-2
   13282:	0000                	unimp
   13284:	00005dd3          	fadd.s	fs11,ft0,ft0,unknown
   13288:	00005e2b          	0x5e2b
   1328c:	5e84                	lw	s1,56(a3)
   1328e:	0000                	unimp
   13290:	5edc                	lw	a5,60(a3)
   13292:	0000                	unimp
   13294:	5f34                	lw	a3,120(a4)
   13296:	0000                	unimp
   13298:	5f8c                	lw	a1,56(a5)
   1329a:	0000                	unimp
   1329c:	00005fe3          	blez	zero,13aba <sinewave+0x972>
   132a0:	603a                	flw	ft0,140(sp)
   132a2:	0000                	unimp
   132a4:	6091                	lui	ra,0x4
   132a6:	0000                	unimp
   132a8:	000060e7          	0x60e7
   132ac:	613d                	addi	sp,sp,480
   132ae:	0000                	unimp
   132b0:	00006193          	ori	gp,zero,0
   132b4:	61e8                	flw	fa0,68(a1)
   132b6:	0000                	unimp
   132b8:	623d                	lui	tp,0xf
   132ba:	0000                	unimp
   132bc:	6292                	flw	ft5,4(sp)
   132be:	0000                	unimp
   132c0:	000062e7          	0x62e7
   132c4:	0000633b          	0x633b
   132c8:	638e                	flw	ft7,192(sp)
   132ca:	0000                	unimp
   132cc:	63e2                	flw	ft7,24(sp)
   132ce:	0000                	unimp
   132d0:	6435                	lui	s0,0xd
   132d2:	0000                	unimp
   132d4:	6488                	flw	fa0,8(s1)
   132d6:	0000                	unimp
   132d8:	64da                	flw	fs1,148(sp)
   132da:	0000                	unimp
   132dc:	652c                	flw	fa1,72(a0)
   132de:	0000                	unimp
   132e0:	657e                	flw	fa0,220(sp)
   132e2:	0000                	unimp
   132e4:	000065cf          	fnmadd.s	fa1,ft0,ft0,ft0,unknown
   132e8:	6620                	flw	fs0,72(a2)
   132ea:	0000                	unimp
   132ec:	6671                	lui	a2,0x1c
   132ee:	0000                	unimp
   132f0:	66c1                	lui	a3,0x10
   132f2:	0000                	unimp
   132f4:	6711                	lui	a4,0x4
   132f6:	0000                	unimp
   132f8:	6760                	flw	fs0,76(a4)
   132fa:	0000                	unimp
   132fc:	000067af          	0x67af
   13300:	67fe                	flw	fa5,220(sp)
   13302:	0000                	unimp
   13304:	684c                	flw	fa1,20(s0)
   13306:	0000                	unimp
   13308:	689a                	flw	fa7,132(sp)
   1330a:	0000                	unimp
   1330c:	000068e7          	0x68e7
   13310:	6935                	lui	s2,0xd
   13312:	0000                	unimp
   13314:	6981                	0x6981
   13316:	0000                	unimp
   13318:	69ce                	flw	fs3,208(sp)
   1331a:	0000                	unimp
   1331c:	6a1a                	flw	fs4,132(sp)
   1331e:	0000                	unimp
   13320:	6a65                	lui	s4,0x19
   13322:	0000                	unimp
   13324:	6ab0                	flw	fa2,80(a3)
   13326:	0000                	unimp
   13328:	00006afb          	0x6afb
   1332c:	6b45                	lui	s6,0x11
   1332e:	0000                	unimp
   13330:	00006b8f          	0x6b8f
   13334:	6bd8                	flw	fa4,20(a5)
   13336:	0000                	unimp
   13338:	6c21                	lui	s8,0x8
   1333a:	0000                	unimp
   1333c:	6c6a                	flw	fs8,152(sp)
   1333e:	0000                	unimp
   13340:	6cb2                	flw	fs9,12(sp)
   13342:	0000                	unimp
   13344:	6cfa                	flw	fs9,156(sp)
   13346:	0000                	unimp
   13348:	6d41                	lui	s10,0x10
   1334a:	0000                	unimp
   1334c:	6d88                	flw	fa0,24(a1)
   1334e:	0000                	unimp
   13350:	00006dcf          	fnmadd.s	fs11,ft0,ft0,ft0,unknown
   13354:	6e15                	lui	t3,0x5
   13356:	0000                	unimp
   13358:	6e5a                	flw	ft8,148(sp)
   1335a:	0000                	unimp
   1335c:	6e9f 0000 6ee4      	0x6ee400006e9f
   13362:	0000                	unimp
   13364:	6f28                	flw	fa0,88(a4)
   13366:	0000                	unimp
   13368:	6f6c                	flw	fa1,92(a4)
   1336a:	0000                	unimp
   1336c:	00006faf          	0x6faf
   13370:	6ff2                	flw	ft11,28(sp)
   13372:	0000                	unimp
   13374:	7034                	flw	fa3,96(s0)
   13376:	0000                	unimp
   13378:	7076                	flw	ft0,124(sp)
   1337a:	0000                	unimp
   1337c:	70b8                	flw	fa4,96(s1)
   1337e:	0000                	unimp
   13380:	70f9                	lui	ra,0xffffe
   13382:	0000                	unimp
   13384:	7139                	addi	sp,sp,-64
   13386:	0000                	unimp
   13388:	7179                	addi	sp,sp,-48
   1338a:	0000                	unimp
   1338c:	71b9                	lui	gp,0xfffee
   1338e:	0000                	unimp
   13390:	71f8                	flw	fa4,100(a1)
   13392:	0000                	unimp
   13394:	7236                	flw	ft4,108(sp)
   13396:	0000                	unimp
   13398:	7274                	flw	fa3,100(a2)
   1339a:	0000                	unimp
   1339c:	72b2                	flw	ft5,44(sp)
   1339e:	0000                	unimp
   133a0:	000072ef          	jal	t0,1a3a0 <__BSS_END__+0x5dd8>
   133a4:	732c                	flw	fa1,96(a4)
   133a6:	0000                	unimp
   133a8:	7368                	flw	fa0,100(a4)
   133aa:	0000                	unimp
   133ac:	000073a3          	0x73a3
   133b0:	73df 0000 7419      	0x7419000073df
   133b6:	0000                	unimp
   133b8:	00007453          	fadd.s	fs0,ft0,ft0
   133bc:	748d                	lui	s1,0xfffe3
   133be:	0000                	unimp
   133c0:	74c6                	flw	fs1,112(sp)
   133c2:	0000                	unimp
   133c4:	74ff                	0x74ff
   133c6:	0000                	unimp
   133c8:	00007537          	lui	a0,0x7
   133cc:	756e                	flw	fa0,248(sp)
   133ce:	0000                	unimp
   133d0:	75a5                	lui	a1,0xfffe9
   133d2:	0000                	unimp
   133d4:	75dc                	flw	fa5,44(a1)
   133d6:	0000                	unimp
   133d8:	7612                	flw	fa2,36(sp)
   133da:	0000                	unimp
   133dc:	7648                	flw	fa0,44(a2)
   133de:	0000                	unimp
   133e0:	767d                	lui	a2,0xfffff
   133e2:	0000                	unimp
   133e4:	76b1                	lui	a3,0xfffec
   133e6:	0000                	unimp
   133e8:	76e5                	lui	a3,0xffff9
   133ea:	0000                	unimp
   133ec:	7718                	flw	fa4,40(a4)
   133ee:	0000                	unimp
   133f0:	0000774b          	fnmsub.s	fa4,ft0,ft0,ft0
   133f4:	777e                	flw	fa4,252(sp)
   133f6:	0000                	unimp
   133f8:	77b0                	flw	fa2,104(a5)
   133fa:	0000                	unimp
   133fc:	77e1                	lui	a5,0xffff8
   133fe:	0000                	unimp
   13400:	7812                	flw	fa6,36(sp)
   13402:	0000                	unimp
   13404:	7842                	flw	fa6,48(sp)
   13406:	0000                	unimp
   13408:	7871                	lui	a6,0xffffc
   1340a:	0000                	unimp
   1340c:	78a1                	lui	a7,0xfffe8
   1340e:	0000                	unimp
   13410:	000078cf          	fnmadd.s	fa7,ft0,ft0,ft0
   13414:	78fd                	lui	a7,0xfffff
   13416:	0000                	unimp
   13418:	0000792b          	0x792b
   1341c:	7958                	flw	fa4,52(a0)
   1341e:	0000                	unimp
   13420:	7984                	flw	fs1,48(a1)
   13422:	0000                	unimp
   13424:	79b0                	flw	fa2,112(a1)
   13426:	0000                	unimp
   13428:	000079db          	0x79db
   1342c:	7a06                	flw	fs4,96(sp)
   1342e:	0000                	unimp
   13430:	7a30                	flw	fa2,112(a2)
   13432:	0000                	unimp
   13434:	7a59                	lui	s4,0xffff6
   13436:	0000                	unimp
   13438:	7a82                	flw	fs5,32(sp)
   1343a:	0000                	unimp
   1343c:	00007aab          	0x7aab
   13440:	00007ad3          	fadd.s	fs5,ft0,ft0
   13444:	7afa                	flw	fs5,188(sp)
   13446:	0000                	unimp
   13448:	7b21                	lui	s6,0xfffe8
   1344a:	0000                	unimp
   1344c:	00007b47          	fmsub.s	fs6,ft0,ft0,ft0
   13450:	7b6d                	lui	s6,0xffffb
   13452:	0000                	unimp
   13454:	7b92                	flw	fs7,36(sp)
   13456:	0000                	unimp
   13458:	7bb6                	flw	fs7,108(sp)
   1345a:	0000                	unimp
   1345c:	7bda                	flw	fs7,180(sp)
   1345e:	0000                	unimp
   13460:	7bfd                	lui	s7,0xfffff
   13462:	0000                	unimp
   13464:	7c20                	flw	fs0,120(s0)
   13466:	0000                	unimp
   13468:	7c42                	flw	fs8,48(sp)
   1346a:	0000                	unimp
   1346c:	7c64                	flw	fs1,124(s0)
   1346e:	0000                	unimp
   13470:	7c85                	lui	s9,0xfffe1
   13472:	0000                	unimp
   13474:	7ca5                	lui	s9,0xfffe9
   13476:	0000                	unimp
   13478:	7cc5                	lui	s9,0xffff1
   1347a:	0000                	unimp
   1347c:	7ce4                	flw	fs1,124(s1)
   1347e:	0000                	unimp
   13480:	00007d03          	0x7d03
   13484:	7d21                	lui	s10,0xfffe8
   13486:	0000                	unimp
   13488:	00007d3f 00007d5b 	0x7d5b00007d3f
   13490:	7d78                	flw	fa4,124(a0)
   13492:	0000                	unimp
   13494:	00007d93          	andi	s11,zero,0
   13498:	00007daf          	0x7daf
   1349c:	7dc9                	lui	s11,0xffff2
   1349e:	0000                	unimp
   134a0:	00007de3          	bgeu	zero,zero,13cba <sinewave+0xb72>
   134a4:	7dfc                	flw	fa5,124(a1)
   134a6:	0000                	unimp
   134a8:	7e15                	lui	t3,0xfffe5
   134aa:	0000                	unimp
   134ac:	7e2d                	lui	t3,0xfffeb
   134ae:	0000                	unimp
   134b0:	7e45                	lui	t3,0xffff1
   134b2:	0000                	unimp
   134b4:	7e5c                	flw	fa5,60(a2)
   134b6:	0000                	unimp
   134b8:	7e72                	flw	ft8,60(sp)
   134ba:	0000                	unimp
   134bc:	7e88                	flw	fa0,56(a3)
   134be:	0000                	unimp
   134c0:	7e9d                	lui	t4,0xfffe7
   134c2:	0000                	unimp
   134c4:	7eb1                	lui	t4,0xfffec
   134c6:	0000                	unimp
   134c8:	7ec5                	lui	t4,0xffff1
   134ca:	0000                	unimp
   134cc:	7ed8                	flw	fa4,60(a3)
   134ce:	0000                	unimp
   134d0:	00007eeb          	0x7eeb
   134d4:	7efd                	lui	t4,0xfffff
   134d6:	0000                	unimp
   134d8:	00007f0f          	0x7f0f
   134dc:	7f20                	flw	fs0,120(a4)
   134de:	0000                	unimp
   134e0:	7f30                	flw	fa2,120(a4)
   134e2:	0000                	unimp
   134e4:	7f40                	flw	fs0,60(a4)
   134e6:	0000                	unimp
   134e8:	00007f4f          	fnmadd.s	ft10,ft0,ft0,ft0
   134ec:	7f5d                	lui	t5,0xffff7
   134ee:	0000                	unimp
   134f0:	00007f6b          	0x7f6b
   134f4:	7f78                	flw	fa4,124(a4)
   134f6:	0000                	unimp
   134f8:	7f85                	lui	t6,0xfffe1
   134fa:	0000                	unimp
   134fc:	7f91                	lui	t6,0xfffe4
   134fe:	0000                	unimp
   13500:	7f9c                	flw	fa5,56(a5)
   13502:	0000                	unimp
   13504:	00007fa7          	0x7fa7
   13508:	7fb1                	lui	t6,0xfffec
   1350a:	0000                	unimp
   1350c:	00007fbb          	0x7fbb
   13510:	7fc4                	flw	fs1,60(a5)
   13512:	0000                	unimp
   13514:	7fcc                	flw	fa1,60(a5)
   13516:	0000                	unimp
   13518:	7fd4                	flw	fa3,60(a5)
   1351a:	0000                	unimp
   1351c:	00007fdb          	0x7fdb
   13520:	7fe1                	lui	t6,0xffff8
   13522:	0000                	unimp
   13524:	00007fe7          	0x7fe7
   13528:	7fec                	flw	fa1,124(a5)
   1352a:	0000                	unimp
   1352c:	7ff1                	lui	t6,0xffffc
   1352e:	0000                	unimp
   13530:	7ff5                	lui	t6,0xffffd
   13532:	0000                	unimp
   13534:	7ff8                	flw	fa4,124(a5)
   13536:	0000                	unimp
   13538:	00007ffb          	0x7ffb
   1353c:	7ffd                	lui	t6,0xfffff
   1353e:	0000                	unimp
   13540:	7fff                	0x7fff
   13542:	0000                	unimp
   13544:	8000                	0x8000
   13546:	0000                	unimp
   13548:	8000                	0x8000
   1354a:	0000                	unimp
   1354c:	8000                	0x8000
   1354e:	0000                	unimp
   13550:	7fff                	0x7fff
   13552:	0000                	unimp
   13554:	7ffd                	lui	t6,0xfffff
   13556:	0000                	unimp
   13558:	00007ffb          	0x7ffb
   1355c:	7ff8                	flw	fa4,124(a5)
   1355e:	0000                	unimp
   13560:	7ff5                	lui	t6,0xffffd
   13562:	0000                	unimp
   13564:	7ff1                	lui	t6,0xffffc
   13566:	0000                	unimp
   13568:	7fec                	flw	fa1,124(a5)
   1356a:	0000                	unimp
   1356c:	00007fe7          	0x7fe7
   13570:	7fe1                	lui	t6,0xffff8
   13572:	0000                	unimp
   13574:	00007fdb          	0x7fdb
   13578:	7fd4                	flw	fa3,60(a5)
   1357a:	0000                	unimp
   1357c:	7fcc                	flw	fa1,60(a5)
   1357e:	0000                	unimp
   13580:	7fc4                	flw	fs1,60(a5)
   13582:	0000                	unimp
   13584:	00007fbb          	0x7fbb
   13588:	7fb1                	lui	t6,0xfffec
   1358a:	0000                	unimp
   1358c:	00007fa7          	0x7fa7
   13590:	7f9c                	flw	fa5,56(a5)
   13592:	0000                	unimp
   13594:	7f91                	lui	t6,0xfffe4
   13596:	0000                	unimp
   13598:	7f85                	lui	t6,0xfffe1
   1359a:	0000                	unimp
   1359c:	7f78                	flw	fa4,124(a4)
   1359e:	0000                	unimp
   135a0:	00007f6b          	0x7f6b
   135a4:	7f5d                	lui	t5,0xffff7
   135a6:	0000                	unimp
   135a8:	00007f4f          	fnmadd.s	ft10,ft0,ft0,ft0
   135ac:	7f40                	flw	fs0,60(a4)
   135ae:	0000                	unimp
   135b0:	7f30                	flw	fa2,120(a4)
   135b2:	0000                	unimp
   135b4:	7f20                	flw	fs0,120(a4)
   135b6:	0000                	unimp
   135b8:	00007f0f          	0x7f0f
   135bc:	7efd                	lui	t4,0xfffff
   135be:	0000                	unimp
   135c0:	00007eeb          	0x7eeb
   135c4:	7ed8                	flw	fa4,60(a3)
   135c6:	0000                	unimp
   135c8:	7ec5                	lui	t4,0xffff1
   135ca:	0000                	unimp
   135cc:	7eb1                	lui	t4,0xfffec
   135ce:	0000                	unimp
   135d0:	7e9d                	lui	t4,0xfffe7
   135d2:	0000                	unimp
   135d4:	7e88                	flw	fa0,56(a3)
   135d6:	0000                	unimp
   135d8:	7e72                	flw	ft8,60(sp)
   135da:	0000                	unimp
   135dc:	7e5c                	flw	fa5,60(a2)
   135de:	0000                	unimp
   135e0:	7e45                	lui	t3,0xffff1
   135e2:	0000                	unimp
   135e4:	7e2d                	lui	t3,0xfffeb
   135e6:	0000                	unimp
   135e8:	7e15                	lui	t3,0xfffe5
   135ea:	0000                	unimp
   135ec:	7dfc                	flw	fa5,124(a1)
   135ee:	0000                	unimp
   135f0:	00007de3          	bgeu	zero,zero,13e0a <__global_pointer$+0x42>
   135f4:	7dc9                	lui	s11,0xffff2
   135f6:	0000                	unimp
   135f8:	00007daf          	0x7daf
   135fc:	00007d93          	andi	s11,zero,0
   13600:	7d78                	flw	fa4,124(a0)
   13602:	0000                	unimp
   13604:	00007d5b          	0x7d5b
   13608:	00007d3f 00007d21 	0x7d2100007d3f
   13610:	00007d03          	0x7d03
   13614:	7ce4                	flw	fs1,124(s1)
   13616:	0000                	unimp
   13618:	7cc5                	lui	s9,0xffff1
   1361a:	0000                	unimp
   1361c:	7ca5                	lui	s9,0xfffe9
   1361e:	0000                	unimp
   13620:	7c85                	lui	s9,0xfffe1
   13622:	0000                	unimp
   13624:	7c64                	flw	fs1,124(s0)
   13626:	0000                	unimp
   13628:	7c42                	flw	fs8,48(sp)
   1362a:	0000                	unimp
   1362c:	7c20                	flw	fs0,120(s0)
   1362e:	0000                	unimp
   13630:	7bfd                	lui	s7,0xfffff
   13632:	0000                	unimp
   13634:	7bda                	flw	fs7,180(sp)
   13636:	0000                	unimp
   13638:	7bb6                	flw	fs7,108(sp)
   1363a:	0000                	unimp
   1363c:	7b92                	flw	fs7,36(sp)
   1363e:	0000                	unimp
   13640:	7b6d                	lui	s6,0xffffb
   13642:	0000                	unimp
   13644:	00007b47          	fmsub.s	fs6,ft0,ft0,ft0
   13648:	7b21                	lui	s6,0xfffe8
   1364a:	0000                	unimp
   1364c:	7afa                	flw	fs5,188(sp)
   1364e:	0000                	unimp
   13650:	00007ad3          	fadd.s	fs5,ft0,ft0
   13654:	00007aab          	0x7aab
   13658:	7a82                	flw	fs5,32(sp)
   1365a:	0000                	unimp
   1365c:	7a59                	lui	s4,0xffff6
   1365e:	0000                	unimp
   13660:	7a30                	flw	fa2,112(a2)
   13662:	0000                	unimp
   13664:	7a06                	flw	fs4,96(sp)
   13666:	0000                	unimp
   13668:	000079db          	0x79db
   1366c:	79b0                	flw	fa2,112(a1)
   1366e:	0000                	unimp
   13670:	7984                	flw	fs1,48(a1)
   13672:	0000                	unimp
   13674:	7958                	flw	fa4,52(a0)
   13676:	0000                	unimp
   13678:	0000792b          	0x792b
   1367c:	78fd                	lui	a7,0xfffff
   1367e:	0000                	unimp
   13680:	000078cf          	fnmadd.s	fa7,ft0,ft0,ft0
   13684:	78a1                	lui	a7,0xfffe8
   13686:	0000                	unimp
   13688:	7871                	lui	a6,0xffffc
   1368a:	0000                	unimp
   1368c:	7842                	flw	fa6,48(sp)
   1368e:	0000                	unimp
   13690:	7812                	flw	fa6,36(sp)
   13692:	0000                	unimp
   13694:	77e1                	lui	a5,0xffff8
   13696:	0000                	unimp
   13698:	77b0                	flw	fa2,104(a5)
   1369a:	0000                	unimp
   1369c:	777e                	flw	fa4,252(sp)
   1369e:	0000                	unimp
   136a0:	0000774b          	fnmsub.s	fa4,ft0,ft0,ft0
   136a4:	7718                	flw	fa4,40(a4)
   136a6:	0000                	unimp
   136a8:	76e5                	lui	a3,0xffff9
   136aa:	0000                	unimp
   136ac:	76b1                	lui	a3,0xfffec
   136ae:	0000                	unimp
   136b0:	767d                	lui	a2,0xfffff
   136b2:	0000                	unimp
   136b4:	7648                	flw	fa0,44(a2)
   136b6:	0000                	unimp
   136b8:	7612                	flw	fa2,36(sp)
   136ba:	0000                	unimp
   136bc:	75dc                	flw	fa5,44(a1)
   136be:	0000                	unimp
   136c0:	75a5                	lui	a1,0xfffe9
   136c2:	0000                	unimp
   136c4:	756e                	flw	fa0,248(sp)
   136c6:	0000                	unimp
   136c8:	00007537          	lui	a0,0x7
   136cc:	74ff                	0x74ff
   136ce:	0000                	unimp
   136d0:	74c6                	flw	fs1,112(sp)
   136d2:	0000                	unimp
   136d4:	748d                	lui	s1,0xfffe3
   136d6:	0000                	unimp
   136d8:	00007453          	fadd.s	fs0,ft0,ft0
   136dc:	7419                	lui	s0,0xfffe6
   136de:	0000                	unimp
   136e0:	73df 0000 73a3      	0x73a3000073df
   136e6:	0000                	unimp
   136e8:	7368                	flw	fa0,100(a4)
   136ea:	0000                	unimp
   136ec:	732c                	flw	fa1,96(a4)
   136ee:	0000                	unimp
   136f0:	000072ef          	jal	t0,1a6f0 <__BSS_END__+0x6128>
   136f4:	72b2                	flw	ft5,44(sp)
   136f6:	0000                	unimp
   136f8:	7274                	flw	fa3,100(a2)
   136fa:	0000                	unimp
   136fc:	7236                	flw	ft4,108(sp)
   136fe:	0000                	unimp
   13700:	71f8                	flw	fa4,100(a1)
   13702:	0000                	unimp
   13704:	71b9                	lui	gp,0xfffee
   13706:	0000                	unimp
   13708:	7179                	addi	sp,sp,-48
   1370a:	0000                	unimp
   1370c:	7139                	addi	sp,sp,-64
   1370e:	0000                	unimp
   13710:	70f9                	lui	ra,0xffffe
   13712:	0000                	unimp
   13714:	70b8                	flw	fa4,96(s1)
   13716:	0000                	unimp
   13718:	7076                	flw	ft0,124(sp)
   1371a:	0000                	unimp
   1371c:	7034                	flw	fa3,96(s0)
   1371e:	0000                	unimp
   13720:	6ff2                	flw	ft11,28(sp)
   13722:	0000                	unimp
   13724:	00006faf          	0x6faf
   13728:	6f6c                	flw	fa1,92(a4)
   1372a:	0000                	unimp
   1372c:	6f28                	flw	fa0,88(a4)
   1372e:	0000                	unimp
   13730:	6ee4                	flw	fs1,92(a3)
   13732:	0000                	unimp
   13734:	6e9f 0000 6e5a      	0x6e5a00006e9f
   1373a:	0000                	unimp
   1373c:	6e15                	lui	t3,0x5
   1373e:	0000                	unimp
   13740:	00006dcf          	fnmadd.s	fs11,ft0,ft0,ft0,unknown
   13744:	6d88                	flw	fa0,24(a1)
   13746:	0000                	unimp
   13748:	6d41                	lui	s10,0x10
   1374a:	0000                	unimp
   1374c:	6cfa                	flw	fs9,156(sp)
   1374e:	0000                	unimp
   13750:	6cb2                	flw	fs9,12(sp)
   13752:	0000                	unimp
   13754:	6c6a                	flw	fs8,152(sp)
   13756:	0000                	unimp
   13758:	6c21                	lui	s8,0x8
   1375a:	0000                	unimp
   1375c:	6bd8                	flw	fa4,20(a5)
   1375e:	0000                	unimp
   13760:	00006b8f          	0x6b8f
   13764:	6b45                	lui	s6,0x11
   13766:	0000                	unimp
   13768:	00006afb          	0x6afb
   1376c:	6ab0                	flw	fa2,80(a3)
   1376e:	0000                	unimp
   13770:	6a65                	lui	s4,0x19
   13772:	0000                	unimp
   13774:	6a1a                	flw	fs4,132(sp)
   13776:	0000                	unimp
   13778:	69ce                	flw	fs3,208(sp)
   1377a:	0000                	unimp
   1377c:	6981                	0x6981
   1377e:	0000                	unimp
   13780:	6935                	lui	s2,0xd
   13782:	0000                	unimp
   13784:	000068e7          	0x68e7
   13788:	689a                	flw	fa7,132(sp)
   1378a:	0000                	unimp
   1378c:	684c                	flw	fa1,20(s0)
   1378e:	0000                	unimp
   13790:	67fe                	flw	fa5,220(sp)
   13792:	0000                	unimp
   13794:	000067af          	0x67af
   13798:	6760                	flw	fs0,76(a4)
   1379a:	0000                	unimp
   1379c:	6711                	lui	a4,0x4
   1379e:	0000                	unimp
   137a0:	66c1                	lui	a3,0x10
   137a2:	0000                	unimp
   137a4:	6671                	lui	a2,0x1c
   137a6:	0000                	unimp
   137a8:	6620                	flw	fs0,72(a2)
   137aa:	0000                	unimp
   137ac:	000065cf          	fnmadd.s	fa1,ft0,ft0,ft0,unknown
   137b0:	657e                	flw	fa0,220(sp)
   137b2:	0000                	unimp
   137b4:	652c                	flw	fa1,72(a0)
   137b6:	0000                	unimp
   137b8:	64da                	flw	fs1,148(sp)
   137ba:	0000                	unimp
   137bc:	6488                	flw	fa0,8(s1)
   137be:	0000                	unimp
   137c0:	6435                	lui	s0,0xd
   137c2:	0000                	unimp
   137c4:	63e2                	flw	ft7,24(sp)
   137c6:	0000                	unimp
   137c8:	638e                	flw	ft7,192(sp)
   137ca:	0000                	unimp
   137cc:	0000633b          	0x633b
   137d0:	000062e7          	0x62e7
   137d4:	6292                	flw	ft5,4(sp)
   137d6:	0000                	unimp
   137d8:	623d                	lui	tp,0xf
   137da:	0000                	unimp
   137dc:	61e8                	flw	fa0,68(a1)
   137de:	0000                	unimp
   137e0:	00006193          	ori	gp,zero,0
   137e4:	613d                	addi	sp,sp,480
   137e6:	0000                	unimp
   137e8:	000060e7          	0x60e7
   137ec:	6091                	lui	ra,0x4
   137ee:	0000                	unimp
   137f0:	603a                	flw	ft0,140(sp)
   137f2:	0000                	unimp
   137f4:	00005fe3          	blez	zero,14012 <__global_pointer$+0x24a>
   137f8:	5f8c                	lw	a1,56(a5)
   137fa:	0000                	unimp
   137fc:	5f34                	lw	a3,120(a4)
   137fe:	0000                	unimp
   13800:	5edc                	lw	a5,60(a3)
   13802:	0000                	unimp
   13804:	5e84                	lw	s1,56(a3)
   13806:	0000                	unimp
   13808:	00005e2b          	0x5e2b
   1380c:	00005dd3          	fadd.s	fs11,ft0,ft0,unknown
   13810:	5d79                	li	s10,-2
   13812:	0000                	unimp
   13814:	5d20                	lw	s0,120(a0)
   13816:	0000                	unimp
   13818:	5cc6                	lw	s9,112(sp)
   1381a:	0000                	unimp
   1381c:	5c6c                	lw	a1,124(s0)
   1381e:	0000                	unimp
   13820:	5c12                	lw	s8,36(sp)
   13822:	0000                	unimp
   13824:	5bb8                	lw	a4,112(a5)
   13826:	0000                	unimp
   13828:	5b5d                	li	s6,-9
   1382a:	0000                	unimp
   1382c:	5b02                	lw	s6,32(sp)
   1382e:	0000                	unimp
   13830:	00005aa7          	0x5aa7
   13834:	00005a4b          	fnmsub.s	fs4,ft0,ft0,ft0,unknown
   13838:	000059ef          	jal	s3,18838 <__BSS_END__+0x4270>
   1383c:	00005993          	srli	s3,zero,0x0
   13840:	00005937          	lui	s2,0x5
   13844:	000058db          	0x58db
   13848:	587e                	lw	a6,252(sp)
   1384a:	0000                	unimp
   1384c:	5821                	li	a6,-24
   1384e:	0000                	unimp
   13850:	57c4                	lw	s1,44(a5)
   13852:	0000                	unimp
   13854:	5766                	lw	a4,120(sp)
   13856:	0000                	unimp
   13858:	5709                	li	a4,-30
   1385a:	0000                	unimp
   1385c:	000056ab          	0x56ab
   13860:	564c                	lw	a1,44(a2)
   13862:	0000                	unimp
   13864:	55ee                	lw	a1,248(sp)
   13866:	0000                	unimp
   13868:	5590                	lw	a2,40(a1)
   1386a:	0000                	unimp
   1386c:	5531                	li	a0,-20
   1386e:	0000                	unimp
   13870:	54d2                	lw	s1,52(sp)
   13872:	0000                	unimp
   13874:	00005473          	csrrwi	s0,ustatus,0
   13878:	00005413          	srli	s0,zero,0x0
   1387c:	53b4                	lw	a3,96(a5)
   1387e:	0000                	unimp
   13880:	5354                	lw	a3,36(a4)
   13882:	0000                	unimp
   13884:	52f4                	lw	a3,100(a3)
   13886:	0000                	unimp
   13888:	5294                	lw	a3,32(a3)
   1388a:	0000                	unimp
   1388c:	5234                	lw	a3,96(a2)
   1388e:	0000                	unimp
   13890:	000051d3          	fadd.s	ft3,ft0,ft0,unknown
   13894:	00005173          	csrrwi	sp,ustatus,0
   13898:	5112                	lw	sp,36(sp)
   1389a:	0000                	unimp
   1389c:	50b1                	li	ra,-20
   1389e:	0000                	unimp
   138a0:	5050                	lw	a2,36(s0)
   138a2:	0000                	unimp
   138a4:	4fee                	lw	t6,216(sp)
   138a6:	0000                	unimp
   138a8:	4f8d                	li	t6,3
   138aa:	0000                	unimp
   138ac:	00004f2b          	0x4f2b
   138b0:	4eca                	lw	t4,144(sp)
   138b2:	0000                	unimp
   138b4:	4e68                	lw	a0,92(a2)
   138b6:	0000                	unimp
   138b8:	4e06                	lw	t3,64(sp)
   138ba:	0000                	unimp
   138bc:	4da4                	lw	s1,88(a1)
   138be:	0000                	unimp
   138c0:	4d41                	li	s10,16
   138c2:	0000                	unimp
   138c4:	4cdf 0000 4c7c      	0x4c7c00004cdf
   138ca:	0000                	unimp
   138cc:	4c1a                	lw	s8,132(sp)
   138ce:	0000                	unimp
   138d0:	00004bb7          	lui	s7,0x4
   138d4:	4b54                	lw	a3,20(a4)
   138d6:	0000                	unimp
   138d8:	4af1                	li	s5,28
   138da:	0000                	unimp
   138dc:	4a8e                	lw	s5,192(sp)
   138de:	0000                	unimp
   138e0:	00004a2b          	0x4a2b
   138e4:	000049c7          	fmsub.s	fs3,ft0,ft0,ft0,rmm
   138e8:	4964                	lw	s1,84(a0)
   138ea:	0000                	unimp
   138ec:	4901                	li	s2,0
   138ee:	0000                	unimp
   138f0:	489d                	li	a7,7
   138f2:	0000                	unimp
   138f4:	4839                	li	a6,14
   138f6:	0000                	unimp
   138f8:	47d6                	lw	a5,84(sp)
   138fa:	0000                	unimp
   138fc:	4772                	lw	a4,28(sp)
   138fe:	0000                	unimp
   13900:	470e                	lw	a4,192(sp)
   13902:	0000                	unimp
   13904:	46aa                	lw	a3,136(sp)
   13906:	0000                	unimp
   13908:	4646                	lw	a2,80(sp)
   1390a:	0000                	unimp
   1390c:	45e2                	lw	a1,24(sp)
   1390e:	0000                	unimp
   13910:	457e                	lw	a0,220(sp)
   13912:	0000                	unimp
   13914:	451a                	lw	a0,132(sp)
   13916:	0000                	unimp
   13918:	44b5                	li	s1,13
   1391a:	0000                	unimp
   1391c:	4451                	li	s0,20
   1391e:	0000                	unimp
   13920:	43ed                	li	t2,27
   13922:	0000                	unimp
   13924:	4388                	lw	a0,0(a5)
   13926:	0000                	unimp
   13928:	4324                	lw	s1,64(a4)
   1392a:	0000                	unimp
   1392c:	42c0                	lw	s0,4(a3)
   1392e:	0000                	unimp
   13930:	0000425b          	0x425b
   13934:	000041f7          	0x41f7
   13938:	4192                	lw	gp,4(sp)
   1393a:	0000                	unimp
   1393c:	412e                	lw	sp,200(sp)
   1393e:	0000                	unimp
   13940:	40c9                	li	ra,18
   13942:	0000                	unimp
   13944:	4065                	c.li	zero,25
   13946:	0000                	unimp
   13948:	4000                	lw	s0,0(s0)
   1394a:	0000                	unimp
   1394c:	00003f9b          	0x3f9b
   13950:	00003f37          	lui	t5,0x3
   13954:	3ed2                	fld	ft9,304(sp)
   13956:	0000                	unimp
   13958:	3e6e                	fld	ft8,248(sp)
   1395a:	0000                	unimp
   1395c:	3e09                	jal	1346e <sinewave+0x326>
   1395e:	0000                	unimp
   13960:	3da5                	jal	137d8 <sinewave+0x690>
   13962:	0000                	unimp
   13964:	3d40                	fld	fs0,184(a0)
   13966:	0000                	unimp
   13968:	3cdc                	fld	fa5,184(s1)
   1396a:	0000                	unimp
   1396c:	3c78                	fld	fa4,248(s0)
   1396e:	0000                	unimp
   13970:	00003c13          	sltiu	s8,zero,0
   13974:	00003baf          	0x3baf
   13978:	00003b4b          	fnmsub.s	fs6,ft0,ft0,ft0,rup
   1397c:	3ae6                	fld	fs5,120(sp)
   1397e:	0000                	unimp
   13980:	3a82                	fld	fs5,32(sp)
   13982:	0000                	unimp
   13984:	3a1e                	fld	fs4,480(sp)
   13986:	0000                	unimp
   13988:	39ba                	fld	fs3,424(sp)
   1398a:	0000                	unimp
   1398c:	3956                	fld	fs2,368(sp)
   1398e:	0000                	unimp
   13990:	38f2                	fld	fa7,312(sp)
   13992:	0000                	unimp
   13994:	388e                	fld	fa7,224(sp)
   13996:	0000                	unimp
   13998:	382a                	fld	fa6,168(sp)
   1399a:	0000                	unimp
   1399c:	000037c7          	fmsub.s	fa5,ft0,ft0,ft0,rup
   139a0:	00003763          	0x3763
   139a4:	36ff                	0x36ff
   139a6:	0000                	unimp
   139a8:	369c                	fld	fa5,40(a3)
   139aa:	0000                	unimp
   139ac:	3639                	jal	134ba <sinewave+0x372>
   139ae:	0000                	unimp
   139b0:	35d5                	jal	13894 <sinewave+0x74c>
   139b2:	0000                	unimp
   139b4:	3572                	fld	fa0,312(sp)
   139b6:	0000                	unimp
   139b8:	0000350f          	0x350f
   139bc:	34ac                	fld	fa1,104(s1)
   139be:	0000                	unimp
   139c0:	3449                	jal	13442 <sinewave+0x2fa>
   139c2:	0000                	unimp
   139c4:	33e6                	fld	ft7,120(sp)
   139c6:	0000                	unimp
   139c8:	3384                	fld	fs1,32(a5)
   139ca:	0000                	unimp
   139cc:	3321                	jal	136d4 <sinewave+0x58c>
   139ce:	0000                	unimp
   139d0:	000032bf 0000325c 	0x325c000032bf
   139d8:	31fa                	fld	ft3,440(sp)
   139da:	0000                	unimp
   139dc:	3198                	fld	fa4,32(a1)
   139de:	0000                	unimp
   139e0:	3136                	fld	ft2,360(sp)
   139e2:	0000                	unimp
   139e4:	30d5                	jal	132c8 <sinewave+0x180>
   139e6:	0000                	unimp
   139e8:	00003073          	csrc	ustatus,zero
   139ec:	3012                	fld	ft0,288(sp)
   139ee:	0000                	unimp
   139f0:	2fb0                	fld	fa2,88(a5)
   139f2:	0000                	unimp
   139f4:	00002f4f          	fnmadd.s	ft10,ft0,ft0,ft0,rdn
   139f8:	2eee                	fld	ft9,216(sp)
   139fa:	0000                	unimp
   139fc:	2e8d                	jal	13d6e <sinewave+0xc26>
   139fe:	0000                	unimp
   13a00:	2e2d                	jal	13d3a <sinewave+0xbf2>
   13a02:	0000                	unimp
   13a04:	2dcc                	fld	fa1,152(a1)
   13a06:	0000                	unimp
   13a08:	2d6c                	fld	fa1,216(a0)
   13a0a:	0000                	unimp
   13a0c:	2d0c                	fld	fa1,24(a0)
   13a0e:	0000                	unimp
   13a10:	2cac                	fld	fa1,88(s1)
   13a12:	0000                	unimp
   13a14:	2c4c                	fld	fa1,152(s0)
   13a16:	0000                	unimp
   13a18:	2bed                	jal	14012 <__global_pointer$+0x24a>
   13a1a:	0000                	unimp
   13a1c:	2b8d                	jal	13f8e <__global_pointer$+0x1c6>
   13a1e:	0000                	unimp
   13a20:	2b2e                	fld	fs6,200(sp)
   13a22:	0000                	unimp
   13a24:	00002acf          	fnmadd.s	fs5,ft0,ft0,ft0,rdn
   13a28:	2a70                	fld	fa2,208(a2)
   13a2a:	0000                	unimp
   13a2c:	2a12                	fld	fs4,256(sp)
   13a2e:	0000                	unimp
   13a30:	29b4                	fld	fa3,80(a1)
   13a32:	0000                	unimp
   13a34:	2955                	jal	13ee8 <__global_pointer$+0x120>
   13a36:	0000                	unimp
   13a38:	000028f7          	0x28f7
   13a3c:	289a                	fld	fa7,384(sp)
   13a3e:	0000                	unimp
   13a40:	283c                	fld	fa5,80(s0)
   13a42:	0000                	unimp
   13a44:	27df 0000 2782      	0x2782000027df
   13a4a:	0000                	unimp
   13a4c:	2725                	jal	14174 <impure_data+0x1c>
   13a4e:	0000                	unimp
   13a50:	26c9                	jal	13e12 <__global_pointer$+0x4a>
   13a52:	0000                	unimp
   13a54:	266d                	jal	13dfe <__global_pointer$+0x36>
   13a56:	0000                	unimp
   13a58:	2611                	jal	13d5c <sinewave+0xc14>
   13a5a:	0000                	unimp
   13a5c:	25b5                	jal	140c8 <__global_pointer$+0x300>
   13a5e:	0000                	unimp
   13a60:	2559                	jal	140e6 <__global_pointer$+0x31e>
   13a62:	0000                	unimp
   13a64:	24fe                	fld	fs1,472(sp)
   13a66:	0000                	unimp
   13a68:	000024a3          	sw	zero,9(zero) # 9 <main-0x1006b>
   13a6c:	2448                	fld	fa0,136(s0)
   13a6e:	0000                	unimp
   13a70:	23ee                	fld	ft7,216(sp)
   13a72:	0000                	unimp
   13a74:	2394                	fld	fa3,0(a5)
   13a76:	0000                	unimp
   13a78:	233a                	fld	ft6,392(sp)
   13a7a:	0000                	unimp
   13a7c:	22e0                	fld	fs0,192(a3)
   13a7e:	0000                	unimp
   13a80:	00002287          	flw	ft5,0(zero) # 0 <main-0x10074>
   13a84:	222d                	jal	13bae <sinewave+0xa66>
   13a86:	0000                	unimp
   13a88:	21d5                	jal	13f6c <__global_pointer$+0x1a4>
   13a8a:	0000                	unimp
   13a8c:	217c                	fld	fa5,192(a0)
   13a8e:	0000                	unimp
   13a90:	2124                	fld	fs1,64(a0)
   13a92:	0000                	unimp
   13a94:	20cc                	fld	fa1,128(s1)
   13a96:	0000                	unimp
   13a98:	2074                	fld	fa3,192(s0)
   13a9a:	0000                	unimp
   13a9c:	201d                	jal	13ac2 <sinewave+0x97a>
   13a9e:	0000                	unimp
   13aa0:	1fc6                	slli	t6,t6,0x31
   13aa2:	0000                	unimp
   13aa4:	00001f6f          	jal	t5,14aa4 <__BSS_END__+0x4dc>
   13aa8:	1f19                	addi	t5,t5,-26
   13aaa:	0000                	unimp
   13aac:	00001ec3          	fmadd.s	ft9,ft0,ft0,ft0,rtz
   13ab0:	1e6d                	addi	t3,t3,-5
   13ab2:	0000                	unimp
   13ab4:	1e18                	addi	a4,sp,816
   13ab6:	0000                	unimp
   13ab8:	00001dc3          	fmadd.s	fs11,ft0,ft0,ft0,rtz
   13abc:	1d6e                	slli	s10,s10,0x3b
   13abe:	0000                	unimp
   13ac0:	1d19                	addi	s10,s10,-26
   13ac2:	0000                	unimp
   13ac4:	1cc5                	addi	s9,s9,-15
   13ac6:	0000                	unimp
   13ac8:	1c72                	slli	s8,s8,0x3c
   13aca:	0000                	unimp
   13acc:	1c1e                	slli	s8,s8,0x27
   13ace:	0000                	unimp
   13ad0:	00001bcb          	fnmsub.s	fs7,ft0,ft0,ft0,rtz
   13ad4:	1b78                	addi	a4,sp,444
   13ad6:	0000                	unimp
   13ad8:	1b26                	slli	s6,s6,0x29
   13ada:	0000                	unimp
   13adc:	1ad4                	addi	a3,sp,372
   13ade:	0000                	unimp
   13ae0:	1a82                	slli	s5,s5,0x20
   13ae2:	0000                	unimp
   13ae4:	1a31                	addi	s4,s4,-20
   13ae6:	0000                	unimp
   13ae8:	19e0                	addi	s0,sp,252
   13aea:	0000                	unimp
   13aec:	0000198f          	0x198f
   13af0:	0000193f 000018ef 	0x18ef0000193f
   13af8:	18a0                	addi	s0,sp,120
   13afa:	0000                	unimp
   13afc:	1851                	addi	a6,a6,-12
   13afe:	0000                	unimp
   13b00:	1802                	slli	a6,a6,0x20
   13b02:	0000                	unimp
   13b04:	17b4                	addi	a3,sp,1000
   13b06:	0000                	unimp
   13b08:	1766                	slli	a4,a4,0x39
   13b0a:	0000                	unimp
   13b0c:	1719                	addi	a4,a4,-26
   13b0e:	0000                	unimp
   13b10:	000016cb          	fnmsub.s	fa3,ft0,ft0,ft0,rtz
   13b14:	167f                	0x167f
   13b16:	0000                	unimp
   13b18:	1632                	slli	a2,a2,0x2c
   13b1a:	0000                	unimp
   13b1c:	15e6                	slli	a1,a1,0x39
   13b1e:	0000                	unimp
   13b20:	0000159b          	0x159b
   13b24:	1550                	addi	a2,sp,676
   13b26:	0000                	unimp
   13b28:	1505                	addi	a0,a0,-31
   13b2a:	0000                	unimp
   13b2c:	000014bb          	0x14bb
   13b30:	1471                	addi	s0,s0,-4
   13b32:	0000                	unimp
   13b34:	1428                	addi	a0,sp,552
   13b36:	0000                	unimp
   13b38:	13df 0000 1396      	0x1396000013df
   13b3e:	0000                	unimp
   13b40:	134e                	slli	t1,t1,0x33
   13b42:	0000                	unimp
   13b44:	1306                	slli	t1,t1,0x21
   13b46:	0000                	unimp
   13b48:	000012bf 00001278 	0x1278000012bf
   13b50:	1231                	addi	tp,tp,-20
   13b52:	0000                	unimp
   13b54:	000011eb          	0x11eb
   13b58:	11a6                	slli	gp,gp,0x29
   13b5a:	0000                	unimp
   13b5c:	1161                	addi	sp,sp,-8
   13b5e:	0000                	unimp
   13b60:	111c                	addi	a5,sp,160
   13b62:	0000                	unimp
   13b64:	10d8                	addi	a4,sp,100
   13b66:	0000                	unimp
   13b68:	1094                	addi	a3,sp,96
   13b6a:	0000                	unimp
   13b6c:	1051                	c.nop	-12
   13b6e:	0000                	unimp
   13b70:	100e                	c.slli	zero,0x23
   13b72:	0000                	unimp
   13b74:	0fcc                	addi	a1,sp,980
   13b76:	0000                	unimp
   13b78:	0f8a                	slli	t6,t6,0x2
   13b7a:	0000                	unimp
   13b7c:	0f48                	addi	a0,sp,916
   13b7e:	0000                	unimp
   13b80:	00000f07          	0xf07
   13b84:	00000ec7          	fmsub.s	ft9,ft0,ft0,ft0,rne
   13b88:	00000e87          	0xe87
   13b8c:	00000e47          	fmsub.s	ft8,ft0,ft0,ft0,rne
   13b90:	0e08                	addi	a0,sp,784
   13b92:	0000                	unimp
   13b94:	0dca                	slli	s11,s11,0x12
   13b96:	0000                	unimp
   13b98:	0d8c                	addi	a1,sp,720
   13b9a:	0000                	unimp
   13b9c:	0d4e                	slli	s10,s10,0x13
   13b9e:	0000                	unimp
   13ba0:	0d11                	addi	s10,s10,4
   13ba2:	0000                	unimp
   13ba4:	0cd4                	addi	a3,sp,596
   13ba6:	0000                	unimp
   13ba8:	0c98                	addi	a4,sp,592
   13baa:	0000                	unimp
   13bac:	0c5d                	addi	s8,s8,23
   13bae:	0000                	unimp
   13bb0:	0c21                	addi	s8,s8,8
   13bb2:	0000                	unimp
   13bb4:	00000be7          	jalr	s7,zero # 0 <main-0x10074>
   13bb8:	0bad                	addi	s7,s7,11
   13bba:	0000                	unimp
   13bbc:	00000b73          	0xb73
   13bc0:	0b3a                	slli	s6,s6,0xe
   13bc2:	0000                	unimp
   13bc4:	0b01                	addi	s6,s6,0
   13bc6:	0000                	unimp
   13bc8:	0ac9                	addi	s5,s5,18
   13bca:	0000                	unimp
   13bcc:	0a92                	slli	s5,s5,0x4
   13bce:	0000                	unimp
   13bd0:	00000a5b          	0xa5b
   13bd4:	0a24                	addi	s1,sp,280
   13bd6:	0000                	unimp
   13bd8:	09ee                	slli	s3,s3,0x1b
   13bda:	0000                	unimp
   13bdc:	09b8                	addi	a4,sp,216
   13bde:	0000                	unimp
   13be0:	00000983          	lb	s3,0(zero) # 0 <main-0x10074>
   13be4:	0000094f          	fnmadd.s	fs2,ft0,ft0,ft0,rne
   13be8:	0000091b          	0x91b
   13bec:	08e8                	addi	a0,sp,92
   13bee:	0000                	unimp
   13bf0:	08b5                	addi	a7,a7,13
   13bf2:	0000                	unimp
   13bf4:	0882                	c.slli64	a7
   13bf6:	0000                	unimp
   13bf8:	0850                	addi	a2,sp,20
   13bfa:	0000                	unimp
   13bfc:	081f 0000 07ee      	0x7ee0000081f
   13c02:	0000                	unimp
   13c04:	07be                	slli	a5,a5,0xf
   13c06:	0000                	unimp
   13c08:	0000078f          	0x78f
   13c0c:	075f 0000 0731      	0x7310000075f
   13c12:	0000                	unimp
   13c14:	00000703          	lb	a4,0(zero) # 0 <main-0x10074>
   13c18:	06d5                	addi	a3,a3,21
   13c1a:	0000                	unimp
   13c1c:	06a8                	addi	a0,sp,840
   13c1e:	0000                	unimp
   13c20:	067c                	addi	a5,sp,780
   13c22:	0000                	unimp
   13c24:	0650                	addi	a2,sp,772
   13c26:	0000                	unimp
   13c28:	0625                	addi	a2,a2,9
   13c2a:	0000                	unimp
   13c2c:	05fa                	slli	a1,a1,0x1e
   13c2e:	0000                	unimp
   13c30:	05d0                	addi	a2,sp,708
   13c32:	0000                	unimp
   13c34:	000005a7          	0x5a7
   13c38:	057e                	slli	a0,a0,0x1f
   13c3a:	0000                	unimp
   13c3c:	0555                	addi	a0,a0,21
   13c3e:	0000                	unimp
   13c40:	052d                	addi	a0,a0,11
   13c42:	0000                	unimp
   13c44:	0506                	slli	a0,a0,0x1
   13c46:	0000                	unimp
   13c48:	04df 0000 04b9      	0x4b9000004df
   13c4e:	0000                	unimp
   13c50:	00000493          	li	s1,0
   13c54:	046e                	slli	s0,s0,0x1b
   13c56:	0000                	unimp
   13c58:	044a                	slli	s0,s0,0x12
   13c5a:	0000                	unimp
   13c5c:	0426                	slli	s0,s0,0x9
   13c5e:	0000                	unimp
   13c60:	00000403          	lb	s0,0(zero) # 0 <main-0x10074>
   13c64:	03e0                	addi	s0,sp,460
   13c66:	0000                	unimp
   13c68:	03be                	slli	t2,t2,0xf
   13c6a:	0000                	unimp
   13c6c:	039c                	addi	a5,sp,448
   13c6e:	0000                	unimp
   13c70:	0000037b          	0x37b
   13c74:	0000035b          	0x35b
   13c78:	0000033b          	0x33b
   13c7c:	031c                	addi	a5,sp,384
   13c7e:	0000                	unimp
   13c80:	02fd                	addi	t0,t0,31
   13c82:	0000                	unimp
   13c84:	02df 0000 02c1      	0x2c1000002df
   13c8a:	0000                	unimp
   13c8c:	02a5                	addi	t0,t0,9
   13c8e:	0000                	unimp
   13c90:	0288                	addi	a0,sp,320
   13c92:	0000                	unimp
   13c94:	026d                	addi	tp,tp,27
   13c96:	0000                	unimp
   13c98:	0251                	addi	tp,tp,20
   13c9a:	0000                	unimp
   13c9c:	00000237          	lui	tp,0x0
   13ca0:	021d                	addi	tp,tp,7
   13ca2:	0000                	unimp
   13ca4:	0204                	addi	s1,sp,256
   13ca6:	0000                	unimp
   13ca8:	000001eb          	0x1eb
   13cac:	000001d3          	fadd.s	ft3,ft0,ft0,rne
   13cb0:	000001bb          	0x1bb
   13cb4:	01a4                	addi	s1,sp,200
   13cb6:	0000                	unimp
   13cb8:	018e                	slli	gp,gp,0x3
   13cba:	0000                	unimp
   13cbc:	0178                	addi	a4,sp,140
   13cbe:	0000                	unimp
   13cc0:	00000163          	beqz	zero,13cc2 <sinewave+0xb7a>
   13cc4:	0000014f          	fnmadd.s	ft2,ft0,ft0,ft0,rne
   13cc8:	0000013b          	0x13b
   13ccc:	0128                	addi	a0,sp,136
   13cce:	0000                	unimp
   13cd0:	0115                	addi	sp,sp,5
   13cd2:	0000                	unimp
   13cd4:	00000103          	lb	sp,0(zero) # 0 <main-0x10074>
   13cd8:	00f1                	addi	ra,ra,28
   13cda:	0000                	unimp
   13cdc:	00e0                	addi	s0,sp,76
   13cde:	0000                	unimp
   13ce0:	00d0                	addi	a2,sp,68
   13ce2:	0000                	unimp
   13ce4:	00c0                	addi	s0,sp,68
   13ce6:	0000                	unimp
   13ce8:	00b1                	addi	ra,ra,12
   13cea:	0000                	unimp
   13cec:	000000a3          	sb	zero,1(zero) # 1 <main-0x10073>
   13cf0:	0095                	addi	ra,ra,5
   13cf2:	0000                	unimp
   13cf4:	0088                	addi	a0,sp,64
   13cf6:	0000                	unimp
   13cf8:	0000007b          	0x7b
   13cfc:	0000006f          	j	13cfc <sinewave+0xbb4>
   13d00:	0064                	addi	s1,sp,12
   13d02:	0000                	unimp
   13d04:	0059                	c.nop	22
   13d06:	0000                	unimp
   13d08:	0000004f          	fnmadd.s	ft0,ft0,ft0,ft0,rne
   13d0c:	0045                	c.nop	17
   13d0e:	0000                	unimp
   13d10:	003c                	addi	a5,sp,8
   13d12:	0000                	unimp
   13d14:	0034                	addi	a3,sp,8
   13d16:	0000                	unimp
   13d18:	002c                	addi	a1,sp,8
   13d1a:	0000                	unimp
   13d1c:	0025                	c.nop	9
   13d1e:	0000                	unimp
   13d20:	001f 0000 0019      	0x190000001f
   13d26:	0000                	unimp
   13d28:	0014                	0x14
   13d2a:	0000                	unimp
   13d2c:	0000000f          	fence	unknown,unknown
   13d30:	0000000b          	0xb
   13d34:	0008                	0x8
   13d36:	0000                	unimp
   13d38:	0005                	c.nop	1
   13d3a:	0000                	unimp
   13d3c:	00000003          	lb	zero,0(zero) # 0 <main-0x10074>
   13d40:	0001                	nop
	...
   13d4e:	0000                	unimp
   13d50:	0001                	nop
   13d52:	0000                	unimp
   13d54:	00000003          	lb	zero,0(zero) # 0 <main-0x10074>
   13d58:	0005                	c.nop	1
   13d5a:	0000                	unimp
   13d5c:	0008                	0x8
   13d5e:	0000                	unimp
   13d60:	0000000b          	0xb
   13d64:	0000000f          	fence	unknown,unknown
   13d68:	0014                	0x14
   13d6a:	0000                	unimp
   13d6c:	0019                	c.nop	6
   13d6e:	0000                	unimp
   13d70:	001f 0000 0025      	0x250000001f
   13d76:	0000                	unimp
   13d78:	002c                	addi	a1,sp,8
   13d7a:	0000                	unimp
   13d7c:	0034                	addi	a3,sp,8
   13d7e:	0000                	unimp
   13d80:	003c                	addi	a5,sp,8
   13d82:	0000                	unimp
   13d84:	0045                	c.nop	17
   13d86:	0000                	unimp
   13d88:	0000004f          	fnmadd.s	ft0,ft0,ft0,ft0,rne
   13d8c:	0059                	c.nop	22
   13d8e:	0000                	unimp
   13d90:	0064                	addi	s1,sp,12
   13d92:	0000                	unimp
   13d94:	0000006f          	j	13d94 <sinewave+0xc4c>
   13d98:	0000007b          	0x7b
   13d9c:	0088                	addi	a0,sp,64
   13d9e:	0000                	unimp
   13da0:	0095                	addi	ra,ra,5
   13da2:	0000                	unimp
   13da4:	000000a3          	sb	zero,1(zero) # 1 <main-0x10073>
   13da8:	00b1                	addi	ra,ra,12
   13daa:	0000                	unimp
   13dac:	00c0                	addi	s0,sp,68
   13dae:	0000                	unimp
   13db0:	00d0                	addi	a2,sp,68
   13db2:	0000                	unimp
   13db4:	00e0                	addi	s0,sp,76
   13db6:	0000                	unimp
   13db8:	00f1                	addi	ra,ra,28
   13dba:	0000                	unimp
   13dbc:	00000103          	lb	sp,0(zero) # 0 <main-0x10074>
   13dc0:	0115                	addi	sp,sp,5
   13dc2:	0000                	unimp
   13dc4:	0128                	addi	a0,sp,136
   13dc6:	0000                	unimp
   13dc8:	0000013b          	0x13b
   13dcc:	0000014f          	fnmadd.s	ft2,ft0,ft0,ft0,rne
   13dd0:	00000163          	beqz	zero,13dd2 <__global_pointer$+0xa>
   13dd4:	0178                	addi	a4,sp,140
   13dd6:	0000                	unimp
   13dd8:	018e                	slli	gp,gp,0x3
   13dda:	0000                	unimp
   13ddc:	01a4                	addi	s1,sp,200
   13dde:	0000                	unimp
   13de0:	000001bb          	0x1bb
   13de4:	000001d3          	fadd.s	ft3,ft0,ft0,rne
   13de8:	000001eb          	0x1eb
   13dec:	0204                	addi	s1,sp,256
   13dee:	0000                	unimp
   13df0:	021d                	addi	tp,tp,7
   13df2:	0000                	unimp
   13df4:	00000237          	lui	tp,0x0
   13df8:	0251                	addi	tp,tp,20
   13dfa:	0000                	unimp
   13dfc:	026d                	addi	tp,tp,27
   13dfe:	0000                	unimp
   13e00:	0288                	addi	a0,sp,320
   13e02:	0000                	unimp
   13e04:	02a5                	addi	t0,t0,9
   13e06:	0000                	unimp
   13e08:	02c1                	addi	t0,t0,16
   13e0a:	0000                	unimp
   13e0c:	02df 0000 02fd      	0x2fd000002df
   13e12:	0000                	unimp
   13e14:	031c                	addi	a5,sp,384
   13e16:	0000                	unimp
   13e18:	0000033b          	0x33b
   13e1c:	0000035b          	0x35b
   13e20:	0000037b          	0x37b
   13e24:	039c                	addi	a5,sp,448
   13e26:	0000                	unimp
   13e28:	03be                	slli	t2,t2,0xf
   13e2a:	0000                	unimp
   13e2c:	03e0                	addi	s0,sp,460
   13e2e:	0000                	unimp
   13e30:	00000403          	lb	s0,0(zero) # 0 <main-0x10074>
   13e34:	0426                	slli	s0,s0,0x9
   13e36:	0000                	unimp
   13e38:	044a                	slli	s0,s0,0x12
   13e3a:	0000                	unimp
   13e3c:	046e                	slli	s0,s0,0x1b
   13e3e:	0000                	unimp
   13e40:	00000493          	li	s1,0
   13e44:	04b9                	addi	s1,s1,14
   13e46:	0000                	unimp
   13e48:	04df 0000 0506      	0x506000004df
   13e4e:	0000                	unimp
   13e50:	052d                	addi	a0,a0,11
   13e52:	0000                	unimp
   13e54:	0555                	addi	a0,a0,21
   13e56:	0000                	unimp
   13e58:	057e                	slli	a0,a0,0x1f
   13e5a:	0000                	unimp
   13e5c:	000005a7          	0x5a7
   13e60:	05d0                	addi	a2,sp,708
   13e62:	0000                	unimp
   13e64:	05fa                	slli	a1,a1,0x1e
   13e66:	0000                	unimp
   13e68:	0625                	addi	a2,a2,9
   13e6a:	0000                	unimp
   13e6c:	0650                	addi	a2,sp,772
   13e6e:	0000                	unimp
   13e70:	067c                	addi	a5,sp,780
   13e72:	0000                	unimp
   13e74:	06a8                	addi	a0,sp,840
   13e76:	0000                	unimp
   13e78:	06d5                	addi	a3,a3,21
   13e7a:	0000                	unimp
   13e7c:	00000703          	lb	a4,0(zero) # 0 <main-0x10074>
   13e80:	0731                	addi	a4,a4,12
   13e82:	0000                	unimp
   13e84:	075f 0000 078f      	0x78f0000075f
   13e8a:	0000                	unimp
   13e8c:	07be                	slli	a5,a5,0xf
   13e8e:	0000                	unimp
   13e90:	07ee                	slli	a5,a5,0x1b
   13e92:	0000                	unimp
   13e94:	081f 0000 0850      	0x8500000081f
   13e9a:	0000                	unimp
   13e9c:	0882                	c.slli64	a7
   13e9e:	0000                	unimp
   13ea0:	08b5                	addi	a7,a7,13
   13ea2:	0000                	unimp
   13ea4:	08e8                	addi	a0,sp,92
   13ea6:	0000                	unimp
   13ea8:	0000091b          	0x91b
   13eac:	0000094f          	fnmadd.s	fs2,ft0,ft0,ft0,rne
   13eb0:	00000983          	lb	s3,0(zero) # 0 <main-0x10074>
   13eb4:	09b8                	addi	a4,sp,216
   13eb6:	0000                	unimp
   13eb8:	09ee                	slli	s3,s3,0x1b
   13eba:	0000                	unimp
   13ebc:	0a24                	addi	s1,sp,280
   13ebe:	0000                	unimp
   13ec0:	00000a5b          	0xa5b
   13ec4:	0a92                	slli	s5,s5,0x4
   13ec6:	0000                	unimp
   13ec8:	0ac9                	addi	s5,s5,18
   13eca:	0000                	unimp
   13ecc:	0b01                	addi	s6,s6,0
   13ece:	0000                	unimp
   13ed0:	0b3a                	slli	s6,s6,0xe
   13ed2:	0000                	unimp
   13ed4:	00000b73          	0xb73
   13ed8:	0bad                	addi	s7,s7,11
   13eda:	0000                	unimp
   13edc:	00000be7          	jalr	s7,zero # 0 <main-0x10074>
   13ee0:	0c21                	addi	s8,s8,8
   13ee2:	0000                	unimp
   13ee4:	0c5d                	addi	s8,s8,23
   13ee6:	0000                	unimp
   13ee8:	0c98                	addi	a4,sp,592
   13eea:	0000                	unimp
   13eec:	0cd4                	addi	a3,sp,596
   13eee:	0000                	unimp
   13ef0:	0d11                	addi	s10,s10,4
   13ef2:	0000                	unimp
   13ef4:	0d4e                	slli	s10,s10,0x13
   13ef6:	0000                	unimp
   13ef8:	0d8c                	addi	a1,sp,720
   13efa:	0000                	unimp
   13efc:	0dca                	slli	s11,s11,0x12
   13efe:	0000                	unimp
   13f00:	0e08                	addi	a0,sp,784
   13f02:	0000                	unimp
   13f04:	00000e47          	fmsub.s	ft8,ft0,ft0,ft0,rne
   13f08:	00000e87          	0xe87
   13f0c:	00000ec7          	fmsub.s	ft9,ft0,ft0,ft0,rne
   13f10:	00000f07          	0xf07
   13f14:	0f48                	addi	a0,sp,916
   13f16:	0000                	unimp
   13f18:	0f8a                	slli	t6,t6,0x2
   13f1a:	0000                	unimp
   13f1c:	0fcc                	addi	a1,sp,980
   13f1e:	0000                	unimp
   13f20:	100e                	c.slli	zero,0x23
   13f22:	0000                	unimp
   13f24:	1051                	c.nop	-12
   13f26:	0000                	unimp
   13f28:	1094                	addi	a3,sp,96
   13f2a:	0000                	unimp
   13f2c:	10d8                	addi	a4,sp,100
   13f2e:	0000                	unimp
   13f30:	111c                	addi	a5,sp,160
   13f32:	0000                	unimp
   13f34:	1161                	addi	sp,sp,-8
   13f36:	0000                	unimp
   13f38:	11a6                	slli	gp,gp,0x29
   13f3a:	0000                	unimp
   13f3c:	000011eb          	0x11eb
   13f40:	1231                	addi	tp,tp,-20
   13f42:	0000                	unimp
   13f44:	1278                	addi	a4,sp,300
   13f46:	0000                	unimp
   13f48:	000012bf 00001306 	0x1306000012bf
   13f50:	134e                	slli	t1,t1,0x33
   13f52:	0000                	unimp
   13f54:	1396                	slli	t2,t2,0x25
   13f56:	0000                	unimp
   13f58:	13df 0000 1428      	0x1428000013df
   13f5e:	0000                	unimp
   13f60:	1471                	addi	s0,s0,-4
   13f62:	0000                	unimp
   13f64:	000014bb          	0x14bb
   13f68:	1505                	addi	a0,a0,-31
   13f6a:	0000                	unimp
   13f6c:	1550                	addi	a2,sp,676
   13f6e:	0000                	unimp
   13f70:	0000159b          	0x159b
   13f74:	15e6                	slli	a1,a1,0x39
   13f76:	0000                	unimp
   13f78:	1632                	slli	a2,a2,0x2c
   13f7a:	0000                	unimp
   13f7c:	167f                	0x167f
   13f7e:	0000                	unimp
   13f80:	000016cb          	fnmsub.s	fa3,ft0,ft0,ft0,rtz
   13f84:	1719                	addi	a4,a4,-26
   13f86:	0000                	unimp
   13f88:	1766                	slli	a4,a4,0x39
   13f8a:	0000                	unimp
   13f8c:	17b4                	addi	a3,sp,1000
   13f8e:	0000                	unimp
   13f90:	1802                	slli	a6,a6,0x20
   13f92:	0000                	unimp
   13f94:	1851                	addi	a6,a6,-12
   13f96:	0000                	unimp
   13f98:	18a0                	addi	s0,sp,120
   13f9a:	0000                	unimp
   13f9c:	000018ef          	jal	a7,14f9c <__BSS_END__+0x9d4>
   13fa0:	0000193f 0000198f 	0x198f0000193f
   13fa8:	19e0                	addi	s0,sp,252
   13faa:	0000                	unimp
   13fac:	1a31                	addi	s4,s4,-20
   13fae:	0000                	unimp
   13fb0:	1a82                	slli	s5,s5,0x20
   13fb2:	0000                	unimp
   13fb4:	1ad4                	addi	a3,sp,372
   13fb6:	0000                	unimp
   13fb8:	1b26                	slli	s6,s6,0x29
   13fba:	0000                	unimp
   13fbc:	1b78                	addi	a4,sp,444
   13fbe:	0000                	unimp
   13fc0:	00001bcb          	fnmsub.s	fs7,ft0,ft0,ft0,rtz
   13fc4:	1c1e                	slli	s8,s8,0x27
   13fc6:	0000                	unimp
   13fc8:	1c72                	slli	s8,s8,0x3c
   13fca:	0000                	unimp
   13fcc:	1cc5                	addi	s9,s9,-15
   13fce:	0000                	unimp
   13fd0:	1d19                	addi	s10,s10,-26
   13fd2:	0000                	unimp
   13fd4:	1d6e                	slli	s10,s10,0x3b
   13fd6:	0000                	unimp
   13fd8:	00001dc3          	fmadd.s	fs11,ft0,ft0,ft0,rtz
   13fdc:	1e18                	addi	a4,sp,816
   13fde:	0000                	unimp
   13fe0:	1e6d                	addi	t3,t3,-5
   13fe2:	0000                	unimp
   13fe4:	00001ec3          	fmadd.s	ft9,ft0,ft0,ft0,rtz
   13fe8:	1f19                	addi	t5,t5,-26
   13fea:	0000                	unimp
   13fec:	00001f6f          	jal	t5,14fec <__BSS_END__+0xa24>
   13ff0:	1fc6                	slli	t6,t6,0x31
   13ff2:	0000                	unimp
   13ff4:	201d                	jal	1401a <__global_pointer$+0x252>
   13ff6:	0000                	unimp
   13ff8:	2074                	fld	fa3,192(s0)
   13ffa:	0000                	unimp
   13ffc:	20cc                	fld	fa1,128(s1)
   13ffe:	0000                	unimp
   14000:	2124                	fld	fs1,64(a0)
   14002:	0000                	unimp
   14004:	217c                	fld	fa5,192(a0)
   14006:	0000                	unimp
   14008:	21d5                	jal	144ec <impure_data+0x394>
   1400a:	0000                	unimp
   1400c:	222d                	jal	14136 <__global_pointer$+0x36e>
   1400e:	0000                	unimp
   14010:	00002287          	flw	ft5,0(zero) # 0 <main-0x10074>
   14014:	22e0                	fld	fs0,192(a3)
   14016:	0000                	unimp
   14018:	233a                	fld	ft6,392(sp)
   1401a:	0000                	unimp
   1401c:	2394                	fld	fa3,0(a5)
   1401e:	0000                	unimp
   14020:	23ee                	fld	ft7,216(sp)
   14022:	0000                	unimp
   14024:	2448                	fld	fa0,136(s0)
   14026:	0000                	unimp
   14028:	000024a3          	sw	zero,9(zero) # 9 <main-0x1006b>
   1402c:	24fe                	fld	fs1,472(sp)
   1402e:	0000                	unimp
   14030:	2559                	jal	146b6 <__BSS_END__+0xee>
   14032:	0000                	unimp
   14034:	25b5                	jal	146a0 <__BSS_END__+0xd8>
   14036:	0000                	unimp
   14038:	2611                	jal	1433c <impure_data+0x1e4>
   1403a:	0000                	unimp
   1403c:	266d                	jal	143e6 <impure_data+0x28e>
   1403e:	0000                	unimp
   14040:	26c9                	jal	14402 <impure_data+0x2aa>
   14042:	0000                	unimp
   14044:	2725                	jal	1476c <__BSS_END__+0x1a4>
   14046:	0000                	unimp
   14048:	2782                	fld	fa5,0(sp)
   1404a:	0000                	unimp
   1404c:	27df 0000 283c      	0x283c000027df
   14052:	0000                	unimp
   14054:	289a                	fld	fa7,384(sp)
   14056:	0000                	unimp
   14058:	000028f7          	0x28f7
   1405c:	2955                	jal	14510 <impure_data+0x3b8>
   1405e:	0000                	unimp
   14060:	29b4                	fld	fa3,80(a1)
   14062:	0000                	unimp
   14064:	2a12                	fld	fs4,256(sp)
   14066:	0000                	unimp
   14068:	2a70                	fld	fa2,208(a2)
   1406a:	0000                	unimp
   1406c:	00002acf          	fnmadd.s	fs5,ft0,ft0,ft0,rdn
   14070:	2b2e                	fld	fs6,200(sp)
   14072:	0000                	unimp
   14074:	2b8d                	jal	145e6 <__BSS_END__+0x1e>
   14076:	0000                	unimp
   14078:	2bed                	jal	14672 <__BSS_END__+0xaa>
   1407a:	0000                	unimp
   1407c:	2c4c                	fld	fa1,152(s0)
   1407e:	0000                	unimp
   14080:	2cac                	fld	fa1,88(s1)
   14082:	0000                	unimp
   14084:	2d0c                	fld	fa1,24(a0)
   14086:	0000                	unimp
   14088:	2d6c                	fld	fa1,216(a0)
   1408a:	0000                	unimp
   1408c:	2dcc                	fld	fa1,152(a1)
   1408e:	0000                	unimp
   14090:	2e2d                	jal	143ca <impure_data+0x272>
   14092:	0000                	unimp
   14094:	2e8d                	jal	14406 <impure_data+0x2ae>
   14096:	0000                	unimp
   14098:	2eee                	fld	ft9,216(sp)
   1409a:	0000                	unimp
   1409c:	00002f4f          	fnmadd.s	ft10,ft0,ft0,ft0,rdn
   140a0:	2fb0                	fld	fa2,88(a5)
   140a2:	0000                	unimp
   140a4:	3012                	fld	ft0,288(sp)
   140a6:	0000                	unimp
   140a8:	00003073          	csrc	ustatus,zero
   140ac:	30d5                	jal	13990 <sinewave+0x848>
   140ae:	0000                	unimp
   140b0:	3136                	fld	ft2,360(sp)
   140b2:	0000                	unimp
   140b4:	3198                	fld	fa4,32(a1)
   140b6:	0000                	unimp
   140b8:	31fa                	fld	ft3,440(sp)
   140ba:	0000                	unimp
   140bc:	325c                	fld	fa5,160(a2)
   140be:	0000                	unimp
   140c0:	000032bf 00003321 	0x3321000032bf
   140c8:	3384                	fld	fs1,32(a5)
   140ca:	0000                	unimp
   140cc:	33e6                	fld	ft7,120(sp)
   140ce:	0000                	unimp
   140d0:	3449                	jal	13b52 <sinewave+0xa0a>
   140d2:	0000                	unimp
   140d4:	34ac                	fld	fa1,104(s1)
   140d6:	0000                	unimp
   140d8:	0000350f          	0x350f
   140dc:	3572                	fld	fa0,312(sp)
   140de:	0000                	unimp
   140e0:	35d5                	jal	13fc4 <__global_pointer$+0x1fc>
   140e2:	0000                	unimp
   140e4:	3639                	jal	13bf2 <sinewave+0xaaa>
   140e6:	0000                	unimp
   140e8:	369c                	fld	fa5,40(a3)
   140ea:	0000                	unimp
   140ec:	36ff                	0x36ff
   140ee:	0000                	unimp
   140f0:	00003763          	0x3763
   140f4:	000037c7          	fmsub.s	fa5,ft0,ft0,ft0,rup
   140f8:	382a                	fld	fa6,168(sp)
   140fa:	0000                	unimp
   140fc:	388e                	fld	fa7,224(sp)
   140fe:	0000                	unimp
   14100:	38f2                	fld	fa7,312(sp)
   14102:	0000                	unimp
   14104:	3956                	fld	fs2,368(sp)
   14106:	0000                	unimp
   14108:	39ba                	fld	fs3,424(sp)
   1410a:	0000                	unimp
   1410c:	3a1e                	fld	fs4,480(sp)
   1410e:	0000                	unimp
   14110:	3a82                	fld	fs5,32(sp)
   14112:	0000                	unimp
   14114:	3ae6                	fld	fs5,120(sp)
   14116:	0000                	unimp
   14118:	00003b4b          	fnmsub.s	fs6,ft0,ft0,ft0,rup
   1411c:	00003baf          	0x3baf
   14120:	00003c13          	sltiu	s8,zero,0
   14124:	3c78                	fld	fa4,248(s0)
   14126:	0000                	unimp
   14128:	3cdc                	fld	fa5,184(s1)
   1412a:	0000                	unimp
   1412c:	3d40                	fld	fs0,184(a0)
   1412e:	0000                	unimp
   14130:	3da5                	jal	13fa8 <__global_pointer$+0x1e0>
   14132:	0000                	unimp
   14134:	3e09                	jal	13c46 <sinewave+0xafe>
   14136:	0000                	unimp
   14138:	3e6e                	fld	ft8,248(sp)
   1413a:	0000                	unimp
   1413c:	3ed2                	fld	ft9,304(sp)
   1413e:	0000                	unimp
   14140:	00003f37          	lui	t5,0x3
   14144:	00003f9b          	0x3f9b

00014148 <GraphicsFontStart>:
   14148:	e800                	fsw	fs0,16(s0)
   1414a:	1001                	c.nop	-32

0001414c <IO_GPUCommandFIFO>:
   1414c:	0000                	unimp
   1414e:	8000                	0x8000

00014150 <IO_AudioFIFO>:
   14150:	0020                	addi	s0,sp,8
   14152:	8000                	0x8000
   14154:	0000                	unimp
	...

00014158 <impure_data>:
   14158:	0000                	unimp
   1415a:	0000                	unimp
   1415c:	4444                	lw	s1,12(s0)
   1415e:	0001                	nop
   14160:	44ac                	lw	a1,72(s1)
   14162:	0001                	nop
   14164:	4514                	lw	a3,8(a0)
   14166:	0001                	nop
	...
   14200:	0001                	nop
   14202:	0000                	unimp
   14204:	0000                	unimp
   14206:	0000                	unimp
   14208:	330e                	fld	ft6,224(sp)
   1420a:	abcd                	j	147fc <__BSS_END__+0x234>
   1420c:	1234                	addi	a3,sp,296
   1420e:	e66d                	bnez	a2,142f8 <impure_data+0x1a0>
   14210:	deec                	sw	a1,124(a3)
   14212:	0005                	c.nop	1
   14214:	0000000b          	0xb
	...

Disassembly of section .got:

00014580 <.got>:
   14580:	ffff                	0xffff
   14582:	ffff                	0xffff
   14584:	0000                	unimp
	...

00014588 <_GLOBAL_OFFSET_TABLE_>:
   14588:	0000                	unimp
   1458a:	0000                	unimp
   1458c:	414c                	lw	a1,4(a0)
   1458e:	0001                	nop
   14590:	4148                	lw	a0,4(a0)
   14592:	0001                	nop
   14594:	45c4                	lw	s1,12(a1)
   14596:	0001                	nop
   14598:	4150                	lw	a2,4(a0)
   1459a:	0001                	nop
   1459c:	3148                	fld	fa0,160(a0)
   1459e:	0001                	nop

Disassembly of section .sdata:

000145a0 <_global_impure_ptr>:
   145a0:	4158                	lw	a4,4(a0)
   145a2:	0001                	nop

000145a4 <_impure_ptr>:
   145a4:	4158                	lw	a4,4(a0)
   145a6:	0001                	nop

Disassembly of section .bss:

000145a8 <completed.1>:
   145a8:	0000                	unimp
	...

000145ac <object.0>:
	...

000145c4 <font>:
   145c4:	0000                	unimp
	...

Disassembly of section .comment:

00000000 <.comment>:
   0:	3a434347          	fmsub.d	ft6,ft6,ft4,ft7,rmm
   4:	2820                	fld	fs0,80(s0)
   6:	29554e47          	fmsub.s	ft8,fa0,fs5,ft5,rmm
   a:	3120                	fld	fs0,96(a0)
   c:	2e30                	fld	fa2,88(a2)
   e:	2e32                	fld	ft8,264(sp)
  10:	0030                	addi	a2,sp,8

Disassembly of section .riscv.attributes:

00000000 <.riscv.attributes>:
   0:	2941                	jal	490 <main-0xfbe4>
   2:	0000                	unimp
   4:	7200                	flw	fs0,32(a2)
   6:	7369                	lui	t1,0xffffa
   8:	01007663          	bgeu	zero,a6,14 <main-0x10060>
   c:	001f 0000 1004      	0x10040000001f
  12:	7205                	lui	tp,0xfffe1
  14:	3376                	fld	ft6,376(sp)
  16:	6932                	flw	fs2,12(sp)
  18:	7032                	flw	ft0,44(sp)
  1a:	5f30                	lw	a2,120(a4)
  1c:	326d                	jal	fffff9c6 <__BSS_END__+0xfffeb3fe>
  1e:	3070                	fld	fa2,224(s0)
  20:	665f 7032 0030      	0x307032665f
  26:	0108                	addi	a0,sp,128
  28:	0b0a                	slli	s6,s6,0x2

Disassembly of section .debug_aranges:

00000000 <.debug_aranges>:
   0:	001c                	0x1c
   2:	0000                	unimp
   4:	0002                	c.slli64	zero
   6:	0000                	unimp
   8:	0000                	unimp
   a:	0004                	0x4
	...

Disassembly of section .debug_info:

00000000 <.debug_info>:
   0:	07ae                	slli	a5,a5,0xb
   2:	0000                	unimp
   4:	0004                	0x4
   6:	0000                	unimp
   8:	0000                	unimp
   a:	0104                	addi	s1,sp,128
   c:	0000008f          	0x8f
  10:	200c                	fld	fa1,0(s0)
  12:	0000                	unimp
  14:	0000                	unimp
  16:	0002                	c.slli64	zero
	...
  24:	0200                	addi	s0,sp,256
  26:	0708                	addi	a0,sp,896
  28:	0078                	addi	a4,sp,12
  2a:	0000                	unimp
  2c:	0402                	c.slli64	s0
  2e:	00008207          	0x8207
  32:	0300                	addi	s0,sp,384
  34:	0504                	addi	s1,sp,640
  36:	6e69                	lui	t3,0x1a
  38:	0074                	addi	a3,sp,12
  3a:	0802                	c.slli64	a6
  3c:	6a05                	lui	s4,0x1
  3e:	0000                	unimp
  40:	0200                	addi	s0,sp,256
  42:	0410                	addi	a2,sp,512
  44:	01f4                	addi	a3,sp,204
  46:	0000                	unimp
  48:	0102                	c.slli64	sp
  4a:	7506                	flw	fa0,96(sp)
  4c:	0001                	nop
  4e:	0200                	addi	s0,sp,256
  50:	0801                	addi	a6,a6,0
  52:	00000173          	0x173
  56:	0202                	c.slli64	tp
  58:	5605                	li	a2,-31
  5a:	0000                	unimp
  5c:	0200                	addi	s0,sp,256
  5e:	0702                	c.slli64	a4
  60:	01a6                	slli	gp,gp,0x9
  62:	0000                	unimp
  64:	0402                	c.slli64	s0
  66:	6f05                	lui	t5,0x1
  68:	0000                	unimp
  6a:	0200                	addi	s0,sp,256
  6c:	0704                	addi	s1,sp,896
  6e:	007d                	c.nop	31
  70:	0000                	unimp
  72:	0102                	c.slli64	sp
  74:	7c08                	flw	fa0,56(s0)
  76:	0001                	nop
  78:	0400                	addi	s0,sp,512
  7a:	0195                	addi	gp,gp,5
  7c:	0000                	unimp
  7e:	7b02                	flw	fs6,32(sp)
  80:	4f16                	lw	t5,68(sp)
  82:	0000                	unimp
  84:	0500                	addi	s0,sp,640
  86:	0079                	c.nop	30
  88:	0000                	unimp
  8a:	7204                	flw	fs1,32(a2)
  8c:	0002                	c.slli64	zero
  8e:	0200                	addi	s0,sp,256
  90:	0f80                	addi	s0,sp,976
  92:	00000033          	add	zero,zero,zero
  96:	7104                	flw	fs1,32(a0)
  98:	0002                	c.slli64	zero
  9a:	0200                	addi	s0,sp,256
  9c:	1681                	addi	a3,a3,-32
  9e:	002c                	addi	a1,sp,8
  a0:	0000                	unimp
  a2:	ba04                	fsd	fs1,48(a2)
  a4:	0001                	nop
  a6:	0200                	addi	s0,sp,256
  a8:	0f84                	addi	s1,sp,976
  aa:	003a                	c.slli	zero,0xe
  ac:	0000                	unimp
  ae:	b904                	fsd	fs1,48(a0)
  b0:	0001                	nop
  b2:	0200                	addi	s0,sp,256
  b4:	1685                	addi	a3,a3,-31
  b6:	0025                	c.nop	9
  b8:	0000                	unimp
  ba:	0402                	c.slli64	s0
  bc:	1a04                	addi	s1,sp,304
  be:	0000                	unimp
  c0:	0200                	addi	s0,sp,256
  c2:	0308                	addi	a0,sp,384
  c4:	0012                	c.slli	zero,0x4
  c6:	0000                	unimp
  c8:	0802                	c.slli64	a6
  ca:	f904                	fsw	fs1,48(a0)
  cc:	0001                	nop
  ce:	0200                	addi	s0,sp,256
  d0:	0310                	addi	a2,sp,384
  d2:	000001cb          	fnmsub.s	ft3,ft0,ft0,ft0,rne
  d6:	2002                	fld	ft0,0(sp)
  d8:	0001ec03          	0x1ec03
  dc:	0600                	addi	s0,sp,768
  de:	019d                	addi	gp,gp,7
  e0:	0000                	unimp
  e2:	0208                	addi	a0,sp,256
  e4:	01ed                	addi	gp,gp,27
  e6:	080a                	slli	a6,a6,0x2
  e8:	0001                	nop
  ea:	0700                	addi	s0,sp,896
  ec:	6f6c                	flw	fa1,92(a4)
  ee:	ed020077          	0xed020077
  f2:	1a01                	addi	s4,s4,-32
  f4:	008a                	slli	ra,ra,0x2
  f6:	0000                	unimp
  f8:	0800                	addi	s0,sp,16
  fa:	0164                	addi	s1,sp,140
  fc:	0000                	unimp
  fe:	ed02                	fsw	ft0,152(sp)
 100:	1f01                	addi	t5,t5,-32
 102:	008a                	slli	ra,ra,0x2
 104:	0000                	unimp
 106:	0004                	0x4
 108:	0809                	addi	a6,a6,2
 10a:	f402                	fsw	ft0,40(sp)
 10c:	0901                	addi	s2,s2,0
 10e:	012a                	slli	sp,sp,0xa
 110:	0000                	unimp
 112:	730a                	flw	ft6,160(sp)
 114:	0200                	addi	s0,sp,256
 116:	01f6                	slli	gp,gp,0x1d
 118:	0000dd13          	srli	s10,ra,0x0
 11c:	0a00                	addi	s0,sp,272
 11e:	6c6c                	flw	fa1,92(s0)
 120:	0200                	addi	s0,sp,256
 122:	a20a01f7          	0xa20a01f7
 126:	0000                	unimp
 128:	0000                	unimp
 12a:	0000000b          	0xb
 12e:	0200                	addi	s0,sp,256
 130:	01f8                	addi	a4,sp,204
 132:	00010803          	lb	a6,0(sp)
 136:	0500                	addi	s0,sp,640
 138:	012a                	slli	sp,sp,0xa
 13a:	0000                	unimp
 13c:	850c                	0x850c
 13e:	0000                	unimp
 140:	4c00                	lw	s0,24(s0)
 142:	0001                	nop
 144:	0d00                	addi	s0,sp,656
 146:	002c                	addi	a1,sp,8
 148:	0000                	unimp
 14a:	00ff                	0xff
 14c:	3c05                	jal	fffffb7c <__BSS_END__+0xfffeb5b4>
 14e:	0001                	nop
 150:	0e00                	addi	s0,sp,784
 152:	0169                	addi	sp,sp,26
 154:	0000                	unimp
 156:	0202                	c.slli64	tp
 158:	1602                	slli	a2,a2,0x20
 15a:	014c                	addi	a1,sp,132
 15c:	0000                	unimp
 15e:	0000080f          	0x80f
 162:	0100                	addi	s0,sp,128
 164:	0526                	slli	a0,a0,0x9
 166:	ae01                	j	476 <main-0xfbfe>
	...
 170:	0000                	unimp
 172:	0100                	addi	s0,sp,128
 174:	3a9c                	fld	fa5,48(a3)
 176:	0004                	0x4
 178:	1000                	addi	s0,sp,32
 17a:	006e                	c.slli	zero,0x1b
 17c:	2601                	jal	47c <main-0xfbf8>
 17e:	1405                	addi	s0,s0,-31
 180:	00ae                	slli	ra,ra,0xb
 182:	0000                	unimp
 184:	0000                	unimp
 186:	0000                	unimp
 188:	6410                	flw	fa2,8(s0)
 18a:	0100                	addi	s0,sp,128
 18c:	0526                	slli	a0,a0,0x9
 18e:	ae1f 0000 2800      	0x28000000ae1f
 194:	0000                	unimp
 196:	1100                	addi	s0,sp,160
 198:	043a                	slli	s0,s0,0xe
	...
 1a2:	0000                	unimp
 1a4:	2801                	jal	1b4 <main-0xfec0>
 1a6:	0a05                	addi	s4,s4,1
 1a8:	6212                	flw	ft4,4(sp)
 1aa:	0004                	0x4
 1ac:	c000                	sw	s0,0(s0)
 1ae:	0000                	unimp
 1b0:	1200                	addi	s0,sp,288
 1b2:	00000457          	0x457
 1b6:	00e0                	addi	s0,sp,76
 1b8:	0000                	unimp
 1ba:	4c12                	lw	s8,4(sp)
 1bc:	0004                	0x4
 1be:	9800                	0x9800
 1c0:	0001                	nop
 1c2:	1300                	addi	s0,sp,416
 1c4:	0000                	unimp
 1c6:	0000                	unimp
 1c8:	6e14                	flw	fa3,24(a2)
 1ca:	0004                	0x4
 1cc:	1400                	addi	s0,sp,544
 1ce:	047a                	slli	s0,s0,0x1e
 1d0:	0000                	unimp
 1d2:	8614                	0x8614
 1d4:	0004                	0x4
 1d6:	1500                	addi	s0,sp,672
 1d8:	0492                	slli	s1,s1,0x4
 1da:	0000                	unimp
 1dc:	0260                	addi	s0,sp,268
 1de:	0000                	unimp
 1e0:	9e15                	0x9e15
 1e2:	0004                	0x4
 1e4:	0600                	addi	s0,sp,768
 1e6:	15000003          	lb	zero,336(zero) # 150 <main-0xff24>
 1ea:	04aa                	slli	s1,s1,0xa
 1ec:	0000                	unimp
 1ee:	0392                	slli	t2,t2,0x4
 1f0:	0000                	unimp
 1f2:	b615                	j	fffffd16 <__BSS_END__+0xfffeb74e>
 1f4:	0004                	0x4
 1f6:	0200                	addi	s0,sp,256
 1f8:	0004                	0x4
 1fa:	1500                	addi	s0,sp,672
 1fc:	04c2                	slli	s1,s1,0x10
 1fe:	0000                	unimp
 200:	04ba                	slli	s1,s1,0xe
 202:	0000                	unimp
 204:	ce15                	beqz	a2,240 <main-0xfe34>
 206:	0004                	0x4
 208:	d800                	sw	s0,48(s0)
 20a:	0004                	0x4
 20c:	1500                	addi	s0,sp,672
 20e:	04da                	slli	s1,s1,0x16
 210:	0000                	unimp
 212:	04f6                	slli	s1,s1,0x1d
 214:	0000                	unimp
 216:	e615                	bnez	a2,242 <main-0xfe32>
 218:	0004                	0x4
 21a:	2000                	fld	fs0,0(s0)
 21c:	0005                	c.nop	1
 21e:	1500                	addi	s0,sp,672
 220:	04f1                	addi	s1,s1,28
 222:	0000                	unimp
 224:	053e                	slli	a0,a0,0xf
 226:	0000                	unimp
 228:	fd14                	fsw	fa3,56(a0)
 22a:	0004                	0x4
 22c:	1600                	addi	s0,sp,800
 22e:	0509                	addi	a0,a0,2
 230:	0000                	unimp
 232:	0028                	addi	a0,sp,8
 234:	0000                	unimp
 236:	024d                	addi	tp,tp,19
 238:	0000                	unimp
 23a:	0e15                	addi	t3,t3,5
 23c:	0005                	c.nop	1
 23e:	7d00                	flw	fs0,56(a0)
 240:	0005                	c.nop	1
 242:	1500                	addi	s0,sp,672
 244:	0000051b          	0x51b
 248:	05b9                	addi	a1,a1,14
 24a:	0000                	unimp
 24c:	1700                	addi	s0,sp,928
 24e:	0529                	addi	a0,a0,10
	...
 258:	0000                	unimp
 25a:	029e                	slli	t0,t0,0x7
 25c:	0000                	unimp
 25e:	2e15                	jal	592 <main-0xfae2>
 260:	0005                	c.nop	1
 262:	cc00                	sw	s0,24(s0)
 264:	0005                	c.nop	1
 266:	1500                	addi	s0,sp,672
 268:	0000053b          	0x53b
 26c:	05df 0000 4815      	0x4815000005df
 272:	0005                	c.nop	1
 274:	0300                	addi	s0,sp,384
 276:	0006                	c.slli	zero,0x1
 278:	1500                	addi	s0,sp,672
 27a:	0555                	addi	a0,a0,21
 27c:	0000                	unimp
 27e:	0621                	addi	a2,a2,8
 280:	0000                	unimp
 282:	6215                	lui	tp,0x5
 284:	0005                	c.nop	1
 286:	3f00                	fld	fs0,56(a4)
 288:	0006                	c.slli	zero,0x1
 28a:	1500                	addi	s0,sp,672
 28c:	0000056f          	jal	a0,28c <main-0xfde8>
 290:	067a                	slli	a2,a2,0x1e
 292:	0000                	unimp
 294:	7c15                	lui	s8,0xfffe5
 296:	0005                	c.nop	1
 298:	9800                	0x9800
 29a:	0006                	c.slli	zero,0x1
 29c:	0000                	unimp
 29e:	9f16                	add	t5,t5,t0
 2a0:	0006                	c.slli	zero,0x1
 2a2:	4000                	lw	s0,0(s0)
 2a4:	0000                	unimp
 2a6:	5d00                	lw	s0,56(a0)
 2a8:	15000003          	lb	zero,336(zero) # 150 <main-0xff24>
 2ac:	06a0                	addi	s0,sp,840
 2ae:	0000                	unimp
 2b0:	06b6                	slli	a3,a3,0xd
 2b2:	0000                	unimp
 2b4:	ac15                	j	4e8 <main-0xfb8c>
 2b6:	0006                	c.slli	zero,0x1
 2b8:	c900                	sw	s0,16(a0)
 2ba:	0006                	c.slli	zero,0x1
 2bc:	1600                	addi	s0,sp,800
 2be:	06b8                	addi	a4,sp,840
 2c0:	0000                	unimp
 2c2:	0058                	addi	a4,sp,4
 2c4:	0000                	unimp
 2c6:	030a                	slli	t1,t1,0x2
 2c8:	0000                	unimp
 2ca:	bd15                	j	fe <main-0xff76>
 2cc:	0006                	c.slli	zero,0x1
 2ce:	0a00                	addi	s0,sp,272
 2d0:	15000007          	0x15000007
 2d4:	06ca                	slli	a3,a3,0x12
 2d6:	0000                	unimp
 2d8:	072c                	addi	a1,sp,904
 2da:	0000                	unimp
 2dc:	d715                	beqz	a4,208 <main-0xfe6c>
 2de:	0006                	c.slli	zero,0x1
 2e0:	5000                	lw	s0,32(s0)
 2e2:	15000007          	0x15000007
 2e6:	06e4                	addi	s1,sp,844
 2e8:	0000                	unimp
 2ea:	076e                	slli	a4,a4,0x1b
 2ec:	0000                	unimp
 2ee:	f115                	bnez	a0,212 <main-0xfe62>
 2f0:	0006                	c.slli	zero,0x1
 2f2:	8c00                	0x8c00
 2f4:	15000007          	0x15000007
 2f8:	06fe                	slli	a3,a3,0x1f
 2fa:	0000                	unimp
 2fc:	000007c7          	fmsub.s	fa5,ft0,ft0,ft0,rne
 300:	0b15                	addi	s6,s6,5
 302:	f0000007          	0xf0000007
 306:	00000007          	0x7
 30a:	1918                	addi	a4,sp,176
 30c:	80000007          	0x80000007
 310:	0000                	unimp
 312:	1500                	addi	s0,sp,672
 314:	071e                	slli	a4,a4,0x7
 316:	0000                	unimp
 318:	080e                	slli	a6,a6,0x3
 31a:	0000                	unimp
 31c:	2b15                	jal	850 <main-0xf824>
 31e:	21000007          	0x21000007
 322:	0008                	0x8
 324:	1500                	addi	s0,sp,672
 326:	0738                	addi	a4,sp,904
 328:	0000                	unimp
 32a:	0874                	addi	a3,sp,28
 32c:	0000                	unimp
 32e:	4515                	li	a0,5
 330:	87000007          	0x87000007
 334:	0008                	0x8
 336:	1500                	addi	s0,sp,672
 338:	0752                	slli	a4,a4,0x14
 33a:	0000                	unimp
 33c:	089a                	slli	a7,a7,0x6
 33e:	0000                	unimp
 340:	5f15                	li	t5,-27
 342:	ed000007          	0xed000007
 346:	0008                	0x8
 348:	1500                	addi	s0,sp,672
 34a:	076c                	addi	a1,sp,908
 34c:	0000                	unimp
 34e:	0900                	addi	s0,sp,144
 350:	0000                	unimp
 352:	7915                	lui	s2,0xfffe5
 354:	31000007          	0x31000007
 358:	0009                	c.nop	2
 35a:	0000                	unimp
 35c:	1600                	addi	s0,sp,800
 35e:	058a                	slli	a1,a1,0x2
 360:	0000                	unimp
 362:	00b0                	addi	a2,sp,72
 364:	0000                	unimp
 366:	037d                	addi	t1,t1,31
 368:	0000                	unimp
 36a:	8f15                	sub	a4,a4,a3
 36c:	0005                	c.nop	1
 36e:	4400                	lw	s0,8(s0)
 370:	0009                	c.nop	2
 372:	1500                	addi	s0,sp,672
 374:	059c                	addi	a5,sp,704
 376:	0000                	unimp
 378:	0980                	addi	s0,sp,208
 37a:	0000                	unimp
 37c:	1700                	addi	s0,sp,928
 37e:	0000060b          	0x60b
	...
 38a:	03ce                	slli	t2,t2,0x13
 38c:	0000                	unimp
 38e:	1015                	c.nop	-27
 390:	0006                	c.slli	zero,0x1
 392:	9e00                	0x9e00
 394:	0009                	c.nop	2
 396:	1500                	addi	s0,sp,672
 398:	061d                	addi	a2,a2,7
 39a:	0000                	unimp
 39c:	09b1                	addi	s3,s3,12
 39e:	0000                	unimp
 3a0:	2a15                	jal	4d4 <main-0xfba0>
 3a2:	0006                	c.slli	zero,0x1
 3a4:	d500                	sw	s0,40(a0)
 3a6:	0009                	c.nop	2
 3a8:	1500                	addi	s0,sp,672
 3aa:	00000637          	lui	a2,0x0
 3ae:	000009f3          	0x9f3
 3b2:	4415                	li	s0,5
 3b4:	0006                	c.slli	zero,0x1
 3b6:	1100                	addi	s0,sp,160
 3b8:	000a                	c.slli	zero,0x2
 3ba:	1500                	addi	s0,sp,672
 3bc:	0651                	addi	a2,a2,20
 3be:	0000                	unimp
 3c0:	0a4c                	addi	a1,sp,276
 3c2:	0000                	unimp
 3c4:	5e15                	li	t3,-27
 3c6:	0006                	c.slli	zero,0x1
 3c8:	6a00                	flw	fs0,16(a2)
 3ca:	000a                	c.slli	zero,0x2
 3cc:	0000                	unimp
 3ce:	aa16                	fsd	ft5,272(sp)
 3d0:	0005                	c.nop	1
 3d2:	c800                	sw	s0,16(s0)
 3d4:	0000                	unimp
 3d6:	1b00                	addi	s0,sp,432
 3d8:	0004                	0x4
 3da:	1500                	addi	s0,sp,672
 3dc:	000005af          	0x5af
 3e0:	0a88                	addi	a0,sp,336
 3e2:	0000                	unimp
 3e4:	bc15                	j	fffffe18 <__BSS_END__+0xfffeb850>
 3e6:	0005                	c.nop	1
 3e8:	9b00                	0x9b00
 3ea:	000a                	c.slli	zero,0x2
 3ec:	1500                	addi	s0,sp,672
 3ee:	05c9                	addi	a1,a1,18
 3f0:	0000                	unimp
 3f2:	00000abf 0005d615 	0x5d61500000abf
 3fa:	dd00                	sw	s0,56(a0)
 3fc:	000a                	c.slli	zero,0x2
 3fe:	1500                	addi	s0,sp,672
 400:	000005e3          	beqz	zero,c0a <main-0xf46a>
 404:	00000afb          	0xafb
 408:	f015                	bnez	s0,32c <main-0xfd48>
 40a:	0005                	c.nop	1
 40c:	2f00                	fld	fs0,24(a4)
 40e:	1500000b          	0x1500000b
 412:	05fd                	addi	a1,a1,31
 414:	0000                	unimp
 416:	0b58                	addi	a4,sp,404
 418:	0000                	unimp
 41a:	1800                	addi	s0,sp,48
 41c:	066c                	addi	a1,sp,780
 41e:	0000                	unimp
 420:	00e0                	addi	s0,sp,76
 422:	0000                	unimp
 424:	7115                	addi	sp,sp,-224
 426:	0006                	c.slli	zero,0x1
 428:	8600                	0x8600
 42a:	1500000b          	0x1500000b
 42e:	067e                	slli	a2,a2,0x1f
 430:	0000                	unimp
 432:	0bba                	slli	s7,s7,0xe
 434:	0000                	unimp
 436:	0000                	unimp
 438:	0000                	unimp
 43a:	df19                	beqz	a4,358 <main-0xfd1c>
 43c:	0001                	nop
 43e:	0100                	addi	s0,sp,128
 440:	ae0103f7          	0xae0103f7
 444:	0000                	unimp
 446:	0300                	addi	s0,sp,384
 448:	000007ab          	0x7ab
 44c:	6e1a                	flw	ft8,132(sp)
 44e:	0100                	addi	s0,sp,128
 450:	ae1703f7          	0xae1703f7
 454:	0000                	unimp
 456:	1a00                	addi	s0,sp,304
 458:	0064                	addi	s1,sp,12
 45a:	f701                	bnez	a4,362 <main-0xfd12>
 45c:	00ae2203          	lw	tp,10(t3) # 1a00a <__BSS_END__+0x5a42>
 460:	0000                	unimp
 462:	721a                	flw	ft4,164(sp)
 464:	0070                	addi	a2,sp,12
 466:	f701                	bnez	a4,36e <main-0xfd06>
 468:	07ab2e03          	lw	t3,122(s6) # 1107a <memset+0x3a>
 46c:	0000                	unimp
 46e:	006e6e1b          	0x6e6e1b
 472:	f901                	bnez	a0,382 <main-0xfcf2>
 474:	01371103          	lh	sp,19(a4) # 4013 <main-0xc061>
 478:	0000                	unimp
 47a:	0064641b          	0x64641b
 47e:	fa01                	bnez	a2,38e <main-0xfce6>
 480:	01371103          	lh	sp,19(a4)
 484:	0000                	unimp
 486:	0072721b          	0x72721b
 48a:	fb01                	bnez	a4,39a <main-0xfcda>
 48c:	012a0b03          	lb	s6,18(s4) # 1012 <main-0xf062>
 490:	0000                	unimp
 492:	0030641b          	0x30641b
 496:	fc01                	bnez	s0,3ae <main-0xfcc6>
 498:	00960a03          	lb	s4,9(a2) # 9 <main-0x1006b>
 49c:	0000                	unimp
 49e:	0031641b          	0x31641b
 4a2:	fc01                	bnez	s0,3ba <main-0xfcba>
 4a4:	00960e03          	lb	t3,9(a2)
 4a8:	0000                	unimp
 4aa:	00306e1b          	0x306e1b
 4ae:	fc01                	bnez	s0,3c6 <main-0xfcae>
 4b0:	00961203          	lh	tp,9(a2)
 4b4:	0000                	unimp
 4b6:	00316e1b          	0x316e1b
 4ba:	fc01                	bnez	s0,3d2 <main-0xfca2>
 4bc:	00961603          	lh	a2,9(a2)
 4c0:	0000                	unimp
 4c2:	00326e1b          	0x326e1b
 4c6:	fc01                	bnez	s0,3de <main-0xfc96>
 4c8:	00961a03          	lh	s4,9(a2)
 4cc:	0000                	unimp
 4ce:	0030711b          	0x30711b
 4d2:	fd01                	bnez	a0,3ea <main-0xfc8a>
 4d4:	00960a03          	lb	s4,9(a2)
 4d8:	0000                	unimp
 4da:	0031711b          	0x31711b
 4de:	fd01                	bnez	a0,3f6 <main-0xfc7e>
 4e0:	00960e03          	lb	t3,9(a2)
 4e4:	0000                	unimp
 4e6:	0100621b          	0x100621b
 4ea:	03fe                	slli	t2,t2,0x1f
 4ec:	960a                	add	a2,a2,sp
 4ee:	0000                	unimp
 4f0:	1b00                	addi	s0,sp,432
 4f2:	6d62                	flw	fs10,24(sp)
 4f4:	0100                	addi	s0,sp,128
 4f6:	03fe                	slli	t2,t2,0x1f
 4f8:	960d                	srai	a2,a2,0x23
 4fa:	0000                	unimp
 4fc:	1b00                	addi	s0,sp,432
 4fe:	01007777          	0x1007777
 502:	371104c7          	fmsub.q	fs1,ft2,fa7,ft6,rne
 506:	0001                	nop
 508:	1c00                	addi	s0,sp,560
 50a:	0529                	addi	a0,a0,10
 50c:	0000                	unimp
 50e:	da1d                	beqz	a2,444 <main-0xfc30>
 510:	0001                	nop
 512:	0100                	addi	s0,sp,128
 514:	042e                	slli	s0,s0,0xb
 516:	9604                	0x9604
 518:	0000                	unimp
 51a:	1b00                	addi	s0,sp,432
 51c:	5f5f 0061 2e01      	0x2e0100615f5f
 522:	0404                	addi	s1,sp,512
 524:	0096                	slli	ra,ra,0x5
 526:	0000                	unimp
 528:	1c00                	addi	s0,sp,560
 52a:	058a                	slli	a1,a1,0x2
 52c:	0000                	unimp
 52e:	511d                	li	sp,-25
 530:	0000                	unimp
 532:	0100                	addi	s0,sp,128
 534:	043a                	slli	s0,s0,0xe
 536:	9604                	0x9604
 538:	0000                	unimp
 53a:	1d00                	addi	s0,sp,688
 53c:	004c                	addi	a1,sp,4
 53e:	0000                	unimp
 540:	3a01                	jal	fffffe50 <__BSS_END__+0xfffeb888>
 542:	0404                	addi	s1,sp,512
 544:	0096                	slli	ra,ra,0x5
 546:	0000                	unimp
 548:	c61d                	beqz	a2,576 <main-0xfafe>
 54a:	0001                	nop
 54c:	0100                	addi	s0,sp,128
 54e:	043a                	slli	s0,s0,0xe
 550:	9604                	0x9604
 552:	0000                	unimp
 554:	1d00                	addi	s0,sp,688
 556:	01c1                	addi	gp,gp,16
 558:	0000                	unimp
 55a:	3a01                	jal	fffffe6a <__BSS_END__+0xfffeb8a2>
 55c:	0404                	addi	s1,sp,512
 55e:	0096                	slli	ra,ra,0x5
 560:	0000                	unimp
 562:	7e1d                	lui	t3,0xfffe7
 564:	0002                	c.slli64	zero
 566:	0100                	addi	s0,sp,128
 568:	043a                	slli	s0,s0,0xe
 56a:	9604                	0x9604
 56c:	0000                	unimp
 56e:	1d00                	addi	s0,sp,688
 570:	0279                	addi	tp,tp,30
 572:	0000                	unimp
 574:	3a01                	jal	fffffe84 <__BSS_END__+0xfffeb8bc>
 576:	0404                	addi	s1,sp,512
 578:	0096                	slli	ra,ra,0x5
 57a:	0000                	unimp
 57c:	6d5f5f1b          	0x6d5f5f1b
 580:	0100                	addi	s0,sp,128
 582:	043a                	slli	s0,s0,0xe
 584:	9604                	0x9604
 586:	0000                	unimp
 588:	0000                	unimp
 58a:	aa1c                	fsd	fa5,16(a2)
 58c:	0005                	c.nop	1
 58e:	1d00                	addi	s0,sp,688
 590:	01da                	slli	gp,gp,0x16
 592:	0000                	unimp
 594:	4601                	li	a2,0
 596:	0404                	addi	s1,sp,512
 598:	0096                	slli	ra,ra,0x5
 59a:	0000                	unimp
 59c:	615f5f1b          	0x615f5f1b
 5a0:	0100                	addi	s0,sp,128
 5a2:	0446                	slli	s0,s0,0x11
 5a4:	9604                	0x9604
 5a6:	0000                	unimp
 5a8:	0000                	unimp
 5aa:	0b1c                	addi	a5,sp,400
 5ac:	0006                	c.slli	zero,0x1
 5ae:	1d00                	addi	s0,sp,688
 5b0:	0051                	c.nop	20
 5b2:	0000                	unimp
 5b4:	5f01                	li	t5,-32
 5b6:	0804                	addi	s1,sp,16
 5b8:	0096                	slli	ra,ra,0x5
 5ba:	0000                	unimp
 5bc:	4c1d                	li	s8,7
 5be:	0000                	unimp
 5c0:	0100                	addi	s0,sp,128
 5c2:	045f 9608 0000      	0x9608045f
 5c8:	1d00                	addi	s0,sp,688
 5ca:	01c6                	slli	gp,gp,0x11
 5cc:	0000                	unimp
 5ce:	5f01                	li	t5,-32
 5d0:	0804                	addi	s1,sp,16
 5d2:	0096                	slli	ra,ra,0x5
 5d4:	0000                	unimp
 5d6:	c11d                	beqz	a0,5fc <main-0xfa78>
 5d8:	0001                	nop
 5da:	0100                	addi	s0,sp,128
 5dc:	045f 9608 0000      	0x9608045f
 5e2:	1d00                	addi	s0,sp,688
 5e4:	027e                	slli	tp,tp,0x1f
 5e6:	0000                	unimp
 5e8:	5f01                	li	t5,-32
 5ea:	0804                	addi	s1,sp,16
 5ec:	0096                	slli	ra,ra,0x5
 5ee:	0000                	unimp
 5f0:	791d                	lui	s2,0xfffe7
 5f2:	0002                	c.slli64	zero
 5f4:	0100                	addi	s0,sp,128
 5f6:	045f 9608 0000      	0x9608045f
 5fc:	1b00                	addi	s0,sp,432
 5fe:	5f5f 006d 5f01      	0x5f01006d5f5f
 604:	0804                	addi	s1,sp,16
 606:	0096                	slli	ra,ra,0x5
 608:	0000                	unimp
 60a:	1c00                	addi	s0,sp,560
 60c:	066c                	addi	a1,sp,780
 60e:	0000                	unimp
 610:	511d                	li	sp,-25
 612:	0000                	unimp
 614:	0100                	addi	s0,sp,128
 616:	0464                	addi	s1,sp,524
 618:	9604                	0x9604
 61a:	0000                	unimp
 61c:	1d00                	addi	s0,sp,688
 61e:	004c                	addi	a1,sp,4
 620:	0000                	unimp
 622:	6401                	0x6401
 624:	0404                	addi	s1,sp,512
 626:	0096                	slli	ra,ra,0x5
 628:	0000                	unimp
 62a:	c61d                	beqz	a2,658 <main-0xfa1c>
 62c:	0001                	nop
 62e:	0100                	addi	s0,sp,128
 630:	0464                	addi	s1,sp,524
 632:	9604                	0x9604
 634:	0000                	unimp
 636:	1d00                	addi	s0,sp,688
 638:	01c1                	addi	gp,gp,16
 63a:	0000                	unimp
 63c:	6401                	0x6401
 63e:	0404                	addi	s1,sp,512
 640:	0096                	slli	ra,ra,0x5
 642:	0000                	unimp
 644:	7e1d                	lui	t3,0xfffe7
 646:	0002                	c.slli64	zero
 648:	0100                	addi	s0,sp,128
 64a:	0464                	addi	s1,sp,524
 64c:	9604                	0x9604
 64e:	0000                	unimp
 650:	1d00                	addi	s0,sp,688
 652:	0279                	addi	tp,tp,30
 654:	0000                	unimp
 656:	6401                	0x6401
 658:	0404                	addi	s1,sp,512
 65a:	0096                	slli	ra,ra,0x5
 65c:	0000                	unimp
 65e:	6d5f5f1b          	0x6d5f5f1b
 662:	0100                	addi	s0,sp,128
 664:	0464                	addi	s1,sp,524
 666:	9604                	0x9604
 668:	0000                	unimp
 66a:	0000                	unimp
 66c:	8c1c                	0x8c1c
 66e:	0006                	c.slli	zero,0x1
 670:	1d00                	addi	s0,sp,688
 672:	01da                	slli	gp,gp,0x16
 674:	0000                	unimp
 676:	8701                	c.srai64	a4
 678:	0404                	addi	s1,sp,512
 67a:	0096                	slli	ra,ra,0x5
 67c:	0000                	unimp
 67e:	615f5f1b          	0x615f5f1b
 682:	0100                	addi	s0,sp,128
 684:	96040487          	0x96040487
 688:	0000                	unimp
 68a:	0000                	unimp
 68c:	9f1c                	0x9f1c
 68e:	0006                	c.slli	zero,0x1
 690:	1b00                	addi	s0,sp,432
 692:	5f5f 0078 9501      	0x950100785f5f
 698:	0504                	addi	s1,sp,640
 69a:	0096                	slli	ra,ra,0x5
 69c:	0000                	unimp
 69e:	1e00                	addi	s0,sp,816
 6a0:	00316d1b          	0x316d1b
 6a4:	a501                	j	ca4 <main-0xf3d0>
 6a6:	0f04                	addi	s1,sp,912
 6a8:	0096                	slli	ra,ra,0x5
 6aa:	0000                	unimp
 6ac:	00306d1b          	0x306d1b
 6b0:	a501                	j	cb0 <main-0xf3c4>
 6b2:	1304                	addi	s1,sp,416
 6b4:	0096                	slli	ra,ra,0x5
 6b6:	0000                	unimp
 6b8:	191c                	addi	a5,sp,176
 6ba:	1d000007          	0x1d000007
 6be:	0051                	c.nop	20
 6c0:	0000                	unimp
 6c2:	b001                	j	fffffec2 <__BSS_END__+0xfffeb8fa>
 6c4:	0804                	addi	s1,sp,16
 6c6:	0096                	slli	ra,ra,0x5
 6c8:	0000                	unimp
 6ca:	4c1d                	li	s8,7
 6cc:	0000                	unimp
 6ce:	0100                	addi	s0,sp,128
 6d0:	04b0                	addi	a2,sp,584
 6d2:	9608                	0x9608
 6d4:	0000                	unimp
 6d6:	1d00                	addi	s0,sp,688
 6d8:	01c6                	slli	gp,gp,0x11
 6da:	0000                	unimp
 6dc:	b001                	j	fffffedc <__BSS_END__+0xfffeb914>
 6de:	0804                	addi	s1,sp,16
 6e0:	0096                	slli	ra,ra,0x5
 6e2:	0000                	unimp
 6e4:	c11d                	beqz	a0,70a <main-0xf96a>
 6e6:	0001                	nop
 6e8:	0100                	addi	s0,sp,128
 6ea:	04b0                	addi	a2,sp,584
 6ec:	9608                	0x9608
 6ee:	0000                	unimp
 6f0:	1d00                	addi	s0,sp,688
 6f2:	027e                	slli	tp,tp,0x1f
 6f4:	0000                	unimp
 6f6:	b001                	j	fffffef6 <__BSS_END__+0xfffeb92e>
 6f8:	0804                	addi	s1,sp,16
 6fa:	0096                	slli	ra,ra,0x5
 6fc:	0000                	unimp
 6fe:	791d                	lui	s2,0xfffe7
 700:	0002                	c.slli64	zero
 702:	0100                	addi	s0,sp,128
 704:	04b0                	addi	a2,sp,584
 706:	9608                	0x9608
 708:	0000                	unimp
 70a:	1b00                	addi	s0,sp,432
 70c:	5f5f 006d b001      	0xb001006d5f5f
 712:	0804                	addi	s1,sp,16
 714:	0096                	slli	ra,ra,0x5
 716:	0000                	unimp
 718:	1c00                	addi	s0,sp,560
 71a:	00000787          	0x787
 71e:	811d                	srli	a0,a0,0x7
 720:	0001                	nop
 722:	0100                	addi	s0,sp,128
 724:	04b1                	addi	s1,s1,12
 726:	9608                	0x9608
 728:	0000                	unimp
 72a:	1d00                	addi	s0,sp,688
 72c:	0186                	slli	gp,gp,0x1
 72e:	0000                	unimp
 730:	b101                	j	330 <main-0xfd44>
 732:	0804                	addi	s1,sp,16
 734:	0096                	slli	ra,ra,0x5
 736:	0000                	unimp
 738:	8b1d                	andi	a4,a4,7
 73a:	0001                	nop
 73c:	0100                	addi	s0,sp,128
 73e:	04b1                	addi	s1,s1,12
 740:	9608                	0x9608
 742:	0000                	unimp
 744:	1d00                	addi	s0,sp,688
 746:	0190                	addi	a2,sp,192
 748:	0000                	unimp
 74a:	b101                	j	34a <main-0xfd2a>
 74c:	0804                	addi	s1,sp,16
 74e:	0096                	slli	ra,ra,0x5
 750:	0000                	unimp
 752:	881d                	andi	s0,s0,7
 754:	0002                	c.slli64	zero
 756:	0100                	addi	s0,sp,128
 758:	04b1                	addi	s1,s1,12
 75a:	9608                	0x9608
 75c:	0000                	unimp
 75e:	1d00                	addi	s0,sp,688
 760:	0065                	c.nop	25
 762:	0000                	unimp
 764:	b101                	j	364 <main-0xfd10>
 766:	0804                	addi	s1,sp,16
 768:	0096                	slli	ra,ra,0x5
 76a:	0000                	unimp
 76c:	831d                	srli	a4,a4,0x7
 76e:	0002                	c.slli64	zero
 770:	0100                	addi	s0,sp,128
 772:	04b1                	addi	s1,s1,12
 774:	9608                	0x9608
 776:	0000                	unimp
 778:	1d00                	addi	s0,sp,688
 77a:	0060                	addi	s0,sp,12
 77c:	0000                	unimp
 77e:	b101                	j	37e <main-0xfcf6>
 780:	0804                	addi	s1,sp,16
 782:	0096                	slli	ra,ra,0x5
 784:	0000                	unimp
 786:	1c00                	addi	s0,sp,560
 788:	079a                	slli	a5,a5,0x6
 78a:	0000                	unimp
 78c:	785f5f1b          	0x785f5f1b
 790:	0100                	addi	s0,sp,128
 792:	04b6                	slli	s1,s1,0xd
 794:	9605                	srai	a2,a2,0x21
 796:	0000                	unimp
 798:	0000                	unimp
 79a:	1b1e                	slli	s6,s6,0x27
 79c:	5f5f 0078 be01      	0xbe0100785f5f
 7a2:	0504                	addi	s1,sp,640
 7a4:	0096                	slli	ra,ra,0x5
 7a6:	0000                	unimp
 7a8:	0000                	unimp
 7aa:	1f00                	addi	s0,sp,944
 7ac:	ae04                	fsd	fs1,24(a2)
 7ae:	0000                	unimp
	...

Disassembly of section .debug_abbrev:

00000000 <.debug_abbrev>:
   0:	1101                	addi	sp,sp,-32
   2:	2501                	jal	602 <main-0xfa72>
   4:	130e                	slli	t1,t1,0x23
   6:	1b0e030b          	0x1b0e030b
   a:	110e                	slli	sp,sp,0x23
   c:	1201                	addi	tp,tp,-32
   e:	1006                	c.slli	zero,0x21
  10:	02000017          	auipc	zero,0x2000
  14:	0024                	addi	s1,sp,8
  16:	0b3e0b0b          	0xb3e0b0b
  1a:	00000e03          	lb	t3,0(zero) # 0 <main-0x10074>
  1e:	0b002403          	lw	s0,176(zero) # b0 <main-0xffc4>
  22:	030b3e0b          	0x30b3e0b
  26:	0008                	0x8
  28:	0400                	addi	s0,sp,512
  2a:	0016                	c.slli	zero,0x5
  2c:	0b3a0e03          	lb	t3,179(s4)
  30:	0b390b3b          	0xb390b3b
  34:	1349                	addi	t1,t1,-14
  36:	0000                	unimp
  38:	2605                	jal	358 <main-0xfd1c>
  3a:	4900                	lw	s0,16(a0)
  3c:	06000013          	li	zero,96
  40:	0e030113          	addi	sp,t1,224 # ffffa0e0 <__BSS_END__+0xfffe5b18>
  44:	0b3a0b0b          	0xb3a0b0b
  48:	0b39053b          	0xb39053b
  4c:	1301                	addi	t1,t1,-32
  4e:	0000                	unimp
  50:	03000d07          	0x3000d07
  54:	3a08                	fld	fa0,48(a2)
  56:	39053b0b          	0x39053b0b
  5a:	3813490b          	0x3813490b
  5e:	0800000b          	0x800000b
  62:	000d                	c.nop	3
  64:	0b3a0e03          	lb	t3,179(s4)
  68:	0b39053b          	0xb39053b
  6c:	1349                	addi	t1,t1,-14
  6e:	0b38                	addi	a4,sp,408
  70:	0000                	unimp
  72:	1709                	addi	a4,a4,-30
  74:	0b01                	addi	s6,s6,0
  76:	3b0b3a0b          	0x3b0b3a0b
  7a:	3905                	jal	fffffcaa <__BSS_END__+0xfffeb6e2>
  7c:	0013010b          	0x13010b
  80:	0a00                	addi	s0,sp,272
  82:	000d                	c.nop	3
  84:	0b3a0803          	lb	a6,179(s4)
  88:	0b39053b          	0xb39053b
  8c:	1349                	addi	t1,t1,-14
  8e:	0000                	unimp
  90:	0300160b          	0x300160b
  94:	3a0e                	fld	fs4,224(sp)
  96:	39053b0b          	0x39053b0b
  9a:	0013490b          	0x13490b
  9e:	0c00                	addi	s0,sp,528
  a0:	0101                	addi	sp,sp,0
  a2:	1349                	addi	t1,t1,-14
  a4:	1301                	addi	t1,t1,-32
  a6:	0000                	unimp
  a8:	210d                	jal	4ca <main-0xfbaa>
  aa:	4900                	lw	s0,16(a0)
  ac:	000b2f13          	slti	t5,s6,0
  b0:	0e00                	addi	s0,sp,784
  b2:	0034                	addi	a3,sp,8
  b4:	0b3a0e03          	lb	t3,179(s4)
  b8:	0b39053b          	0xb39053b
  bc:	1349                	addi	t1,t1,-14
  be:	193c193f 2e0f0000 	0x2e0f0000193c193f
  c6:	3f01                	jal	ffffffd6 <__BSS_END__+0xfffeba0e>
  c8:	0319                	addi	t1,t1,6
  ca:	3a0e                	fld	fs4,224(sp)
  cc:	39053b0b          	0x39053b0b
  d0:	4919270b          	0x4919270b
  d4:	12011113          	0x12011113
  d8:	4006                	0x4006
  da:	9718                	0x9718
  dc:	1942                	slli	s2,s2,0x30
  de:	1301                	addi	t1,t1,-32
  e0:	0000                	unimp
  e2:	0510                	addi	a2,sp,640
  e4:	0300                	addi	s0,sp,384
  e6:	3a08                	fld	fa0,48(a2)
  e8:	39053b0b          	0x39053b0b
  ec:	0213490b          	0x213490b
  f0:	11000017          	auipc	zero,0x11000
  f4:	011d                	addi	sp,sp,7
  f6:	1331                	addi	t1,t1,-20
  f8:	0152                	slli	sp,sp,0x14
  fa:	1755                	addi	a4,a4,-11
  fc:	0b58                	addi	a4,sp,404
  fe:	0559                	addi	a0,a0,22
 100:	00000b57          	0xb57
 104:	0512                	slli	a0,a0,0x4
 106:	3100                	fld	fs0,32(a0)
 108:	00170213          	addi	tp,a4,1
 10c:	1300                	addi	s0,sp,416
 10e:	1755010b          	0x1755010b
 112:	0000                	unimp
 114:	3414                	fld	fa3,40(s0)
 116:	3100                	fld	fs0,32(a0)
 118:	15000013          	li	zero,336
 11c:	0034                	addi	a3,sp,8
 11e:	1331                	addi	t1,t1,-20
 120:	1702                	slli	a4,a4,0x20
 122:	0000                	unimp
 124:	0b16                	slli	s6,s6,0x5
 126:	3101                	jal	fffffd26 <__BSS_END__+0xfffeb75e>
 128:	01175513          	srli	a0,a4,0x11
 12c:	17000013          	li	zero,368
 130:	1331010b          	0x1331010b
 134:	0111                	addi	sp,sp,4
 136:	0612                	slli	a2,a2,0x4
 138:	1301                	addi	t1,t1,-32
 13a:	0000                	unimp
 13c:	0b18                	addi	a4,sp,400
 13e:	3101                	jal	fffffd3e <__BSS_END__+0xfffeb776>
 140:	00175513          	srli	a0,a4,0x1
 144:	1900                	addi	s0,sp,176
 146:	012e                	slli	sp,sp,0xb
 148:	0b3a0e03          	lb	t3,179(s4)
 14c:	0b39053b          	0xb39053b
 150:	13491927          	0x13491927
 154:	0b20                	addi	s0,sp,408
 156:	1301                	addi	t1,t1,-32
 158:	0000                	unimp
 15a:	051a                	slli	a0,a0,0x6
 15c:	0300                	addi	s0,sp,384
 15e:	3a08                	fld	fa0,48(a2)
 160:	39053b0b          	0x39053b0b
 164:	0013490b          	0x13490b
 168:	1b00                	addi	s0,sp,432
 16a:	0034                	addi	a3,sp,8
 16c:	0b3a0803          	lb	a6,179(s4)
 170:	0b39053b          	0xb39053b
 174:	1349                	addi	t1,t1,-14
 176:	0000                	unimp
 178:	0b1c                	addi	a5,sp,400
 17a:	0101                	addi	sp,sp,0
 17c:	1d000013          	li	zero,464
 180:	0034                	addi	a3,sp,8
 182:	0b3a0e03          	lb	t3,179(s4)
 186:	0b39053b          	0xb39053b
 18a:	1349                	addi	t1,t1,-14
 18c:	0000                	unimp
 18e:	0b1e                	slli	s6,s6,0x7
 190:	0001                	nop
 192:	1f00                	addi	s0,sp,944
 194:	0b0b000f          	0xb0b000f
 198:	1349                	addi	t1,t1,-14
 19a:	0000                	unimp
	...

Disassembly of section .debug_line:

00000000 <.debug_line>:
   0:	0000074b          	fnmsub.s	fa4,ft0,ft0,ft0,rne
   4:	004f0003          	lb	zero,4(t5) # 1004 <main-0xf070>
   8:	0000                	unimp
   a:	0101                	addi	sp,sp,0
   c:	000d0efb          	0xd0efb
  10:	0101                	addi	sp,sp,0
  12:	0101                	addi	sp,sp,0
  14:	0000                	unimp
  16:	0100                	addi	s0,sp,128
  18:	0000                	unimp
  1a:	2e01                	jal	32a <main-0xfd4a>
  1c:	2f2e                	fld	ft10,200(sp)
  1e:	2e2e                	fld	ft8,200(sp)
  20:	2f2e2e2f          	0x2f2e2e2f
  24:	2e2e                	fld	ft8,200(sp)
  26:	2f2e2e2f          	0x2f2e2e2f
  2a:	2f2e                	fld	ft10,200(sp)
  2c:	6972                	flw	fs2,28(sp)
  2e:	2d766373          	csrrsi	t1,0x2d7,12
  32:	2f636367          	0x2f636367
  36:	696c                	flw	fa1,84(a0)
  38:	6762                	flw	fa4,24(sp)
  3a:	00006363          	bltu	zero,zero,40 <main-0x10034>
  3e:	696c                	flw	fa1,84(a0)
  40:	6762                	flw	fa4,24(sp)
  42:	2e326363          	bltu	tp,gp,328 <main-0xfd4c>
  46:	00010063          	beqz	sp,46 <main-0x1002e>
  4a:	6c00                	flw	fs0,24(s0)
  4c:	6269                	lui	tp,0x1a
  4e:	32636367          	0x32636367
  52:	682e                	flw	fa6,200(sp)
  54:	0100                	addi	s0,sp,128
  56:	0000                	unimp
  58:	0500                	addi	s0,sp,640
  5a:	0001                	nop
  5c:	0205                	addi	tp,tp,1
  5e:	0000                	unimp
  60:	0000                	unimp
  62:	010aa603          	lw	a2,16(s5)
  66:	0305                	addi	t1,t1,1
  68:	00090103          	lb	sp,0(s2) # fffe7000 <__BSS_END__+0xfffd2a38>
  6c:	0100                	addi	s0,sp,128
  6e:	0105                	addi	sp,sp,1
  70:	0306                	slli	t1,t1,0x1
  72:	097f                	0x97f
  74:	0000                	unimp
  76:	0501                	addi	a0,a0,0
  78:	d2030603          	lb	a2,-736(t1)
  7c:	097d                	addi	s2,s2,31
  7e:	0000                	unimp
  80:	0301                	addi	t1,t1,0
  82:	0901                	addi	s2,s2,0
  84:	0000                	unimp
  86:	0301                	addi	t1,t1,0
  88:	0901                	addi	s2,s2,0
  8a:	0000                	unimp
  8c:	0301                	addi	t1,t1,0
  8e:	0901                	addi	s2,s2,0
  90:	0000                	unimp
  92:	0301                	addi	t1,t1,0
  94:	0901                	addi	s2,s2,0
  96:	0000                	unimp
  98:	0301                	addi	t1,t1,0
  9a:	0901                	addi	s2,s2,0
  9c:	0000                	unimp
  9e:	0301                	addi	t1,t1,0
  a0:	0902                	c.slli64	s2
  a2:	0000                	unimp
  a4:	0501                	addi	a0,a0,0
  a6:	0601                	addi	a2,a2,0
  a8:	0902a703          	lw	a4,144(t0)
  ac:	0000                	unimp
  ae:	0501                	addi	a0,a0,0
  b0:	0306                	slli	t1,t1,0x1
  b2:	7dd9                	lui	s11,0xffff6
  b4:	0009                	c.nop	2
  b6:	0100                	addi	s0,sp,128
  b8:	0305                	addi	t1,t1,1
  ba:	0306                	slli	t1,t1,0x1
  bc:	0901                	addi	s2,s2,0
  be:	0000                	unimp
  c0:	0501                	addi	a0,a0,0
  c2:	0606                	slli	a2,a2,0x1
  c4:	00090003          	lb	zero,0(s2)
  c8:	0100                	addi	s0,sp,128
  ca:	0305                	addi	t1,t1,1
  cc:	0306                	slli	t1,t1,0x1
  ce:	0901                	addi	s2,s2,0
  d0:	0000                	unimp
  d2:	0501                	addi	a0,a0,0
  d4:	0606                	slli	a2,a2,0x1
  d6:	00090003          	lb	zero,0(s2)
  da:	0100                	addi	s0,sp,128
  dc:	0305                	addi	t1,t1,1
  de:	0306                	slli	t1,t1,0x1
  e0:	0901                	addi	s2,s2,0
  e2:	0000                	unimp
  e4:	0301                	addi	t1,t1,0
  e6:	0925                	addi	s2,s2,9
  e8:	0000                	unimp
  ea:	0501                	addi	a0,a0,0
  ec:	0606                	slli	a2,a2,0x1
  ee:	00090003          	lb	zero,0(s2)
  f2:	0100                	addi	s0,sp,128
  f4:	0705                	addi	a4,a4,1
  f6:	0306                	slli	t1,t1,0x1
  f8:	0902                	c.slli64	s2
  fa:	0000                	unimp
  fc:	0501                	addi	a0,a0,0
  fe:	060a                	slli	a2,a2,0x2
 100:	00090003          	lb	zero,0(s2)
 104:	0100                	addi	s0,sp,128
 106:	0405                	addi	s0,s0,1
 108:	0306                	slli	t1,t1,0x1
 10a:	0904                	addi	s1,sp,144
 10c:	0000                	unimp
 10e:	0301                	addi	t1,t1,0
 110:	0900                	addi	s0,sp,144
 112:	0000                	unimp
 114:	0301                	addi	t1,t1,0
 116:	0900                	addi	s0,sp,144
 118:	0000                	unimp
 11a:	0301                	addi	t1,t1,0
 11c:	0900                	addi	s0,sp,144
 11e:	0000                	unimp
 120:	0301                	addi	t1,t1,0
 122:	0900                	addi	s0,sp,144
 124:	0000                	unimp
 126:	0301                	addi	t1,t1,0
 128:	0900                	addi	s0,sp,144
 12a:	0000                	unimp
 12c:	0301                	addi	t1,t1,0
 12e:	0900                	addi	s0,sp,144
 130:	0000                	unimp
 132:	0301                	addi	t1,t1,0
 134:	0902                	c.slli64	s2
 136:	0000                	unimp
 138:	0501                	addi	a0,a0,0
 13a:	00030607          	0x30607
 13e:	0009                	c.nop	2
 140:	0100                	addi	s0,sp,128
 142:	0805                	addi	a6,a6,1
 144:	0306                	slli	t1,t1,0x1
 146:	0905                	addi	s2,s2,1
 148:	0000                	unimp
 14a:	0501                	addi	a0,a0,0
 14c:	0611                	addi	a2,a2,4
 14e:	00090103          	lb	sp,0(s2)
 152:	0100                	addi	s0,sp,128
 154:	1e05                	addi	t3,t3,-31
 156:	00090003          	lb	zero,0(s2)
 15a:	0100                	addi	s0,sp,128
 15c:	0b05                	addi	s6,s6,1
 15e:	00097f03          	0x97f03
 162:	0100                	addi	s0,sp,128
 164:	0805                	addi	a6,a6,1
 166:	0306                	slli	t1,t1,0x1
 168:	0901                	addi	s2,s2,0
 16a:	0000                	unimp
 16c:	0501                	addi	a0,a0,0
 16e:	0003060b          	0x3060b
 172:	0009                	c.nop	2
 174:	0100                	addi	s0,sp,128
 176:	0805                	addi	a6,a6,1
 178:	0306                	slli	t1,t1,0x1
 17a:	0901                	addi	s2,s2,0
 17c:	0000                	unimp
 17e:	0501                	addi	a0,a0,0
 180:	0003060b          	0x3060b
 184:	0009                	c.nop	2
 186:	0100                	addi	s0,sp,128
 188:	0405                	addi	s0,s0,1
 18a:	0306                	slli	t1,t1,0x1
 18c:	00000903          	lb	s2,0(zero) # 0 <main-0x10074>
 190:	0301                	addi	t1,t1,0
 192:	0900                	addi	s0,sp,144
 194:	0000                	unimp
 196:	0301                	addi	t1,t1,0
 198:	0900                	addi	s0,sp,144
 19a:	0000                	unimp
 19c:	0301                	addi	t1,t1,0
 19e:	0900                	addi	s0,sp,144
 1a0:	0000                	unimp
 1a2:	0301                	addi	t1,t1,0
 1a4:	0900                	addi	s0,sp,144
 1a6:	0000                	unimp
 1a8:	0301                	addi	t1,t1,0
 1aa:	0900                	addi	s0,sp,144
 1ac:	0000                	unimp
 1ae:	0301                	addi	t1,t1,0
 1b0:	0900                	addi	s0,sp,144
 1b2:	0000                	unimp
 1b4:	0301                	addi	t1,t1,0
 1b6:	0900                	addi	s0,sp,144
 1b8:	0000                	unimp
 1ba:	0301                	addi	t1,t1,0
 1bc:	0900                	addi	s0,sp,144
 1be:	0000                	unimp
 1c0:	0301                	addi	t1,t1,0
 1c2:	0900                	addi	s0,sp,144
 1c4:	0000                	unimp
 1c6:	0301                	addi	t1,t1,0
 1c8:	0900                	addi	s0,sp,144
 1ca:	0000                	unimp
 1cc:	0301                	addi	t1,t1,0
 1ce:	0900                	addi	s0,sp,144
 1d0:	0000                	unimp
 1d2:	0301                	addi	t1,t1,0
 1d4:	0900                	addi	s0,sp,144
 1d6:	0000                	unimp
 1d8:	0301                	addi	t1,t1,0
 1da:	0900                	addi	s0,sp,144
 1dc:	0000                	unimp
 1de:	0301                	addi	t1,t1,0
 1e0:	0900                	addi	s0,sp,144
 1e2:	0000                	unimp
 1e4:	0301                	addi	t1,t1,0
 1e6:	0900                	addi	s0,sp,144
 1e8:	0000                	unimp
 1ea:	0301                	addi	t1,t1,0
 1ec:	0900                	addi	s0,sp,144
 1ee:	0000                	unimp
 1f0:	0301                	addi	t1,t1,0
 1f2:	0900                	addi	s0,sp,144
 1f4:	0000                	unimp
 1f6:	0301                	addi	t1,t1,0
 1f8:	0900                	addi	s0,sp,144
 1fa:	0000                	unimp
 1fc:	0301                	addi	t1,t1,0
 1fe:	0900                	addi	s0,sp,144
 200:	0000                	unimp
 202:	0301                	addi	t1,t1,0
 204:	0900                	addi	s0,sp,144
 206:	0000                	unimp
 208:	0301                	addi	t1,t1,0
 20a:	0900                	addi	s0,sp,144
 20c:	0000                	unimp
 20e:	0301                	addi	t1,t1,0
 210:	0900                	addi	s0,sp,144
 212:	0000                	unimp
 214:	0301                	addi	t1,t1,0
 216:	0900                	addi	s0,sp,144
 218:	0000                	unimp
 21a:	0301                	addi	t1,t1,0
 21c:	0900                	addi	s0,sp,144
 21e:	0000                	unimp
 220:	0301                	addi	t1,t1,0
 222:	0900                	addi	s0,sp,144
 224:	0000                	unimp
 226:	0301                	addi	t1,t1,0
 228:	0900                	addi	s0,sp,144
 22a:	0000                	unimp
 22c:	0301                	addi	t1,t1,0
 22e:	0900                	addi	s0,sp,144
 230:	0000                	unimp
 232:	0301                	addi	t1,t1,0
 234:	0901                	addi	s2,s2,0
 236:	0000                	unimp
 238:	0501                	addi	a0,a0,0
 23a:	fe03060b          	0xfe03060b
 23e:	0900                	addi	s0,sp,144
 240:	0000                	unimp
 242:	0501                	addi	a0,a0,0
 244:	0304                	addi	s1,sp,384
 246:	7ef5                	lui	t4,0xffffd
 248:	0009                	c.nop	2
 24a:	0100                	addi	s0,sp,128
 24c:	0306                	slli	t1,t1,0x1
 24e:	0915                	addi	s2,s2,5
 250:	0000                	unimp
 252:	0501                	addi	a0,a0,0
 254:	00030607          	0x30607
 258:	0009                	c.nop	2
 25a:	0100                	addi	s0,sp,128
 25c:	0605                	addi	a2,a2,1
 25e:	0306                	slli	t1,t1,0x1
 260:	0901                	addi	s2,s2,0
 262:	0000                	unimp
 264:	0501                	addi	a0,a0,0
 266:	0609                	addi	a2,a2,2
 268:	00090003          	lb	zero,0(s2)
 26c:	0100                	addi	s0,sp,128
 26e:	0405                	addi	s0,s0,1
 270:	0306                	slli	t1,t1,0x1
 272:	0902                	c.slli64	s2
 274:	0000                	unimp
 276:	0301                	addi	t1,t1,0
 278:	0900                	addi	s0,sp,144
 27a:	0000                	unimp
 27c:	0301                	addi	t1,t1,0
 27e:	0900                	addi	s0,sp,144
 280:	0000                	unimp
 282:	0301                	addi	t1,t1,0
 284:	0900                	addi	s0,sp,144
 286:	0000                	unimp
 288:	0301                	addi	t1,t1,0
 28a:	0900                	addi	s0,sp,144
 28c:	0000                	unimp
 28e:	0301                	addi	t1,t1,0
 290:	0900                	addi	s0,sp,144
 292:	0000                	unimp
 294:	0301                	addi	t1,t1,0
 296:	0900                	addi	s0,sp,144
 298:	0000                	unimp
 29a:	0301                	addi	t1,t1,0
 29c:	0902                	c.slli64	s2
 29e:	0000                	unimp
 2a0:	0501                	addi	a0,a0,0
 2a2:	00030607          	0x30607
 2a6:	0009                	c.nop	2
 2a8:	0100                	addi	s0,sp,128
 2aa:	0805                	addi	a6,a6,1
 2ac:	0306                	slli	t1,t1,0x1
 2ae:	0909                	addi	s2,s2,2
 2b0:	0000                	unimp
 2b2:	0501                	addi	a0,a0,0
 2b4:	0003060b          	0x3060b
 2b8:	0009                	c.nop	2
 2ba:	0100                	addi	s0,sp,128
 2bc:	0805                	addi	a6,a6,1
 2be:	0306                	slli	t1,t1,0x1
 2c0:	0901                	addi	s2,s2,0
 2c2:	0000                	unimp
 2c4:	0501                	addi	a0,a0,0
 2c6:	0003060b          	0x3060b
 2ca:	0009                	c.nop	2
 2cc:	0100                	addi	s0,sp,128
 2ce:	0805                	addi	a6,a6,1
 2d0:	0306                	slli	t1,t1,0x1
 2d2:	090d                	addi	s2,s2,3
 2d4:	0000                	unimp
 2d6:	0501                	addi	a0,a0,0
 2d8:	0304                	addi	s1,sp,384
 2da:	0905                	addi	s2,s2,1
 2dc:	0000                	unimp
 2de:	0301                	addi	t1,t1,0
 2e0:	0900                	addi	s0,sp,144
 2e2:	0000                	unimp
 2e4:	0301                	addi	t1,t1,0
 2e6:	0900                	addi	s0,sp,144
 2e8:	0000                	unimp
 2ea:	0301                	addi	t1,t1,0
 2ec:	0900                	addi	s0,sp,144
 2ee:	0000                	unimp
 2f0:	0301                	addi	t1,t1,0
 2f2:	0900                	addi	s0,sp,144
 2f4:	0000                	unimp
 2f6:	0301                	addi	t1,t1,0
 2f8:	0900                	addi	s0,sp,144
 2fa:	0000                	unimp
 2fc:	0301                	addi	t1,t1,0
 2fe:	0900                	addi	s0,sp,144
 300:	0000                	unimp
 302:	0301                	addi	t1,t1,0
 304:	0900                	addi	s0,sp,144
 306:	0000                	unimp
 308:	0301                	addi	t1,t1,0
 30a:	0900                	addi	s0,sp,144
 30c:	0000                	unimp
 30e:	0301                	addi	t1,t1,0
 310:	0900                	addi	s0,sp,144
 312:	0000                	unimp
 314:	0301                	addi	t1,t1,0
 316:	0900                	addi	s0,sp,144
 318:	0000                	unimp
 31a:	0301                	addi	t1,t1,0
 31c:	0900                	addi	s0,sp,144
 31e:	0000                	unimp
 320:	0301                	addi	t1,t1,0
 322:	0900                	addi	s0,sp,144
 324:	0000                	unimp
 326:	0301                	addi	t1,t1,0
 328:	0900                	addi	s0,sp,144
 32a:	0000                	unimp
 32c:	0301                	addi	t1,t1,0
 32e:	0900                	addi	s0,sp,144
 330:	0000                	unimp
 332:	0301                	addi	t1,t1,0
 334:	0900                	addi	s0,sp,144
 336:	0000                	unimp
 338:	0301                	addi	t1,t1,0
 33a:	0900                	addi	s0,sp,144
 33c:	0000                	unimp
 33e:	0301                	addi	t1,t1,0
 340:	0900                	addi	s0,sp,144
 342:	0000                	unimp
 344:	0301                	addi	t1,t1,0
 346:	0900                	addi	s0,sp,144
 348:	0000                	unimp
 34a:	0301                	addi	t1,t1,0
 34c:	0900                	addi	s0,sp,144
 34e:	0000                	unimp
 350:	0301                	addi	t1,t1,0
 352:	0900                	addi	s0,sp,144
 354:	0000                	unimp
 356:	0301                	addi	t1,t1,0
 358:	0900                	addi	s0,sp,144
 35a:	0000                	unimp
 35c:	0301                	addi	t1,t1,0
 35e:	0900                	addi	s0,sp,144
 360:	0000                	unimp
 362:	0301                	addi	t1,t1,0
 364:	0900                	addi	s0,sp,144
 366:	0000                	unimp
 368:	0301                	addi	t1,t1,0
 36a:	0900                	addi	s0,sp,144
 36c:	0000                	unimp
 36e:	0301                	addi	t1,t1,0
 370:	0900                	addi	s0,sp,144
 372:	0000                	unimp
 374:	0301                	addi	t1,t1,0
 376:	0900                	addi	s0,sp,144
 378:	0000                	unimp
 37a:	0501                	addi	a0,a0,0
 37c:	00e30303          	lb	t1,14(t1)
 380:	0009                	c.nop	2
 382:	0100                	addi	s0,sp,128
 384:	00090103          	lb	sp,0(s2)
 388:	0100                	addi	s0,sp,128
 38a:	0105                	addi	sp,sp,1
 38c:	0306                	slli	t1,t1,0x1
 38e:	00e1                	addi	ra,ra,24
 390:	0009                	c.nop	2
 392:	0100                	addi	s0,sp,128
 394:	0405                	addi	s0,s0,1
 396:	097e9d03          	lh	s10,151(t4) # ffffd097 <__BSS_END__+0xfffe8acf>
 39a:	0000                	unimp
 39c:	0501                	addi	a0,a0,0
 39e:	0608                	addi	a0,sp,768
 3a0:	00091203          	lh	tp,0(s2)
 3a4:	0100                	addi	s0,sp,128
 3a6:	00090203          	lb	tp,0(s2)
 3aa:	0100                	addi	s0,sp,128
 3ac:	0b05                	addi	s6,s6,1
 3ae:	0306                	slli	t1,t1,0x1
 3b0:	0900                	addi	s0,sp,144
 3b2:	0000                	unimp
 3b4:	0501                	addi	a0,a0,0
 3b6:	0608                	addi	a0,sp,768
 3b8:	00090103          	lb	sp,0(s2)
 3bc:	0100                	addi	s0,sp,128
 3be:	0b05                	addi	s6,s6,1
 3c0:	0306                	slli	t1,t1,0x1
 3c2:	0900                	addi	s0,sp,144
 3c4:	0000                	unimp
 3c6:	0501                	addi	a0,a0,0
 3c8:	0608                	addi	a0,sp,768
 3ca:	00090103          	lb	sp,0(s2)
 3ce:	0100                	addi	s0,sp,128
 3d0:	0b05                	addi	s6,s6,1
 3d2:	0306                	slli	t1,t1,0x1
 3d4:	0901                	addi	s2,s2,0
 3d6:	0000                	unimp
 3d8:	0501                	addi	a0,a0,0
 3da:	0311                	addi	t1,t1,4
 3dc:	097f                	0x97f
 3de:	0000                	unimp
 3e0:	0501                	addi	a0,a0,0
 3e2:	031e                	slli	t1,t1,0x7
 3e4:	0900                	addi	s0,sp,144
 3e6:	0000                	unimp
 3e8:	0501                	addi	a0,a0,0
 3ea:	0308                	addi	a0,sp,384
 3ec:	00000903          	lb	s2,0(zero) # 0 <main-0x10074>
 3f0:	0501                	addi	a0,a0,0
 3f2:	097d030b          	0x97d030b
 3f6:	0000                	unimp
 3f8:	0501                	addi	a0,a0,0
 3fa:	0608                	addi	a0,sp,768
 3fc:	00090103          	lb	sp,0(s2)
 400:	0100                	addi	s0,sp,128
 402:	00090203          	lb	tp,0(s2)
 406:	0100                	addi	s0,sp,128
 408:	00090003          	lb	zero,0(s2)
 40c:	0100                	addi	s0,sp,128
 40e:	00090003          	lb	zero,0(s2)
 412:	0100                	addi	s0,sp,128
 414:	00090003          	lb	zero,0(s2)
 418:	0100                	addi	s0,sp,128
 41a:	00090003          	lb	zero,0(s2)
 41e:	0100                	addi	s0,sp,128
 420:	00090003          	lb	zero,0(s2)
 424:	0100                	addi	s0,sp,128
 426:	00090003          	lb	zero,0(s2)
 42a:	0100                	addi	s0,sp,128
 42c:	00090003          	lb	zero,0(s2)
 430:	0100                	addi	s0,sp,128
 432:	00090003          	lb	zero,0(s2)
 436:	0100                	addi	s0,sp,128
 438:	00090003          	lb	zero,0(s2)
 43c:	0100                	addi	s0,sp,128
 43e:	00090003          	lb	zero,0(s2)
 442:	0100                	addi	s0,sp,128
 444:	00090003          	lb	zero,0(s2)
 448:	0100                	addi	s0,sp,128
 44a:	00090003          	lb	zero,0(s2)
 44e:	0100                	addi	s0,sp,128
 450:	00090003          	lb	zero,0(s2)
 454:	0100                	addi	s0,sp,128
 456:	00090003          	lb	zero,0(s2)
 45a:	0100                	addi	s0,sp,128
 45c:	00090003          	lb	zero,0(s2)
 460:	0100                	addi	s0,sp,128
 462:	00090003          	lb	zero,0(s2)
 466:	0100                	addi	s0,sp,128
 468:	00090003          	lb	zero,0(s2)
 46c:	0100                	addi	s0,sp,128
 46e:	00090003          	lb	zero,0(s2)
 472:	0100                	addi	s0,sp,128
 474:	00090003          	lb	zero,0(s2)
 478:	0100                	addi	s0,sp,128
 47a:	00090003          	lb	zero,0(s2)
 47e:	0100                	addi	s0,sp,128
 480:	00090003          	lb	zero,0(s2)
 484:	0100                	addi	s0,sp,128
 486:	00090003          	lb	zero,0(s2)
 48a:	0100                	addi	s0,sp,128
 48c:	00090003          	lb	zero,0(s2)
 490:	0100                	addi	s0,sp,128
 492:	00090003          	lb	zero,0(s2)
 496:	0100                	addi	s0,sp,128
 498:	00090003          	lb	zero,0(s2)
 49c:	0100                	addi	s0,sp,128
 49e:	00090003          	lb	zero,0(s2)
 4a2:	0100                	addi	s0,sp,128
 4a4:	0705                	addi	a4,a4,1
 4a6:	00091503          	lh	a0,0(s2)
 4aa:	0100                	addi	s0,sp,128
 4ac:	0a05                	addi	s4,s4,1
 4ae:	0306                	slli	t1,t1,0x1
 4b0:	0900                	addi	s0,sp,144
 4b2:	0000                	unimp
 4b4:	0501                	addi	a0,a0,0
 4b6:	0604                	addi	s1,sp,768
 4b8:	00091303          	lh	t1,0(s2)
 4bc:	0100                	addi	s0,sp,128
 4be:	00090003          	lb	zero,0(s2)
 4c2:	0100                	addi	s0,sp,128
 4c4:	00090003          	lb	zero,0(s2)
 4c8:	0100                	addi	s0,sp,128
 4ca:	00090003          	lb	zero,0(s2)
 4ce:	0100                	addi	s0,sp,128
 4d0:	00090003          	lb	zero,0(s2)
 4d4:	0100                	addi	s0,sp,128
 4d6:	00090003          	lb	zero,0(s2)
 4da:	0100                	addi	s0,sp,128
 4dc:	00090003          	lb	zero,0(s2)
 4e0:	0100                	addi	s0,sp,128
 4e2:	00090103          	lb	sp,0(s2)
 4e6:	0100                	addi	s0,sp,128
 4e8:	0705                	addi	a4,a4,1
 4ea:	0306                	slli	t1,t1,0x1
 4ec:	0900                	addi	s0,sp,144
 4ee:	0000                	unimp
 4f0:	0501                	addi	a0,a0,0
 4f2:	0608                	addi	a0,sp,768
 4f4:	00090a03          	lb	s4,0(s2)
 4f8:	0100                	addi	s0,sp,128
 4fa:	0306                	slli	t1,t1,0x1
 4fc:	0902                	c.slli64	s2
 4fe:	0000                	unimp
 500:	0501                	addi	a0,a0,0
 502:	097e030b          	0x97e030b
 506:	0000                	unimp
 508:	0501                	addi	a0,a0,0
 50a:	0314                	addi	a3,sp,384
 50c:	0900                	addi	s0,sp,144
 50e:	0000                	unimp
 510:	0501                	addi	a0,a0,0
 512:	0304                	addi	s1,sp,384
 514:	0975                	addi	s2,s2,29
 516:	0000                	unimp
 518:	0501                	addi	a0,a0,0
 51a:	0608                	addi	a0,sp,768
 51c:	00091e03          	lh	t3,0(s2)
 520:	0100                	addi	s0,sp,128
 522:	00090303          	lb	t1,0(s2)
 526:	0100                	addi	s0,sp,128
 528:	00090203          	lb	tp,0(s2)
 52c:	0100                	addi	s0,sp,128
 52e:	1e05                	addi	t3,t3,-31
 530:	0306                	slli	t1,t1,0x1
 532:	0900                	addi	s0,sp,144
 534:	0000                	unimp
 536:	0501                	addi	a0,a0,0
 538:	0311                	addi	t1,t1,4
 53a:	0900                	addi	s0,sp,144
 53c:	0000                	unimp
 53e:	0501                	addi	a0,a0,0
 540:	0900030b          	0x900030b
 544:	0000                	unimp
 546:	0501                	addi	a0,a0,0
 548:	0608                	addi	a0,sp,768
 54a:	00090103          	lb	sp,0(s2)
 54e:	0100                	addi	s0,sp,128
 550:	0b05                	addi	s6,s6,1
 552:	0306                	slli	t1,t1,0x1
 554:	0901                	addi	s2,s2,0
 556:	0000                	unimp
 558:	0501                	addi	a0,a0,0
 55a:	0308                	addi	a0,sp,384
 55c:	0904                	addi	s1,sp,144
 55e:	0000                	unimp
 560:	0501                	addi	a0,a0,0
 562:	0311                	addi	t1,t1,4
 564:	097d                	addi	s2,s2,31
 566:	0000                	unimp
 568:	0501                	addi	a0,a0,0
 56a:	031e                	slli	t1,t1,0x7
 56c:	0900                	addi	s0,sp,144
 56e:	0000                	unimp
 570:	0501                	addi	a0,a0,0
 572:	097e030b          	0x97e030b
 576:	0000                	unimp
 578:	0501                	addi	a0,a0,0
 57a:	0608                	addi	a0,sp,768
 57c:	00090103          	lb	sp,0(s2)
 580:	0100                	addi	s0,sp,128
 582:	00090103          	lb	sp,0(s2)
 586:	0100                	addi	s0,sp,128
 588:	0b05                	addi	s6,s6,1
 58a:	0306                	slli	t1,t1,0x1
 58c:	0900                	addi	s0,sp,144
 58e:	0000                	unimp
 590:	0501                	addi	a0,a0,0
 592:	0608                	addi	a0,sp,768
 594:	00090103          	lb	sp,0(s2)
 598:	0100                	addi	s0,sp,128
 59a:	00090203          	lb	tp,0(s2)
 59e:	0100                	addi	s0,sp,128
 5a0:	00090003          	lb	zero,0(s2)
 5a4:	0100                	addi	s0,sp,128
 5a6:	00090003          	lb	zero,0(s2)
 5aa:	0100                	addi	s0,sp,128
 5ac:	00090003          	lb	zero,0(s2)
 5b0:	0100                	addi	s0,sp,128
 5b2:	00090003          	lb	zero,0(s2)
 5b6:	0100                	addi	s0,sp,128
 5b8:	00090003          	lb	zero,0(s2)
 5bc:	0100                	addi	s0,sp,128
 5be:	00090003          	lb	zero,0(s2)
 5c2:	0100                	addi	s0,sp,128
 5c4:	00090003          	lb	zero,0(s2)
 5c8:	0100                	addi	s0,sp,128
 5ca:	00090003          	lb	zero,0(s2)
 5ce:	0100                	addi	s0,sp,128
 5d0:	00090003          	lb	zero,0(s2)
 5d4:	0100                	addi	s0,sp,128
 5d6:	00090003          	lb	zero,0(s2)
 5da:	0100                	addi	s0,sp,128
 5dc:	00090003          	lb	zero,0(s2)
 5e0:	0100                	addi	s0,sp,128
 5e2:	00090003          	lb	zero,0(s2)
 5e6:	0100                	addi	s0,sp,128
 5e8:	00090003          	lb	zero,0(s2)
 5ec:	0100                	addi	s0,sp,128
 5ee:	00090003          	lb	zero,0(s2)
 5f2:	0100                	addi	s0,sp,128
 5f4:	00090003          	lb	zero,0(s2)
 5f8:	0100                	addi	s0,sp,128
 5fa:	00090003          	lb	zero,0(s2)
 5fe:	0100                	addi	s0,sp,128
 600:	00090003          	lb	zero,0(s2)
 604:	0100                	addi	s0,sp,128
 606:	00090003          	lb	zero,0(s2)
 60a:	0100                	addi	s0,sp,128
 60c:	00090003          	lb	zero,0(s2)
 610:	0100                	addi	s0,sp,128
 612:	00090003          	lb	zero,0(s2)
 616:	0100                	addi	s0,sp,128
 618:	00090003          	lb	zero,0(s2)
 61c:	0100                	addi	s0,sp,128
 61e:	00090003          	lb	zero,0(s2)
 622:	0100                	addi	s0,sp,128
 624:	00090003          	lb	zero,0(s2)
 628:	0100                	addi	s0,sp,128
 62a:	00090003          	lb	zero,0(s2)
 62e:	0100                	addi	s0,sp,128
 630:	0306                	slli	t1,t1,0x1
 632:	0901                	addi	s2,s2,0
 634:	0000                	unimp
 636:	0301                	addi	t1,t1,0
 638:	097f                	0x97f
 63a:	0000                	unimp
 63c:	0301                	addi	t1,t1,0
 63e:	0901                	addi	s2,s2,0
 640:	0000                	unimp
 642:	0301                	addi	t1,t1,0
 644:	097f                	0x97f
 646:	0000                	unimp
 648:	0601                	addi	a2,a2,0
 64a:	00090003          	lb	zero,0(s2)
 64e:	0100                	addi	s0,sp,128
 650:	00090003          	lb	zero,0(s2)
 654:	0100                	addi	s0,sp,128
 656:	00090003          	lb	zero,0(s2)
 65a:	0100                	addi	s0,sp,128
 65c:	00090103          	lb	sp,0(s2)
 660:	0100                	addi	s0,sp,128
 662:	00090003          	lb	zero,0(s2)
 666:	0100                	addi	s0,sp,128
 668:	00090003          	lb	zero,0(s2)
 66c:	0100                	addi	s0,sp,128
 66e:	00090003          	lb	zero,0(s2)
 672:	0100                	addi	s0,sp,128
 674:	00090003          	lb	zero,0(s2)
 678:	0100                	addi	s0,sp,128
 67a:	00090003          	lb	zero,0(s2)
 67e:	0100                	addi	s0,sp,128
 680:	00090003          	lb	zero,0(s2)
 684:	0100                	addi	s0,sp,128
 686:	00090003          	lb	zero,0(s2)
 68a:	0100                	addi	s0,sp,128
 68c:	00090003          	lb	zero,0(s2)
 690:	0100                	addi	s0,sp,128
 692:	00090003          	lb	zero,0(s2)
 696:	0100                	addi	s0,sp,128
 698:	00090003          	lb	zero,0(s2)
 69c:	0100                	addi	s0,sp,128
 69e:	00090003          	lb	zero,0(s2)
 6a2:	0100                	addi	s0,sp,128
 6a4:	00090003          	lb	zero,0(s2)
 6a8:	0100                	addi	s0,sp,128
 6aa:	00090003          	lb	zero,0(s2)
 6ae:	0100                	addi	s0,sp,128
 6b0:	00090003          	lb	zero,0(s2)
 6b4:	0100                	addi	s0,sp,128
 6b6:	00090003          	lb	zero,0(s2)
 6ba:	0100                	addi	s0,sp,128
 6bc:	00090003          	lb	zero,0(s2)
 6c0:	0100                	addi	s0,sp,128
 6c2:	00090003          	lb	zero,0(s2)
 6c6:	0100                	addi	s0,sp,128
 6c8:	00090203          	lb	tp,0(s2)
 6cc:	0100                	addi	s0,sp,128
 6ce:	0b05                	addi	s6,s6,1
 6d0:	0306                	slli	t1,t1,0x1
 6d2:	0900                	addi	s0,sp,144
 6d4:	0000                	unimp
 6d6:	0501                	addi	a0,a0,0
 6d8:	0314                	addi	a3,sp,384
 6da:	0900                	addi	s0,sp,144
 6dc:	0000                	unimp
 6de:	0501                	addi	a0,a0,0
 6e0:	0308                	addi	a0,sp,384
 6e2:	097e                	slli	s2,s2,0x1f
 6e4:	0000                	unimp
 6e6:	0501                	addi	a0,a0,0
 6e8:	097d030b          	0x97d030b
 6ec:	0000                	unimp
 6ee:	0501                	addi	a0,a0,0
 6f0:	0308                	addi	a0,sp,384
 6f2:	00000903          	lb	s2,0(zero) # 0 <main-0x10074>
 6f6:	0501                	addi	a0,a0,0
 6f8:	0908030b          	0x908030b
 6fc:	0000                	unimp
 6fe:	0501                	addi	a0,a0,0
 700:	0321                	addi	t1,t1,8
 702:	097a                	slli	s2,s2,0x1e
 704:	0000                	unimp
 706:	0501                	addi	a0,a0,0
 708:	0605                	addi	a2,a2,1
 70a:	00090203          	lb	tp,0(s2)
 70e:	0100                	addi	s0,sp,128
 710:	0705                	addi	a4,a4,1
 712:	0306                	slli	t1,t1,0x1
 714:	0900                	addi	s0,sp,144
 716:	0000                	unimp
 718:	0501                	addi	a0,a0,0
 71a:	0605                	addi	a2,a2,1
 71c:	00090103          	lb	sp,0(s2)
 720:	0100                	addi	s0,sp,128
 722:	00090003          	lb	zero,0(s2)
 726:	0100                	addi	s0,sp,128
 728:	00090003          	lb	zero,0(s2)
 72c:	0100                	addi	s0,sp,128
 72e:	00090003          	lb	zero,0(s2)
 732:	0100                	addi	s0,sp,128
 734:	00090003          	lb	zero,0(s2)
 738:	0100                	addi	s0,sp,128
 73a:	0705                	addi	a4,a4,1
 73c:	0306                	slli	t1,t1,0x1
 73e:	00000943          	fmadd.s	fs2,ft0,ft0,ft0,rne
 742:	0301                	addi	t1,t1,0
 744:	097f                	0x97f
 746:	0000                	unimp
 748:	0901                	addi	s2,s2,0
 74a:	0000                	unimp
 74c:	0100                	addi	s0,sp,128
 74e:	01              	Address 0x000000000000074e is out of bounds.


Disassembly of section .debug_str:

00000000 <.debug_str>:
   0:	5744                	lw	s1,44(a4)
   2:	6e75                	lui	t3,0x1d
   4:	6f69                	lui	t5,0x1a
   6:	006e                	c.slli	zero,0x1b
   8:	5f5f 6475 7669      	0x766964755f5f
   e:	6964                	flw	fs1,84(a0)
  10:	6f630033          	0x6f630033
  14:	706d                	c.lui	zero,0xffffb
  16:	656c                	flw	fa1,76(a0)
  18:	2078                	fld	fa4,192(s0)
  1a:	6c66                	flw	fs8,88(sp)
  1c:	0074616f          	jal	sp,46822 <__BSS_END__+0x3225a>
  20:	2e2e                	fld	ft8,200(sp)
  22:	2f2e2e2f          	0x2f2e2e2f
  26:	2e2e                	fld	ft8,200(sp)
  28:	2f2e2e2f          	0x2f2e2e2f
  2c:	2e2e                	fld	ft8,200(sp)
  2e:	722f2e2f          	0x722f2e2f
  32:	7369                	lui	t1,0xffffa
  34:	672d7663          	bgeu	s10,s2,6a0 <main-0xf9d4>
  38:	6c2f6363          	bltu	t5,sp,6fe <main-0xf976>
  3c:	6269                	lui	tp,0x1a
  3e:	2f636367          	0x2f636367
  42:	696c                	flw	fa1,84(a0)
  44:	6762                	flw	fa4,24(sp)
  46:	2e326363          	bltu	tp,gp,32c <main-0xfd48>
  4a:	5f5f0063          	beq	t5,s5,62a <main-0xfa4a>
  4e:	3064                	fld	fs1,224(s0)
  50:	5f00                	lw	s0,56(a4)
  52:	645f 0031 6873      	0x68730031645f
  58:	2074726f          	jal	tp,47a5e <__BSS_END__+0x33496>
  5c:	6e69                	lui	t3,0x1a
  5e:	0074                	addi	a3,sp,12
  60:	5f5f 6876 5f00      	0x5f0068765f5f
  66:	765f 006c 6f6c      	0x6f6c006c765f
  6c:	676e                	flw	fa4,216(sp)
  6e:	6c20                	flw	fs0,88(s0)
  70:	20676e6f          	jal	t3,76276 <__BSS_END__+0x61cae>
  74:	6e69                	lui	t3,0x1a
  76:	0074                	addi	a3,sp,12
  78:	6f6c                	flw	fa1,92(a4)
  7a:	676e                	flw	fa4,216(sp)
  7c:	6c20                	flw	fs0,88(s0)
  7e:	20676e6f          	jal	t3,76284 <__BSS_END__+0x61cbc>
  82:	6e75                	lui	t3,0x1d
  84:	6e676973          	csrrsi	s2,0x6e6,14
  88:	6465                	lui	s0,0x19
  8a:	6920                	flw	fs0,80(a0)
  8c:	746e                	flw	fs0,248(sp)
  8e:	4700                	lw	s0,8(a4)
  90:	554e                	lw	a0,240(sp)
  92:	4320                	lw	s0,64(a4)
  94:	3731                	jal	ffffffa0 <__BSS_END__+0xfffeb9d8>
  96:	3120                	fld	fs0,96(a0)
  98:	2e30                	fld	fa2,88(a2)
  9a:	2e32                	fld	ft8,264(sp)
  9c:	2030                	fld	fa2,64(s0)
  9e:	6d2d                	lui	s10,0xb
  a0:	646f6d63          	bltu	t5,t1,6fa <main-0xf97a>
  a4:	6c65                	lui	s8,0x19
  a6:	6d3d                	lui	s10,0xf
  a8:	6465                	lui	s0,0x19
  aa:	6f6c                	flw	fa1,92(a4)
  ac:	6d2d2077          	0x6d2d2077
  b0:	7261                	lui	tp,0xffff8
  b2:	723d6863          	bltu	s10,gp,7e2 <main-0xf892>
  b6:	3376                	fld	ft6,376(sp)
  b8:	6932                	flw	fs2,12(sp)
  ba:	666d                	lui	a2,0x1b
  bc:	2d20                	fld	fs0,88(a0)
  be:	616d                	addi	sp,sp,240
  c0:	6962                	flw	fs2,24(sp)
  c2:	693d                	lui	s2,0xf
  c4:	706c                	flw	fa1,100(s0)
  c6:	20663233          	0x20663233
  ca:	6d2d                	lui	s10,0xb
  cc:	646f6d63          	bltu	t5,t1,726 <main-0xf94e>
  d0:	6c65                	lui	s8,0x19
  d2:	6d3d                	lui	s10,0xf
  d4:	6465                	lui	s0,0x19
  d6:	6f6c                	flw	fa1,92(a4)
  d8:	6d2d2077          	0x6d2d2077
  dc:	7574                	flw	fa3,108(a0)
  de:	656e                	flw	fa0,216(sp)
  e0:	723d                	lui	tp,0xfffef
  e2:	656b636f          	jal	t1,b6738 <__BSS_END__+0xa2170>
  e6:	2074                	fld	fa3,192(s0)
  e8:	6d2d                	lui	s10,0xb
  ea:	7261                	lui	tp,0xffff8
  ec:	723d6863          	bltu	s10,gp,81c <main-0xf858>
  f0:	3376                	fld	ft6,376(sp)
  f2:	6932                	flw	fs2,12(sp)
  f4:	666d                	lui	a2,0x1b
  f6:	2d20                	fld	fs0,88(a0)
  f8:	4f2d2067          	0x4f2d2067
  fc:	4f2d2073          	csrs	0x4f2,s10
 100:	2032                	fld	ft0,264(sp)
 102:	4f2d                	li	t5,11
 104:	662d2073          	csrs	0x662,s10
 108:	7562                	flw	fa0,56(sp)
 10a:	6c69                	lui	s8,0x1a
 10c:	6964                	flw	fs1,84(a0)
 10e:	676e                	flw	fa4,216(sp)
 110:	6c2d                	lui	s8,0xb
 112:	6269                	lui	tp,0x1a
 114:	20636367          	0x20636367
 118:	662d                	lui	a2,0xb
 11a:	6f6e                	flw	ft10,216(sp)
 11c:	732d                	lui	t1,0xfffeb
 11e:	6174                	flw	fa3,68(a0)
 120:	702d6b63          	bltu	s10,sp,836 <main-0xf83e>
 124:	6f72                	flw	ft10,28(sp)
 126:	6574                	flw	fa3,76(a0)
 128:	726f7463          	bgeu	t5,t1,850 <main-0xf824>
 12c:	2d20                	fld	fs0,88(a0)
 12e:	6566                	flw	fa0,88(sp)
 130:	6378                	flw	fa4,68(a4)
 132:	7065                	c.lui	zero,0xffff9
 134:	6974                	flw	fa3,84(a0)
 136:	20736e6f          	jal	t3,36b3c <__BSS_END__+0x22574>
 13a:	662d                	lui	a2,0xb
 13c:	6f6e                	flw	ft10,216(sp)
 13e:	2d6e                	fld	fs10,216(sp)
 140:	6c6c6163          	bltu	s8,t1,802 <main-0xf872>
 144:	652d                	lui	a0,0xb
 146:	6378                	flw	fa4,68(a4)
 148:	7065                	c.lui	zero,0xffff9
 14a:	6974                	flw	fa3,84(a0)
 14c:	20736e6f          	jal	t3,36b52 <__BSS_END__+0x2258a>
 150:	662d                	lui	a2,0xb
 152:	6976                	flw	fs2,92(sp)
 154:	69626973          	csrrsi	s2,0x696,4
 158:	696c                	flw	fa1,84(a0)
 15a:	7974                	flw	fa3,116(a0)
 15c:	683d                	lui	a6,0xf
 15e:	6469                	lui	s0,0x1a
 160:	6564                	flw	fs1,76(a0)
 162:	006e                	c.slli	zero,0x1b
 164:	6968                	flw	fa0,84(a0)
 166:	5f006867          	0x5f006867
 16a:	635f 7a6c 745f      	0x745f7a6c635f
 170:	6261                	lui	tp,0x18
 172:	7500                	flw	fs0,40(a0)
 174:	736e                	flw	ft6,248(sp)
 176:	6769                	lui	a4,0x1a
 178:	656e                	flw	fa0,216(sp)
 17a:	2064                	fld	fs1,192(s0)
 17c:	72616863          	bltu	sp,t1,8ac <main-0xf7c8>
 180:	5f00                	lw	s0,56(a4)
 182:	785f 0030 5f5f      	0x5f5f0030785f
 188:	3178                	fld	fa4,224(a0)
 18a:	5f00                	lw	s0,56(a4)
 18c:	785f 0032 5f5f      	0x5f5f0032785f
 192:	3378                	fld	fa4,224(a4)
 194:	5500                	lw	s0,40(a0)
 196:	4951                	li	s2,20
 198:	7974                	flw	fa3,116(a0)
 19a:	6570                	flw	fa2,76(a0)
 19c:	4400                	lw	s0,8(s0)
 19e:	72747357          	0x72747357
 1a2:	6375                	lui	t1,0x1d
 1a4:	0074                	addi	a3,sp,12
 1a6:	726f6873          	csrrsi	a6,0x726,30
 1aa:	2074                	fld	fa3,192(s0)
 1ac:	6e75                	lui	t3,0x1d
 1ae:	6e676973          	csrrsi	s2,0x6e6,14
 1b2:	6465                	lui	s0,0x19
 1b4:	6920                	flw	fs0,80(a0)
 1b6:	746e                	flw	fs0,248(sp)
 1b8:	5500                	lw	s0,40(a0)
 1ba:	4944                	lw	s1,20(a0)
 1bc:	7974                	flw	fa3,116(a0)
 1be:	6570                	flw	fa2,76(a0)
 1c0:	5f00                	lw	s0,56(a4)
 1c2:	715f 0030 5f5f      	0x5f5f0030715f
 1c8:	3171                	jal	fffffe54 <__BSS_END__+0xfffeb88c>
 1ca:	6300                	flw	fs0,0(a4)
 1cc:	6c706d6f          	jal	s10,7092 <main-0x8fe2>
 1d0:	7865                	lui	a6,0xffff9
 1d2:	6420                	flw	fs0,72(s0)
 1d4:	6c62756f          	jal	a0,2789a <__BSS_END__+0x132d2>
 1d8:	0065                	c.nop	25
 1da:	5f5f 7278 5f00      	0x5f0072785f5f
 1e0:	755f 6964 6d76      	0x6d766964755f
 1e6:	6964646f          	jal	s0,4687c <__BSS_END__+0x322b4>
 1ea:	0034                	addi	a3,sp,8
 1ec:	706d6f63          	bltu	s10,t1,90a <main-0xf76a>
 1f0:	656c                	flw	fa1,76(a0)
 1f2:	2078                	fld	fa4,192(s0)
 1f4:	6f6c                	flw	fa1,92(a4)
 1f6:	676e                	flw	fa4,216(sp)
 1f8:	6420                	flw	fs0,72(s0)
 1fa:	6c62756f          	jal	a0,278c0 <__BSS_END__+0x132f8>
 1fe:	0065                	c.nop	25
 200:	64656d2f          	0x64656d2f
 204:	6169                	addi	sp,sp,208
 206:	676e652f          	0x676e652f
 20a:	6e69                	lui	t3,0x1a
 20c:	6f74532f          	0x6f74532f
 210:	6172                	flw	ft2,28(sp)
 212:	2f416567          	0x2f416567
 216:	5046                	0x5046
 218:	722f4147          	fmsub.d	ft2,ft10,ft2,fa4,rmm
 21c:	7369                	lui	t1,0xffffa
 21e:	672d7663          	bgeu	s10,s2,88a <main-0xf7ea>
 222:	756e                	flw	fa0,248(sp)
 224:	742d                	lui	s0,0xfffeb
 226:	636c6f6f          	jal	t5,c685c <__BSS_END__+0xb2294>
 22a:	6168                	flw	fa0,68(a0)
 22c:	6e69                	lui	t3,0x1a
 22e:	6975622f          	0x6975622f
 232:	646c                	flw	fa1,76(s0)
 234:	672d                	lui	a4,0xb
 236:	6e2d6363          	bltu	s10,sp,91c <main-0xf758>
 23a:	7765                	lui	a4,0xffff9
 23c:	696c                	flw	fa1,84(a0)
 23e:	2d62                	fld	fs10,24(sp)
 240:	67617473          	csrrci	s0,0x676,2
 244:	3265                	jal	fffffbec <__BSS_END__+0xfffeb624>
 246:	7369722f          	0x7369722f
 24a:	34367663          	bgeu	a2,gp,596 <main-0xfade>
 24e:	752d                	lui	a0,0xfffeb
 250:	6b6e                	flw	fs6,216(sp)
 252:	6f6e                	flw	ft10,216(sp)
 254:	652d6e77          	0x652d6e77
 258:	666c                	flw	fa1,76(a2)
 25a:	3376722f          	0x3376722f
 25e:	6932                	flw	fs2,12(sp)
 260:	666d                	lui	a2,0x1b
 262:	706c692f          	0x706c692f
 266:	2f663233          	0x2f663233
 26a:	696c                	flw	fa1,84(a0)
 26c:	6762                	flw	fa4,24(sp)
 26e:	55006363          	bltu	zero,a6,7b4 <main-0xf8c0>
 272:	79744953          	0x79744953
 276:	6570                	flw	fa2,76(a0)
 278:	5f00                	lw	s0,56(a4)
 27a:	725f 0030 5f5f      	0x5f5f0030725f
 280:	3172                	fld	ft2,312(sp)
 282:	5f00                	lw	s0,56(a4)
 284:	755f 0068 5f5f      	0x5f5f0068755f
 28a:	6c75                	lui	s8,0x1d
	...

Disassembly of section .debug_loc:

00000000 <.debug_loc>:
	...
   8:	0006                	c.slli	zero,0x1
   a:	935a                	add	t1,t1,s6
   c:	5b04                	lw	s1,48(a4)
   e:	00000493          	li	s1,0
  12:	0000                	unimp
  14:	0000                	unimp
  16:	0000                	unimp
  18:	0006                	c.slli	zero,0x1
  1a:	0af503f3          	0xaf503f3
  1e:	9f25                	0x9f25
	...
  30:	0006                	c.slli	zero,0x1
  32:	935c                	0x935c
  34:	5d04                	lw	s1,56(a0)
  36:	00000493          	li	s1,0
  3a:	0000                	unimp
  3c:	0000                	unimp
  3e:	0000                	unimp
  40:	0006                	c.slli	zero,0x1
  42:	0cf503f3          	0xcf503f3
  46:	9f25                	0x9f25
	...
  50:	0006                	c.slli	zero,0x1
  52:	935c                	0x935c
  54:	5d04                	lw	s1,56(a0)
  56:	00000493          	li	s1,0
  5a:	0000                	unimp
  5c:	0000                	unimp
  5e:	0000                	unimp
  60:	0006                	c.slli	zero,0x1
  62:	0cf503f3          	0xcf503f3
  66:	9f25                	0x9f25
	...
  70:	0006                	c.slli	zero,0x1
  72:	935c                	0x935c
  74:	5d04                	lw	s1,56(a0)
  76:	00000493          	li	s1,0
  7a:	0000                	unimp
  7c:	0000                	unimp
  7e:	0000                	unimp
  80:	0006                	c.slli	zero,0x1
  82:	0cf503f3          	0xcf503f3
  86:	9f25                	0x9f25
	...
  90:	0006                	c.slli	zero,0x1
  92:	935c                	0x935c
  94:	5d04                	lw	s1,56(a0)
  96:	00000493          	li	s1,0
  9a:	0000                	unimp
  9c:	0000                	unimp
  9e:	0000                	unimp
  a0:	0006                	c.slli	zero,0x1
  a2:	0cf503f3          	0xcf503f3
  a6:	9f25                	0x9f25
	...
  b0:	0006                	c.slli	zero,0x1
  b2:	935c                	0x935c
  b4:	5d04                	lw	s1,56(a0)
  b6:	00000493          	li	s1,0
	...
  c6:	0000                	unimp
  c8:	0002                	c.slli64	zero
  ca:	9f30                	0x9f30
	...
  d4:	0002                	c.slli64	zero
  d6:	9f30                	0x9f30
	...
  e8:	0006                	c.slli	zero,0x1
  ea:	935c                	0x935c
  ec:	5d04                	lw	s1,56(a0)
  ee:	00000493          	li	s1,0
  f2:	0000                	unimp
  f4:	0000                	unimp
  f6:	0000                	unimp
  f8:	0006                	c.slli	zero,0x1
  fa:	935c                	0x935c
  fc:	5a04                	lw	s1,48(a2)
  fe:	00000493          	li	s1,0
 102:	0000                	unimp
 104:	0000                	unimp
 106:	0000                	unimp
 108:	0006                	c.slli	zero,0x1
 10a:	935c                	0x935c
 10c:	5a04                	lw	s1,48(a2)
 10e:	00000493          	li	s1,0
 112:	0000                	unimp
 114:	0000                	unimp
 116:	0000                	unimp
 118:	0006                	c.slli	zero,0x1
 11a:	935c                	0x935c
 11c:	5a04                	lw	s1,48(a2)
 11e:	00000493          	li	s1,0
 122:	0000                	unimp
 124:	0000                	unimp
 126:	0000                	unimp
 128:	0006                	c.slli	zero,0x1
 12a:	935c                	0x935c
 12c:	5a04                	lw	s1,48(a2)
 12e:	00000493          	li	s1,0
 132:	0000                	unimp
 134:	0000                	unimp
 136:	0000                	unimp
 138:	0006                	c.slli	zero,0x1
 13a:	935c                	0x935c
 13c:	5a04                	lw	s1,48(a2)
 13e:	00000493          	li	s1,0
 142:	0000                	unimp
 144:	0000                	unimp
 146:	0000                	unimp
 148:	0006                	c.slli	zero,0x1
 14a:	935c                	0x935c
 14c:	5d04                	lw	s1,56(a0)
 14e:	00000493          	li	s1,0
 152:	0000                	unimp
 154:	0000                	unimp
 156:	0000                	unimp
 158:	0006                	c.slli	zero,0x1
 15a:	935c                	0x935c
 15c:	5a04                	lw	s1,48(a2)
 15e:	00000493          	li	s1,0
 162:	0000                	unimp
 164:	0000                	unimp
 166:	0000                	unimp
 168:	0006                	c.slli	zero,0x1
 16a:	935c                	0x935c
 16c:	5d04                	lw	s1,56(a0)
 16e:	00000493          	li	s1,0
 172:	0000                	unimp
 174:	0000                	unimp
 176:	0000                	unimp
 178:	0006                	c.slli	zero,0x1
 17a:	935c                	0x935c
 17c:	5a04                	lw	s1,48(a2)
 17e:	00000493          	li	s1,0
 182:	0000                	unimp
 184:	0000                	unimp
 186:	0000                	unimp
 188:	0006                	c.slli	zero,0x1
 18a:	935c                	0x935c
 18c:	5d04                	lw	s1,56(a0)
 18e:	00000493          	li	s1,0
	...
 19e:	0000                	unimp
 1a0:	0006                	c.slli	zero,0x1
 1a2:	935a                	add	t1,t1,s6
 1a4:	5b04                	lw	s1,48(a4)
 1a6:	00000493          	li	s1,0
 1aa:	0000                	unimp
 1ac:	0000                	unimp
 1ae:	0000                	unimp
 1b0:	0006                	c.slli	zero,0x1
 1b2:	9361                	srli	a4,a4,0x38
 1b4:	5b04                	lw	s1,48(a4)
 1b6:	00000493          	li	s1,0
 1ba:	0000                	unimp
 1bc:	0000                	unimp
 1be:	0000                	unimp
 1c0:	0006                	c.slli	zero,0x1
 1c2:	9361                	srli	a4,a4,0x38
 1c4:	5f04                	lw	s1,56(a4)
 1c6:	00000493          	li	s1,0
 1ca:	0000                	unimp
 1cc:	0000                	unimp
 1ce:	0000                	unimp
 1d0:	0006                	c.slli	zero,0x1
 1d2:	9356                	add	t1,t1,s5
 1d4:	5b04                	lw	s1,48(a4)
 1d6:	00000493          	li	s1,0
 1da:	0000                	unimp
 1dc:	0000                	unimp
 1de:	0000                	unimp
 1e0:	0006                	c.slli	zero,0x1
 1e2:	9356                	add	t1,t1,s5
 1e4:	5b04                	lw	s1,48(a4)
 1e6:	00000493          	li	s1,0
 1ea:	0000                	unimp
 1ec:	0000                	unimp
 1ee:	0000                	unimp
 1f0:	0006                	c.slli	zero,0x1
 1f2:	9361                	srli	a4,a4,0x38
 1f4:	5b04                	lw	s1,48(a4)
 1f6:	00000493          	li	s1,0
 1fa:	0000                	unimp
 1fc:	0000                	unimp
 1fe:	0000                	unimp
 200:	0006                	c.slli	zero,0x1
 202:	9356                	add	t1,t1,s5
 204:	5b04                	lw	s1,48(a4)
 206:	00000493          	li	s1,0
 20a:	0000                	unimp
 20c:	0000                	unimp
 20e:	0000                	unimp
 210:	0006                	c.slli	zero,0x1
 212:	9356                	add	t1,t1,s5
 214:	5f04                	lw	s1,56(a4)
 216:	00000493          	li	s1,0
 21a:	0000                	unimp
 21c:	0000                	unimp
 21e:	0000                	unimp
 220:	0006                	c.slli	zero,0x1
 222:	9356                	add	t1,t1,s5
 224:	5b04                	lw	s1,48(a4)
 226:	00000493          	li	s1,0
 22a:	0000                	unimp
 22c:	0000                	unimp
 22e:	0000                	unimp
 230:	0006                	c.slli	zero,0x1
 232:	9356                	add	t1,t1,s5
 234:	5f04                	lw	s1,56(a4)
 236:	00000493          	li	s1,0
 23a:	0000                	unimp
 23c:	0000                	unimp
 23e:	0000                	unimp
 240:	0006                	c.slli	zero,0x1
 242:	9356                	add	t1,t1,s5
 244:	5b04                	lw	s1,48(a4)
 246:	00000493          	li	s1,0
 24a:	0000                	unimp
 24c:	0000                	unimp
 24e:	0000                	unimp
 250:	0006                	c.slli	zero,0x1
 252:	9356                	add	t1,t1,s5
 254:	5f04                	lw	s1,56(a4)
 256:	00000493          	li	s1,0
	...
 266:	0000                	unimp
 268:	0001                	nop
 26a:	005c                	addi	a5,sp,4
 26c:	0000                	unimp
 26e:	0000                	unimp
 270:	0000                	unimp
 272:	0900                	addi	s0,sp,144
 274:	7c00                	flw	fs0,56(s0)
 276:	7d00                	flw	fs0,56(a0)
 278:	0800                	addi	s0,sp,16
 27a:	1aff                	0x1aff
 27c:	9f24                	0x9f24
	...
 286:	0001                	nop
 288:	0060                	addi	s0,sp,12
 28a:	0000                	unimp
 28c:	0000                	unimp
 28e:	0000                	unimp
 290:	0100                	addi	s0,sp,128
 292:	5c00                	lw	s0,56(s0)
	...
 29c:	f731000b          	0xf731000b
 2a0:	7c2c                	flw	fa1,120(s0)
 2a2:	f700                	fsw	fs0,40(a4)
 2a4:	1b2c                	addi	a1,sp,440
 2a6:	009f00f7          	0x9f00f7
 2aa:	0000                	unimp
 2ac:	0000                	unimp
 2ae:	0000                	unimp
 2b0:	0100                	addi	s0,sp,128
 2b2:	6000                	flw	fs0,0(s0)
	...
 2bc:	0001                	nop
 2be:	0060                	addi	s0,sp,12
 2c0:	0000                	unimp
 2c2:	0000                	unimp
 2c4:	0000                	unimp
 2c6:	0900                	addi	s0,sp,144
 2c8:	8000                	0x8000
 2ca:	7d00                	flw	fs0,56(a0)
 2cc:	0800                	addi	s0,sp,16
 2ce:	1aff                	0x1aff
 2d0:	9f24                	0x9f24
	...
 2da:	0001                	nop
 2dc:	0060                	addi	s0,sp,12
 2de:	0000                	unimp
 2e0:	0000                	unimp
 2e2:	0000                	unimp
 2e4:	0100                	addi	s0,sp,128
 2e6:	5c00                	lw	s0,56(s0)
	...
 2f0:	0001                	nop
 2f2:	0056                	c.slli	zero,0x15
 2f4:	0000                	unimp
 2f6:	0000                	unimp
 2f8:	0000                	unimp
 2fa:	0100                	addi	s0,sp,128
 2fc:	5c00                	lw	s0,56(s0)
	...
 30e:	0001                	nop
 310:	005d                	c.nop	23
 312:	0000                	unimp
 314:	0000                	unimp
 316:	0000                	unimp
 318:	0100                	addi	s0,sp,128
 31a:	5a00                	lw	s0,48(a2)
	...
 324:	0001                	nop
 326:	005a                	c.slli	zero,0x16
 328:	0000                	unimp
 32a:	0000                	unimp
 32c:	0000                	unimp
 32e:	0100                	addi	s0,sp,128
 330:	5a00                	lw	s0,48(a2)
	...
 33a:	0001                	nop
 33c:	005a                	c.slli	zero,0x16
 33e:	0000                	unimp
 340:	0000                	unimp
 342:	0000                	unimp
 344:	0100                	addi	s0,sp,128
 346:	5a00                	lw	s0,48(a2)
	...
 350:	0001                	nop
 352:	005d                	c.nop	23
 354:	0000                	unimp
 356:	0000                	unimp
 358:	0000                	unimp
 35a:	0100                	addi	s0,sp,128
 35c:	5a00                	lw	s0,48(a2)
	...
 366:	0001                	nop
 368:	005d                	c.nop	23
 36a:	0000                	unimp
 36c:	0000                	unimp
 36e:	0000                	unimp
 370:	0100                	addi	s0,sp,128
 372:	6000                	flw	fs0,0(s0)
	...
 37c:	0001                	nop
 37e:	005a                	c.slli	zero,0x16
 380:	0000                	unimp
 382:	0000                	unimp
 384:	0000                	unimp
 386:	0100                	addi	s0,sp,128
 388:	5d00                	lw	s0,56(a0)
	...
 39a:	0001                	nop
 39c:	0061                	c.nop	24
 39e:	0000                	unimp
 3a0:	0000                	unimp
 3a2:	0000                	unimp
 3a4:	0100                	addi	s0,sp,128
 3a6:	5600                	lw	s0,40(a2)
	...
 3b0:	0001                	nop
 3b2:	0056                	c.slli	zero,0x15
 3b4:	0000                	unimp
 3b6:	0000                	unimp
 3b8:	0000                	unimp
 3ba:	0100                	addi	s0,sp,128
 3bc:	5600                	lw	s0,40(a2)
	...
 3c6:	0001                	nop
 3c8:	0061                	c.nop	24
 3ca:	0000                	unimp
 3cc:	0000                	unimp
 3ce:	0000                	unimp
 3d0:	0100                	addi	s0,sp,128
 3d2:	5600                	lw	s0,40(a2)
	...
 3dc:	0001                	nop
 3de:	0061                	c.nop	24
 3e0:	0000                	unimp
 3e2:	0000                	unimp
 3e4:	0000                	unimp
 3e6:	0600                	addi	s0,sp,768
 3e8:	8100                	0x8100
 3ea:	7b00                	flw	fs0,48(a4)
 3ec:	2400                	fld	fs0,8(s0)
 3ee:	009f 0000 0000      	0x9f
 3f4:	0000                	unimp
 3f6:	0100                	addi	s0,sp,128
 3f8:	5600                	lw	s0,40(a2)
	...
 40a:	0001                	nop
 40c:	0000005b          	0x5b
 410:	0000                	unimp
 412:	0000                	unimp
 414:	0100                	addi	s0,sp,128
 416:	5f00                	lw	s0,56(a4)
	...
 420:	0001                	nop
 422:	0000005b          	0x5b
 426:	0000                	unimp
 428:	0000                	unimp
 42a:	0100                	addi	s0,sp,128
 42c:	5b00                	lw	s0,48(a4)
	...
 436:	0001                	nop
 438:	005f 0000 0000      	0x5f
 43e:	0000                	unimp
 440:	0100                	addi	s0,sp,128
 442:	5b00                	lw	s0,48(a4)
	...
 44c:	0001                	nop
 44e:	005c                	addi	a5,sp,4
 450:	0000                	unimp
 452:	0000                	unimp
 454:	0000                	unimp
 456:	0100                	addi	s0,sp,128
 458:	5f00                	lw	s0,56(a4)
	...
 462:	0001                	nop
 464:	0000005b          	0x5b
 468:	0000                	unimp
 46a:	0000                	unimp
 46c:	0100                	addi	s0,sp,128
 46e:	5f00                	lw	s0,56(a4)
	...
 478:	0001                	nop
 47a:	0000005b          	0x5b
 47e:	0000                	unimp
 480:	0000                	unimp
 482:	0100                	addi	s0,sp,128
 484:	5f00                	lw	s0,56(a4)
	...
 48e:	0001                	nop
 490:	005c                	addi	a5,sp,4
 492:	0000                	unimp
 494:	0000                	unimp
 496:	0000                	unimp
 498:	0100                	addi	s0,sp,128
 49a:	5f00                	lw	s0,56(a4)
	...
 4a4:	0001                	nop
 4a6:	0000005b          	0x5b
 4aa:	0000                	unimp
 4ac:	0000                	unimp
 4ae:	0100                	addi	s0,sp,128
 4b0:	5f00                	lw	s0,56(a4)
	...
 4c2:	0001                	nop
 4c4:	005a                	c.slli	zero,0x16
 4c6:	0000                	unimp
 4c8:	0000                	unimp
 4ca:	0000                	unimp
 4cc:	0100                	addi	s0,sp,128
 4ce:	6c00                	flw	fs0,24(s0)
	...
 4e0:	0001                	nop
 4e2:	005a                	c.slli	zero,0x16
 4e4:	0000                	unimp
 4e6:	0000                	unimp
 4e8:	0000                	unimp
 4ea:	0100                	addi	s0,sp,128
 4ec:	5a00                	lw	s0,48(a2)
	...
 4fe:	0002                	c.slli64	zero
 500:	9f31                	0x9f31
	...
 50a:	0001                	nop
 50c:	0000005b          	0x5b
 510:	0000                	unimp
 512:	0000                	unimp
 514:	0100                	addi	s0,sp,128
 516:	5b00                	lw	s0,48(a4)
	...
 528:	0001                	nop
 52a:	005e                	c.slli	zero,0x17
 52c:	0000                	unimp
 52e:	0000                	unimp
 530:	0000                	unimp
 532:	0100                	addi	s0,sp,128
 534:	5e00                	lw	s0,56(a2)
	...
 546:	0001                	nop
 548:	005d                	c.nop	23
 54a:	0000                	unimp
 54c:	0000                	unimp
 54e:	0000                	unimp
 550:	0100                	addi	s0,sp,128
 552:	5d00                	lw	s0,56(a0)
	...
 55c:	0001                	nop
 55e:	005d                	c.nop	23
 560:	0000                	unimp
 562:	0000                	unimp
 564:	0000                	unimp
 566:	0100                	addi	s0,sp,128
 568:	5b00                	lw	s0,48(a4)
	...
 572:	0001                	nop
 574:	0000005b          	0x5b
	...
 584:	0100                	addi	s0,sp,128
 586:	5c00                	lw	s0,56(s0)
	...
 590:	0009                	c.nop	2
 592:	007c                	addi	a5,sp,12
 594:	007d                	c.nop	31
 596:	ff08                	fsw	fa0,56(a4)
 598:	241a                	fld	fs0,384(sp)
 59a:	009f 0000 0000      	0x9f
 5a0:	0000                	unimp
 5a2:	0100                	addi	s0,sp,128
 5a4:	6000                	flw	fs0,0(s0)
	...
 5ae:	0001                	nop
 5b0:	005c                	addi	a5,sp,4
	...
 5be:	0000                	unimp
 5c0:	0100                	addi	s0,sp,128
 5c2:	5e00                	lw	s0,56(a2)
	...
 5d4:	0001                	nop
 5d6:	0061                	c.nop	24
	...
 5e4:	0000                	unimp
 5e6:	0100                	addi	s0,sp,128
 5e8:	5c00                	lw	s0,56(s0)
	...
 5f2:	00800007          	0x800007
 5f6:	2440                	fld	fs0,136(s0)
 5f8:	2540                	fld	fs0,136(a0)
 5fa:	009f 0000 0000      	0x9f
	...
 608:	0000                	unimp
 60a:	0100                	addi	s0,sp,128
 60c:	5d00                	lw	s0,56(a0)
	...
 616:	0001                	nop
 618:	005a                	c.slli	zero,0x16
	...
 626:	0000                	unimp
 628:	0100                	addi	s0,sp,128
 62a:	5f00                	lw	s0,56(a4)
	...
 634:	0001                	nop
 636:	005c                	addi	a5,sp,4
	...
 644:	0000                	unimp
 646:	0100                	addi	s0,sp,128
 648:	5e00                	lw	s0,56(a2)
	...
 652:	0001                	nop
 654:	005f 0000 0000      	0x5f
 65a:	0000                	unimp
 65c:	0800                	addi	s0,sp,16
 65e:	7600                	flw	fs0,40(a2)
 660:	4000                	lw	s0,0(s0)
 662:	7e25                	lui	t3,0xfffe9
 664:	2100                	fld	fs0,0(a0)
 666:	009f 0000 0000      	0x9f
 66c:	0000                	unimp
 66e:	0100                	addi	s0,sp,128
 670:	5f00                	lw	s0,56(a4)
	...
 682:	0001                	nop
 684:	005e                	c.slli	zero,0x17
 686:	0000                	unimp
 688:	0000                	unimp
 68a:	0000                	unimp
 68c:	0100                	addi	s0,sp,128
 68e:	5600                	lw	s0,40(a2)
	...
 6a0:	0001                	nop
 6a2:	0000005b          	0x5b
 6a6:	0000                	unimp
 6a8:	0000                	unimp
 6aa:	0100                	addi	s0,sp,128
 6ac:	5d00                	lw	s0,56(a0)
	...
 6be:	0001                	nop
 6c0:	005c                	addi	a5,sp,4
	...
 6ce:	0000                	unimp
 6d0:	1000                	addi	s0,sp,32
 6d2:	8c00                	0x8c00
 6d4:	0a00                	addi	s0,sp,272
 6d6:	ffff                	0xffff
 6d8:	7e1a                	flw	ft8,164(sp)
 6da:	0a00                	addi	s0,sp,272
 6dc:	ffff                	0xffff
 6de:	401a                	0x401a
 6e0:	2224                	fld	fs1,64(a2)
 6e2:	009f 0000 0000      	0x9f
 6e8:	0000                	unimp
 6ea:	1500                	addi	s0,sp,672
 6ec:	8c00                	0x8c00
 6ee:	0a00                	addi	s0,sp,272
 6f0:	ffff                	0xffff
 6f2:	8c1a                	mv	s8,t1
 6f4:	4000                	lw	s0,0(s0)
 6f6:	8025                	srli	s0,s0,0x9
 6f8:	2200                	fld	fs0,0(a2)
 6fa:	ff0a                	fsw	ft2,188(sp)
 6fc:	1aff                	0x1aff
 6fe:	2440                	fld	fs0,136(s0)
 700:	9f22                	add	t5,t5,s0
	...
 712:	0001                	nop
 714:	006d                	c.nop	27
 716:	0000                	unimp
 718:	0000                	unimp
 71a:	0000                	unimp
 71c:	0500                	addi	s0,sp,640
 71e:	8000                	0x8000
 720:	4000                	lw	s0,0(s0)
 722:	9f25                	0x9f25
	...
 734:	0001                	nop
 736:	005f 0000 0000      	0x5f
 73c:	0000                	unimp
 73e:	0700                	addi	s0,sp,896
 740:	8000                	0x8000
 742:	4000                	lw	s0,0(s0)
 744:	4024                	lw	s1,64(s0)
 746:	9f25                	0x9f25
	...
 758:	0001                	nop
 75a:	006c                	addi	a1,sp,12
 75c:	0000                	unimp
 75e:	0000                	unimp
 760:	0000                	unimp
 762:	0100                	addi	s0,sp,128
 764:	5a00                	lw	s0,48(a2)
	...
 776:	0001                	nop
 778:	005e                	c.slli	zero,0x17
 77a:	0000                	unimp
 77c:	0000                	unimp
 77e:	0000                	unimp
 780:	0100                	addi	s0,sp,128
 782:	5c00                	lw	s0,56(s0)
	...
 794:	0001                	nop
 796:	005d                	c.nop	23
 798:	0000                	unimp
 79a:	0000                	unimp
 79c:	0000                	unimp
 79e:	0100                	addi	s0,sp,128
 7a0:	5e00                	lw	s0,56(a2)
	...
 7aa:	0008                	0x8
 7ac:	007c                	addi	a5,sp,12
 7ae:	2540                	fld	fs0,136(a0)
 7b0:	007d                	c.nop	31
 7b2:	9f21                	0x9f21
	...
 7bc:	0001                	nop
 7be:	005e                	c.slli	zero,0x17
	...
 7cc:	0000                	unimp
 7ce:	0100                	addi	s0,sp,128
 7d0:	5d00                	lw	s0,56(a0)
	...
 7da:	0001                	nop
 7dc:	005f 0000 0000      	0x5f
 7e2:	0000                	unimp
 7e4:	0100                	addi	s0,sp,128
 7e6:	5f00                	lw	s0,56(a4)
	...
 7f8:	0001                	nop
 7fa:	006e                	c.slli	zero,0x1b
 7fc:	0000                	unimp
 7fe:	0000                	unimp
 800:	0000                	unimp
 802:	0100                	addi	s0,sp,128
 804:	6c00                	flw	fs0,24(s0)
	...
 816:	0001                	nop
 818:	006c                	addi	a1,sp,12
	...
 826:	0000                	unimp
 828:	0600                	addi	s0,sp,768
 82a:	8000                	0x8000
 82c:	7600                	flw	fs0,40(a2)
 82e:	1e00                	addi	s0,sp,816
 830:	009f 0000 0000      	0x9f
 836:	0000                	unimp
 838:	0100                	addi	s0,sp,128
 83a:	6000                	flw	fs0,0(s0)
	...
 844:	0009                	c.nop	2
 846:	7f8d                	lui	t6,0xfffe3
 848:	007a                	c.slli	zero,0x1e
 84a:	761a                	flw	fa2,164(sp)
 84c:	1e00                	addi	s0,sp,816
 84e:	009f 0000 0000      	0x9f
 854:	0000                	unimp
 856:	0100                	addi	s0,sp,128
 858:	5e00                	lw	s0,56(a2)
	...
 862:	0008                	0x8
 864:	008c                	addi	a1,sp,64
 866:	2540                	fld	fs0,136(a0)
 868:	0080                	addi	s0,sp,64
 86a:	9f22                	add	t5,t5,s0
	...
 87c:	0001                	nop
 87e:	005d                	c.nop	23
	...
 88c:	0000                	unimp
 88e:	0100                	addi	s0,sp,128
 890:	5c00                	lw	s0,56(s0)
	...
 8a2:	0001                	nop
 8a4:	0060                	addi	s0,sp,12
 8a6:	0000                	unimp
 8a8:	0000                	unimp
 8aa:	0000                	unimp
 8ac:	0600                	addi	s0,sp,768
 8ae:	8d00                	0x8d00
 8b0:	7a7f                	0x7a7f
 8b2:	1a00                	addi	s0,sp,304
 8b4:	009f 0000 0000      	0x9f
 8ba:	0000                	unimp
 8bc:	0600                	addi	s0,sp,768
 8be:	7a00                	flw	fs0,48(a2)
 8c0:	7f00                	flw	fs0,56(a4)
 8c2:	1a00                	addi	s0,sp,304
 8c4:	009f 0000 0000      	0x9f
 8ca:	0000                	unimp
 8cc:	0600                	addi	s0,sp,768
 8ce:	8d00                	0x8d00
 8d0:	7a7f                	0x7a7f
 8d2:	1a00                	addi	s0,sp,304
 8d4:	009f 0000 0000      	0x9f
 8da:	0000                	unimp
 8dc:	0600                	addi	s0,sp,768
 8de:	7a00                	flw	fs0,48(a2)
 8e0:	8d01                	sub	a0,a0,s0
 8e2:	1a7f                	0x1a7f
 8e4:	009f 0000 0000      	0x9f
	...
 8f2:	0000                	unimp
 8f4:	0100                	addi	s0,sp,128
 8f6:	5d00                	lw	s0,56(a0)
	...
 908:	0001                	nop
 90a:	005c                	addi	a5,sp,4
 90c:	0000                	unimp
 90e:	0000                	unimp
 910:	0000                	unimp
 912:	0500                	addi	s0,sp,640
 914:	7a00                	flw	fs0,48(a2)
 916:	4000                	lw	s0,0(s0)
 918:	9f25                	0x9f25
	...
 922:	0005                	c.nop	1
 924:	017a                	slli	sp,sp,0x1e
 926:	2540                	fld	fs0,136(a0)
 928:	009f 0000 0000      	0x9f
	...
 936:	0000                	unimp
 938:	0100                	addi	s0,sp,128
 93a:	5600                	lw	s0,40(a2)
	...
 94c:	0001                	nop
 94e:	0060                	addi	s0,sp,12
 950:	0000                	unimp
 952:	0000                	unimp
 954:	0000                	unimp
 956:	0100                	addi	s0,sp,128
 958:	6000                	flw	fs0,0(s0)
	...
 962:	0009                	c.nop	2
 964:	0080                	addi	s0,sp,64
 966:	007d                	c.nop	31
 968:	ff08                	fsw	fa0,56(a4)
 96a:	241a                	fld	fs0,384(sp)
 96c:	009f 0000 0000      	0x9f
 972:	0000                	unimp
 974:	0100                	addi	s0,sp,128
 976:	6000                	flw	fs0,0(s0)
	...
 988:	0001                	nop
 98a:	005a                	c.slli	zero,0x16
 98c:	0000                	unimp
 98e:	0000                	unimp
 990:	0000                	unimp
 992:	0100                	addi	s0,sp,128
 994:	5a00                	lw	s0,48(a2)
	...
 9a6:	0001                	nop
 9a8:	0061                	c.nop	24
	...
 9b6:	0000                	unimp
 9b8:	0100                	addi	s0,sp,128
 9ba:	5c00                	lw	s0,56(s0)
	...
 9c4:	00800007          	0x800007
 9c8:	2440                	fld	fs0,136(s0)
 9ca:	2540                	fld	fs0,136(a0)
 9cc:	009f 0000 0000      	0x9f
	...
 9da:	0000                	unimp
 9dc:	0100                	addi	s0,sp,128
 9de:	5f00                	lw	s0,56(a4)
	...
 9e8:	0001                	nop
 9ea:	005a                	c.slli	zero,0x16
	...
 9f8:	0000                	unimp
 9fa:	0100                	addi	s0,sp,128
 9fc:	5e00                	lw	s0,56(a2)
	...
 a06:	0001                	nop
 a08:	005c                	addi	a5,sp,4
	...
 a16:	0000                	unimp
 a18:	0100                	addi	s0,sp,128
 a1a:	5d00                	lw	s0,56(a0)
	...
 a24:	0001                	nop
 a26:	005e                	c.slli	zero,0x17
 a28:	0000                	unimp
 a2a:	0000                	unimp
 a2c:	0000                	unimp
 a2e:	0800                	addi	s0,sp,16
 a30:	7600                	flw	fs0,40(a2)
 a32:	4000                	lw	s0,0(s0)
 a34:	7d25                	lui	s10,0xfffe9
 a36:	2100                	fld	fs0,0(a0)
 a38:	009f 0000 0000      	0x9f
 a3e:	0000                	unimp
 a40:	0100                	addi	s0,sp,128
 a42:	5e00                	lw	s0,56(a2)
	...
 a54:	0001                	nop
 a56:	005f 0000 0000      	0x5f
 a5c:	0000                	unimp
 a5e:	0100                	addi	s0,sp,128
 a60:	5600                	lw	s0,40(a2)
	...
 a72:	0001                	nop
 a74:	006c                	addi	a1,sp,12
 a76:	0000                	unimp
 a78:	0000                	unimp
 a7a:	0000                	unimp
 a7c:	0100                	addi	s0,sp,128
 a7e:	5d00                	lw	s0,56(a0)
	...
 a90:	0001                	nop
 a92:	0061                	c.nop	24
	...
 aa0:	0000                	unimp
 aa2:	0100                	addi	s0,sp,128
 aa4:	5f00                	lw	s0,56(a4)
	...
 aae:	00800007          	0x800007
 ab2:	2440                	fld	fs0,136(s0)
 ab4:	2540                	fld	fs0,136(a0)
 ab6:	009f 0000 0000      	0x9f
	...
 ac4:	0000                	unimp
 ac6:	0100                	addi	s0,sp,128
 ac8:	5a00                	lw	s0,48(a2)
	...
 ad2:	0001                	nop
 ad4:	0000005b          	0x5b
	...
 ae4:	0100                	addi	s0,sp,128
 ae6:	5d00                	lw	s0,56(a0)
	...
 af0:	0001                	nop
 af2:	005e                	c.slli	zero,0x17
	...
 b00:	0000                	unimp
 b02:	0100                	addi	s0,sp,128
 b04:	5e00                	lw	s0,56(a2)
	...
 b0e:	0001                	nop
 b10:	005e                	c.slli	zero,0x17
 b12:	0000                	unimp
 b14:	0000                	unimp
 b16:	0000                	unimp
 b18:	0100                	addi	s0,sp,128
 b1a:	5e00                	lw	s0,56(a2)
	...
 b24:	0001                	nop
 b26:	005d                	c.nop	23
	...
 b34:	0000                	unimp
 b36:	0100                	addi	s0,sp,128
 b38:	5e00                	lw	s0,56(a2)
	...
 b42:	0001                	nop
 b44:	005f 0000 0000      	0x5f
 b4a:	0000                	unimp
 b4c:	0100                	addi	s0,sp,128
 b4e:	5f00                	lw	s0,56(a4)
	...
 b60:	0001                	nop
 b62:	005d                	c.nop	23
 b64:	0000                	unimp
 b66:	0000                	unimp
 b68:	0000                	unimp
 b6a:	0600                	addi	s0,sp,768
 b6c:	7f00                	flw	fs0,56(a4)
 b6e:	7a00                	flw	fs0,48(a2)
 b70:	1e00                	addi	s0,sp,816
 b72:	009f 0000 0000      	0x9f
 b78:	0000                	unimp
 b7a:	0100                	addi	s0,sp,128
 b7c:	5a00                	lw	s0,48(a2)
	...
 b8e:	0001                	nop
 b90:	005a                	c.slli	zero,0x16
 b92:	0000                	unimp
 b94:	0000                	unimp
 b96:	0000                	unimp
 b98:	0100                	addi	s0,sp,128
 b9a:	5d00                	lw	s0,56(a0)
	...
 ba4:	0001                	nop
 ba6:	005a                	c.slli	zero,0x16
 ba8:	0000                	unimp
 baa:	0000                	unimp
 bac:	0000                	unimp
 bae:	0100                	addi	s0,sp,128
 bb0:	5d00                	lw	s0,56(a0)
	...
 bc2:	0001                	nop
 bc4:	0000005b          	0x5b
 bc8:	0000                	unimp
 bca:	0000                	unimp
	...

Disassembly of section .debug_ranges:

00000000 <.debug_ranges>:
   0:	0001                	nop
   2:	0000                	unimp
   4:	0001                	nop
   6:	0000                	unimp
   8:	0001                	nop
   a:	0000                	unimp
   c:	0001                	nop
   e:	0000                	unimp
  10:	0001                	nop
  12:	0000                	unimp
  14:	0001                	nop
  16:	0000                	unimp
  18:	0001                	nop
  1a:	0000                	unimp
  1c:	0001                	nop
	...
  26:	0000                	unimp
  28:	0001                	nop
  2a:	0000                	unimp
  2c:	0001                	nop
  2e:	0000                	unimp
  30:	0001                	nop
  32:	0000                	unimp
  34:	0001                	nop
	...
  3e:	0000                	unimp
  40:	0001                	nop
  42:	0000                	unimp
  44:	0001                	nop
  46:	0000                	unimp
  48:	0001                	nop
  4a:	0000                	unimp
  4c:	0001                	nop
	...
  56:	0000                	unimp
  58:	0001                	nop
  5a:	0000                	unimp
  5c:	0001                	nop
  5e:	0000                	unimp
  60:	0001                	nop
  62:	0000                	unimp
  64:	0001                	nop
  66:	0000                	unimp
  68:	0001                	nop
  6a:	0000                	unimp
  6c:	0001                	nop
  6e:	0000                	unimp
  70:	0001                	nop
  72:	0000                	unimp
  74:	0001                	nop
	...
  7e:	0000                	unimp
  80:	0001                	nop
  82:	0000                	unimp
  84:	0001                	nop
  86:	0000                	unimp
  88:	0001                	nop
  8a:	0000                	unimp
  8c:	0001                	nop
  8e:	0000                	unimp
  90:	0001                	nop
  92:	0000                	unimp
  94:	0001                	nop
  96:	0000                	unimp
  98:	0001                	nop
  9a:	0000                	unimp
  9c:	0001                	nop
  9e:	0000                	unimp
  a0:	0001                	nop
  a2:	0000                	unimp
  a4:	0001                	nop
	...
  ae:	0000                	unimp
  b0:	0001                	nop
  b2:	0000                	unimp
  b4:	0001                	nop
  b6:	0000                	unimp
  b8:	0001                	nop
  ba:	0000                	unimp
  bc:	0001                	nop
	...
  c6:	0000                	unimp
  c8:	0001                	nop
  ca:	0000                	unimp
  cc:	0001                	nop
  ce:	0000                	unimp
  d0:	0001                	nop
  d2:	0000                	unimp
  d4:	0001                	nop
	...
  de:	0000                	unimp
  e0:	0001                	nop
  e2:	0000                	unimp
  e4:	0001                	nop
  e6:	0000                	unimp
  e8:	0001                	nop
  ea:	0000                	unimp
  ec:	0001                	nop
	...
