
./gputest.elf:     file format elf32-littleriscv
./gputest.elf
architecture: riscv:rv32, flags 0x00000112:
EXEC_P, HAS_SYMS, D_PAGED
start address 0x0001044c

Program Header:
    LOAD off    0x00000000 vaddr 0x00010000 paddr 0x00010000 align 2**12
         filesz 0x000054e8 memsz 0x000054e8 flags r-x
    LOAD off    0x00006000 vaddr 0x00016000 paddr 0x00016000 align 2**12
         filesz 0x00000878 memsz 0x00000ba8 flags rw-

Sections:
Idx Name          Size      VMA       LMA       File off  Algn
  0 .text         0000371c  00010074  00010074  00000074  2**2
                  CONTENTS, ALLOC, LOAD, READONLY, CODE
  1 .rodata       00001d58  00013790  00013790  00003790  2**2
                  CONTENTS, ALLOC, LOAD, READONLY, DATA
  2 .eh_frame     0000037c  00016000  00016000  00006000  2**2
                  CONTENTS, ALLOC, LOAD, DATA
  3 .init_array   0000000c  0001637c  0001637c  0000637c  2**2
                  CONTENTS, ALLOC, LOAD, DATA
  4 .fini_array   00000004  00016388  00016388  00006388  2**2
                  CONTENTS, ALLOC, LOAD, DATA
  5 .data         00000438  00016390  00016390  00006390  2**3
                  CONTENTS, ALLOC, LOAD, DATA
  6 .got          00000020  000167c8  000167c8  000067c8  2**2
                  CONTENTS, ALLOC, LOAD, DATA
  7 .sdata        00000090  000167e8  000167e8  000067e8  2**2
                  CONTENTS, ALLOC, LOAD, DATA
  8 .bss          00000330  00016878  00016878  00006878  2**2
                  ALLOC
  9 .comment      00000012  00000000  00000000  00006878  2**0
                  CONTENTS, READONLY
 10 .riscv.attributes 0000002a  00000000  00000000  0000688a  2**0
                  CONTENTS, READONLY
 11 .debug_aranges 00000038  00000000  00000000  000068b4  2**0
                  CONTENTS, READONLY, DEBUGGING, OCTETS
 12 .debug_info   00000889  00000000  00000000  000068ec  2**0
                  CONTENTS, READONLY, DEBUGGING, OCTETS
 13 .debug_abbrev 0000020d  00000000  00000000  00007175  2**0
                  CONTENTS, READONLY, DEBUGGING, OCTETS
 14 .debug_line   000007a8  00000000  00000000  00007382  2**0
                  CONTENTS, READONLY, DEBUGGING, OCTETS
 15 .debug_str    0000033f  00000000  00000000  00007b2a  2**0
                  CONTENTS, READONLY, DEBUGGING, OCTETS
 16 .debug_loc    00000bcd  00000000  00000000  00007e69  2**0
                  CONTENTS, READONLY, DEBUGGING, OCTETS
 17 .debug_ranges 000000f8  00000000  00000000  00008a36  2**0
                  CONTENTS, READONLY, DEBUGGING, OCTETS
SYMBOL TABLE:
00010074 l    d  .text	00000000 .text
00013790 l    d  .rodata	00000000 .rodata
00016000 l    d  .eh_frame	00000000 .eh_frame
0001637c l    d  .init_array	00000000 .init_array
00016388 l    d  .fini_array	00000000 .fini_array
00016390 l    d  .data	00000000 .data
000167c8 l    d  .got	00000000 .got
000167e8 l    d  .sdata	00000000 .sdata
00016878 l    d  .bss	00000000 .bss
00000000 l    d  .comment	00000000 .comment
00000000 l    d  .riscv.attributes	00000000 .riscv.attributes
00000000 l    d  .debug_aranges	00000000 .debug_aranges
00000000 l    d  .debug_info	00000000 .debug_info
00000000 l    d  .debug_abbrev	00000000 .debug_abbrev
00000000 l    d  .debug_line	00000000 .debug_line
00000000 l    d  .debug_str	00000000 .debug_str
00000000 l    d  .debug_loc	00000000 .debug_loc
00000000 l    d  .debug_ranges	00000000 .debug_ranges
00000000 l    df *ABS*	00000000 gputest.cpp
00016894 l     O .bss	00000004 _ZZ13drawparticlesPsE12spawnerindex
00016898 l     O .bss	00000004 _ZZ13drawparticlesPsE5proll
00000000 l    df *ABS*	00000000 gpu.cpp
00010418 l     F .text	0000001c _GLOBAL__sub_I_gpu.cpp
00000000 l    df *ABS*	00000000 __call_atexit.c
00010434 l     F .text	00000018 register_fini
00000000 l    df *ABS*	00000000 crtstuff.c
00016000 l     O .eh_frame	00000000 __EH_FRAME_BEGIN__
00010498 l     F .text	00000000 __do_global_dtors_aux
00016878 l     O .bss	00000001 completed.1
00016388 l     O .fini_array	00000000 __do_global_dtors_aux_fini_array_entry
000104e4 l     F .text	00000000 frame_dummy
0001687c l     O .bss	00000018 object.0
00016380 l     O .init_array	00000000 __frame_dummy_init_array_entry
00000000 l    df *ABS*	00000000 core.cpp
00000000 l    df *ABS*	00000000 console.cpp
0001689c l     O .bss	00000300 _ZL11consoleText
00016b9c l     O .bss	00000004 _ZL7cursorx
00016ba0 l     O .bss	00000004 _ZL7cursory
00000000 l    df *ABS*	00000000 sf_cos.c
00000000 l    df *ABS*	00000000 sf_sin.c
00000000 l    df *ABS*	00000000 ef_rem_pio2.c
00015018 l     O .rodata	00000080 npio2_hw
00015098 l     O .rodata	00000318 two_over_pi
00000000 l    df *ABS*	00000000 kf_cos.c
00000000 l    df *ABS*	00000000 kf_rem_pio2.c
000153b0 l     O .rodata	0000000c init_jk
000153bc l     O .rodata	0000002c PIo2
00000000 l    df *ABS*	00000000 kf_sin.c
00000000 l    df *ABS*	00000000 sf_fabs.c
00000000 l    df *ABS*	00000000 sf_floor.c
00000000 l    df *ABS*	00000000 sf_scalbn.c
00000000 l    df *ABS*	00000000 libgcc2.c
00000000 l    df *ABS*	00000000 errno.c
00000000 l    df *ABS*	00000000 exit.c
00000000 l    df *ABS*	00000000 init.c
00000000 l    df *ABS*	00000000 memcpy.c
00000000 l    df *ABS*	00000000 fini.c
00000000 l    df *ABS*	00000000 atexit.c
00000000 l    df *ABS*	00000000 __atexit.c
00000000 l    df *ABS*	00000000 sys_exit.c
00000000 l    df *ABS*	00000000 libgcc2.c
00000000 l    df *ABS*	00000000 debugger.cpp
00000000 l    df *ABS*	00000000 sdcard.cpp
00000000 l    df *ABS*	00000000 uart.cpp
00000000 l    df *ABS*	00000000 ff.c
00000000 l    df *ABS*	00000000 ffunicode.c
00000000 l    df *ABS*	00000000 diskio.c
00000000 l    df *ABS*	00000000 memtest.c
00000000 l    df *ABS*	00000000 nanojpeg.c
00000000 l    df *ABS*	00000000 micromod.c
00000000 l    df *ABS*	00000000 crtstuff.c
00016378 l     O .eh_frame	00000000 __FRAME_END__
00000000 l    df *ABS*	00000000 impure.c
000163a0 l     O .data	00000428 impure_data
00000000 l    df *ABS*	00000000 
0001638c l       .fini_array	00000000 __fini_array_end
00016388 l       .fini_array	00000000 __fini_array_start
00016388 l       .init_array	00000000 __init_array_end
0001637c l       .init_array	00000000 __preinit_array_end
000167d0 l     O .got	00000000 _GLOBAL_OFFSET_TABLE_
0001637c l       .init_array	00000000 __init_array_start
0001637c l       .init_array	00000000 __preinit_array_start
00010504 g     F .text	000001d4 _Z8drawrectfff
00016b90 g       *ABS*	00000000 __global_pointer$
0001639c g     O .data	00000004 IO_GPUCommandFIFO
00016394 g     O .data	00000004 GraphicsFontStart
00013260 g     F .text	00000008 __errno
00011f38 g     F .text	000002d0 __ieee754_rem_pio2f
00011240 g     F .text	00000344 _Z8PrintDMAiiPKcb
000167e8 g       .sdata	00000000 __SDATA_BEGIN__
00016ba4 g     O .bss	00000004 font
00013334 g     F .text	00000128 memcpy
00010c44 g     F .text	0000003c _Z16SetConsoleCursorii
00010b68 g     F .text	0000002c _Z6Randomv
00016398 g     O .data	00000004 GraphicsRAMStart
000111b0 g     F .text	0000005c _Z11DrawConsolev
00010c28 g     F .text	0000001c _Z15ClearConsoleRowv
00012c4c g     F .text	00000008 fabsf
00016870 g     O .sdata	00000004 _global_impure_ptr
00013298 g     F .text	0000009c __libc_init_array
00012bc0 g     F .text	0000008c __kernel_sinf
00010b94 g     F .text	00000014 _Z9ReadClockv
00010ba8 g     F .text	00000024 _Z9ClockToMsy
00012e2c g     F .text	00000434 .hidden __udivdi3
00011df4 g     F .text	000000a0 cosf
00010c10 g     F .text	00000018 _Z12ClearConsolev
00013658 g     F .text	0000005c __libc_fini_array
00012208 g     F .text	00000100 __kernel_cosf
00013538 g     F .text	00000120 __call_exitprocs
0001044c g     F .text	0000004c _start
00010bcc g     F .text	00000044 _Z12ClockMsToHMSmRmS_S_
000136c8 g     F .text	00000098 __register_exitproc
00010c80 g     F .text	00000070 _Z13ScrollConsolev
00016390 g     O .data	00000004 seed
00016ba8 g       .bss	00000000 __BSS_END__
00012d0c g     F .text	00000120 scalbnf
00016878 g       .bss	00000000 __bss_start
00010dec g     F .text	000003c4 _Z11EchoConsolel
0001120c g     F .text	00000034 _Z8InitFontv
0001345c g     F .text	000000dc memset
00010074 g     F .text	000003a4 main
000106d8 g     F .text	0000008c _Z14resetparticlesPs
000153e8 g     O .rodata	00000100 .hidden __clz_tab
000136b4 g     F .text	00000014 atexit
00016874 g     O .sdata	00000004 _impure_ptr
00011920 g     F .text	000000f8 _Z11PrintDMAHexiim
00011e94 g     F .text	000000a4 sinf
00016390 g       .data	00000000 __DATA_BEGIN__
00011584 g     F .text	0000039c _Z8PrintDMAiiiPKcb
00016878 g       .sdata	00000000 _edata
00016ba8 g       .bss	00000000 _end
00013268 g     F .text	00000030 exit
00010764 g     F .text	00000404 _Z13drawparticlesPs
00013760 g     F .text	00000030 _exit
00012308 g     F .text	000008b8 __kernel_rem_pio2f
00012c54 g     F .text	000000b8 floorf
00011a18 g     F .text	000003dc _Z15PrintDMADecimaliiib
00010cf0 g     F .text	000000fc _Z11EchoConsolePKc



Disassembly of section .text:

00010074 <main>:
   10074:	f7010113          	addi	sp,sp,-144
   10078:	ffffe337          	lui	t1,0xffffe
   1007c:	08112623          	sw	ra,140(sp)
   10080:	08812423          	sw	s0,136(sp)
   10084:	08912223          	sw	s1,132(sp)
   10088:	09212023          	sw	s2,128(sp)
   1008c:	07312e23          	sw	s3,124(sp)
   10090:	07412c23          	sw	s4,120(sp)
   10094:	07512a23          	sw	s5,116(sp)
   10098:	07612823          	sw	s6,112(sp)
   1009c:	07712623          	sw	s7,108(sp)
   100a0:	07812423          	sw	s8,104(sp)
   100a4:	07912223          	sw	s9,100(sp)
   100a8:	07a12023          	sw	s10,96(sp)
   100ac:	05b12e23          	sw	s11,92(sp)
   100b0:	04812627          	fsw	fs0,76(sp)
   100b4:	04912427          	fsw	fs1,72(sp)
   100b8:	05212227          	fsw	fs2,68(sp)
   100bc:	05312027          	fsw	fs3,64(sp)
   100c0:	03412e27          	fsw	fs4,60(sp)
   100c4:	03512c27          	fsw	fs5,56(sp)
   100c8:	03612a27          	fsw	fs6,52(sp)
   100cc:	00610133          	add	sp,sp,t1
   100d0:	13c010ef          	jal	ra,1120c <_Z8InitFontv>
   100d4:	00006917          	auipc	s2,0x6
   100d8:	70092903          	lw	s2,1792(s2) # 167d4 <_GLOBAL_OFFSET_TABLE_+0x4>
   100dc:	335000ef          	jal	ra,10c10 <_Z12ClearConsolev>
   100e0:	00092783          	lw	a5,0(s2)
   100e4:	00006717          	auipc	a4,0x6
   100e8:	6fc72703          	lw	a4,1788(a4) # 167e0 <_GLOBAL_OFFSET_TABLE_+0x10>
   100ec:	00072d83          	lw	s11,0(a4)
   100f0:	38100713          	li	a4,897
   100f4:	00e7a023          	sw	a4,0(a5)
   100f8:	3f100713          	li	a4,1009
   100fc:	00e7a023          	sw	a4,0(a5)
   10100:	000da023          	sw	zero,0(s11)
   10104:	30100713          	li	a4,769
   10108:	00e7a023          	sw	a4,0(a5)
   1010c:	36100713          	li	a4,865
   10110:	00e7a023          	sw	a4,0(a5)
   10114:	06700713          	li	a4,103
   10118:	00e7a023          	sw	a4,0(a5)
   1011c:	00002a37          	lui	s4,0x2
   10120:	c8100713          	li	a4,-895
   10124:	00e7a023          	sw	a4,0(a5)
   10128:	02010613          	addi	a2,sp,32
   1012c:	00001737          	lui	a4,0x1
   10130:	010a0693          	addi	a3,s4,16 # 2010 <main-0xe064>
   10134:	ffffeb37          	lui	s6,0xffffe
   10138:	c9170713          	addi	a4,a4,-879 # c91 <main-0xf3e3>
   1013c:	00c686b3          	add	a3,a3,a2
   10140:	00040c37          	lui	s8,0x40
   10144:	00e7a023          	sw	a4,0(a5)
   10148:	01668433          	add	s0,a3,s6
   1014c:	c12c0713          	addi	a4,s8,-1006 # 3fc12 <__BSS_END__+0x2906a>
   10150:	00e7a023          	sw	a4,0(a5)
   10154:	00040513          	mv	a0,s0
   10158:	00e12a23          	sw	a4,20(sp)
   1015c:	57c000ef          	jal	ra,106d8 <_Z14resetparticlesPs>
   10160:	016ddb93          	srli	s7,s11,0x16
   10164:	00ad9793          	slli	a5,s11,0xa
   10168:	00ab9b93          	slli	s7,s7,0xa
   1016c:	0817e793          	ori	a5,a5,129
   10170:	00f12623          	sw	a5,12(sp)
   10174:	091be793          	ori	a5,s7,145
   10178:	00f12823          	sw	a5,16(sp)
   1017c:	00003797          	auipc	a5,0x3
   10180:	64c7a987          	flw	fs3,1612(a5) # 137c8 <_exit+0x68>
   10184:	00003797          	auipc	a5,0x3
   10188:	6487a907          	flw	fs2,1608(a5) # 137cc <_exit+0x6c>
   1018c:	00003797          	auipc	a5,0x3
   10190:	6447a487          	flw	fs1,1604(a5) # 137d0 <_exit+0x70>
   10194:	00003797          	auipc	a5,0x3
   10198:	6407a407          	flw	fs0,1600(a5) # 137d4 <_exit+0x74>
   1019c:	00003797          	auipc	a5,0x3
   101a0:	63c7ab07          	flw	fs6,1596(a5) # 137d8 <_exit+0x78>
   101a4:	00003797          	auipc	a5,0x3
   101a8:	6387aa87          	flw	fs5,1592(a5) # 137dc <_exit+0x7c>
   101ac:	00003797          	auipc	a5,0x3
   101b0:	6347aa07          	flw	fs4,1588(a5) # 137e0 <_exit+0x80>
   101b4:	02010713          	addi	a4,sp,32
   101b8:	010a0793          	addi	a5,s4,16
   101bc:	ffcb0d13          	addi	s10,s6,-4 # ffffdffc <__BSS_END__+0xfffe7454>
   101c0:	00e787b3          	add	a5,a5,a4
   101c4:	01a78d33          	add	s10,a5,s10
   101c8:	010a0793          	addi	a5,s4,16
   101cc:	ff8b0c93          	addi	s9,s6,-8
   101d0:	00e787b3          	add	a5,a5,a4
   101d4:	01978cb3          	add	s9,a5,s9
   101d8:	010a0793          	addi	a5,s4,16
   101dc:	00e787b3          	add	a5,a5,a4
   101e0:	ff4b0b13          	addi	s6,s6,-12
   101e4:	01678b33          	add	s6,a5,s6
   101e8:	000107b7          	lui	a5,0x10
   101ec:	fff78793          	addi	a5,a5,-1 # ffff <main-0x75>
   101f0:	00f12c23          	sw	a5,24(sp)
   101f4:	001007b7          	lui	a5,0x100
   101f8:	d2178793          	addi	a5,a5,-735 # ffd21 <__BSS_END__+0xe9179>
   101fc:	00000a93          	li	s5,0
   10200:	00000993          	li	s3,0
   10204:	00000b93          	li	s7,0
   10208:	00000493          	li	s1,0
   1020c:	00f12e23          	sw	a5,28(sp)
   10210:	000da783          	lw	a5,0(s11)
   10214:	ff779ee3          	bne	a5,s7,10210 <main+0x19c>
   10218:	151000ef          	jal	ra,10b68 <_Z6Randomv>
   1021c:	0ff00c13          	li	s8,255
   10220:	00050a13          	mv	s4,a0
   10224:	145000ef          	jal	ra,10b68 <_Z6Randomv>
   10228:	03857533          	remu	a0,a0,s8
   1022c:	001b8b93          	addi	s7,s7,1
   10230:	038a7a33          	remu	s4,s4,s8
   10234:	00851513          	slli	a0,a0,0x8
   10238:	010a1a13          	slli	s4,s4,0x10
   1023c:	00aa6a33          	or	s4,s4,a0
   10240:	129000ef          	jal	ra,10b68 <_Z6Randomv>
   10244:	03857533          	remu	a0,a0,s8
   10248:	00092783          	lw	a5,0(s2)
   1024c:	01412703          	lw	a4,20(sp)
   10250:	a08b16d3          	flt.s	a3,fs6,fs0
   10254:	01456533          	or	a0,a0,s4
   10258:	00a51613          	slli	a2,a0,0xa
   1025c:	01655513          	srli	a0,a0,0x16
   10260:	08166613          	ori	a2,a2,129
   10264:	00a51513          	slli	a0,a0,0xa
   10268:	00c7a023          	sw	a2,0(a5)
   1026c:	09156513          	ori	a0,a0,145
   10270:	00a7a023          	sw	a0,0(a5)
   10274:	00e7a023          	sw	a4,0(a5)
   10278:	18069263          	bnez	a3,103fc <main+0x388>
   1027c:	f00007d3          	fmv.w.x	fa5,zero
   10280:	a0f416d3          	flt.s	a3,fs0,fa5
   10284:	16069c63          	bnez	a3,103fc <main+0x388>
   10288:	a09a96d3          	flt.s	a3,fs5,fs1
   1028c:	16069e63          	bnez	a3,10408 <main+0x394>
   10290:	f00007d3          	fmv.w.x	fa5,zero
   10294:	a0f496d3          	flt.s	a3,fs1,fa5
   10298:	16069863          	bnez	a3,10408 <main+0x394>
   1029c:	07300693          	li	a3,115
   102a0:	00d7a023          	sw	a3,0(a5)
   102a4:	00040513          	mv	a0,s0
   102a8:	4bc000ef          	jal	ra,10764 <_Z13drawparticlesPs>
   102ac:	0e9000ef          	jal	ra,10b94 <_Z9ReadClockv>
   102b0:	0f9000ef          	jal	ra,10ba8 <_Z9ClockToMsy>
   102b4:	000d0693          	mv	a3,s10
   102b8:	000c8613          	mv	a2,s9
   102bc:	000b0593          	mv	a1,s6
   102c0:	00050a13          	mv	s4,a0
   102c4:	109000ef          	jal	ra,10bcc <_Z12ClockMsToHMSmRmS_S_>
   102c8:	01812783          	lw	a5,24(sp)
   102cc:	01247453          	fadd.s	fs0,fs0,fs2
   102d0:	0134f4d3          	fadd.s	fs1,fs1,fs3
   102d4:	02fa7533          	remu	a0,s4,a5
   102d8:	00448a13          	addi	s4,s1,4
   102dc:	20840553          	fmv.s	fa0,fs0
   102e0:	209485d3          	fmv.s	fa1,fs1
   102e4:	d0057653          	fcvt.s.w	fa2,a0
   102e8:	11467653          	fmul.s	fa2,fa2,fs4
   102ec:	218000ef          	jal	ra,10504 <_Z8drawrectfff>
   102f0:	03c00513          	li	a0,60
   102f4:	02a4e533          	rem	a0,s1,a0
   102f8:	00092783          	lw	a5,0(s2)
   102fc:	01c12703          	lw	a4,28(sp)
   10300:	d0100693          	li	a3,-767
   10304:	00d7a023          	sw	a3,0(a5)
   10308:	030306b7          	lui	a3,0x3030
   1030c:	00e7a023          	sw	a4,0(a5)
   10310:	18168693          	addi	a3,a3,385 # 3030181 <__BSS_END__+0x30195d9>
   10314:	00d7a023          	sw	a3,0(a5)
   10318:	000c16b7          	lui	a3,0xc1
   1031c:	db168693          	addi	a3,a3,-591 # c0db1 <__BSS_END__+0xaa209>
   10320:	00d7a023          	sw	a3,0(a5)
   10324:	00003617          	auipc	a2,0x3
   10328:	46c60613          	addi	a2,a2,1132 # 13790 <_exit+0x30>
   1032c:	00000693          	li	a3,0
   10330:	04000593          	li	a1,64
   10334:	70d000ef          	jal	ra,11240 <_Z8PrintDMAiiPKcb>
   10338:	ffc42c03          	lw	s8,-4(s0)
   1033c:	0d5c0a63          	beq	s8,s5,10410 <main+0x39c>
   10340:	00000593          	li	a1,0
   10344:	00000513          	li	a0,0
   10348:	0fd000ef          	jal	ra,10c44 <_Z16SetConsoleCursorii>
   1034c:	0dd000ef          	jal	ra,10c28 <_Z15ClearConsoleRowv>
   10350:	00003517          	auipc	a0,0x3
   10354:	45450513          	addi	a0,a0,1108 # 137a4 <_exit+0x44>
   10358:	199000ef          	jal	ra,10cf0 <_Z11EchoConsolePKc>
   1035c:	ff442503          	lw	a0,-12(s0)
   10360:	0019c993          	xori	s3,s3,1
   10364:	000c0a93          	mv	s5,s8
   10368:	285000ef          	jal	ra,10dec <_Z11EchoConsolel>
   1036c:	00003517          	auipc	a0,0x3
   10370:	44050513          	addi	a0,a0,1088 # 137ac <_exit+0x4c>
   10374:	17d000ef          	jal	ra,10cf0 <_Z11EchoConsolePKc>
   10378:	ff842503          	lw	a0,-8(s0)
   1037c:	000a0493          	mv	s1,s4
   10380:	26d000ef          	jal	ra,10dec <_Z11EchoConsolel>
   10384:	00003517          	auipc	a0,0x3
   10388:	42850513          	addi	a0,a0,1064 # 137ac <_exit+0x4c>
   1038c:	165000ef          	jal	ra,10cf0 <_Z11EchoConsolePKc>
   10390:	ffc42503          	lw	a0,-4(s0)
   10394:	259000ef          	jal	ra,10dec <_Z11EchoConsolel>
   10398:	619000ef          	jal	ra,111b0 <_Z11DrawConsolev>
   1039c:	00092783          	lw	a5,0(s2)
   103a0:	00a99693          	slli	a3,s3,0xa
   103a4:	0816e693          	ori	a3,a3,129
   103a8:	0007a023          	sw	zero,0(a5)
   103ac:	00d7a023          	sw	a3,0(a5)
   103b0:	00c12703          	lw	a4,12(sp)
   103b4:	09100693          	li	a3,145
   103b8:	00d7a023          	sw	a3,0(a5)
   103bc:	01700693          	li	a3,23
   103c0:	00d7a023          	sw	a3,0(a5)
   103c4:	00e7a023          	sw	a4,0(a5)
   103c8:	01012703          	lw	a4,16(sp)
   103cc:	00ab9613          	slli	a2,s7,0xa
   103d0:	016bd693          	srli	a3,s7,0x16
   103d4:	00e7a023          	sw	a4,0(a5)
   103d8:	10166613          	ori	a2,a2,257
   103dc:	00a69693          	slli	a3,a3,0xa
   103e0:	00c7a023          	sw	a2,0(a5)
   103e4:	1216e693          	ori	a3,a3,289
   103e8:	00d7a023          	sw	a3,0(a5)
   103ec:	0a600693          	li	a3,166
   103f0:	00d7a023          	sw	a3,0(a5)
   103f4:	000da023          	sw	zero,0(s11)
   103f8:	e19ff06f          	j	10210 <main+0x19c>
   103fc:	a09a96d3          	flt.s	a3,fs5,fs1
   10400:	21291953          	fneg.s	fs2,fs2
   10404:	e80686e3          	beqz	a3,10290 <main+0x21c>
   10408:	213999d3          	fneg.s	fs3,fs3
   1040c:	e91ff06f          	j	1029c <main+0x228>
   10410:	00048a13          	mv	s4,s1
   10414:	f2dff06f          	j	10340 <main+0x2cc>

00010418 <_GLOBAL__sub_I_gpu.cpp>:
   10418:	00006797          	auipc	a5,0x6
   1041c:	3c07a783          	lw	a5,960(a5) # 167d8 <_GLOBAL_OFFSET_TABLE_+0x8>
   10420:	0007a703          	lw	a4,0(a5)
   10424:	00006797          	auipc	a5,0x6
   10428:	3b87a783          	lw	a5,952(a5) # 167dc <_GLOBAL_OFFSET_TABLE_+0xc>
   1042c:	00e7a023          	sw	a4,0(a5)
   10430:	00008067          	ret

00010434 <register_fini>:
   10434:	00000793          	li	a5,0
   10438:	00078863          	beqz	a5,10448 <register_fini+0x14>
   1043c:	00013537          	lui	a0,0x13
   10440:	65850513          	addi	a0,a0,1624 # 13658 <__libc_fini_array>
   10444:	2700306f          	j	136b4 <atexit>
   10448:	00008067          	ret

0001044c <_start>:
   1044c:	00006197          	auipc	gp,0x6
   10450:	74418193          	addi	gp,gp,1860 # 16b90 <__global_pointer$>
   10454:	ce818513          	addi	a0,gp,-792 # 16878 <completed.1>
   10458:	01818613          	addi	a2,gp,24 # 16ba8 <__BSS_END__>
   1045c:	40a60633          	sub	a2,a2,a0
   10460:	00000593          	li	a1,0
   10464:	7f9020ef          	jal	ra,1345c <memset>
   10468:	00003517          	auipc	a0,0x3
   1046c:	24c50513          	addi	a0,a0,588 # 136b4 <atexit>
   10470:	00050863          	beqz	a0,10480 <_start+0x34>
   10474:	00003517          	auipc	a0,0x3
   10478:	1e450513          	addi	a0,a0,484 # 13658 <__libc_fini_array>
   1047c:	238030ef          	jal	ra,136b4 <atexit>
   10480:	619020ef          	jal	ra,13298 <__libc_init_array>
   10484:	00012503          	lw	a0,0(sp)
   10488:	00410593          	addi	a1,sp,4
   1048c:	00000613          	li	a2,0
   10490:	be5ff0ef          	jal	ra,10074 <main>
   10494:	5d50206f          	j	13268 <exit>

00010498 <__do_global_dtors_aux>:
   10498:	ce81c703          	lbu	a4,-792(gp) # 16878 <completed.1>
   1049c:	04071263          	bnez	a4,104e0 <__do_global_dtors_aux+0x48>
   104a0:	ff010113          	addi	sp,sp,-16
   104a4:	00812423          	sw	s0,8(sp)
   104a8:	00078413          	mv	s0,a5
   104ac:	00112623          	sw	ra,12(sp)
   104b0:	00000793          	li	a5,0
   104b4:	00078a63          	beqz	a5,104c8 <__do_global_dtors_aux+0x30>
   104b8:	00016537          	lui	a0,0x16
   104bc:	00050513          	mv	a0,a0
   104c0:	00000097          	auipc	ra,0x0
   104c4:	000000e7          	jalr	zero # 0 <main-0x10074>
   104c8:	00100793          	li	a5,1
   104cc:	00c12083          	lw	ra,12(sp)
   104d0:	cef18423          	sb	a5,-792(gp) # 16878 <completed.1>
   104d4:	00812403          	lw	s0,8(sp)
   104d8:	01010113          	addi	sp,sp,16
   104dc:	00008067          	ret
   104e0:	00008067          	ret

000104e4 <frame_dummy>:
   104e4:	00000793          	li	a5,0
   104e8:	00078c63          	beqz	a5,10500 <frame_dummy+0x1c>
   104ec:	00016537          	lui	a0,0x16
   104f0:	cec18593          	addi	a1,gp,-788 # 1687c <object.0>
   104f4:	00050513          	mv	a0,a0
   104f8:	00000317          	auipc	t1,0x0
   104fc:	00000067          	jr	zero # 0 <main-0x10074>
   10500:	00008067          	ret

00010504 <_Z8drawrectfff>:
   10504:	fd010113          	addi	sp,sp,-48
   10508:	01512427          	fsw	fs5,8(sp)
   1050c:	20a50ad3          	fmv.s	fs5,fa0
   10510:	20c60553          	fmv.s	fa0,fa2
   10514:	01212a27          	fsw	fs2,20(sp)
   10518:	20c60953          	fmv.s	fs2,fa2
   1051c:	02112623          	sw	ra,44(sp)
   10520:	00812e27          	fsw	fs0,28(sp)
   10524:	00912c27          	fsw	fs1,24(sp)
   10528:	01312827          	fsw	fs3,16(sp)
   1052c:	01412627          	fsw	fs4,12(sp)
   10530:	20b58a53          	fmv.s	fs4,fa1
   10534:	0c1010ef          	jal	ra,11df4 <cosf>
   10538:	20a504d3          	fmv.s	fs1,fa0
   1053c:	21290553          	fmv.s	fa0,fs2
   10540:	155010ef          	jal	ra,11e94 <sinf>
   10544:	00003797          	auipc	a5,0x3
   10548:	26c7a987          	flw	fs3,620(a5) # 137b0 <_exit+0x50>
   1054c:	013979d3          	fadd.s	fs3,fs2,fs3
   10550:	20a50453          	fmv.s	fs0,fa0
   10554:	21398553          	fmv.s	fa0,fs3
   10558:	09d010ef          	jal	ra,11df4 <cosf>
   1055c:	20a50953          	fmv.s	fs2,fa0
   10560:	21398553          	fmv.s	fa0,fs3
   10564:	131010ef          	jal	ra,11e94 <sinf>
   10568:	00003797          	auipc	a5,0x3
   1056c:	24c7a587          	flw	fa1,588(a5) # 137b4 <_exit+0x54>
   10570:	a8b4f6cb          	fnmsub.s	fa3,fs1,fa1,fs5
   10574:	a0b4774b          	fnmsub.s	fa4,fs0,fa1,fs4
   10578:	a8b4f4c3          	fmadd.s	fs1,fs1,fa1,fs5
   1057c:	00003797          	auipc	a5,0x3
   10580:	23c7a787          	flw	fa5,572(a5) # 137b8 <_exit+0x58>
   10584:	a0b47443          	fmadd.s	fs0,fs0,fa1,fs4
   10588:	68f970cb          	fnmsub.s	ft1,fs2,fa5,fa3
   1058c:	70f5704b          	fnmsub.s	ft0,fa0,fa5,fa4
   10590:	48f975cb          	fnmsub.s	fa1,fs2,fa5,fs1
   10594:	48f974c3          	fmadd.s	fs1,fs2,fa5,fs1
   10598:	40f5764b          	fnmsub.s	fa2,fa0,fa5,fs0
   1059c:	c0009753          	fcvt.w.s	a4,ft1,rtz
   105a0:	40f57443          	fmadd.s	fs0,fa0,fa5,fs0
   105a4:	68f97943          	fmadd.s	fs2,fs2,fa5,fa3
   105a8:	c0001653          	fcvt.w.s	a2,ft0,rtz
   105ac:	c00597d3          	fcvt.w.s	a5,fa1,rtz
   105b0:	00010537          	lui	a0,0x10
   105b4:	01071713          	slli	a4,a4,0x10
   105b8:	fff50513          	addi	a0,a0,-1 # ffff <main-0x75>
   105bc:	70f57543          	fmadd.s	fa0,fa0,fa5,fa4
   105c0:	41075713          	srai	a4,a4,0x10
   105c4:	00a77733          	and	a4,a4,a0
   105c8:	c00498d3          	fcvt.w.s	a7,fs1,rtz
   105cc:	c00616d3          	fcvt.w.s	a3,fa2,rtz
   105d0:	01061613          	slli	a2,a2,0x10
   105d4:	00006597          	auipc	a1,0x6
   105d8:	2005a583          	lw	a1,512(a1) # 167d4 <_GLOBAL_OFFSET_TABLE_+0x4>
   105dc:	0005a583          	lw	a1,0(a1)
   105e0:	00e66633          	or	a2,a2,a4
   105e4:	01079793          	slli	a5,a5,0x10
   105e8:	c0091853          	fcvt.w.s	a6,fs2,rtz
   105ec:	c0041753          	fcvt.w.s	a4,fs0,rtz
   105f0:	00a61313          	slli	t1,a2,0xa
   105f4:	4107d793          	srai	a5,a5,0x10
   105f8:	01665613          	srli	a2,a2,0x16
   105fc:	00a7f7b3          	and	a5,a5,a0
   10600:	08136313          	ori	t1,t1,129
   10604:	01069693          	slli	a3,a3,0x10
   10608:	01089893          	slli	a7,a7,0x10
   1060c:	00a61613          	slli	a2,a2,0xa
   10610:	0065a023          	sw	t1,0(a1)
   10614:	00f6e6b3          	or	a3,a3,a5
   10618:	09166613          	ori	a2,a2,145
   1061c:	c00517d3          	fcvt.w.s	a5,fa0,rtz
   10620:	4108d893          	srai	a7,a7,0x10
   10624:	00c5a023          	sw	a2,0(a1)
   10628:	00a8f8b3          	and	a7,a7,a0
   1062c:	00a69313          	slli	t1,a3,0xa
   10630:	01081613          	slli	a2,a6,0x10
   10634:	01071713          	slli	a4,a4,0x10
   10638:	0166d693          	srli	a3,a3,0x16
   1063c:	01176733          	or	a4,a4,a7
   10640:	41065613          	srai	a2,a2,0x10
   10644:	10136813          	ori	a6,t1,257
   10648:	00a69693          	slli	a3,a3,0xa
   1064c:	0105a023          	sw	a6,0(a1)
   10650:	00a67533          	and	a0,a2,a0
   10654:	1216e693          	ori	a3,a3,289
   10658:	00a71613          	slli	a2,a4,0xa
   1065c:	01079793          	slli	a5,a5,0x10
   10660:	01675713          	srli	a4,a4,0x16
   10664:	00d5a023          	sw	a3,0(a1)
   10668:	00a7e7b3          	or	a5,a5,a0
   1066c:	18166693          	ori	a3,a2,385
   10670:	00a71713          	slli	a4,a4,0xa
   10674:	00d5a023          	sw	a3,0(a1)
   10678:	1b176713          	ori	a4,a4,433
   1067c:	00a79693          	slli	a3,a5,0xa
   10680:	0167d793          	srli	a5,a5,0x16
   10684:	00e5a023          	sw	a4,0(a1)
   10688:	00a79793          	slli	a5,a5,0xa
   1068c:	2016e713          	ori	a4,a3,513
   10690:	00e5a023          	sw	a4,0(a1)
   10694:	2417e793          	ori	a5,a5,577
   10698:	00f5a023          	sw	a5,0(a1)
   1069c:	000f97b7          	lui	a5,0xf9
   106a0:	d1578793          	addi	a5,a5,-747 # f8d15 <__BSS_END__+0xe216d>
   106a4:	00f5a023          	sw	a5,0(a1)
   106a8:	02c12083          	lw	ra,44(sp)
   106ac:	001067b7          	lui	a5,0x106
   106b0:	63578793          	addi	a5,a5,1589 # 106635 <__BSS_END__+0xefa8d>
   106b4:	00f5a023          	sw	a5,0(a1)
   106b8:	01c12407          	flw	fs0,28(sp)
   106bc:	01812487          	flw	fs1,24(sp)
   106c0:	01412907          	flw	fs2,20(sp)
   106c4:	01012987          	flw	fs3,16(sp)
   106c8:	00c12a07          	flw	fs4,12(sp)
   106cc:	00812a87          	flw	fs5,8(sp)
   106d0:	03010113          	addi	sp,sp,48
   106d4:	00008067          	ret

000106d8 <_Z14resetparticlesPs>:
   106d8:	fe010113          	addi	sp,sp,-32
   106dc:	00912a23          	sw	s1,20(sp)
   106e0:	000024b7          	lui	s1,0x2
   106e4:	00812c23          	sw	s0,24(sp)
   106e8:	01212823          	sw	s2,16(sp)
   106ec:	01312623          	sw	s3,12(sp)
   106f0:	01412423          	sw	s4,8(sp)
   106f4:	00112e23          	sw	ra,28(sp)
   106f8:	00050413          	mv	s0,a0
   106fc:	009504b3          	add	s1,a0,s1
   10700:	14000a13          	li	s4,320
   10704:	fe000993          	li	s3,-32
   10708:	00700913          	li	s2,7
   1070c:	45c000ef          	jal	ra,10b68 <_Z6Randomv>
   10710:	03457533          	remu	a0,a0,s4
   10714:	01341123          	sh	s3,2(s0)
   10718:	00840413          	addi	s0,s0,8
   1071c:	fea41c23          	sh	a0,-8(s0)
   10720:	448000ef          	jal	ra,10b68 <_Z6Randomv>
   10724:	03257533          	remu	a0,a0,s2
   10728:	00350513          	addi	a0,a0,3
   1072c:	fea41e23          	sh	a0,-4(s0)
   10730:	438000ef          	jal	ra,10b68 <_Z6Randomv>
   10734:	01f57513          	andi	a0,a0,31
   10738:	0c050513          	addi	a0,a0,192
   1073c:	fea41f23          	sh	a0,-2(s0)
   10740:	fc9416e3          	bne	s0,s1,1070c <_Z14resetparticlesPs+0x34>
   10744:	01c12083          	lw	ra,28(sp)
   10748:	01812403          	lw	s0,24(sp)
   1074c:	01412483          	lw	s1,20(sp)
   10750:	01012903          	lw	s2,16(sp)
   10754:	00c12983          	lw	s3,12(sp)
   10758:	00812a03          	lw	s4,8(sp)
   1075c:	02010113          	addi	sp,sp,32
   10760:	00008067          	ret

00010764 <_Z13drawparticlesPs>:
   10764:	fa010113          	addi	sp,sp,-96
   10768:	05312623          	sw	s3,76(sp)
   1076c:	000029b7          	lui	s3,0x2
   10770:	00298993          	addi	s3,s3,2 # 2002 <main-0xe072>
   10774:	04812c23          	sw	s0,88(sp)
   10778:	04912a23          	sw	s1,84(sp)
   1077c:	05212823          	sw	s2,80(sp)
   10780:	05612023          	sw	s6,64(sp)
   10784:	04112e23          	sw	ra,92(sp)
   10788:	05412423          	sw	s4,72(sp)
   1078c:	05512223          	sw	s5,68(sp)
   10790:	03712e23          	sw	s7,60(sp)
   10794:	03812c23          	sw	s8,56(sp)
   10798:	03912a23          	sw	s9,52(sp)
   1079c:	03a12823          	sw	s10,48(sp)
   107a0:	03b12623          	sw	s11,44(sp)
   107a4:	00812e27          	fsw	fs0,28(sp)
   107a8:	00912c27          	fsw	fs1,24(sp)
   107ac:	01212a27          	fsw	fs2,20(sp)
   107b0:	01312827          	fsw	fs3,16(sp)
   107b4:	01412627          	fsw	fs4,12(sp)
   107b8:	01512427          	fsw	fs5,8(sp)
   107bc:	01612227          	fsw	fs6,4(sp)
   107c0:	00050913          	mv	s2,a0
   107c4:	00250413          	addi	s0,a0,2
   107c8:	00050b13          	mv	s6,a0
   107cc:	013509b3          	add	s3,a0,s3
   107d0:	01800493          	li	s1,24
   107d4:	00c0006f          	j	107e0 <_Z13drawparticlesPs+0x7c>
   107d8:	00840413          	addi	s0,s0,8
   107dc:	02898e63          	beq	s3,s0,10818 <_Z13drawparticlesPs+0xb4>
   107e0:	00045783          	lhu	a5,0(s0)
   107e4:	00245683          	lhu	a3,2(s0)
   107e8:	00441703          	lh	a4,4(s0)
   107ec:	00d787b3          	add	a5,a5,a3
   107f0:	01079793          	slli	a5,a5,0x10
   107f4:	4107d793          	srai	a5,a5,0x10
   107f8:	00f41023          	sh	a5,0(s0)
   107fc:	fcf75ee3          	bge	a4,a5,107d8 <_Z13drawparticlesPs+0x74>
   10800:	368000ef          	jal	ra,10b68 <_Z6Randomv>
   10804:	029577b3          	remu	a5,a0,s1
   10808:	00840413          	addi	s0,s0,8
   1080c:	fe878793          	addi	a5,a5,-24
   10810:	fef41c23          	sh	a5,-8(s0)
   10814:	fc8996e3          	bne	s3,s0,107e0 <_Z13drawparticlesPs+0x7c>
   10818:	d0418413          	addi	s0,gp,-764 # 16894 <_ZZ13drawparticlesPsE12spawnerindex>
   1081c:	00042783          	lw	a5,0(s0)
   10820:	fe000693          	li	a3,-32
   10824:	00178793          	addi	a5,a5,1
   10828:	41f7d713          	srai	a4,a5,0x1f
   1082c:	01675713          	srli	a4,a4,0x16
   10830:	00e787b3          	add	a5,a5,a4
   10834:	3ff7f793          	andi	a5,a5,1023
   10838:	40e787b3          	sub	a5,a5,a4
   1083c:	00379713          	slli	a4,a5,0x3
   10840:	00e90733          	add	a4,s2,a4
   10844:	00271703          	lh	a4,2(a4)
   10848:	00f42023          	sw	a5,0(s0)
   1084c:	2cd74063          	blt	a4,a3,10b0c <_Z13drawparticlesPs+0x3a8>
   10850:	d0818993          	addi	s3,gp,-760 # 16898 <_ZZ13drawparticlesPsE5proll>
   10854:	0009a407          	flw	fs0,0(s3)
   10858:	00010d37          	lui	s10,0x10
   1085c:	00001db7          	lui	s11,0x1
   10860:	20840553          	fmv.s	fa0,fs0
   10864:	00000a13          	li	s4,0
   10868:	fff00913          	li	s2,-1
   1086c:	588010ef          	jal	ra,11df4 <cosf>
   10870:	20a507d3          	fmv.s	fa5,fa0
   10874:	00003797          	auipc	a5,0x3
   10878:	f487a907          	flw	fs2,-184(a5) # 137bc <_exit+0x5c>
   1087c:	20840553          	fmv.s	fa0,fs0
   10880:	1127f7d3          	fmul.s	fa5,fa5,fs2
   10884:	001fe4b7          	lui	s1,0x1fe
   10888:	40000413          	li	s0,1024
   1088c:	fffd0d13          	addi	s10,s10,-1 # ffff <main-0x75>
   10890:	d15d8d93          	addi	s11,s11,-747 # d15 <main-0xf35f>
   10894:	c0079cd3          	fcvt.w.s	s9,fa5,rtz
   10898:	5fc010ef          	jal	ra,11e94 <sinf>
   1089c:	00003797          	auipc	a5,0x3
   108a0:	f147aa87          	flw	fs5,-236(a5) # 137b0 <_exit+0x50>
   108a4:	015474d3          	fadd.s	fs1,fs0,fs5
   108a8:	112577d3          	fmul.s	fa5,fa0,fs2
   108ac:	010c9c93          	slli	s9,s9,0x10
   108b0:	410cdc93          	srai	s9,s9,0x10
   108b4:	20948553          	fmv.s	fa0,fs1
   108b8:	c0079c53          	fcvt.w.s	s8,fa5,rtz
   108bc:	538010ef          	jal	ra,11df4 <cosf>
   108c0:	20a507d3          	fmv.s	fa5,fa0
   108c4:	20948553          	fmv.s	fa0,fs1
   108c8:	010c1c13          	slli	s8,s8,0x10
   108cc:	1127f7d3          	fmul.s	fa5,fa5,fs2
   108d0:	410c5c13          	srai	s8,s8,0x10
   108d4:	c0079bd3          	fcvt.w.s	s7,fa5,rtz
   108d8:	5bc010ef          	jal	ra,11e94 <sinf>
   108dc:	11257553          	fmul.s	fa0,fa0,fs2
   108e0:	00006797          	auipc	a5,0x6
   108e4:	ef47a783          	lw	a5,-268(a5) # 167d4 <_GLOBAL_OFFSET_TABLE_+0x4>
   108e8:	010b9b93          	slli	s7,s7,0x10
   108ec:	0007aa83          	lw	s5,0(a5)
   108f0:	410bdb93          	srai	s7,s7,0x10
   108f4:	c00516d3          	fcvt.w.s	a3,fa0,rtz
   108f8:	00003797          	auipc	a5,0x3
   108fc:	ec87ab07          	flw	fs6,-312(a5) # 137c0 <_exit+0x60>
   10900:	00003797          	auipc	a5,0x3
   10904:	ec47aa07          	flw	fs4,-316(a5) # 137c4 <_exit+0x64>
   10908:	01069693          	slli	a3,a3,0x10
   1090c:	4106d693          	srai	a3,a3,0x10
   10910:	03fa7793          	andi	a5,s4,63
   10914:	015479d3          	fadd.s	fs3,fs0,fs5
   10918:	096474d3          	fsub.s	fs1,fs0,fs6
   1091c:	20840553          	fmv.s	fa0,fs0
   10920:	06079c63          	bnez	a5,10998 <_Z13drawparticlesPs+0x234>
   10924:	4d0010ef          	jal	ra,11df4 <cosf>
   10928:	20a507d3          	fmv.s	fa5,fa0
   1092c:	20840553          	fmv.s	fa0,fs0
   10930:	1127f7d3          	fmul.s	fa5,fa5,fs2
   10934:	c0079cd3          	fcvt.w.s	s9,fa5,rtz
   10938:	55c010ef          	jal	ra,11e94 <sinf>
   1093c:	20a507d3          	fmv.s	fa5,fa0
   10940:	21398553          	fmv.s	fa0,fs3
   10944:	010c9c93          	slli	s9,s9,0x10
   10948:	1127f7d3          	fmul.s	fa5,fa5,fs2
   1094c:	410cdc93          	srai	s9,s9,0x10
   10950:	c0079c53          	fcvt.w.s	s8,fa5,rtz
   10954:	4a0010ef          	jal	ra,11df4 <cosf>
   10958:	20a507d3          	fmv.s	fa5,fa0
   1095c:	21398553          	fmv.s	fa0,fs3
   10960:	010c1c13          	slli	s8,s8,0x10
   10964:	1127f7d3          	fmul.s	fa5,fa5,fs2
   10968:	410c5c13          	srai	s8,s8,0x10
   1096c:	c0079bd3          	fcvt.w.s	s7,fa5,rtz
   10970:	524010ef          	jal	ra,11e94 <sinf>
   10974:	11257553          	fmul.s	fa0,fa0,fs2
   10978:	094477d3          	fsub.s	fa5,fs0,fs4
   1097c:	20948453          	fmv.s	fs0,fs1
   10980:	010b9b93          	slli	s7,s7,0x10
   10984:	410bdb93          	srai	s7,s7,0x10
   10988:	c00516d3          	fcvt.w.s	a3,fa0,rtz
   1098c:	20f784d3          	fmv.s	fs1,fa5
   10990:	01069693          	slli	a3,a3,0x10
   10994:	4106d693          	srai	a3,a3,0x10
   10998:	002b1e83          	lh	t4,2(s6)
   1099c:	010c1513          	slli	a0,s8,0x10
   109a0:	01069313          	slli	t1,a3,0x10
   109a4:	01055513          	srli	a0,a0,0x10
   109a8:	01035313          	srli	t1,t1,0x10
   109ac:	00650733          	add	a4,a0,t1
   109b0:	010c9793          	slli	a5,s9,0x10
   109b4:	010b9e13          	slli	t3,s7,0x10
   109b8:	010e9813          	slli	a6,t4,0x10
   109bc:	01085813          	srli	a6,a6,0x10
   109c0:	0107d793          	srli	a5,a5,0x10
   109c4:	010e5e13          	srli	t3,t3,0x10
   109c8:	01071713          	slli	a4,a4,0x10
   109cc:	01075713          	srli	a4,a4,0x10
   109d0:	00da1593          	slli	a1,s4,0xd
   109d4:	01050533          	add	a0,a0,a6
   109d8:	01c78633          	add	a2,a5,t3
   109dc:	40e808b3          	sub	a7,a6,a4
   109e0:	01061613          	slli	a2,a2,0x10
   109e4:	0095f5b3          	and	a1,a1,s1
   109e8:	40650333          	sub	t1,a0,t1
   109ec:	00e80733          	add	a4,a6,a4
   109f0:	01065613          	srli	a2,a2,0x10
   109f4:	01089893          	slli	a7,a7,0x10
   109f8:	01031313          	slli	t1,t1,0x10
   109fc:	01071813          	slli	a6,a4,0x10
   10a00:	001a0a13          	addi	s4,s4,1
   10a04:	01b5e5b3          	or	a1,a1,s11
   10a08:	0b2e8063          	beq	t4,s2,10aa8 <_Z13drawparticlesPs+0x344>
   10a0c:	000b5503          	lhu	a0,0(s6)
   10a10:	40c50733          	sub	a4,a0,a2
   10a14:	00a787b3          	add	a5,a5,a0
   10a18:	01071713          	slli	a4,a4,0x10
   10a1c:	41075713          	srai	a4,a4,0x10
   10a20:	41c787b3          	sub	a5,a5,t3
   10a24:	01a77733          	and	a4,a4,s10
   10a28:	01079793          	slli	a5,a5,0x10
   10a2c:	00e8e733          	or	a4,a7,a4
   10a30:	00c50633          	add	a2,a0,a2
   10a34:	4107d793          	srai	a5,a5,0x10
   10a38:	00a71893          	slli	a7,a4,0xa
   10a3c:	01675513          	srli	a0,a4,0x16
   10a40:	01a7f7b3          	and	a5,a5,s10
   10a44:	01061613          	slli	a2,a2,0x10
   10a48:	0818e713          	ori	a4,a7,129
   10a4c:	00f367b3          	or	a5,t1,a5
   10a50:	41065613          	srai	a2,a2,0x10
   10a54:	00a51513          	slli	a0,a0,0xa
   10a58:	00eaa023          	sw	a4,0(s5)
   10a5c:	01a67633          	and	a2,a2,s10
   10a60:	00a79893          	slli	a7,a5,0xa
   10a64:	09156513          	ori	a0,a0,145
   10a68:	0167d793          	srli	a5,a5,0x16
   10a6c:	00aaa023          	sw	a0,0(s5)
   10a70:	00c86733          	or	a4,a6,a2
   10a74:	00a79793          	slli	a5,a5,0xa
   10a78:	1018e613          	ori	a2,a7,257
   10a7c:	00caa023          	sw	a2,0(s5)
   10a80:	1217e793          	ori	a5,a5,289
   10a84:	00a71613          	slli	a2,a4,0xa
   10a88:	01675713          	srli	a4,a4,0x16
   10a8c:	00faa023          	sw	a5,0(s5)
   10a90:	00a71713          	slli	a4,a4,0xa
   10a94:	18166793          	ori	a5,a2,385
   10a98:	00faa023          	sw	a5,0(s5)
   10a9c:	1b176713          	ori	a4,a4,433
   10aa0:	00eaa023          	sw	a4,0(s5)
   10aa4:	00baa023          	sw	a1,0(s5)
   10aa8:	008b0b13          	addi	s6,s6,8
   10aac:	e68a12e3          	bne	s4,s0,10910 <_Z13drawparticlesPs+0x1ac>
   10ab0:	05c12083          	lw	ra,92(sp)
   10ab4:	05812403          	lw	s0,88(sp)
   10ab8:	0099a027          	fsw	fs1,0(s3)
   10abc:	05412483          	lw	s1,84(sp)
   10ac0:	05012903          	lw	s2,80(sp)
   10ac4:	04c12983          	lw	s3,76(sp)
   10ac8:	04812a03          	lw	s4,72(sp)
   10acc:	04412a83          	lw	s5,68(sp)
   10ad0:	04012b03          	lw	s6,64(sp)
   10ad4:	03c12b83          	lw	s7,60(sp)
   10ad8:	03812c03          	lw	s8,56(sp)
   10adc:	03412c83          	lw	s9,52(sp)
   10ae0:	03012d03          	lw	s10,48(sp)
   10ae4:	02c12d83          	lw	s11,44(sp)
   10ae8:	01c12407          	flw	fs0,28(sp)
   10aec:	01812487          	flw	fs1,24(sp)
   10af0:	01412907          	flw	fs2,20(sp)
   10af4:	01012987          	flw	fs3,16(sp)
   10af8:	00c12a07          	flw	fs4,12(sp)
   10afc:	00812a87          	flw	fs5,8(sp)
   10b00:	00412b07          	flw	fs6,4(sp)
   10b04:	06010113          	addi	sp,sp,96
   10b08:	00008067          	ret
   10b0c:	05c000ef          	jal	ra,10b68 <_Z6Randomv>
   10b10:	14000713          	li	a4,320
   10b14:	02e57733          	remu	a4,a0,a4
   10b18:	00042783          	lw	a5,0(s0)
   10b1c:	00379793          	slli	a5,a5,0x3
   10b20:	00f907b3          	add	a5,s2,a5
   10b24:	00e79023          	sh	a4,0(a5)
   10b28:	040000ef          	jal	ra,10b68 <_Z6Randomv>
   10b2c:	00700713          	li	a4,7
   10b30:	02e57733          	remu	a4,a0,a4
   10b34:	00042783          	lw	a5,0(s0)
   10b38:	00379793          	slli	a5,a5,0x3
   10b3c:	00f907b3          	add	a5,s2,a5
   10b40:	00370713          	addi	a4,a4,3
   10b44:	00e79223          	sh	a4,4(a5)
   10b48:	020000ef          	jal	ra,10b68 <_Z6Randomv>
   10b4c:	00042703          	lw	a4,0(s0)
   10b50:	01f57793          	andi	a5,a0,31
   10b54:	0c078793          	addi	a5,a5,192
   10b58:	00371713          	slli	a4,a4,0x3
   10b5c:	00e90933          	add	s2,s2,a4
   10b60:	00f91323          	sh	a5,6(s2)
   10b64:	cedff06f          	j	10850 <_Z13drawparticlesPs+0xec>

00010b68 <_Z6Randomv>:
   10b68:	00006717          	auipc	a4,0x6
   10b6c:	c7c72703          	lw	a4,-900(a4) # 167e4 <_GLOBAL_OFFSET_TABLE_+0x14>
   10b70:	00072503          	lw	a0,0(a4)
   10b74:	00951793          	slli	a5,a0,0x9
   10b78:	00a7c7b3          	xor	a5,a5,a0
   10b7c:	00d7d513          	srli	a0,a5,0xd
   10b80:	00f547b3          	xor	a5,a0,a5
   10b84:	00179513          	slli	a0,a5,0x1
   10b88:	00f54533          	xor	a0,a0,a5
   10b8c:	00a72023          	sw	a0,0(a4)
   10b90:	00008067          	ret

00010b94 <_Z9ReadClockv>:
   10b94:	c81025f3          	rdtimeh	a1
   10b98:	c0102573          	rdtime	a0
   10b9c:	c81027f3          	rdtimeh	a5
   10ba0:	fef59ae3          	bne	a1,a5,10b94 <_Z9ReadClockv>
   10ba4:	00008067          	ret

00010ba8 <_Z9ClockToMsy>:
   10ba8:	00002637          	lui	a2,0x2
   10bac:	ff010113          	addi	sp,sp,-16
   10bb0:	71060613          	addi	a2,a2,1808 # 2710 <main-0xd964>
   10bb4:	00000693          	li	a3,0
   10bb8:	00112623          	sw	ra,12(sp)
   10bbc:	270020ef          	jal	ra,12e2c <__udivdi3>
   10bc0:	00c12083          	lw	ra,12(sp)
   10bc4:	01010113          	addi	sp,sp,16
   10bc8:	00008067          	ret

00010bcc <_Z12ClockMsToHMSmRmS_S_>:
   10bcc:	000587b7          	lui	a5,0x58
   10bd0:	e4078793          	addi	a5,a5,-448 # 57e40 <__BSS_END__+0x41298>
   10bd4:	02f577b3          	remu	a5,a0,a5
   10bd8:	0036f837          	lui	a6,0x36f
   10bdc:	e8080813          	addi	a6,a6,-384 # 36ee80 <__BSS_END__+0x3582d8>
   10be0:	0000f737          	lui	a4,0xf
   10be4:	a6070713          	addi	a4,a4,-1440 # ea60 <main-0x1614>
   10be8:	030578b3          	remu	a7,a0,a6
   10bec:	03055533          	divu	a0,a0,a6
   10bf0:	02e7f7b3          	remu	a5,a5,a4
   10bf4:	00a5a023          	sw	a0,0(a1)
   10bf8:	3e800593          	li	a1,1000
   10bfc:	02e8d733          	divu	a4,a7,a4
   10c00:	02b7d7b3          	divu	a5,a5,a1
   10c04:	00e62023          	sw	a4,0(a2)
   10c08:	00f6a023          	sw	a5,0(a3)
   10c0c:	00008067          	ret

00010c10 <_Z12ClearConsolev>:
   10c10:	30000613          	li	a2,768
   10c14:	02000593          	li	a1,32
   10c18:	d0c18513          	addi	a0,gp,-756 # 1689c <_ZL11consoleText>
   10c1c:	0001a623          	sw	zero,12(gp) # 16b9c <_ZL7cursorx>
   10c20:	0001a823          	sw	zero,16(gp) # 16ba0 <_ZL7cursory>
   10c24:	0390206f          	j	1345c <memset>

00010c28 <_Z15ClearConsoleRowv>:
   10c28:	0101a783          	lw	a5,16(gp) # 16ba0 <_ZL7cursory>
   10c2c:	00579793          	slli	a5,a5,0x5
   10c30:	d0c18513          	addi	a0,gp,-756 # 1689c <_ZL11consoleText>
   10c34:	02000613          	li	a2,32
   10c38:	02000593          	li	a1,32
   10c3c:	00f50533          	add	a0,a0,a5
   10c40:	01d0206f          	j	1345c <memset>

00010c44 <_Z16SetConsoleCursorii>:
   10c44:	fff54793          	not	a5,a0
   10c48:	41f7d793          	srai	a5,a5,0x1f
   10c4c:	00f57533          	and	a0,a0,a5
   10c50:	01f00793          	li	a5,31
   10c54:	00a7d463          	bge	a5,a0,10c5c <_Z16SetConsoleCursorii+0x18>
   10c58:	01f00513          	li	a0,31
   10c5c:	fff5c793          	not	a5,a1
   10c60:	41f7d793          	srai	a5,a5,0x1f
   10c64:	00f5f5b3          	and	a1,a1,a5
   10c68:	00a1a623          	sw	a0,12(gp) # 16b9c <_ZL7cursorx>
   10c6c:	01700793          	li	a5,23
   10c70:	00b7d463          	bge	a5,a1,10c78 <_Z16SetConsoleCursorii+0x34>
   10c74:	01700593          	li	a1,23
   10c78:	00b1a823          	sw	a1,16(gp) # 16ba0 <_ZL7cursory>
   10c7c:	00008067          	ret

00010c80 <_Z13ScrollConsolev>:
   10c80:	ff010113          	addi	sp,sp,-16
   10c84:	00112623          	sw	ra,12(sp)
   10c88:	d0c18793          	addi	a5,gp,-756 # 1689c <_ZL11consoleText>
   10c8c:	fec18e13          	addi	t3,gp,-20 # 16b7c <_ZL11consoleText+0x2e0>
   10c90:	0207a303          	lw	t1,32(a5)
   10c94:	0247a883          	lw	a7,36(a5)
   10c98:	0287a803          	lw	a6,40(a5)
   10c9c:	02c7a503          	lw	a0,44(a5)
   10ca0:	0307a583          	lw	a1,48(a5)
   10ca4:	0347a603          	lw	a2,52(a5)
   10ca8:	0387a683          	lw	a3,56(a5)
   10cac:	03c7a703          	lw	a4,60(a5)
   10cb0:	0067a023          	sw	t1,0(a5)
   10cb4:	0117a223          	sw	a7,4(a5)
   10cb8:	0107a423          	sw	a6,8(a5)
   10cbc:	00a7a623          	sw	a0,12(a5)
   10cc0:	00b7a823          	sw	a1,16(a5)
   10cc4:	00c7aa23          	sw	a2,20(a5)
   10cc8:	00d7ac23          	sw	a3,24(a5)
   10ccc:	00e7ae23          	sw	a4,28(a5)
   10cd0:	02078793          	addi	a5,a5,32
   10cd4:	fafe1ee3          	bne	t3,a5,10c90 <_Z13ScrollConsolev+0x10>
   10cd8:	01700593          	li	a1,23
   10cdc:	00c1a503          	lw	a0,12(gp) # 16b9c <_ZL7cursorx>
   10ce0:	f65ff0ef          	jal	ra,10c44 <_Z16SetConsoleCursorii>
   10ce4:	00c12083          	lw	ra,12(sp)
   10ce8:	01010113          	addi	sp,sp,16
   10cec:	f3dff06f          	j	10c28 <_Z15ClearConsoleRowv>

00010cf0 <_Z11EchoConsolePKc>:
   10cf0:	00054703          	lbu	a4,0(a0)
   10cf4:	0e070a63          	beqz	a4,10de8 <_Z11EchoConsolePKc+0xf8>
   10cf8:	fd010113          	addi	sp,sp,-48
   10cfc:	02812423          	sw	s0,40(sp)
   10d00:	02912223          	sw	s1,36(sp)
   10d04:	03212023          	sw	s2,32(sp)
   10d08:	01312e23          	sw	s3,28(sp)
   10d0c:	01412c23          	sw	s4,24(sp)
   10d10:	01512a23          	sw	s5,20(sp)
   10d14:	01612823          	sw	s6,16(sp)
   10d18:	01712623          	sw	s7,12(sp)
   10d1c:	02112623          	sw	ra,44(sp)
   10d20:	00050413          	mv	s0,a0
   10d24:	01018493          	addi	s1,gp,16 # 16ba0 <_ZL7cursory>
   10d28:	00d00a13          	li	s4,13
   10d2c:	00c18993          	addi	s3,gp,12 # 16b9c <_ZL7cursorx>
   10d30:	00a00b93          	li	s7,10
   10d34:	01f00b13          	li	s6,31
   10d38:	d0c18a93          	addi	s5,gp,-756 # 1689c <_ZL11consoleText>
   10d3c:	01700913          	li	s2,23
   10d40:	0004a783          	lw	a5,0(s1) # 1fe000 <__BSS_END__+0x1e7458>
   10d44:	09470863          	beq	a4,s4,10dd4 <_Z11EchoConsolePKc+0xe4>
   10d48:	0009a683          	lw	a3,0(s3)
   10d4c:	09770863          	beq	a4,s7,10ddc <_Z11EchoConsolePKc+0xec>
   10d50:	00579613          	slli	a2,a5,0x5
   10d54:	00ca8633          	add	a2,s5,a2
   10d58:	00d60633          	add	a2,a2,a3
   10d5c:	00168693          	addi	a3,a3,1
   10d60:	00e60023          	sb	a4,0(a2)
   10d64:	00d9a023          	sw	a3,0(s3)
   10d68:	00db5863          	bge	s6,a3,10d78 <_Z11EchoConsolePKc+0x88>
   10d6c:	00178793          	addi	a5,a5,1
   10d70:	0001a623          	sw	zero,12(gp) # 16b9c <_ZL7cursorx>
   10d74:	00f4a023          	sw	a5,0(s1)
   10d78:	02f94e63          	blt	s2,a5,10db4 <_Z11EchoConsolePKc+0xc4>
   10d7c:	00144703          	lbu	a4,1(s0)
   10d80:	00140413          	addi	s0,s0,1
   10d84:	fa071ee3          	bnez	a4,10d40 <_Z11EchoConsolePKc+0x50>
   10d88:	02c12083          	lw	ra,44(sp)
   10d8c:	02812403          	lw	s0,40(sp)
   10d90:	02412483          	lw	s1,36(sp)
   10d94:	02012903          	lw	s2,32(sp)
   10d98:	01c12983          	lw	s3,28(sp)
   10d9c:	01812a03          	lw	s4,24(sp)
   10da0:	01412a83          	lw	s5,20(sp)
   10da4:	01012b03          	lw	s6,16(sp)
   10da8:	00c12b83          	lw	s7,12(sp)
   10dac:	03010113          	addi	sp,sp,48
   10db0:	00008067          	ret
   10db4:	00140413          	addi	s0,s0,1
   10db8:	0124a023          	sw	s2,0(s1)
   10dbc:	0001a623          	sw	zero,12(gp) # 16b9c <_ZL7cursorx>
   10dc0:	ec1ff0ef          	jal	ra,10c80 <_Z13ScrollConsolev>
   10dc4:	00044703          	lbu	a4,0(s0)
   10dc8:	fc0700e3          	beqz	a4,10d88 <_Z11EchoConsolePKc+0x98>
   10dcc:	0004a783          	lw	a5,0(s1)
   10dd0:	f7471ce3          	bne	a4,s4,10d48 <_Z11EchoConsolePKc+0x58>
   10dd4:	0001a623          	sw	zero,12(gp) # 16b9c <_ZL7cursorx>
   10dd8:	fa1ff06f          	j	10d78 <_Z11EchoConsolePKc+0x88>
   10ddc:	00178793          	addi	a5,a5,1
   10de0:	00f4a023          	sw	a5,0(s1)
   10de4:	f85ff06f          	j	10d68 <_Z11EchoConsolePKc+0x78>
   10de8:	00008067          	ret

00010dec <_Z11EchoConsolel>:
   10dec:	00003797          	auipc	a5,0x3
   10df0:	9f878793          	addi	a5,a5,-1544 # 137e4 <_exit+0x84>
   10df4:	00003717          	auipc	a4,0x3
   10df8:	a0470713          	addi	a4,a4,-1532 # 137f8 <_exit+0x98>
   10dfc:	0047a603          	lw	a2,4(a5)
   10e00:	00072e03          	lw	t3,0(a4)
   10e04:	00472303          	lw	t1,4(a4)
   10e08:	00875883          	lhu	a7,8(a4)
   10e0c:	00a74803          	lbu	a6,10(a4)
   10e10:	0007a583          	lw	a1,0(a5)
   10e14:	0087a683          	lw	a3,8(a5)
   10e18:	00c7a703          	lw	a4,12(a5)
   10e1c:	0107a783          	lw	a5,16(a5)
   10e20:	fd010113          	addi	sp,sp,-48
   10e24:	00c12823          	sw	a2,16(sp)
   10e28:	00f12e23          	sw	a5,28(sp)
   10e2c:	02112623          	sw	ra,44(sp)
   10e30:	01c12023          	sw	t3,0(sp)
   10e34:	00612223          	sw	t1,4(sp)
   10e38:	01111423          	sh	a7,8(sp)
   10e3c:	01010523          	sb	a6,10(sp)
   10e40:	00b12623          	sw	a1,12(sp)
   10e44:	00d12a23          	sw	a3,20(sp)
   10e48:	00e12c23          	sw	a4,24(sp)
   10e4c:	02d00613          	li	a2,45
   10e50:	00100793          	li	a5,1
   10e54:	00054663          	bltz	a0,10e60 <_Z11EchoConsolel+0x74>
   10e58:	02000613          	li	a2,32
   10e5c:	00000793          	li	a5,0
   10e60:	3b9ad737          	lui	a4,0x3b9ad
   10e64:	a0070693          	addi	a3,a4,-1536 # 3b9aca00 <__BSS_END__+0x3b995e58>
   10e68:	02d546b3          	div	a3,a0,a3
   10e6c:	9ff70713          	addi	a4,a4,-1537
   10e70:	00c10623          	sb	a2,12(sp)
   10e74:	77359637          	lui	a2,0x77359
   10e78:	00e50733          	add	a4,a0,a4
   10e7c:	3fe60613          	addi	a2,a2,1022 # 773593fe <__BSS_END__+0x77342856>
   10e80:	41f6d593          	srai	a1,a3,0x1f
   10e84:	00d5c6b3          	xor	a3,a1,a3
   10e88:	40b686b3          	sub	a3,a3,a1
   10e8c:	12e66c63          	bltu	a2,a4,10fc4 <_Z11EchoConsolel+0x1d8>
   10e90:	05f5e737          	lui	a4,0x5f5e
   10e94:	10070713          	addi	a4,a4,256 # 5f5e100 <__BSS_END__+0x5f47558>
   10e98:	02e54733          	div	a4,a0,a4
   10e9c:	00a00613          	li	a2,10
   10ea0:	41f75593          	srai	a1,a4,0x1f
   10ea4:	00e5c6b3          	xor	a3,a1,a4
   10ea8:	40b686b3          	sub	a3,a3,a1
   10eac:	02c6e6b3          	rem	a3,a3,a2
   10eb0:	14069863          	bnez	a3,11000 <_Z11EchoConsolel+0x214>
   10eb4:	00989737          	lui	a4,0x989
   10eb8:	68070713          	addi	a4,a4,1664 # 989680 <__BSS_END__+0x972ad8>
   10ebc:	02e54733          	div	a4,a0,a4
   10ec0:	41f75593          	srai	a1,a4,0x1f
   10ec4:	00e5c6b3          	xor	a3,a1,a4
   10ec8:	40b686b3          	sub	a3,a3,a1
   10ecc:	02c6e6b3          	rem	a3,a3,a2
   10ed0:	16069663          	bnez	a3,1103c <_Z11EchoConsolel+0x250>
   10ed4:	000f4737          	lui	a4,0xf4
   10ed8:	24070713          	addi	a4,a4,576 # f4240 <__BSS_END__+0xdd698>
   10edc:	02e54733          	div	a4,a0,a4
   10ee0:	41f75593          	srai	a1,a4,0x1f
   10ee4:	00e5c6b3          	xor	a3,a1,a4
   10ee8:	40b686b3          	sub	a3,a3,a1
   10eec:	02c6e6b3          	rem	a3,a3,a2
   10ef0:	18069463          	bnez	a3,11078 <_Z11EchoConsolel+0x28c>
   10ef4:	00018737          	lui	a4,0x18
   10ef8:	6a070713          	addi	a4,a4,1696 # 186a0 <__BSS_END__+0x1af8>
   10efc:	02e54733          	div	a4,a0,a4
   10f00:	41f75593          	srai	a1,a4,0x1f
   10f04:	00e5c6b3          	xor	a3,a1,a4
   10f08:	40b686b3          	sub	a3,a3,a1
   10f0c:	02c6e6b3          	rem	a3,a3,a2
   10f10:	1a069263          	bnez	a3,110b4 <_Z11EchoConsolel+0x2c8>
   10f14:	00002737          	lui	a4,0x2
   10f18:	71070713          	addi	a4,a4,1808 # 2710 <main-0xd964>
   10f1c:	02e54733          	div	a4,a0,a4
   10f20:	41f75693          	srai	a3,a4,0x1f
   10f24:	00e6c733          	xor	a4,a3,a4
   10f28:	40d70733          	sub	a4,a4,a3
   10f2c:	02c76733          	rem	a4,a4,a2
   10f30:	1c071063          	bnez	a4,110f0 <_Z11EchoConsolel+0x304>
   10f34:	3e800713          	li	a4,1000
   10f38:	02e54733          	div	a4,a0,a4
   10f3c:	41f75593          	srai	a1,a4,0x1f
   10f40:	00e5c6b3          	xor	a3,a1,a4
   10f44:	40b686b3          	sub	a3,a3,a1
   10f48:	02c6e6b3          	rem	a3,a3,a2
   10f4c:	1c069e63          	bnez	a3,11128 <_Z11EchoConsolel+0x33c>
   10f50:	06400713          	li	a4,100
   10f54:	02e54733          	div	a4,a0,a4
   10f58:	41f75693          	srai	a3,a4,0x1f
   10f5c:	00e6c733          	xor	a4,a3,a4
   10f60:	40d70733          	sub	a4,a4,a3
   10f64:	02c76733          	rem	a4,a4,a2
   10f68:	1e071c63          	bnez	a4,11160 <_Z11EchoConsolel+0x374>
   10f6c:	02c54733          	div	a4,a0,a2
   10f70:	41f75693          	srai	a3,a4,0x1f
   10f74:	00e6c733          	xor	a4,a3,a4
   10f78:	40d70733          	sub	a4,a4,a3
   10f7c:	02c76633          	rem	a2,a4,a2
   10f80:	20061a63          	bnez	a2,11194 <_Z11EchoConsolel+0x3a8>
   10f84:	41f55693          	srai	a3,a0,0x1f
   10f88:	00a6c733          	xor	a4,a3,a0
   10f8c:	40d70733          	sub	a4,a4,a3
   10f90:	00a00513          	li	a0,10
   10f94:	02a76733          	rem	a4,a4,a0
   10f98:	02010693          	addi	a3,sp,32
   10f9c:	00f687b3          	add	a5,a3,a5
   10fa0:	00c10513          	addi	a0,sp,12
   10fa4:	fe0786a3          	sb	zero,-19(a5)
   10fa8:	00e68733          	add	a4,a3,a4
   10fac:	fe074703          	lbu	a4,-32(a4)
   10fb0:	fee78623          	sb	a4,-20(a5)
   10fb4:	d3dff0ef          	jal	ra,10cf0 <_Z11EchoConsolePKc>
   10fb8:	02c12083          	lw	ra,44(sp)
   10fbc:	03010113          	addi	sp,sp,48
   10fc0:	00008067          	ret
   10fc4:	05f5e737          	lui	a4,0x5f5e
   10fc8:	10070713          	addi	a4,a4,256 # 5f5e100 <__BSS_END__+0x5f47558>
   10fcc:	02e54733          	div	a4,a0,a4
   10fd0:	02010613          	addi	a2,sp,32
   10fd4:	00d606b3          	add	a3,a2,a3
   10fd8:	fe06c603          	lbu	a2,-32(a3)
   10fdc:	02010693          	addi	a3,sp,32
   10fe0:	00f686b3          	add	a3,a3,a5
   10fe4:	fec68623          	sb	a2,-20(a3)
   10fe8:	00178793          	addi	a5,a5,1
   10fec:	41f75613          	srai	a2,a4,0x1f
   10ff0:	00e646b3          	xor	a3,a2,a4
   10ff4:	40c686b3          	sub	a3,a3,a2
   10ff8:	00a00713          	li	a4,10
   10ffc:	02e6e6b3          	rem	a3,a3,a4
   11000:	00989737          	lui	a4,0x989
   11004:	68070713          	addi	a4,a4,1664 # 989680 <__BSS_END__+0x972ad8>
   11008:	02010613          	addi	a2,sp,32
   1100c:	00d606b3          	add	a3,a2,a3
   11010:	fe06c603          	lbu	a2,-32(a3)
   11014:	02010693          	addi	a3,sp,32
   11018:	00f686b3          	add	a3,a3,a5
   1101c:	fec68623          	sb	a2,-20(a3)
   11020:	00178793          	addi	a5,a5,1
   11024:	02e54733          	div	a4,a0,a4
   11028:	41f75613          	srai	a2,a4,0x1f
   1102c:	00e646b3          	xor	a3,a2,a4
   11030:	40c686b3          	sub	a3,a3,a2
   11034:	00a00713          	li	a4,10
   11038:	02e6e6b3          	rem	a3,a3,a4
   1103c:	000f4737          	lui	a4,0xf4
   11040:	24070713          	addi	a4,a4,576 # f4240 <__BSS_END__+0xdd698>
   11044:	02010613          	addi	a2,sp,32
   11048:	00d606b3          	add	a3,a2,a3
   1104c:	fe06c603          	lbu	a2,-32(a3)
   11050:	02010693          	addi	a3,sp,32
   11054:	00f686b3          	add	a3,a3,a5
   11058:	fec68623          	sb	a2,-20(a3)
   1105c:	00178793          	addi	a5,a5,1
   11060:	02e54733          	div	a4,a0,a4
   11064:	41f75613          	srai	a2,a4,0x1f
   11068:	00e646b3          	xor	a3,a2,a4
   1106c:	40c686b3          	sub	a3,a3,a2
   11070:	00a00713          	li	a4,10
   11074:	02e6e6b3          	rem	a3,a3,a4
   11078:	00018737          	lui	a4,0x18
   1107c:	6a070713          	addi	a4,a4,1696 # 186a0 <__BSS_END__+0x1af8>
   11080:	02010613          	addi	a2,sp,32
   11084:	00d606b3          	add	a3,a2,a3
   11088:	fe06c603          	lbu	a2,-32(a3)
   1108c:	02010693          	addi	a3,sp,32
   11090:	00f686b3          	add	a3,a3,a5
   11094:	fec68623          	sb	a2,-20(a3)
   11098:	00178793          	addi	a5,a5,1
   1109c:	02e54733          	div	a4,a0,a4
   110a0:	41f75613          	srai	a2,a4,0x1f
   110a4:	00e646b3          	xor	a3,a2,a4
   110a8:	40c686b3          	sub	a3,a3,a2
   110ac:	00a00713          	li	a4,10
   110b0:	02e6e6b3          	rem	a3,a3,a4
   110b4:	00002737          	lui	a4,0x2
   110b8:	71070713          	addi	a4,a4,1808 # 2710 <main-0xd964>
   110bc:	02010613          	addi	a2,sp,32
   110c0:	00d606b3          	add	a3,a2,a3
   110c4:	fe06c603          	lbu	a2,-32(a3)
   110c8:	02010693          	addi	a3,sp,32
   110cc:	00f686b3          	add	a3,a3,a5
   110d0:	fec68623          	sb	a2,-20(a3)
   110d4:	00178793          	addi	a5,a5,1
   110d8:	02e54733          	div	a4,a0,a4
   110dc:	41f75693          	srai	a3,a4,0x1f
   110e0:	00e6c733          	xor	a4,a3,a4
   110e4:	40d70733          	sub	a4,a4,a3
   110e8:	00a00693          	li	a3,10
   110ec:	02d76733          	rem	a4,a4,a3
   110f0:	3e800693          	li	a3,1000
   110f4:	02010613          	addi	a2,sp,32
   110f8:	00e60733          	add	a4,a2,a4
   110fc:	fe074603          	lbu	a2,-32(a4)
   11100:	02010713          	addi	a4,sp,32
   11104:	00f70733          	add	a4,a4,a5
   11108:	fec70623          	sb	a2,-20(a4)
   1110c:	00178793          	addi	a5,a5,1
   11110:	02d546b3          	div	a3,a0,a3
   11114:	41f6d713          	srai	a4,a3,0x1f
   11118:	00d746b3          	xor	a3,a4,a3
   1111c:	40e686b3          	sub	a3,a3,a4
   11120:	00a00713          	li	a4,10
   11124:	02e6e6b3          	rem	a3,a3,a4
   11128:	06400713          	li	a4,100
   1112c:	02010613          	addi	a2,sp,32
   11130:	00d606b3          	add	a3,a2,a3
   11134:	fe06c603          	lbu	a2,-32(a3)
   11138:	02010693          	addi	a3,sp,32
   1113c:	00f686b3          	add	a3,a3,a5
   11140:	fec68623          	sb	a2,-20(a3)
   11144:	00178793          	addi	a5,a5,1
   11148:	02e54733          	div	a4,a0,a4
   1114c:	41f75693          	srai	a3,a4,0x1f
   11150:	00e6c733          	xor	a4,a3,a4
   11154:	40d70733          	sub	a4,a4,a3
   11158:	00a00693          	li	a3,10
   1115c:	02d76733          	rem	a4,a4,a3
   11160:	00a00593          	li	a1,10
   11164:	02010613          	addi	a2,sp,32
   11168:	00e60733          	add	a4,a2,a4
   1116c:	fe074603          	lbu	a2,-32(a4)
   11170:	02010713          	addi	a4,sp,32
   11174:	00f70733          	add	a4,a4,a5
   11178:	fec70623          	sb	a2,-20(a4)
   1117c:	00178793          	addi	a5,a5,1
   11180:	02b546b3          	div	a3,a0,a1
   11184:	41f6d713          	srai	a4,a3,0x1f
   11188:	00d74633          	xor	a2,a4,a3
   1118c:	40e60633          	sub	a2,a2,a4
   11190:	02b66633          	rem	a2,a2,a1
   11194:	02010713          	addi	a4,sp,32
   11198:	00c70633          	add	a2,a4,a2
   1119c:	fe064683          	lbu	a3,-32(a2)
   111a0:	00f70733          	add	a4,a4,a5
   111a4:	00178793          	addi	a5,a5,1
   111a8:	fed70623          	sb	a3,-20(a4)
   111ac:	dd9ff06f          	j	10f84 <_Z11EchoConsolel+0x198>

000111b0 <_Z11DrawConsolev>:
   111b0:	ff010113          	addi	sp,sp,-16
   111b4:	00812423          	sw	s0,8(sp)
   111b8:	00912223          	sw	s1,4(sp)
   111bc:	01212023          	sw	s2,0(sp)
   111c0:	00112623          	sw	ra,12(sp)
   111c4:	d0c18413          	addi	s0,gp,-756 # 1689c <_ZL11consoleText>
   111c8:	00c18913          	addi	s2,gp,12 # 16b9c <_ZL7cursorx>
   111cc:	00000493          	li	s1,0
   111d0:	00040693          	mv	a3,s0
   111d4:	00048593          	mv	a1,s1
   111d8:	00100713          	li	a4,1
   111dc:	02000613          	li	a2,32
   111e0:	00000513          	li	a0,0
   111e4:	02040413          	addi	s0,s0,32
   111e8:	39c000ef          	jal	ra,11584 <_Z8PrintDMAiiiPKcb>
   111ec:	00848493          	addi	s1,s1,8
   111f0:	ff2410e3          	bne	s0,s2,111d0 <_Z11DrawConsolev+0x20>
   111f4:	00c12083          	lw	ra,12(sp)
   111f8:	00812403          	lw	s0,8(sp)
   111fc:	00412483          	lw	s1,4(sp)
   11200:	00012903          	lw	s2,0(sp)
   11204:	01010113          	addi	sp,sp,16
   11208:	00008067          	ret

0001120c <_Z8InitFontv>:
   1120c:	00005797          	auipc	a5,0x5
   11210:	5d07a783          	lw	a5,1488(a5) # 167dc <_GLOBAL_OFFSET_TABLE_+0xc>
   11214:	0007a503          	lw	a0,0(a5)
   11218:	00002637          	lui	a2,0x2
   1121c:	ff010113          	addi	sp,sp,-16
   11220:	80060613          	addi	a2,a2,-2048 # 1800 <main-0xe874>
   11224:	00002597          	auipc	a1,0x2
   11228:	5f458593          	addi	a1,a1,1524 # 13818 <_exit+0xb8>
   1122c:	00112623          	sw	ra,12(sp)
   11230:	104020ef          	jal	ra,13334 <memcpy>
   11234:	00c12083          	lw	ra,12(sp)
   11238:	01010113          	addi	sp,sp,16
   1123c:	00008067          	ret

00011240 <_Z8PrintDMAiiPKcb>:
   11240:	00064703          	lbu	a4,0(a2)
   11244:	32070e63          	beqz	a4,11580 <_Z8PrintDMAiiPKcb+0x340>
   11248:	00005797          	auipc	a5,0x5
   1124c:	5947a783          	lw	a5,1428(a5) # 167dc <_GLOBAL_OFFSET_TABLE_+0xc>
   11250:	0007a303          	lw	t1,0(a5)
   11254:	00005797          	auipc	a5,0x5
   11258:	5807a783          	lw	a5,1408(a5) # 167d4 <_GLOBAL_OFFSET_TABLE_+0x4>
   1125c:	00001fb7          	lui	t6,0x1
   11260:	00d03833          	snez	a6,a3
   11264:	0007a783          	lw	a5,0(a5)
   11268:	ac4f8893          	addi	a7,t6,-1340 # ac4 <main-0xf5b0>
   1126c:	01981813          	slli	a6,a6,0x19
   11270:	00959593          	slli	a1,a1,0x9
   11274:	01186833          	or	a6,a6,a7
   11278:	00a585b3          	add	a1,a1,a0
   1127c:	00160893          	addi	a7,a2,1
   11280:	800f8f13          	addi	t5,t6,-2048
   11284:	a00f8e93          	addi	t4,t6,-1536
   11288:	c00f8e13          	addi	t3,t6,-1024
   1128c:	e00f8513          	addi	a0,t6,-512
   11290:	fe070713          	addi	a4,a4,-32
   11294:	00068463          	beqz	a3,1129c <_Z8PrintDMAiiPKcb+0x5c>
   11298:	2c070c63          	beqz	a4,11570 <_Z8PrintDMAiiPKcb+0x330>
   1129c:	2c074a63          	bltz	a4,11570 <_Z8PrintDMAiiPKcb+0x330>
   112a0:	ff010113          	addi	sp,sp,-16
   112a4:	00812623          	sw	s0,12(sp)
   112a8:	40575393          	srai	t2,a4,0x5
   112ac:	01f77713          	andi	a4,a4,31
   112b0:	00371613          	slli	a2,a4,0x3
   112b4:	00b39f93          	slli	t6,t2,0xb
   112b8:	00cf8fb3          	add	t6,t6,a2
   112bc:	01f30fb3          	add	t6,t1,t6
   112c0:	00af9413          	slli	s0,t6,0xa
   112c4:	016fdf93          	srli	t6,t6,0x16
   112c8:	4025d293          	srai	t0,a1,0x2
   112cc:	20146413          	ori	s0,s0,513
   112d0:	00b39713          	slli	a4,t2,0xb
   112d4:	00af9f93          	slli	t6,t6,0xa
   112d8:	0087a023          	sw	s0,0(a5)
   112dc:	10070713          	addi	a4,a4,256
   112e0:	241fef93          	ori	t6,t6,577
   112e4:	00a29393          	slli	t2,t0,0xa
   112e8:	0162d293          	srli	t0,t0,0x16
   112ec:	01f7a023          	sw	t6,0(a5)
   112f0:	2813e393          	ori	t2,t2,641
   112f4:	00e60fb3          	add	t6,a2,a4
   112f8:	00a29293          	slli	t0,t0,0xa
   112fc:	0077a023          	sw	t2,0(a5)
   11300:	01f30fb3          	add	t6,t1,t6
   11304:	2d12e293          	ori	t0,t0,721
   11308:	0057a023          	sw	t0,0(a5)
   1130c:	016fd393          	srli	t2,t6,0x16
   11310:	00af9293          	slli	t0,t6,0xa
   11314:	20058f93          	addi	t6,a1,512
   11318:	0107a023          	sw	a6,0(a5)
   1131c:	402fdf93          	srai	t6,t6,0x2
   11320:	2012e293          	ori	t0,t0,513
   11324:	00a39393          	slli	t2,t2,0xa
   11328:	0057a023          	sw	t0,0(a5)
   1132c:	00af9413          	slli	s0,t6,0xa
   11330:	2413e393          	ori	t2,t2,577
   11334:	016fd293          	srli	t0,t6,0x16
   11338:	10070f93          	addi	t6,a4,256
   1133c:	0077a023          	sw	t2,0(a5)
   11340:	00cf8fb3          	add	t6,t6,a2
   11344:	28146393          	ori	t2,s0,641
   11348:	00a29293          	slli	t0,t0,0xa
   1134c:	0077a023          	sw	t2,0(a5)
   11350:	01f30fb3          	add	t6,t1,t6
   11354:	2d12e293          	ori	t0,t0,721
   11358:	0057a023          	sw	t0,0(a5)
   1135c:	016fd393          	srli	t2,t6,0x16
   11360:	00af9293          	slli	t0,t6,0xa
   11364:	40058f93          	addi	t6,a1,1024
   11368:	0107a023          	sw	a6,0(a5)
   1136c:	402fdf93          	srai	t6,t6,0x2
   11370:	2012e293          	ori	t0,t0,513
   11374:	00a39393          	slli	t2,t2,0xa
   11378:	0057a023          	sw	t0,0(a5)
   1137c:	00af9413          	slli	s0,t6,0xa
   11380:	2413e393          	ori	t2,t2,577
   11384:	016fd293          	srli	t0,t6,0x16
   11388:	20070f93          	addi	t6,a4,512
   1138c:	0077a023          	sw	t2,0(a5)
   11390:	00cf8fb3          	add	t6,t6,a2
   11394:	28146393          	ori	t2,s0,641
   11398:	00a29293          	slli	t0,t0,0xa
   1139c:	0077a023          	sw	t2,0(a5)
   113a0:	01f30fb3          	add	t6,t1,t6
   113a4:	2d12e293          	ori	t0,t0,721
   113a8:	0057a023          	sw	t0,0(a5)
   113ac:	016fd393          	srli	t2,t6,0x16
   113b0:	00af9293          	slli	t0,t6,0xa
   113b4:	60058f93          	addi	t6,a1,1536
   113b8:	0107a023          	sw	a6,0(a5)
   113bc:	402fdf93          	srai	t6,t6,0x2
   113c0:	2012e293          	ori	t0,t0,513
   113c4:	00a39393          	slli	t2,t2,0xa
   113c8:	0057a023          	sw	t0,0(a5)
   113cc:	00af9413          	slli	s0,t6,0xa
   113d0:	2413e393          	ori	t2,t2,577
   113d4:	016fd293          	srli	t0,t6,0x16
   113d8:	30070f93          	addi	t6,a4,768
   113dc:	0077a023          	sw	t2,0(a5)
   113e0:	00cf8fb3          	add	t6,t6,a2
   113e4:	28146393          	ori	t2,s0,641
   113e8:	00a29293          	slli	t0,t0,0xa
   113ec:	0077a023          	sw	t2,0(a5)
   113f0:	01f30fb3          	add	t6,t1,t6
   113f4:	2d12e293          	ori	t0,t0,721
   113f8:	0057a023          	sw	t0,0(a5)
   113fc:	016fd393          	srli	t2,t6,0x16
   11400:	00af9293          	slli	t0,t6,0xa
   11404:	01e58fb3          	add	t6,a1,t5
   11408:	0107a023          	sw	a6,0(a5)
   1140c:	402fdf93          	srai	t6,t6,0x2
   11410:	2012e293          	ori	t0,t0,513
   11414:	00a39393          	slli	t2,t2,0xa
   11418:	0057a023          	sw	t0,0(a5)
   1141c:	00af9413          	slli	s0,t6,0xa
   11420:	2413e393          	ori	t2,t2,577
   11424:	016fd293          	srli	t0,t6,0x16
   11428:	40070f93          	addi	t6,a4,1024
   1142c:	0077a023          	sw	t2,0(a5)
   11430:	00cf8fb3          	add	t6,t6,a2
   11434:	28146393          	ori	t2,s0,641
   11438:	00a29293          	slli	t0,t0,0xa
   1143c:	0077a023          	sw	t2,0(a5)
   11440:	01f30fb3          	add	t6,t1,t6
   11444:	2d12e293          	ori	t0,t0,721
   11448:	0057a023          	sw	t0,0(a5)
   1144c:	016fd393          	srli	t2,t6,0x16
   11450:	00af9293          	slli	t0,t6,0xa
   11454:	01d58fb3          	add	t6,a1,t4
   11458:	0107a023          	sw	a6,0(a5)
   1145c:	402fdf93          	srai	t6,t6,0x2
   11460:	2012e293          	ori	t0,t0,513
   11464:	00a39393          	slli	t2,t2,0xa
   11468:	0057a023          	sw	t0,0(a5)
   1146c:	00af9413          	slli	s0,t6,0xa
   11470:	2413e393          	ori	t2,t2,577
   11474:	016fd293          	srli	t0,t6,0x16
   11478:	50070f93          	addi	t6,a4,1280
   1147c:	0077a023          	sw	t2,0(a5)
   11480:	00cf8fb3          	add	t6,t6,a2
   11484:	28146393          	ori	t2,s0,641
   11488:	00a29293          	slli	t0,t0,0xa
   1148c:	0077a023          	sw	t2,0(a5)
   11490:	01f30fb3          	add	t6,t1,t6
   11494:	2d12e293          	ori	t0,t0,721
   11498:	01c583b3          	add	t2,a1,t3
   1149c:	0057a023          	sw	t0,0(a5)
   114a0:	00af9413          	slli	s0,t6,0xa
   114a4:	4023d293          	srai	t0,t2,0x2
   114a8:	016fdf93          	srli	t6,t6,0x16
   114ac:	0107a023          	sw	a6,0(a5)
   114b0:	0162d393          	srli	t2,t0,0x16
   114b4:	20146413          	ori	s0,s0,513
   114b8:	00af9f93          	slli	t6,t6,0xa
   114bc:	60070713          	addi	a4,a4,1536
   114c0:	0087a023          	sw	s0,0(a5)
   114c4:	241fef93          	ori	t6,t6,577
   114c8:	00c70733          	add	a4,a4,a2
   114cc:	00a29293          	slli	t0,t0,0xa
   114d0:	00a39393          	slli	t2,t2,0xa
   114d4:	00e30733          	add	a4,t1,a4
   114d8:	01f7a023          	sw	t6,0(a5)
   114dc:	2d13e613          	ori	a2,t2,721
   114e0:	2812e293          	ori	t0,t0,641
   114e4:	0057a023          	sw	t0,0(a5)
   114e8:	00a71f93          	slli	t6,a4,0xa
   114ec:	00c7a023          	sw	a2,0(a5)
   114f0:	01675713          	srli	a4,a4,0x16
   114f4:	00a58633          	add	a2,a1,a0
   114f8:	0107a023          	sw	a6,0(a5)
   114fc:	40265613          	srai	a2,a2,0x2
   11500:	201fef93          	ori	t6,t6,513
   11504:	00a71713          	slli	a4,a4,0xa
   11508:	01f7a023          	sw	t6,0(a5)
   1150c:	24176713          	ori	a4,a4,577
   11510:	00a61f93          	slli	t6,a2,0xa
   11514:	01665613          	srli	a2,a2,0x16
   11518:	00e7a023          	sw	a4,0(a5)
   1151c:	00a61613          	slli	a2,a2,0xa
   11520:	281fe713          	ori	a4,t6,641
   11524:	00e7a023          	sw	a4,0(a5)
   11528:	2d166613          	ori	a2,a2,721
   1152c:	00c7a023          	sw	a2,0(a5)
   11530:	0107a023          	sw	a6,0(a5)
   11534:	0008c703          	lbu	a4,0(a7)
   11538:	00858593          	addi	a1,a1,8
   1153c:	00188893          	addi	a7,a7,1
   11540:	02070263          	beqz	a4,11564 <_Z8PrintDMAiiPKcb+0x324>
   11544:	fe070713          	addi	a4,a4,-32
   11548:	00068463          	beqz	a3,11550 <_Z8PrintDMAiiPKcb+0x310>
   1154c:	fe0704e3          	beqz	a4,11534 <_Z8PrintDMAiiPKcb+0x2f4>
   11550:	d4075ce3          	bgez	a4,112a8 <_Z8PrintDMAiiPKcb+0x68>
   11554:	0008c703          	lbu	a4,0(a7)
   11558:	00858593          	addi	a1,a1,8
   1155c:	00188893          	addi	a7,a7,1
   11560:	fe0712e3          	bnez	a4,11544 <_Z8PrintDMAiiPKcb+0x304>
   11564:	00c12403          	lw	s0,12(sp)
   11568:	01010113          	addi	sp,sp,16
   1156c:	00008067          	ret
   11570:	0008c703          	lbu	a4,0(a7)
   11574:	00858593          	addi	a1,a1,8
   11578:	00188893          	addi	a7,a7,1
   1157c:	d0071ae3          	bnez	a4,11290 <_Z8PrintDMAiiPKcb+0x50>
   11580:	00008067          	ret

00011584 <_Z8PrintDMAiiiPKcb>:
   11584:	38c05c63          	blez	a2,1191c <_Z8PrintDMAiiiPKcb+0x398>
   11588:	000012b7          	lui	t0,0x1
   1158c:	00005797          	auipc	a5,0x5
   11590:	2507a783          	lw	a5,592(a5) # 167dc <_GLOBAL_OFFSET_TABLE_+0xc>
   11594:	00e03833          	snez	a6,a4
   11598:	ac428e13          	addi	t3,t0,-1340 # ac4 <main-0xf5b0>
   1159c:	0007a883          	lw	a7,0(a5)
   115a0:	01981813          	slli	a6,a6,0x19
   115a4:	00959593          	slli	a1,a1,0x9
   115a8:	00005797          	auipc	a5,0x5
   115ac:	22c7a783          	lw	a5,556(a5) # 167d4 <_GLOBAL_OFFSET_TABLE_+0x4>
   115b0:	01c86833          	or	a6,a6,t3
   115b4:	00a585b3          	add	a1,a1,a0
   115b8:	0007a783          	lw	a5,0(a5)
   115bc:	00068313          	mv	t1,a3
   115c0:	00c68633          	add	a2,a3,a2
   115c4:	07f00f93          	li	t6,127
   115c8:	80028f13          	addi	t5,t0,-2048
   115cc:	a0028e93          	addi	t4,t0,-1536
   115d0:	c0028e13          	addi	t3,t0,-1024
   115d4:	e0028513          	addi	a0,t0,-512
   115d8:	0100006f          	j	115e8 <_Z8PrintDMAiiiPKcb+0x64>
   115dc:	00130313          	addi	t1,t1,1 # 104f9 <frame_dummy+0x15>
   115e0:	00858593          	addi	a1,a1,8
   115e4:	32c30c63          	beq	t1,a2,1191c <_Z8PrintDMAiiiPKcb+0x398>
   115e8:	00034683          	lbu	a3,0(t1)
   115ec:	32068863          	beqz	a3,1191c <_Z8PrintDMAiiiPKcb+0x398>
   115f0:	fe068693          	addi	a3,a3,-32
   115f4:	00070463          	beqz	a4,115fc <_Z8PrintDMAiiiPKcb+0x78>
   115f8:	fe0682e3          	beqz	a3,115dc <_Z8PrintDMAiiiPKcb+0x58>
   115fc:	fe010113          	addi	sp,sp,-32
   11600:	00812e23          	sw	s0,28(sp)
   11604:	00912c23          	sw	s1,24(sp)
   11608:	01212a23          	sw	s2,20(sp)
   1160c:	01312823          	sw	s3,16(sp)
   11610:	01412623          	sw	s4,12(sp)
   11614:	01512423          	sw	s5,8(sp)
   11618:	01612223          	sw	s6,4(sp)
   1161c:	2cdfee63          	bltu	t6,a3,118f8 <_Z8PrintDMAiiiPKcb+0x374>
   11620:	4056d393          	srai	t2,a3,0x5
   11624:	01f6f693          	andi	a3,a3,31
   11628:	00b39a13          	slli	s4,t2,0xb
   1162c:	00369293          	slli	t0,a3,0x3
   11630:	005a06b3          	add	a3,s4,t0
   11634:	200a0993          	addi	s3,s4,512
   11638:	300a0913          	addi	s2,s4,768
   1163c:	400a0493          	addi	s1,s4,1024
   11640:	500a0413          	addi	s0,s4,1280
   11644:	600a0393          	addi	t2,s4,1536
   11648:	700a0a93          	addi	s5,s4,1792
   1164c:	100a0a13          	addi	s4,s4,256
   11650:	01428a33          	add	s4,t0,s4
   11654:	005989b3          	add	s3,s3,t0
   11658:	00590933          	add	s2,s2,t0
   1165c:	005484b3          	add	s1,s1,t0
   11660:	00540433          	add	s0,s0,t0
   11664:	005383b3          	add	t2,t2,t0
   11668:	00d886b3          	add	a3,a7,a3
   1166c:	005a82b3          	add	t0,s5,t0
   11670:	00a69b13          	slli	s6,a3,0xa
   11674:	0166da93          	srli	s5,a3,0x16
   11678:	201b6b13          	ori	s6,s6,513
   1167c:	4025d693          	srai	a3,a1,0x2
   11680:	00aa9a93          	slli	s5,s5,0xa
   11684:	0167a023          	sw	s6,0(a5)
   11688:	241aea93          	ori	s5,s5,577
   1168c:	00a69b13          	slli	s6,a3,0xa
   11690:	0166d693          	srli	a3,a3,0x16
   11694:	0157a023          	sw	s5,0(a5)
   11698:	00a69693          	slli	a3,a3,0xa
   1169c:	281b6a93          	ori	s5,s6,641
   116a0:	0157a023          	sw	s5,0(a5)
   116a4:	01488a33          	add	s4,a7,s4
   116a8:	2d16e693          	ori	a3,a3,721
   116ac:	00d7a023          	sw	a3,0(a5)
   116b0:	00aa1a93          	slli	s5,s4,0xa
   116b4:	20058693          	addi	a3,a1,512
   116b8:	016a5a13          	srli	s4,s4,0x16
   116bc:	0107a023          	sw	a6,0(a5)
   116c0:	4026d693          	srai	a3,a3,0x2
   116c4:	201aea93          	ori	s5,s5,513
   116c8:	00aa1a13          	slli	s4,s4,0xa
   116cc:	0157a023          	sw	s5,0(a5)
   116d0:	241a6a13          	ori	s4,s4,577
   116d4:	00a69a93          	slli	s5,a3,0xa
   116d8:	0166d693          	srli	a3,a3,0x16
   116dc:	0147a023          	sw	s4,0(a5)
   116e0:	00a69693          	slli	a3,a3,0xa
   116e4:	281aea13          	ori	s4,s5,641
   116e8:	0147a023          	sw	s4,0(a5)
   116ec:	013889b3          	add	s3,a7,s3
   116f0:	2d16e693          	ori	a3,a3,721
   116f4:	00d7a023          	sw	a3,0(a5)
   116f8:	00a99a13          	slli	s4,s3,0xa
   116fc:	40058693          	addi	a3,a1,1024
   11700:	0169d993          	srli	s3,s3,0x16
   11704:	0107a023          	sw	a6,0(a5)
   11708:	4026d693          	srai	a3,a3,0x2
   1170c:	201a6a13          	ori	s4,s4,513
   11710:	00a99993          	slli	s3,s3,0xa
   11714:	0147a023          	sw	s4,0(a5)
   11718:	2419e993          	ori	s3,s3,577
   1171c:	00a69a13          	slli	s4,a3,0xa
   11720:	0166d693          	srli	a3,a3,0x16
   11724:	0137a023          	sw	s3,0(a5)
   11728:	00a69693          	slli	a3,a3,0xa
   1172c:	281a6993          	ori	s3,s4,641
   11730:	0137a023          	sw	s3,0(a5)
   11734:	01288933          	add	s2,a7,s2
   11738:	2d16e693          	ori	a3,a3,721
   1173c:	00d7a023          	sw	a3,0(a5)
   11740:	00a91993          	slli	s3,s2,0xa
   11744:	60058693          	addi	a3,a1,1536
   11748:	01695913          	srli	s2,s2,0x16
   1174c:	0107a023          	sw	a6,0(a5)
   11750:	4026d693          	srai	a3,a3,0x2
   11754:	2019e993          	ori	s3,s3,513
   11758:	00a91913          	slli	s2,s2,0xa
   1175c:	0137a023          	sw	s3,0(a5)
   11760:	24196913          	ori	s2,s2,577
   11764:	00a69993          	slli	s3,a3,0xa
   11768:	0166d693          	srli	a3,a3,0x16
   1176c:	0127a023          	sw	s2,0(a5)
   11770:	00a69693          	slli	a3,a3,0xa
   11774:	2819e913          	ori	s2,s3,641
   11778:	0127a023          	sw	s2,0(a5)
   1177c:	009884b3          	add	s1,a7,s1
   11780:	2d16e693          	ori	a3,a3,721
   11784:	00d7a023          	sw	a3,0(a5)
   11788:	00a49913          	slli	s2,s1,0xa
   1178c:	01e586b3          	add	a3,a1,t5
   11790:	0164d493          	srli	s1,s1,0x16
   11794:	0107a023          	sw	a6,0(a5)
   11798:	4026d693          	srai	a3,a3,0x2
   1179c:	20196913          	ori	s2,s2,513
   117a0:	00a49493          	slli	s1,s1,0xa
   117a4:	0127a023          	sw	s2,0(a5)
   117a8:	2414e493          	ori	s1,s1,577
   117ac:	00a69913          	slli	s2,a3,0xa
   117b0:	0166d693          	srli	a3,a3,0x16
   117b4:	0097a023          	sw	s1,0(a5)
   117b8:	00a69693          	slli	a3,a3,0xa
   117bc:	28196493          	ori	s1,s2,641
   117c0:	0097a023          	sw	s1,0(a5)
   117c4:	00888433          	add	s0,a7,s0
   117c8:	2d16e693          	ori	a3,a3,721
   117cc:	00d7a023          	sw	a3,0(a5)
   117d0:	00a41493          	slli	s1,s0,0xa
   117d4:	01d586b3          	add	a3,a1,t4
   117d8:	01645413          	srli	s0,s0,0x16
   117dc:	0107a023          	sw	a6,0(a5)
   117e0:	4026d693          	srai	a3,a3,0x2
   117e4:	2014e493          	ori	s1,s1,513
   117e8:	00a41413          	slli	s0,s0,0xa
   117ec:	0097a023          	sw	s1,0(a5)
   117f0:	24146413          	ori	s0,s0,577
   117f4:	00a69493          	slli	s1,a3,0xa
   117f8:	0166d693          	srli	a3,a3,0x16
   117fc:	0087a023          	sw	s0,0(a5)
   11800:	00a69693          	slli	a3,a3,0xa
   11804:	2814e413          	ori	s0,s1,641
   11808:	0087a023          	sw	s0,0(a5)
   1180c:	007883b3          	add	t2,a7,t2
   11810:	01c58433          	add	s0,a1,t3
   11814:	2d16e693          	ori	a3,a3,721
   11818:	00d7a023          	sw	a3,0(a5)
   1181c:	00a39493          	slli	s1,t2,0xa
   11820:	40245693          	srai	a3,s0,0x2
   11824:	0163d393          	srli	t2,t2,0x16
   11828:	0107a023          	sw	a6,0(a5)
   1182c:	0166d413          	srli	s0,a3,0x16
   11830:	2014e493          	ori	s1,s1,513
   11834:	00a39393          	slli	t2,t2,0xa
   11838:	0097a023          	sw	s1,0(a5)
   1183c:	2413e393          	ori	t2,t2,577
   11840:	00a41413          	slli	s0,s0,0xa
   11844:	00a69693          	slli	a3,a3,0xa
   11848:	005882b3          	add	t0,a7,t0
   1184c:	0077a023          	sw	t2,0(a5)
   11850:	2816e693          	ori	a3,a3,641
   11854:	2d146393          	ori	t2,s0,721
   11858:	00d7a023          	sw	a3,0(a5)
   1185c:	00a29413          	slli	s0,t0,0xa
   11860:	0077a023          	sw	t2,0(a5)
   11864:	00a586b3          	add	a3,a1,a0
   11868:	0162d293          	srli	t0,t0,0x16
   1186c:	0107a023          	sw	a6,0(a5)
   11870:	4026d693          	srai	a3,a3,0x2
   11874:	20146393          	ori	t2,s0,513
   11878:	00a29293          	slli	t0,t0,0xa
   1187c:	0077a023          	sw	t2,0(a5)
   11880:	2412e293          	ori	t0,t0,577
   11884:	00a69393          	slli	t2,a3,0xa
   11888:	0166d693          	srli	a3,a3,0x16
   1188c:	0057a023          	sw	t0,0(a5)
   11890:	00a69693          	slli	a3,a3,0xa
   11894:	2813e293          	ori	t0,t2,641
   11898:	0057a023          	sw	t0,0(a5)
   1189c:	2d16e693          	ori	a3,a3,721
   118a0:	00d7a023          	sw	a3,0(a5)
   118a4:	0107a023          	sw	a6,0(a5)
   118a8:	00130313          	addi	t1,t1,1
   118ac:	00858593          	addi	a1,a1,8
   118b0:	02c30263          	beq	t1,a2,118d4 <_Z8PrintDMAiiiPKcb+0x350>
   118b4:	00034683          	lbu	a3,0(t1)
   118b8:	00068e63          	beqz	a3,118d4 <_Z8PrintDMAiiiPKcb+0x350>
   118bc:	fe068693          	addi	a3,a3,-32
   118c0:	d4070ee3          	beqz	a4,1161c <_Z8PrintDMAiiiPKcb+0x98>
   118c4:	d4069ce3          	bnez	a3,1161c <_Z8PrintDMAiiiPKcb+0x98>
   118c8:	00130313          	addi	t1,t1,1
   118cc:	00858593          	addi	a1,a1,8
   118d0:	fec312e3          	bne	t1,a2,118b4 <_Z8PrintDMAiiiPKcb+0x330>
   118d4:	01c12403          	lw	s0,28(sp)
   118d8:	01812483          	lw	s1,24(sp)
   118dc:	01412903          	lw	s2,20(sp)
   118e0:	01012983          	lw	s3,16(sp)
   118e4:	00c12a03          	lw	s4,12(sp)
   118e8:	00812a83          	lw	s5,8(sp)
   118ec:	00412b03          	lw	s6,4(sp)
   118f0:	02010113          	addi	sp,sp,32
   118f4:	00008067          	ret
   118f8:	00088693          	mv	a3,a7
   118fc:	70000293          	li	t0,1792
   11900:	60000393          	li	t2,1536
   11904:	50000413          	li	s0,1280
   11908:	40000493          	li	s1,1024
   1190c:	30000913          	li	s2,768
   11910:	20000993          	li	s3,512
   11914:	10000a13          	li	s4,256
   11918:	d59ff06f          	j	11670 <_Z8PrintDMAiiiPKcb+0xec>
   1191c:	00008067          	ret

00011920 <_Z11PrintDMAHexiim>:
   11920:	00002e17          	auipc	t3,0x2
   11924:	ee4e0e13          	addi	t3,t3,-284 # 13804 <_exit+0xa4>
   11928:	00ce2f03          	lw	t5,12(t3)
   1192c:	008e2f83          	lw	t6,8(t3)
   11930:	000e2383          	lw	t2,0(t3)
   11934:	004e2283          	lw	t0,4(t3)
   11938:	fd010113          	addi	sp,sp,-48
   1193c:	01865313          	srli	t1,a2,0x18
   11940:	01465893          	srli	a7,a2,0x14
   11944:	01065813          	srli	a6,a2,0x10
   11948:	00c65693          	srli	a3,a2,0xc
   1194c:	00865713          	srli	a4,a2,0x8
   11950:	00465793          	srli	a5,a2,0x4
   11954:	01e12c23          	sw	t5,24(sp)
   11958:	01c65e93          	srli	t4,a2,0x1c
   1195c:	02010f13          	addi	t5,sp,32
   11960:	00f37313          	andi	t1,t1,15
   11964:	00f8f893          	andi	a7,a7,15
   11968:	00f87813          	andi	a6,a6,15
   1196c:	00f6f693          	andi	a3,a3,15
   11970:	00f77713          	andi	a4,a4,15
   11974:	00f7f793          	andi	a5,a5,15
   11978:	00f67613          	andi	a2,a2,15
   1197c:	02112623          	sw	ra,44(sp)
   11980:	01f12a23          	sw	t6,20(sp)
   11984:	00712623          	sw	t2,12(sp)
   11988:	00512823          	sw	t0,16(sp)
   1198c:	006f0333          	add	t1,t5,t1
   11990:	011f08b3          	add	a7,t5,a7
   11994:	010f0833          	add	a6,t5,a6
   11998:	00df06b3          	add	a3,t5,a3
   1199c:	00ef0733          	add	a4,t5,a4
   119a0:	00ff07b3          	add	a5,t5,a5
   119a4:	00cf0633          	add	a2,t5,a2
   119a8:	01df0eb3          	add	t4,t5,t4
   119ac:	010e4f83          	lbu	t6,16(t3)
   119b0:	fececf03          	lbu	t5,-20(t4)
   119b4:	fec8ce03          	lbu	t3,-20(a7)
   119b8:	fec34e83          	lbu	t4,-20(t1)
   119bc:	fec6c883          	lbu	a7,-20(a3)
   119c0:	fec84303          	lbu	t1,-20(a6)
   119c4:	fec74803          	lbu	a6,-20(a4)
   119c8:	fec7c703          	lbu	a4,-20(a5)
   119cc:	fec64783          	lbu	a5,-20(a2)
   119d0:	02e00693          	li	a3,46
   119d4:	00d11423          	sh	a3,8(sp)
   119d8:	00010613          	mv	a2,sp
   119dc:	00100693          	li	a3,1
   119e0:	01f10e23          	sb	t6,28(sp)
   119e4:	01e10023          	sb	t5,0(sp)
   119e8:	01d100a3          	sb	t4,1(sp)
   119ec:	01c10123          	sb	t3,2(sp)
   119f0:	006101a3          	sb	t1,3(sp)
   119f4:	01110223          	sb	a7,4(sp)
   119f8:	010102a3          	sb	a6,5(sp)
   119fc:	00e10323          	sb	a4,6(sp)
   11a00:	00f103a3          	sb	a5,7(sp)
   11a04:	00010423          	sb	zero,8(sp)
   11a08:	839ff0ef          	jal	ra,11240 <_Z8PrintDMAiiPKcb>
   11a0c:	02c12083          	lw	ra,44(sp)
   11a10:	03010113          	addi	sp,sp,48
   11a14:	00008067          	ret

00011a18 <_Z15PrintDMADecimaliiib>:
   11a18:	00002797          	auipc	a5,0x2
   11a1c:	dcc78793          	addi	a5,a5,-564 # 137e4 <_exit+0x84>
   11a20:	00002717          	auipc	a4,0x2
   11a24:	dd870713          	addi	a4,a4,-552 # 137f8 <_exit+0x98>
   11a28:	0047a883          	lw	a7,4(a5)
   11a2c:	00072f83          	lw	t6,0(a4)
   11a30:	00472f03          	lw	t5,4(a4)
   11a34:	00875e83          	lhu	t4,8(a4)
   11a38:	00a74e03          	lbu	t3,10(a4)
   11a3c:	0007a303          	lw	t1,0(a5)
   11a40:	0087a803          	lw	a6,8(a5)
   11a44:	00c7a703          	lw	a4,12(a5)
   11a48:	0107a783          	lw	a5,16(a5)
   11a4c:	fd010113          	addi	sp,sp,-48
   11a50:	01112823          	sw	a7,16(sp)
   11a54:	00f12e23          	sw	a5,28(sp)
   11a58:	02112623          	sw	ra,44(sp)
   11a5c:	02812423          	sw	s0,40(sp)
   11a60:	01f12023          	sw	t6,0(sp)
   11a64:	01e12223          	sw	t5,4(sp)
   11a68:	01d11423          	sh	t4,8(sp)
   11a6c:	01c10523          	sb	t3,10(sp)
   11a70:	00612623          	sw	t1,12(sp)
   11a74:	01012a23          	sw	a6,20(sp)
   11a78:	00e12c23          	sw	a4,24(sp)
   11a7c:	02d00893          	li	a7,45
   11a80:	00100793          	li	a5,1
   11a84:	00064663          	bltz	a2,11a90 <_Z15PrintDMADecimaliiib+0x78>
   11a88:	02000893          	li	a7,32
   11a8c:	00000793          	li	a5,0
   11a90:	3b9ad737          	lui	a4,0x3b9ad
   11a94:	a0070813          	addi	a6,a4,-1536 # 3b9aca00 <__BSS_END__+0x3b995e58>
   11a98:	03064833          	div	a6,a2,a6
   11a9c:	9ff70713          	addi	a4,a4,-1537
   11aa0:	01110623          	sb	a7,12(sp)
   11aa4:	773598b7          	lui	a7,0x77359
   11aa8:	00e60733          	add	a4,a2,a4
   11aac:	3fe88893          	addi	a7,a7,1022 # 773593fe <__BSS_END__+0x77342856>
   11ab0:	41f85313          	srai	t1,a6,0x1f
   11ab4:	01034833          	xor	a6,t1,a6
   11ab8:	40680833          	sub	a6,a6,t1
   11abc:	14e8e663          	bltu	a7,a4,11c08 <_Z15PrintDMADecimaliiib+0x1f0>
   11ac0:	05f5e737          	lui	a4,0x5f5e
   11ac4:	10070713          	addi	a4,a4,256 # 5f5e100 <__BSS_END__+0x5f47558>
   11ac8:	02e64733          	div	a4,a2,a4
   11acc:	00a00893          	li	a7,10
   11ad0:	41f75313          	srai	t1,a4,0x1f
   11ad4:	00e34833          	xor	a6,t1,a4
   11ad8:	40680833          	sub	a6,a6,t1
   11adc:	03186833          	rem	a6,a6,a7
   11ae0:	16081263          	bnez	a6,11c44 <_Z15PrintDMADecimaliiib+0x22c>
   11ae4:	00989737          	lui	a4,0x989
   11ae8:	68070713          	addi	a4,a4,1664 # 989680 <__BSS_END__+0x972ad8>
   11aec:	02e64733          	div	a4,a2,a4
   11af0:	41f75313          	srai	t1,a4,0x1f
   11af4:	00e34833          	xor	a6,t1,a4
   11af8:	40680833          	sub	a6,a6,t1
   11afc:	03186833          	rem	a6,a6,a7
   11b00:	18081063          	bnez	a6,11c80 <_Z15PrintDMADecimaliiib+0x268>
   11b04:	000f4737          	lui	a4,0xf4
   11b08:	24070713          	addi	a4,a4,576 # f4240 <__BSS_END__+0xdd698>
   11b0c:	02e64733          	div	a4,a2,a4
   11b10:	41f75313          	srai	t1,a4,0x1f
   11b14:	00e34833          	xor	a6,t1,a4
   11b18:	40680833          	sub	a6,a6,t1
   11b1c:	03186833          	rem	a6,a6,a7
   11b20:	18081e63          	bnez	a6,11cbc <_Z15PrintDMADecimaliiib+0x2a4>
   11b24:	00018737          	lui	a4,0x18
   11b28:	6a070713          	addi	a4,a4,1696 # 186a0 <__BSS_END__+0x1af8>
   11b2c:	02e64733          	div	a4,a2,a4
   11b30:	41f75313          	srai	t1,a4,0x1f
   11b34:	00e34833          	xor	a6,t1,a4
   11b38:	40680833          	sub	a6,a6,t1
   11b3c:	03186833          	rem	a6,a6,a7
   11b40:	1a081c63          	bnez	a6,11cf8 <_Z15PrintDMADecimaliiib+0x2e0>
   11b44:	00002737          	lui	a4,0x2
   11b48:	71070713          	addi	a4,a4,1808 # 2710 <main-0xd964>
   11b4c:	02e64733          	div	a4,a2,a4
   11b50:	41f75813          	srai	a6,a4,0x1f
   11b54:	00e84733          	xor	a4,a6,a4
   11b58:	41070733          	sub	a4,a4,a6
   11b5c:	03176733          	rem	a4,a4,a7
   11b60:	1c071a63          	bnez	a4,11d34 <_Z15PrintDMADecimaliiib+0x31c>
   11b64:	3e800713          	li	a4,1000
   11b68:	02e64733          	div	a4,a2,a4
   11b6c:	41f75313          	srai	t1,a4,0x1f
   11b70:	00e34833          	xor	a6,t1,a4
   11b74:	40680833          	sub	a6,a6,t1
   11b78:	03186833          	rem	a6,a6,a7
   11b7c:	1e081863          	bnez	a6,11d6c <_Z15PrintDMADecimaliiib+0x354>
   11b80:	06400713          	li	a4,100
   11b84:	02e64733          	div	a4,a2,a4
   11b88:	41f75813          	srai	a6,a4,0x1f
   11b8c:	00e84733          	xor	a4,a6,a4
   11b90:	41070733          	sub	a4,a4,a6
   11b94:	03176733          	rem	a4,a4,a7
   11b98:	20071663          	bnez	a4,11da4 <_Z15PrintDMADecimaliiib+0x38c>
   11b9c:	03164733          	div	a4,a2,a7
   11ba0:	41f75813          	srai	a6,a4,0x1f
   11ba4:	00e84733          	xor	a4,a6,a4
   11ba8:	41070733          	sub	a4,a4,a6
   11bac:	031768b3          	rem	a7,a4,a7
   11bb0:	22089463          	bnez	a7,11dd8 <_Z15PrintDMADecimaliiib+0x3c0>
   11bb4:	41f65813          	srai	a6,a2,0x1f
   11bb8:	00c84733          	xor	a4,a6,a2
   11bbc:	41070733          	sub	a4,a4,a6
   11bc0:	00a00613          	li	a2,10
   11bc4:	02c76733          	rem	a4,a4,a2
   11bc8:	02010893          	addi	a7,sp,32
   11bcc:	02010613          	addi	a2,sp,32
   11bd0:	00178413          	addi	s0,a5,1
   11bd4:	00f607b3          	add	a5,a2,a5
   11bd8:	00860833          	add	a6,a2,s0
   11bdc:	00c10613          	addi	a2,sp,12
   11be0:	00e88733          	add	a4,a7,a4
   11be4:	fe074703          	lbu	a4,-32(a4)
   11be8:	fee78623          	sb	a4,-20(a5)
   11bec:	fe080623          	sb	zero,-20(a6)
   11bf0:	e50ff0ef          	jal	ra,11240 <_Z8PrintDMAiiPKcb>
   11bf4:	02c12083          	lw	ra,44(sp)
   11bf8:	00040513          	mv	a0,s0
   11bfc:	02812403          	lw	s0,40(sp)
   11c00:	03010113          	addi	sp,sp,48
   11c04:	00008067          	ret
   11c08:	05f5e737          	lui	a4,0x5f5e
   11c0c:	10070713          	addi	a4,a4,256 # 5f5e100 <__BSS_END__+0x5f47558>
   11c10:	02e64733          	div	a4,a2,a4
   11c14:	02010893          	addi	a7,sp,32
   11c18:	01088833          	add	a6,a7,a6
   11c1c:	fe084883          	lbu	a7,-32(a6)
   11c20:	02010813          	addi	a6,sp,32
   11c24:	00f80833          	add	a6,a6,a5
   11c28:	ff180623          	sb	a7,-20(a6)
   11c2c:	00178793          	addi	a5,a5,1
   11c30:	41f75893          	srai	a7,a4,0x1f
   11c34:	00e8c833          	xor	a6,a7,a4
   11c38:	41180833          	sub	a6,a6,a7
   11c3c:	00a00713          	li	a4,10
   11c40:	02e86833          	rem	a6,a6,a4
   11c44:	00989737          	lui	a4,0x989
   11c48:	68070713          	addi	a4,a4,1664 # 989680 <__BSS_END__+0x972ad8>
   11c4c:	02010893          	addi	a7,sp,32
   11c50:	01088833          	add	a6,a7,a6
   11c54:	fe084883          	lbu	a7,-32(a6)
   11c58:	02010813          	addi	a6,sp,32
   11c5c:	00f80833          	add	a6,a6,a5
   11c60:	ff180623          	sb	a7,-20(a6)
   11c64:	00178793          	addi	a5,a5,1
   11c68:	02e64733          	div	a4,a2,a4
   11c6c:	41f75893          	srai	a7,a4,0x1f
   11c70:	00e8c833          	xor	a6,a7,a4
   11c74:	41180833          	sub	a6,a6,a7
   11c78:	00a00713          	li	a4,10
   11c7c:	02e86833          	rem	a6,a6,a4
   11c80:	000f4737          	lui	a4,0xf4
   11c84:	24070713          	addi	a4,a4,576 # f4240 <__BSS_END__+0xdd698>
   11c88:	02010893          	addi	a7,sp,32
   11c8c:	01088833          	add	a6,a7,a6
   11c90:	fe084883          	lbu	a7,-32(a6)
   11c94:	02010813          	addi	a6,sp,32
   11c98:	00f80833          	add	a6,a6,a5
   11c9c:	ff180623          	sb	a7,-20(a6)
   11ca0:	00178793          	addi	a5,a5,1
   11ca4:	02e64733          	div	a4,a2,a4
   11ca8:	41f75893          	srai	a7,a4,0x1f
   11cac:	00e8c833          	xor	a6,a7,a4
   11cb0:	41180833          	sub	a6,a6,a7
   11cb4:	00a00713          	li	a4,10
   11cb8:	02e86833          	rem	a6,a6,a4
   11cbc:	00018737          	lui	a4,0x18
   11cc0:	6a070713          	addi	a4,a4,1696 # 186a0 <__BSS_END__+0x1af8>
   11cc4:	02010893          	addi	a7,sp,32
   11cc8:	01088833          	add	a6,a7,a6
   11ccc:	fe084883          	lbu	a7,-32(a6)
   11cd0:	02010813          	addi	a6,sp,32
   11cd4:	00f80833          	add	a6,a6,a5
   11cd8:	ff180623          	sb	a7,-20(a6)
   11cdc:	00178793          	addi	a5,a5,1
   11ce0:	02e64733          	div	a4,a2,a4
   11ce4:	41f75893          	srai	a7,a4,0x1f
   11ce8:	00e8c833          	xor	a6,a7,a4
   11cec:	41180833          	sub	a6,a6,a7
   11cf0:	00a00713          	li	a4,10
   11cf4:	02e86833          	rem	a6,a6,a4
   11cf8:	00002737          	lui	a4,0x2
   11cfc:	71070713          	addi	a4,a4,1808 # 2710 <main-0xd964>
   11d00:	02010893          	addi	a7,sp,32
   11d04:	01088833          	add	a6,a7,a6
   11d08:	fe084883          	lbu	a7,-32(a6)
   11d0c:	02010813          	addi	a6,sp,32
   11d10:	00f80833          	add	a6,a6,a5
   11d14:	ff180623          	sb	a7,-20(a6)
   11d18:	00178793          	addi	a5,a5,1
   11d1c:	02e64733          	div	a4,a2,a4
   11d20:	41f75813          	srai	a6,a4,0x1f
   11d24:	00e84733          	xor	a4,a6,a4
   11d28:	41070733          	sub	a4,a4,a6
   11d2c:	00a00813          	li	a6,10
   11d30:	03076733          	rem	a4,a4,a6
   11d34:	3e800813          	li	a6,1000
   11d38:	02010893          	addi	a7,sp,32
   11d3c:	00e88733          	add	a4,a7,a4
   11d40:	fe074883          	lbu	a7,-32(a4)
   11d44:	02010713          	addi	a4,sp,32
   11d48:	00f70733          	add	a4,a4,a5
   11d4c:	ff170623          	sb	a7,-20(a4)
   11d50:	00178793          	addi	a5,a5,1
   11d54:	03064833          	div	a6,a2,a6
   11d58:	41f85713          	srai	a4,a6,0x1f
   11d5c:	01074833          	xor	a6,a4,a6
   11d60:	40e80833          	sub	a6,a6,a4
   11d64:	00a00713          	li	a4,10
   11d68:	02e86833          	rem	a6,a6,a4
   11d6c:	06400713          	li	a4,100
   11d70:	02010893          	addi	a7,sp,32
   11d74:	01088833          	add	a6,a7,a6
   11d78:	fe084883          	lbu	a7,-32(a6)
   11d7c:	02010813          	addi	a6,sp,32
   11d80:	00f80833          	add	a6,a6,a5
   11d84:	ff180623          	sb	a7,-20(a6)
   11d88:	00178793          	addi	a5,a5,1
   11d8c:	02e64733          	div	a4,a2,a4
   11d90:	41f75813          	srai	a6,a4,0x1f
   11d94:	00e84733          	xor	a4,a6,a4
   11d98:	41070733          	sub	a4,a4,a6
   11d9c:	00a00813          	li	a6,10
   11da0:	03076733          	rem	a4,a4,a6
   11da4:	00a00313          	li	t1,10
   11da8:	02010893          	addi	a7,sp,32
   11dac:	00e88733          	add	a4,a7,a4
   11db0:	fe074883          	lbu	a7,-32(a4)
   11db4:	02010713          	addi	a4,sp,32
   11db8:	00f70733          	add	a4,a4,a5
   11dbc:	ff170623          	sb	a7,-20(a4)
   11dc0:	00178793          	addi	a5,a5,1
   11dc4:	02664833          	div	a6,a2,t1
   11dc8:	41f85713          	srai	a4,a6,0x1f
   11dcc:	010748b3          	xor	a7,a4,a6
   11dd0:	40e888b3          	sub	a7,a7,a4
   11dd4:	0268e8b3          	rem	a7,a7,t1
   11dd8:	02010713          	addi	a4,sp,32
   11ddc:	011708b3          	add	a7,a4,a7
   11de0:	fe08c803          	lbu	a6,-32(a7)
   11de4:	00f70733          	add	a4,a4,a5
   11de8:	00178793          	addi	a5,a5,1
   11dec:	ff070623          	sb	a6,-20(a4)
   11df0:	dc5ff06f          	j	11bb4 <_Z15PrintDMADecimaliiib+0x19c>

00011df4 <cosf>:
   11df4:	e00507d3          	fmv.x.w	a5,fa0
   11df8:	3f4916b7          	lui	a3,0x3f491
   11dfc:	fd868693          	addi	a3,a3,-40 # 3f490fd8 <__BSS_END__+0x3f47a430>
   11e00:	00179713          	slli	a4,a5,0x1
   11e04:	00175713          	srli	a4,a4,0x1
   11e08:	04e6dc63          	bge	a3,a4,11e60 <cosf+0x6c>
   11e0c:	7f8006b7          	lui	a3,0x7f800
   11e10:	00d74663          	blt	a4,a3,11e1c <cosf+0x28>
   11e14:	08a57553          	fsub.s	fa0,fa0,fa0
   11e18:	00008067          	ret
   11e1c:	fe010113          	addi	sp,sp,-32
   11e20:	00810513          	addi	a0,sp,8
   11e24:	00112e23          	sw	ra,28(sp)
   11e28:	110000ef          	jal	ra,11f38 <__ieee754_rem_pio2f>
   11e2c:	00357513          	andi	a0,a0,3
   11e30:	00100793          	li	a5,1
   11e34:	02f50a63          	beq	a0,a5,11e68 <cosf+0x74>
   11e38:	00200793          	li	a5,2
   11e3c:	00c12587          	flw	fa1,12(sp)
   11e40:	00812507          	flw	fa0,8(sp)
   11e44:	04f50263          	beq	a0,a5,11e88 <cosf+0x94>
   11e48:	02050c63          	beqz	a0,11e80 <cosf+0x8c>
   11e4c:	00100513          	li	a0,1
   11e50:	571000ef          	jal	ra,12bc0 <__kernel_sinf>
   11e54:	01c12083          	lw	ra,28(sp)
   11e58:	02010113          	addi	sp,sp,32
   11e5c:	00008067          	ret
   11e60:	f00005d3          	fmv.w.x	fa1,zero
   11e64:	3a40006f          	j	12208 <__kernel_cosf>
   11e68:	00c12587          	flw	fa1,12(sp)
   11e6c:	00812507          	flw	fa0,8(sp)
   11e70:	00100513          	li	a0,1
   11e74:	54d000ef          	jal	ra,12bc0 <__kernel_sinf>
   11e78:	20a51553          	fneg.s	fa0,fa0
   11e7c:	fd9ff06f          	j	11e54 <cosf+0x60>
   11e80:	388000ef          	jal	ra,12208 <__kernel_cosf>
   11e84:	fd1ff06f          	j	11e54 <cosf+0x60>
   11e88:	380000ef          	jal	ra,12208 <__kernel_cosf>
   11e8c:	20a51553          	fneg.s	fa0,fa0
   11e90:	fc5ff06f          	j	11e54 <cosf+0x60>

00011e94 <sinf>:
   11e94:	e00507d3          	fmv.x.w	a5,fa0
   11e98:	3f4916b7          	lui	a3,0x3f491
   11e9c:	fd868693          	addi	a3,a3,-40 # 3f490fd8 <__BSS_END__+0x3f47a430>
   11ea0:	00179713          	slli	a4,a5,0x1
   11ea4:	00175713          	srli	a4,a4,0x1
   11ea8:	04e6dc63          	bge	a3,a4,11f00 <sinf+0x6c>
   11eac:	7f8006b7          	lui	a3,0x7f800
   11eb0:	00d74663          	blt	a4,a3,11ebc <sinf+0x28>
   11eb4:	08a57553          	fsub.s	fa0,fa0,fa0
   11eb8:	00008067          	ret
   11ebc:	fe010113          	addi	sp,sp,-32
   11ec0:	00810513          	addi	a0,sp,8
   11ec4:	00112e23          	sw	ra,28(sp)
   11ec8:	070000ef          	jal	ra,11f38 <__ieee754_rem_pio2f>
   11ecc:	00357513          	andi	a0,a0,3
   11ed0:	00100793          	li	a5,1
   11ed4:	02f50c63          	beq	a0,a5,11f0c <sinf+0x78>
   11ed8:	00200793          	li	a5,2
   11edc:	00c12587          	flw	fa1,12(sp)
   11ee0:	00812507          	flw	fa0,8(sp)
   11ee4:	04f50263          	beq	a0,a5,11f28 <sinf+0x94>
   11ee8:	02050a63          	beqz	a0,11f1c <sinf+0x88>
   11eec:	31c000ef          	jal	ra,12208 <__kernel_cosf>
   11ef0:	20a51553          	fneg.s	fa0,fa0
   11ef4:	01c12083          	lw	ra,28(sp)
   11ef8:	02010113          	addi	sp,sp,32
   11efc:	00008067          	ret
   11f00:	f00005d3          	fmv.w.x	fa1,zero
   11f04:	00000513          	li	a0,0
   11f08:	4b90006f          	j	12bc0 <__kernel_sinf>
   11f0c:	00c12587          	flw	fa1,12(sp)
   11f10:	00812507          	flw	fa0,8(sp)
   11f14:	2f4000ef          	jal	ra,12208 <__kernel_cosf>
   11f18:	fddff06f          	j	11ef4 <sinf+0x60>
   11f1c:	00100513          	li	a0,1
   11f20:	4a1000ef          	jal	ra,12bc0 <__kernel_sinf>
   11f24:	fd1ff06f          	j	11ef4 <sinf+0x60>
   11f28:	00100513          	li	a0,1
   11f2c:	495000ef          	jal	ra,12bc0 <__kernel_sinf>
   11f30:	20a51553          	fneg.s	fa0,fa0
   11f34:	fc1ff06f          	j	11ef4 <sinf+0x60>

00011f38 <__ieee754_rem_pio2f>:
   11f38:	e00507d3          	fmv.x.w	a5,fa0
   11f3c:	fe010113          	addi	sp,sp,-32
   11f40:	00812c23          	sw	s0,24(sp)
   11f44:	3f491737          	lui	a4,0x3f491
   11f48:	00179413          	slli	s0,a5,0x1
   11f4c:	00912a23          	sw	s1,20(sp)
   11f50:	00112e23          	sw	ra,28(sp)
   11f54:	01212823          	sw	s2,16(sp)
   11f58:	fd870713          	addi	a4,a4,-40 # 3f490fd8 <__BSS_END__+0x3f47a430>
   11f5c:	00145413          	srli	s0,s0,0x1
   11f60:	00050493          	mv	s1,a0
   11f64:	10875c63          	bge	a4,s0,1207c <__ieee754_rem_pio2f+0x144>
   11f68:	4016d737          	lui	a4,0x4016d
   11f6c:	be370713          	addi	a4,a4,-1053 # 4016cbe3 <__BSS_END__+0x4015603b>
   11f70:	00078913          	mv	s2,a5
   11f74:	04874a63          	blt	a4,s0,11fc8 <__ieee754_rem_pio2f+0x90>
   11f78:	3fc91737          	lui	a4,0x3fc91
   11f7c:	c581a787          	flw	fa5,-936(gp) # 167e8 <__SDATA_BEGIN__>
   11f80:	ff047413          	andi	s0,s0,-16
   11f84:	fd070713          	addi	a4,a4,-48 # 3fc90fd0 <__BSS_END__+0x3fc7a428>
   11f88:	24f05463          	blez	a5,121d0 <__ieee754_rem_pio2f+0x298>
   11f8c:	08f577d3          	fsub.s	fa5,fa0,fa5
   11f90:	12e40263          	beq	s0,a4,120b4 <__ieee754_rem_pio2f+0x17c>
   11f94:	c5c1a707          	flw	fa4,-932(gp) # 167ec <__SDATA_BEGIN__+0x4>
   11f98:	08e7f6d3          	fsub.s	fa3,fa5,fa4
   11f9c:	00100513          	li	a0,1
   11fa0:	08d7f7d3          	fsub.s	fa5,fa5,fa3
   11fa4:	00d4a027          	fsw	fa3,0(s1)
   11fa8:	08e7f7d3          	fsub.s	fa5,fa5,fa4
   11fac:	00f4a227          	fsw	fa5,4(s1)
   11fb0:	01c12083          	lw	ra,28(sp)
   11fb4:	01812403          	lw	s0,24(sp)
   11fb8:	01412483          	lw	s1,20(sp)
   11fbc:	01012903          	lw	s2,16(sp)
   11fc0:	02010113          	addi	sp,sp,32
   11fc4:	00008067          	ret
   11fc8:	43491737          	lui	a4,0x43491
   11fcc:	f8070713          	addi	a4,a4,-128 # 43490f80 <__BSS_END__+0x4347a3d8>
   11fd0:	0e875a63          	bge	a4,s0,120c4 <__ieee754_rem_pio2f+0x18c>
   11fd4:	7f800737          	lui	a4,0x7f800
   11fd8:	0ce45463          	bge	s0,a4,120a0 <__ieee754_rem_pio2f+0x168>
   11fdc:	41745613          	srai	a2,s0,0x17
   11fe0:	f7a60613          	addi	a2,a2,-134
   11fe4:	01761793          	slli	a5,a2,0x17
   11fe8:	40f40433          	sub	s0,s0,a5
   11fec:	f00407d3          	fmv.w.x	fa5,s0
   11ff0:	f0040753          	fmv.w.x	fa4,s0
   11ff4:	c00797d3          	fcvt.w.s	a5,fa5,rtz
   11ff8:	c781a687          	flw	fa3,-904(gp) # 16808 <__SDATA_BEGIN__+0x20>
   11ffc:	f0000653          	fmv.w.x	fa2,zero
   12000:	d007f7d3          	fcvt.s.w	fa5,a5
   12004:	00300693          	li	a3,3
   12008:	08f77753          	fsub.s	fa4,fa4,fa5
   1200c:	00f12227          	fsw	fa5,4(sp)
   12010:	10d777d3          	fmul.s	fa5,fa4,fa3
   12014:	c00797d3          	fcvt.w.s	a5,fa5,rtz
   12018:	d007f753          	fcvt.s.w	fa4,a5
   1201c:	08e7f7d3          	fsub.s	fa5,fa5,fa4
   12020:	00e12427          	fsw	fa4,8(sp)
   12024:	10d7f7d3          	fmul.s	fa5,fa5,fa3
   12028:	a0c7a7d3          	feq.s	a5,fa5,fa2
   1202c:	00f12627          	fsw	fa5,12(sp)
   12030:	00078863          	beqz	a5,12040 <__ieee754_rem_pio2f+0x108>
   12034:	a0c726d3          	feq.s	a3,fa4,fa2
   12038:	0016b693          	seqz	a3,a3
   1203c:	00168693          	addi	a3,a3,1 # 7f800001 <__BSS_END__+0x7f7e9459>
   12040:	000157b7          	lui	a5,0x15
   12044:	09878793          	addi	a5,a5,152 # 15098 <two_over_pi>
   12048:	00200713          	li	a4,2
   1204c:	00048593          	mv	a1,s1
   12050:	00410513          	addi	a0,sp,4
   12054:	2b4000ef          	jal	ra,12308 <__kernel_rem_pio2f>
   12058:	f4095ce3          	bgez	s2,11fb0 <__ieee754_rem_pio2f+0x78>
   1205c:	0004a707          	flw	fa4,0(s1)
   12060:	0044a787          	flw	fa5,4(s1)
   12064:	40a00533          	neg	a0,a0
   12068:	20e71753          	fneg.s	fa4,fa4
   1206c:	20f797d3          	fneg.s	fa5,fa5
   12070:	00e4a027          	fsw	fa4,0(s1)
   12074:	00f4a227          	fsw	fa5,4(s1)
   12078:	f39ff06f          	j	11fb0 <__ieee754_rem_pio2f+0x78>
   1207c:	01c12083          	lw	ra,28(sp)
   12080:	01812403          	lw	s0,24(sp)
   12084:	00a4a027          	fsw	fa0,0(s1)
   12088:	00052223          	sw	zero,4(a0)
   1208c:	01412483          	lw	s1,20(sp)
   12090:	01012903          	lw	s2,16(sp)
   12094:	00000513          	li	a0,0
   12098:	02010113          	addi	sp,sp,32
   1209c:	00008067          	ret
   120a0:	08a577d3          	fsub.s	fa5,fa0,fa0
   120a4:	00000513          	li	a0,0
   120a8:	00f4a227          	fsw	fa5,4(s1)
   120ac:	00f4a027          	fsw	fa5,0(s1)
   120b0:	f01ff06f          	j	11fb0 <__ieee754_rem_pio2f+0x78>
   120b4:	c641a707          	flw	fa4,-924(gp) # 167f4 <__SDATA_BEGIN__+0xc>
   120b8:	c601a687          	flw	fa3,-928(gp) # 167f0 <__SDATA_BEGIN__+0x8>
   120bc:	08d7f7d3          	fsub.s	fa5,fa5,fa3
   120c0:	ed9ff06f          	j	11f98 <__ieee754_rem_pio2f+0x60>
   120c4:	389000ef          	jal	ra,12c4c <fabsf>
   120c8:	c681a787          	flw	fa5,-920(gp) # 167f8 <__SDATA_BEGIN__+0x10>
   120cc:	c6c1a707          	flw	fa4,-916(gp) # 167fc <__SDATA_BEGIN__+0x14>
   120d0:	01f00793          	li	a5,31
   120d4:	70f577c3          	fmadd.s	fa5,fa0,fa5,fa4
   120d8:	c0079553          	fcvt.w.s	a0,fa5,rtz
   120dc:	c581a787          	flw	fa5,-936(gp) # 167e8 <__SDATA_BEGIN__>
   120e0:	d0057753          	fcvt.s.w	fa4,a0
   120e4:	50f7754b          	fnmsub.s	fa0,fa4,fa5,fa0
   120e8:	c5c1a787          	flw	fa5,-932(gp) # 167ec <__SDATA_BEGIN__+0x4>
   120ec:	10f777d3          	fmul.s	fa5,fa4,fa5
   120f0:	04a7ce63          	blt	a5,a0,1214c <__ieee754_rem_pio2f+0x214>
   120f4:	fff50793          	addi	a5,a0,-1
   120f8:	00279713          	slli	a4,a5,0x2
   120fc:	000157b7          	lui	a5,0x15
   12100:	08f576d3          	fsub.s	fa3,fa0,fa5
   12104:	01878793          	addi	a5,a5,24 # 15018 <npio2_hw>
   12108:	00e787b3          	add	a5,a5,a4
   1210c:	0007a683          	lw	a3,0(a5)
   12110:	f0047713          	andi	a4,s0,-256
   12114:	e00687d3          	fmv.x.w	a5,fa3
   12118:	02d70e63          	beq	a4,a3,12154 <__ieee754_rem_pio2f+0x21c>
   1211c:	00f4a023          	sw	a5,0(s1)
   12120:	f0078753          	fmv.w.x	fa4,a5
   12124:	08e57553          	fsub.s	fa0,fa0,fa4
   12128:	08f57553          	fsub.s	fa0,fa0,fa5
   1212c:	00a4a227          	fsw	fa0,4(s1)
   12130:	e80950e3          	bgez	s2,11fb0 <__ieee754_rem_pio2f+0x78>
   12134:	20e717d3          	fneg.s	fa5,fa4
   12138:	20a51553          	fneg.s	fa0,fa0
   1213c:	40a00533          	neg	a0,a0
   12140:	00f4a027          	fsw	fa5,0(s1)
   12144:	00a4a227          	fsw	fa0,4(s1)
   12148:	e69ff06f          	j	11fb0 <__ieee754_rem_pio2f+0x78>
   1214c:	08f576d3          	fsub.s	fa3,fa0,fa5
   12150:	e00687d3          	fmv.x.w	a5,fa3
   12154:	0177d713          	srli	a4,a5,0x17
   12158:	41745413          	srai	s0,s0,0x17
   1215c:	0ff77713          	andi	a4,a4,255
   12160:	40e40733          	sub	a4,s0,a4
   12164:	00800693          	li	a3,8
   12168:	fae6dae3          	bge	a3,a4,1211c <__ieee754_rem_pio2f+0x1e4>
   1216c:	c601a787          	flw	fa5,-928(gp) # 167f0 <__SDATA_BEGIN__+0x8>
   12170:	01900693          	li	a3,25
   12174:	50f776cb          	fnmsub.s	fa3,fa4,fa5,fa0
   12178:	08d57553          	fsub.s	fa0,fa0,fa3
   1217c:	50f7754b          	fnmsub.s	fa0,fa4,fa5,fa0
   12180:	c641a787          	flw	fa5,-924(gp) # 167f4 <__SDATA_BEGIN__+0xc>
   12184:	50f777c7          	fmsub.s	fa5,fa4,fa5,fa0
   12188:	08f6f653          	fsub.s	fa2,fa3,fa5
   1218c:	e00607d3          	fmv.x.w	a5,fa2
   12190:	0177d713          	srli	a4,a5,0x17
   12194:	0ff77713          	andi	a4,a4,255
   12198:	40e40433          	sub	s0,s0,a4
   1219c:	0086c863          	blt	a3,s0,121ac <__ieee754_rem_pio2f+0x274>
   121a0:	20d68553          	fmv.s	fa0,fa3
   121a4:	00c4a027          	fsw	fa2,0(s1)
   121a8:	f79ff06f          	j	12120 <__ieee754_rem_pio2f+0x1e8>
   121ac:	c701a787          	flw	fa5,-912(gp) # 16800 <__SDATA_BEGIN__+0x18>
   121b0:	68f7754b          	fnmsub.s	fa0,fa4,fa5,fa3
   121b4:	08a6f6d3          	fsub.s	fa3,fa3,fa0
   121b8:	68f776cb          	fnmsub.s	fa3,fa4,fa5,fa3
   121bc:	c741a787          	flw	fa5,-908(gp) # 16804 <__SDATA_BEGIN__+0x1c>
   121c0:	68f777c7          	fmsub.s	fa5,fa4,fa5,fa3
   121c4:	08f57753          	fsub.s	fa4,fa0,fa5
   121c8:	e00707d3          	fmv.x.w	a5,fa4
   121cc:	f51ff06f          	j	1211c <__ieee754_rem_pio2f+0x1e4>
   121d0:	00f577d3          	fadd.s	fa5,fa0,fa5
   121d4:	02e40263          	beq	s0,a4,121f8 <__ieee754_rem_pio2f+0x2c0>
   121d8:	c5c1a707          	flw	fa4,-932(gp) # 167ec <__SDATA_BEGIN__+0x4>
   121dc:	00e7f6d3          	fadd.s	fa3,fa5,fa4
   121e0:	fff00513          	li	a0,-1
   121e4:	08d7f7d3          	fsub.s	fa5,fa5,fa3
   121e8:	00d4a027          	fsw	fa3,0(s1)
   121ec:	00e7f7d3          	fadd.s	fa5,fa5,fa4
   121f0:	00f4a227          	fsw	fa5,4(s1)
   121f4:	dbdff06f          	j	11fb0 <__ieee754_rem_pio2f+0x78>
   121f8:	c641a707          	flw	fa4,-924(gp) # 167f4 <__SDATA_BEGIN__+0xc>
   121fc:	c601a687          	flw	fa3,-928(gp) # 167f0 <__SDATA_BEGIN__+0x8>
   12200:	00d7f7d3          	fadd.s	fa5,fa5,fa3
   12204:	fd9ff06f          	j	121dc <__ieee754_rem_pio2f+0x2a4>

00012208 <__kernel_cosf>:
   12208:	e00507d3          	fmv.x.w	a5,fa0
   1220c:	320006b7          	lui	a3,0x32000
   12210:	00179713          	slli	a4,a5,0x1
   12214:	00175713          	srli	a4,a4,0x1
   12218:	06d75063          	bge	a4,a3,12278 <__kernel_cosf+0x70>
   1221c:	c0051753          	fcvt.w.s	a4,fa0,rtz
   12220:	0e070063          	beqz	a4,12300 <__kernel_cosf+0xf8>
   12224:	10a576d3          	fmul.s	fa3,fa0,fa0
   12228:	c881a707          	flw	fa4,-888(gp) # 16818 <__SDATA_BEGIN__+0x30>
   1222c:	c8c1a787          	flw	fa5,-884(gp) # 1681c <__SDATA_BEGIN__+0x34>
   12230:	78e6f743          	fmadd.s	fa4,fa3,fa4,fa5
   12234:	c901a787          	flw	fa5,-880(gp) # 16820 <__SDATA_BEGIN__+0x38>
   12238:	78e6f743          	fmadd.s	fa4,fa3,fa4,fa5
   1223c:	c941a787          	flw	fa5,-876(gp) # 16824 <__SDATA_BEGIN__+0x3c>
   12240:	78e6f743          	fmadd.s	fa4,fa3,fa4,fa5
   12244:	c981a787          	flw	fa5,-872(gp) # 16828 <__SDATA_BEGIN__+0x40>
   12248:	78e6f743          	fmadd.s	fa4,fa3,fa4,fa5
   1224c:	c9c1a787          	flw	fa5,-868(gp) # 1682c <__SDATA_BEGIN__+0x44>
   12250:	78e6f7c3          	fmadd.s	fa5,fa3,fa4,fa5
   12254:	10f6f7d3          	fmul.s	fa5,fa3,fa5
   12258:	f0078753          	fmv.w.x	fa4,a5
   1225c:	c6c1a507          	flw	fa0,-916(gp) # 167fc <__SDATA_BEGIN__+0x14>
   12260:	10b775d3          	fmul.s	fa1,fa4,fa1
   12264:	58f6f7c7          	fmsub.s	fa5,fa3,fa5,fa1
   12268:	78a6f7c7          	fmsub.s	fa5,fa3,fa0,fa5
   1226c:	c841a507          	flw	fa0,-892(gp) # 16814 <__SDATA_BEGIN__+0x2c>
   12270:	08f57553          	fsub.s	fa0,fa0,fa5
   12274:	00008067          	ret
   12278:	10a576d3          	fmul.s	fa3,fa0,fa0
   1227c:	c881a787          	flw	fa5,-888(gp) # 16818 <__SDATA_BEGIN__+0x30>
   12280:	c8c1a707          	flw	fa4,-884(gp) # 1681c <__SDATA_BEGIN__+0x34>
   12284:	70f6f7c3          	fmadd.s	fa5,fa3,fa5,fa4
   12288:	c901a707          	flw	fa4,-880(gp) # 16820 <__SDATA_BEGIN__+0x38>
   1228c:	3e99a6b7          	lui	a3,0x3e99a
   12290:	99968693          	addi	a3,a3,-1639 # 3e999999 <__BSS_END__+0x3e982df1>
   12294:	70d7f7c3          	fmadd.s	fa5,fa5,fa3,fa4
   12298:	c941a707          	flw	fa4,-876(gp) # 16824 <__SDATA_BEGIN__+0x3c>
   1229c:	70d7f7c3          	fmadd.s	fa5,fa5,fa3,fa4
   122a0:	c981a707          	flw	fa4,-872(gp) # 16828 <__SDATA_BEGIN__+0x40>
   122a4:	70d7f7c3          	fmadd.s	fa5,fa5,fa3,fa4
   122a8:	c9c1a707          	flw	fa4,-868(gp) # 1682c <__SDATA_BEGIN__+0x44>
   122ac:	70d7f7c3          	fmadd.s	fa5,fa5,fa3,fa4
   122b0:	10d7f7d3          	fmul.s	fa5,fa5,fa3
   122b4:	fae6d2e3          	bge	a3,a4,12258 <__kernel_cosf+0x50>
   122b8:	3f4806b7          	lui	a3,0x3f480
   122bc:	02e6cc63          	blt	a3,a4,122f4 <__kernel_cosf+0xec>
   122c0:	ff0006b7          	lui	a3,0xff000
   122c4:	00d70733          	add	a4,a4,a3
   122c8:	c841a507          	flw	fa0,-892(gp) # 16814 <__SDATA_BEGIN__+0x2c>
   122cc:	f0070753          	fmv.w.x	fa4,a4
   122d0:	08e57553          	fsub.s	fa0,fa0,fa4
   122d4:	f0078653          	fmv.w.x	fa2,a5
   122d8:	10b675d3          	fmul.s	fa1,fa2,fa1
   122dc:	c6c1a607          	flw	fa2,-916(gp) # 167fc <__SDATA_BEGIN__+0x14>
   122e0:	58f6f7c7          	fmsub.s	fa5,fa3,fa5,fa1
   122e4:	70c6f6c7          	fmsub.s	fa3,fa3,fa2,fa4
   122e8:	08f6f7d3          	fsub.s	fa5,fa3,fa5
   122ec:	08f57553          	fsub.s	fa0,fa0,fa5
   122f0:	00008067          	ret
   122f4:	c7c1a507          	flw	fa0,-900(gp) # 1680c <__SDATA_BEGIN__+0x24>
   122f8:	c801a707          	flw	fa4,-896(gp) # 16810 <__SDATA_BEGIN__+0x28>
   122fc:	fd9ff06f          	j	122d4 <__kernel_cosf+0xcc>
   12300:	c841a507          	flw	fa0,-892(gp) # 16814 <__SDATA_BEGIN__+0x2c>
   12304:	00008067          	ret

00012308 <__kernel_rem_pio2f>:
   12308:	e4010113          	addi	sp,sp,-448
   1230c:	1a912a23          	sw	s1,436(sp)
   12310:	000154b7          	lui	s1,0x15
   12314:	3b048893          	addi	a7,s1,944 # 153b0 <init_jk>
   12318:	00e12a23          	sw	a4,20(sp)
   1231c:	00271713          	slli	a4,a4,0x2
   12320:	00068813          	mv	a6,a3
   12324:	1a812c23          	sw	s0,440(sp)
   12328:	1b212823          	sw	s2,432(sp)
   1232c:	19a12823          	sw	s10,400(sp)
   12330:	00e88733          	add	a4,a7,a4
   12334:	1a112e23          	sw	ra,444(sp)
   12338:	1b312623          	sw	s3,428(sp)
   1233c:	1b412423          	sw	s4,424(sp)
   12340:	1b512223          	sw	s5,420(sp)
   12344:	1b612023          	sw	s6,416(sp)
   12348:	19712e23          	sw	s7,412(sp)
   1234c:	19812c23          	sw	s8,408(sp)
   12350:	19912a23          	sw	s9,404(sp)
   12354:	19b12623          	sw	s11,396(sp)
   12358:	16812e27          	fsw	fs0,380(sp)
   1235c:	16912c27          	fsw	fs1,376(sp)
   12360:	17212a27          	fsw	fs2,372(sp)
   12364:	17312827          	fsw	fs3,368(sp)
   12368:	17412627          	fsw	fs4,364(sp)
   1236c:	17512427          	fsw	fs5,360(sp)
   12370:	17612227          	fsw	fs6,356(sp)
   12374:	01112623          	sw	a7,12(sp)
   12378:	00c12e23          	sw	a2,28(sp)
   1237c:	ffc00693          	li	a3,-4
   12380:	00b12823          	sw	a1,16(sp)
   12384:	00f12223          	sw	a5,4(sp)
   12388:	00072d03          	lw	s10,0(a4) # 7f800000 <__BSS_END__+0x7f7e9458>
   1238c:	00050913          	mv	s2,a0
   12390:	fff80413          	addi	s0,a6,-1
   12394:	78d64463          	blt	a2,a3,12b1c <__kernel_rem_pio2f+0x814>
   12398:	ffd60793          	addi	a5,a2,-3
   1239c:	41f7d713          	srai	a4,a5,0x1f
   123a0:	00777713          	andi	a4,a4,7
   123a4:	00f707b3          	add	a5,a4,a5
   123a8:	4037d793          	srai	a5,a5,0x3
   123ac:	00178b93          	addi	s7,a5,1
   123b0:	00f12023          	sw	a5,0(sp)
   123b4:	003b9793          	slli	a5,s7,0x3
   123b8:	00f12c23          	sw	a5,24(sp)
   123bc:	01c12783          	lw	a5,28(sp)
   123c0:	01812683          	lw	a3,24(sp)
   123c4:	008d0733          	add	a4,s10,s0
   123c8:	40d78ab3          	sub	s5,a5,a3
   123cc:	00012783          	lw	a5,0(sp)
   123d0:	408787b3          	sub	a5,a5,s0
   123d4:	04074063          	bltz	a4,12414 <__kernel_rem_pio2f+0x10c>
   123d8:	00412583          	lw	a1,4(sp)
   123dc:	00170613          	addi	a2,a4,1
   123e0:	00279693          	slli	a3,a5,0x2
   123e4:	07010713          	addi	a4,sp,112
   123e8:	00d586b3          	add	a3,a1,a3
   123ec:	00f60633          	add	a2,a2,a5
   123f0:	f00007d3          	fmv.w.x	fa5,zero
   123f4:	0007c663          	bltz	a5,12400 <__kernel_rem_pio2f+0xf8>
   123f8:	0006a503          	lw	a0,0(a3) # ff000000 <__BSS_END__+0xfefe9458>
   123fc:	d00577d3          	fcvt.s.w	fa5,a0
   12400:	00178793          	addi	a5,a5,1
   12404:	00f72027          	fsw	fa5,0(a4)
   12408:	00470713          	addi	a4,a4,4
   1240c:	00468693          	addi	a3,a3,4
   12410:	fec790e3          	bne	a5,a2,123f0 <__kernel_rem_pio2f+0xe8>
   12414:	060d4063          	bltz	s10,12474 <__kernel_rem_pio2f+0x16c>
   12418:	00241613          	slli	a2,s0,0x2
   1241c:	00460693          	addi	a3,a2,4
   12420:	07010793          	addi	a5,sp,112
   12424:	11010e13          	addi	t3,sp,272
   12428:	00040513          	mv	a0,s0
   1242c:	00c78633          	add	a2,a5,a2
   12430:	010d0eb3          	add	t4,s10,a6
   12434:	012686b3          	add	a3,a3,s2
   12438:	f00007d3          	fmv.w.x	fa5,zero
   1243c:	00060713          	mv	a4,a2
   12440:	00090793          	mv	a5,s2
   12444:	00044e63          	bltz	s0,12460 <__kernel_rem_pio2f+0x158>
   12448:	0007a687          	flw	fa3,0(a5)
   1244c:	00072707          	flw	fa4,0(a4)
   12450:	00478793          	addi	a5,a5,4
   12454:	ffc70713          	addi	a4,a4,-4
   12458:	78e6f7c3          	fmadd.s	fa5,fa3,fa4,fa5
   1245c:	fed796e3          	bne	a5,a3,12448 <__kernel_rem_pio2f+0x140>
   12460:	00fe2027          	fsw	fa5,0(t3)
   12464:	00150513          	addi	a0,a0,1
   12468:	004e0e13          	addi	t3,t3,4
   1246c:	00460613          	addi	a2,a2,4
   12470:	fdd514e3          	bne	a0,t4,12438 <__kernel_rem_pio2f+0x130>
   12474:	ca41aa87          	flw	fs5,-860(gp) # 16834 <__SDATA_BEGIN__+0x4c>
   12478:	c781aa07          	flw	fs4,-904(gp) # 16808 <__SDATA_BEGIN__+0x20>
   1247c:	ca81a487          	flw	fs1,-856(gp) # 16838 <__SDATA_BEGIN__+0x50>
   12480:	cac1a407          	flw	fs0,-852(gp) # 1683c <__SDATA_BEGIN__+0x54>
   12484:	002d1793          	slli	a5,s10,0x2
   12488:	c841a987          	flw	fs3,-892(gp) # 16814 <__SDATA_BEGIN__+0x2c>
   1248c:	c6c1a907          	flw	fs2,-916(gp) # 167fc <__SDATA_BEGIN__+0x14>
   12490:	02010b13          	addi	s6,sp,32
   12494:	ff878993          	addi	s3,a5,-8
   12498:	01c10713          	addi	a4,sp,28
   1249c:	00281c93          	slli	s9,a6,0x2
   124a0:	00f704b3          	add	s1,a4,a5
   124a4:	013b07b3          	add	a5,s6,s3
   124a8:	00f12423          	sw	a5,8(sp)
   124ac:	01990cb3          	add	s9,s2,s9
   124b0:	000d0a13          	mv	s4,s10
   124b4:	11010d93          	addi	s11,sp,272
   124b8:	002a1993          	slli	s3,s4,0x2
   124bc:	16010793          	addi	a5,sp,352
   124c0:	013787b3          	add	a5,a5,s3
   124c4:	fb07a507          	flw	fa0,-80(a5)
   124c8:	05405063          	blez	s4,12508 <__kernel_rem_pio2f+0x200>
   124cc:	ffc98793          	addi	a5,s3,-4
   124d0:	00fd87b3          	add	a5,s11,a5
   124d4:	000b0713          	mv	a4,s6
   124d8:	115577d3          	fmul.s	fa5,fa0,fs5
   124dc:	0007a687          	flw	fa3,0(a5)
   124e0:	00470713          	addi	a4,a4,4
   124e4:	00078613          	mv	a2,a5
   124e8:	ffc78793          	addi	a5,a5,-4
   124ec:	c0079553          	fcvt.w.s	a0,fa5,rtz
   124f0:	d00577d3          	fcvt.s.w	fa5,a0
   124f4:	5147f74b          	fnmsub.s	fa4,fa5,fs4,fa0
   124f8:	00d7f553          	fadd.s	fa0,fa5,fa3
   124fc:	c0071553          	fcvt.w.s	a0,fa4,rtz
   12500:	fea72e23          	sw	a0,-4(a4)
   12504:	fccd9ae3          	bne	s11,a2,124d8 <__kernel_rem_pio2f+0x1d0>
   12508:	000a8513          	mv	a0,s5
   1250c:	001000ef          	jal	ra,12d0c <scalbnf>
   12510:	20a50b53          	fmv.s	fs6,fa0
   12514:	10957553          	fmul.s	fa0,fa0,fs1
   12518:	73c000ef          	jal	ra,12c54 <floorf>
   1251c:	b085754b          	fnmsub.s	fa0,fa0,fs0,fs6
   12520:	c0051bd3          	fcvt.w.s	s7,fa0,rtz
   12524:	d00bfb53          	fcvt.s.w	fs6,s7
   12528:	09657b53          	fsub.s	fs6,fa0,fs6
   1252c:	15505063          	blez	s5,1266c <__kernel_rem_pio2f+0x364>
   12530:	fffa0713          	addi	a4,s4,-1
   12534:	16010793          	addi	a5,sp,352
   12538:	00271713          	slli	a4,a4,0x2
   1253c:	00e78733          	add	a4,a5,a4
   12540:	ec072e83          	lw	t4,-320(a4)
   12544:	00800793          	li	a5,8
   12548:	415787b3          	sub	a5,a5,s5
   1254c:	40fed533          	sra	a0,t4,a5
   12550:	00f51633          	sll	a2,a0,a5
   12554:	00700793          	li	a5,7
   12558:	40ce8633          	sub	a2,t4,a2
   1255c:	415787b3          	sub	a5,a5,s5
   12560:	ecc72023          	sw	a2,-320(a4)
   12564:	40f65c33          	sra	s8,a2,a5
   12568:	00ab8bb3          	add	s7,s7,a0
   1256c:	13804063          	bgtz	s8,1268c <__kernel_rem_pio2f+0x384>
   12570:	f0000753          	fmv.w.x	fa4,zero
   12574:	a0eb27d3          	feq.s	a5,fs6,fa4
   12578:	20078463          	beqz	a5,12780 <__kernel_rem_pio2f+0x478>
   1257c:	fffa0e93          	addi	t4,s4,-1
   12580:	03aec463          	blt	t4,s10,125a8 <__kernel_rem_pio2f+0x2a0>
   12584:	002a1793          	slli	a5,s4,0x2
   12588:	ffc78793          	addi	a5,a5,-4
   1258c:	00fb07b3          	add	a5,s6,a5
   12590:	00000713          	li	a4,0
   12594:	0007a503          	lw	a0,0(a5)
   12598:	ffc78793          	addi	a5,a5,-4
   1259c:	00a76733          	or	a4,a4,a0
   125a0:	fe979ae3          	bne	a5,s1,12594 <__kernel_rem_pio2f+0x28c>
   125a4:	3e071463          	bnez	a4,1298c <__kernel_rem_pio2f+0x684>
   125a8:	fffd0793          	addi	a5,s10,-1
   125ac:	00279793          	slli	a5,a5,0x2
   125b0:	16010713          	addi	a4,sp,352
   125b4:	00f707b3          	add	a5,a4,a5
   125b8:	ec07a783          	lw	a5,-320(a5)
   125bc:	3c079063          	bnez	a5,1297c <__kernel_rem_pio2f+0x674>
   125c0:	00812783          	lw	a5,8(sp)
   125c4:	00100713          	li	a4,1
   125c8:	0007a603          	lw	a2,0(a5)
   125cc:	00170713          	addi	a4,a4,1
   125d0:	ffc78793          	addi	a5,a5,-4
   125d4:	fe060ae3          	beqz	a2,125c8 <__kernel_rem_pio2f+0x2c0>
   125d8:	001a0793          	addi	a5,s4,1
   125dc:	00078e93          	mv	t4,a5
   125e0:	00ea0f33          	add	t5,s4,a4
   125e4:	00012703          	lw	a4,0(sp)
   125e8:	00f406b3          	add	a3,s0,a5
   125ec:	00269693          	slli	a3,a3,0x2
   125f0:	00f70533          	add	a0,a4,a5
   125f4:	16010713          	addi	a4,sp,352
   125f8:	00d706b3          	add	a3,a4,a3
   125fc:	00412703          	lw	a4,4(sp)
   12600:	00251513          	slli	a0,a0,0x2
   12604:	00279793          	slli	a5,a5,0x2
   12608:	00a70533          	add	a0,a4,a0
   1260c:	00fd8633          	add	a2,s11,a5
   12610:	f0c68693          	addi	a3,a3,-244
   12614:	00052783          	lw	a5,0(a0)
   12618:	f00007d3          	fmv.w.x	fa5,zero
   1261c:	d007f753          	fcvt.s.w	fa4,a5
   12620:	00e6a227          	fsw	fa4,4(a3)
   12624:	02044463          	bltz	s0,1264c <__kernel_rem_pio2f+0x344>
   12628:	00068713          	mv	a4,a3
   1262c:	00090793          	mv	a5,s2
   12630:	00c0006f          	j	1263c <__kernel_rem_pio2f+0x334>
   12634:	00072707          	flw	fa4,0(a4)
   12638:	ffc70713          	addi	a4,a4,-4
   1263c:	0007a687          	flw	fa3,0(a5)
   12640:	00478793          	addi	a5,a5,4
   12644:	78e6f7c3          	fmadd.s	fa5,fa3,fa4,fa5
   12648:	ff9796e3          	bne	a5,s9,12634 <__kernel_rem_pio2f+0x32c>
   1264c:	00f62027          	fsw	fa5,0(a2)
   12650:	001e8e93          	addi	t4,t4,1
   12654:	00450513          	addi	a0,a0,4
   12658:	00460613          	addi	a2,a2,4
   1265c:	00468693          	addi	a3,a3,4
   12660:	fbdf5ae3          	bge	t5,t4,12614 <__kernel_rem_pio2f+0x30c>
   12664:	000f0a13          	mv	s4,t5
   12668:	e51ff06f          	j	124b8 <__kernel_rem_pio2f+0x1b0>
   1266c:	2e0a9863          	bnez	s5,1295c <__kernel_rem_pio2f+0x654>
   12670:	fffa0793          	addi	a5,s4,-1
   12674:	00279793          	slli	a5,a5,0x2
   12678:	16010713          	addi	a4,sp,352
   1267c:	00f707b3          	add	a5,a4,a5
   12680:	ec07a603          	lw	a2,-320(a5)
   12684:	40765c13          	srai	s8,a2,0x7
   12688:	ef8054e3          	blez	s8,12570 <__kernel_rem_pio2f+0x268>
   1268c:	001b8b93          	addi	s7,s7,1
   12690:	49405e63          	blez	s4,12b2c <__kernel_rem_pio2f+0x824>
   12694:	02012e83          	lw	t4,32(sp)
   12698:	00100793          	li	a5,1
   1269c:	2a0e9c63          	bnez	t4,12954 <__kernel_rem_pio2f+0x64c>
   126a0:	08fa0263          	beq	s4,a5,12724 <__kernel_rem_pio2f+0x41c>
   126a4:	02412e83          	lw	t4,36(sp)
   126a8:	02410513          	addi	a0,sp,36
   126ac:	00100713          	li	a4,1
   126b0:	00170793          	addi	a5,a4,1
   126b4:	00450513          	addi	a0,a0,4
   126b8:	000e9e63          	bnez	t4,126d4 <__kernel_rem_pio2f+0x3cc>
   126bc:	06fa0463          	beq	s4,a5,12724 <__kernel_rem_pio2f+0x41c>
   126c0:	00052e83          	lw	t4,0(a0)
   126c4:	00078713          	mv	a4,a5
   126c8:	00170793          	addi	a5,a4,1
   126cc:	00450513          	addi	a0,a0,4
   126d0:	fe0e86e3          	beqz	t4,126bc <__kernel_rem_pio2f+0x3b4>
   126d4:	00271713          	slli	a4,a4,0x2
   126d8:	16010693          	addi	a3,sp,352
   126dc:	00e68533          	add	a0,a3,a4
   126e0:	10000713          	li	a4,256
   126e4:	41d70733          	sub	a4,a4,t4
   126e8:	ece52023          	sw	a4,-320(a0)
   126ec:	0347da63          	bge	a5,s4,12720 <__kernel_rem_pio2f+0x418>
   126f0:	00279793          	slli	a5,a5,0x2
   126f4:	00f68733          	add	a4,a3,a5
   126f8:	ec072703          	lw	a4,-320(a4)
   126fc:	00fb07b3          	add	a5,s6,a5
   12700:	013b0eb3          	add	t4,s6,s3
   12704:	0ff00513          	li	a0,255
   12708:	0080006f          	j	12710 <__kernel_rem_pio2f+0x408>
   1270c:	0007a703          	lw	a4,0(a5)
   12710:	40e50733          	sub	a4,a0,a4
   12714:	00e7a023          	sw	a4,0(a5)
   12718:	00478793          	addi	a5,a5,4
   1271c:	ffd798e3          	bne	a5,t4,1270c <__kernel_rem_pio2f+0x404>
   12720:	00100e93          	li	t4,1
   12724:	03505863          	blez	s5,12754 <__kernel_rem_pio2f+0x44c>
   12728:	00100793          	li	a5,1
   1272c:	3cfa8863          	beq	s5,a5,12afc <__kernel_rem_pio2f+0x7f4>
   12730:	00200793          	li	a5,2
   12734:	02fa9063          	bne	s5,a5,12754 <__kernel_rem_pio2f+0x44c>
   12738:	fffa0793          	addi	a5,s4,-1
   1273c:	16010713          	addi	a4,sp,352
   12740:	00279793          	slli	a5,a5,0x2
   12744:	00f707b3          	add	a5,a4,a5
   12748:	ec07a703          	lw	a4,-320(a5)
   1274c:	03f77713          	andi	a4,a4,63
   12750:	ece7a023          	sw	a4,-320(a5)
   12754:	00200793          	li	a5,2
   12758:	e0fc1ce3          	bne	s8,a5,12570 <__kernel_rem_pio2f+0x268>
   1275c:	0969fb53          	fsub.s	fs6,fs3,fs6
   12760:	e00e88e3          	beqz	t4,12570 <__kernel_rem_pio2f+0x268>
   12764:	21398553          	fmv.s	fa0,fs3
   12768:	000a8513          	mv	a0,s5
   1276c:	5a0000ef          	jal	ra,12d0c <scalbnf>
   12770:	08ab7b53          	fsub.s	fs6,fs6,fa0
   12774:	f0000753          	fmv.w.x	fa4,zero
   12778:	a0eb27d3          	feq.s	a5,fs6,fa4
   1277c:	e00790e3          	bnez	a5,1257c <__kernel_rem_pio2f+0x274>
   12780:	01812783          	lw	a5,24(sp)
   12784:	01c12703          	lw	a4,28(sp)
   12788:	216b0553          	fmv.s	fa0,fs6
   1278c:	40e78533          	sub	a0,a5,a4
   12790:	57c000ef          	jal	ra,12d0c <scalbnf>
   12794:	c781a707          	flw	fa4,-904(gp) # 16808 <__SDATA_BEGIN__+0x20>
   12798:	a0a707d3          	fle.s	a5,fa4,fa0
   1279c:	38078c63          	beqz	a5,12b34 <__kernel_rem_pio2f+0x82c>
   127a0:	ca41a687          	flw	fa3,-860(gp) # 16834 <__SDATA_BEGIN__+0x4c>
   127a4:	001a0e93          	addi	t4,s4,1
   127a8:	16010793          	addi	a5,sp,352
   127ac:	10d576d3          	fmul.s	fa3,fa0,fa3
   127b0:	01378fb3          	add	t6,a5,s3
   127b4:	16010713          	addi	a4,sp,352
   127b8:	002e9793          	slli	a5,t4,0x2
   127bc:	00f707b3          	add	a5,a4,a5
   127c0:	c0069753          	fcvt.w.s	a4,fa3,rtz
   127c4:	008a8a93          	addi	s5,s5,8
   127c8:	d00776d3          	fcvt.s.w	fa3,a4
   127cc:	50e6f7cb          	fnmsub.s	fa5,fa3,fa4,fa0
   127d0:	c0069753          	fcvt.w.s	a4,fa3,rtz
   127d4:	c00796d3          	fcvt.w.s	a3,fa5,rtz
   127d8:	ecdfa023          	sw	a3,-320(t6)
   127dc:	ece7a023          	sw	a4,-320(a5)
   127e0:	c841a507          	flw	fa0,-892(gp) # 16814 <__SDATA_BEGIN__+0x2c>
   127e4:	000a8513          	mv	a0,s5
   127e8:	01d12023          	sw	t4,0(sp)
   127ec:	520000ef          	jal	ra,12d0c <scalbnf>
   127f0:	00012e83          	lw	t4,0(sp)
   127f4:	380ecc63          	bltz	t4,12b8c <__kernel_rem_pio2f+0x884>
   127f8:	002e9893          	slli	a7,t4,0x2
   127fc:	ca41a687          	flw	fa3,-860(gp) # 16834 <__SDATA_BEGIN__+0x4c>
   12800:	11010793          	addi	a5,sp,272
   12804:	01178533          	add	a0,a5,a7
   12808:	00050713          	mv	a4,a0
   1280c:	011b07b3          	add	a5,s6,a7
   12810:	0007a583          	lw	a1,0(a5)
   12814:	ffc70713          	addi	a4,a4,-4
   12818:	00078693          	mv	a3,a5
   1281c:	d005f7d3          	fcvt.s.w	fa5,a1
   12820:	ffc78793          	addi	a5,a5,-4
   12824:	10a7f7d3          	fmul.s	fa5,fa5,fa0
   12828:	10d57553          	fmul.s	fa0,fa0,fa3
   1282c:	00f72227          	fsw	fa5,4(a4)
   12830:	fedb10e3          	bne	s6,a3,12810 <__kernel_rem_pio2f+0x508>
   12834:	0c010313          	addi	t1,sp,192
   12838:	ca01a607          	flw	fa2,-864(gp) # 16830 <__SDATA_BEGIN__+0x48>
   1283c:	00030813          	mv	a6,t1
   12840:	00000593          	li	a1,0
   12844:	040d4e63          	bltz	s10,128a0 <__kernel_rem_pio2f+0x598>
   12848:	00c12783          	lw	a5,12(sp)
   1284c:	20c60753          	fmv.s	fa4,fa2
   12850:	f00007d3          	fmv.w.x	fa5,zero
   12854:	01078693          	addi	a3,a5,16
   12858:	00050713          	mv	a4,a0
   1285c:	00000793          	li	a5,0
   12860:	0100006f          	j	12870 <__kernel_rem_pio2f+0x568>
   12864:	02f5c063          	blt	a1,a5,12884 <__kernel_rem_pio2f+0x57c>
   12868:	0006a707          	flw	fa4,0(a3)
   1286c:	00468693          	addi	a3,a3,4
   12870:	00072687          	flw	fa3,0(a4)
   12874:	00178793          	addi	a5,a5,1
   12878:	00470713          	addi	a4,a4,4
   1287c:	78e6f7c3          	fmadd.s	fa5,fa3,fa4,fa5
   12880:	fefd52e3          	bge	s10,a5,12864 <__kernel_rem_pio2f+0x55c>
   12884:	00f82027          	fsw	fa5,0(a6)
   12888:	00158793          	addi	a5,a1,1
   1288c:	00480813          	addi	a6,a6,4
   12890:	ffc50513          	addi	a0,a0,-4
   12894:	02be8263          	beq	t4,a1,128b8 <__kernel_rem_pio2f+0x5b0>
   12898:	00078593          	mv	a1,a5
   1289c:	fa0d56e3          	bgez	s10,12848 <__kernel_rem_pio2f+0x540>
   128a0:	f00007d3          	fmv.w.x	fa5,zero
   128a4:	00158793          	addi	a5,a1,1
   128a8:	00480813          	addi	a6,a6,4
   128ac:	fef82e27          	fsw	fa5,-4(a6)
   128b0:	ffc50513          	addi	a0,a0,-4
   128b4:	febe92e3          	bne	t4,a1,12898 <__kernel_rem_pio2f+0x590>
   128b8:	01412703          	lw	a4,20(sp)
   128bc:	00200793          	li	a5,2
   128c0:	16e7c263          	blt	a5,a4,12a24 <__kernel_rem_pio2f+0x71c>
   128c4:	f00007d3          	fmv.w.x	fa5,zero
   128c8:	011308b3          	add	a7,t1,a7
   128cc:	0ee04e63          	bgtz	a4,129c8 <__kernel_rem_pio2f+0x6c0>
   128d0:	02071463          	bnez	a4,128f8 <__kernel_rem_pio2f+0x5f0>
   128d4:	0008a707          	flw	fa4,0(a7)
   128d8:	00088793          	mv	a5,a7
   128dc:	ffc88893          	addi	a7,a7,-4
   128e0:	00e7f7d3          	fadd.s	fa5,fa5,fa4
   128e4:	fef318e3          	bne	t1,a5,128d4 <__kernel_rem_pio2f+0x5cc>
   128e8:	000c0463          	beqz	s8,128f0 <__kernel_rem_pio2f+0x5e8>
   128ec:	20f797d3          	fneg.s	fa5,fa5
   128f0:	01012783          	lw	a5,16(sp)
   128f4:	00f7a027          	fsw	fa5,0(a5)
   128f8:	1bc12083          	lw	ra,444(sp)
   128fc:	1b812403          	lw	s0,440(sp)
   12900:	1b412483          	lw	s1,436(sp)
   12904:	1b012903          	lw	s2,432(sp)
   12908:	1ac12983          	lw	s3,428(sp)
   1290c:	1a812a03          	lw	s4,424(sp)
   12910:	1a412a83          	lw	s5,420(sp)
   12914:	1a012b03          	lw	s6,416(sp)
   12918:	19812c03          	lw	s8,408(sp)
   1291c:	19412c83          	lw	s9,404(sp)
   12920:	19012d03          	lw	s10,400(sp)
   12924:	18c12d83          	lw	s11,396(sp)
   12928:	17c12407          	flw	fs0,380(sp)
   1292c:	17812487          	flw	fs1,376(sp)
   12930:	17412907          	flw	fs2,372(sp)
   12934:	17012987          	flw	fs3,368(sp)
   12938:	16c12a07          	flw	fs4,364(sp)
   1293c:	16812a87          	flw	fs5,360(sp)
   12940:	16412b07          	flw	fs6,356(sp)
   12944:	007bf513          	andi	a0,s7,7
   12948:	19c12b83          	lw	s7,412(sp)
   1294c:	1c010113          	addi	sp,sp,448
   12950:	00008067          	ret
   12954:	00000713          	li	a4,0
   12958:	d7dff06f          	j	126d4 <__kernel_rem_pio2f+0x3cc>
   1295c:	a16907d3          	fle.s	a5,fs2,fs6
   12960:	00000c13          	li	s8,0
   12964:	c00786e3          	beqz	a5,12570 <__kernel_rem_pio2f+0x268>
   12968:	001b8b93          	addi	s7,s7,1
   1296c:	00200c13          	li	s8,2
   12970:	d34042e3          	bgtz	s4,12694 <__kernel_rem_pio2f+0x38c>
   12974:	0969fb53          	fsub.s	fs6,fs3,fs6
   12978:	bf9ff06f          	j	12570 <__kernel_rem_pio2f+0x268>
   1297c:	001a0793          	addi	a5,s4,1
   12980:	00078e93          	mv	t4,a5
   12984:	00078f13          	mv	t5,a5
   12988:	c5dff06f          	j	125e4 <__kernel_rem_pio2f+0x2dc>
   1298c:	002e9793          	slli	a5,t4,0x2
   12990:	16010713          	addi	a4,sp,352
   12994:	00f707b3          	add	a5,a4,a5
   12998:	ec07a783          	lw	a5,-320(a5)
   1299c:	ff8a8a93          	addi	s5,s5,-8
   129a0:	e40790e3          	bnez	a5,127e0 <__kernel_rem_pio2f+0x4d8>
   129a4:	002a1793          	slli	a5,s4,0x2
   129a8:	ff878793          	addi	a5,a5,-8
   129ac:	00fb07b3          	add	a5,s6,a5
   129b0:	0007a703          	lw	a4,0(a5)
   129b4:	fffe8e93          	addi	t4,t4,-1
   129b8:	ffc78793          	addi	a5,a5,-4
   129bc:	ff8a8a93          	addi	s5,s5,-8
   129c0:	fe0708e3          	beqz	a4,129b0 <__kernel_rem_pio2f+0x6a8>
   129c4:	e1dff06f          	j	127e0 <__kernel_rem_pio2f+0x4d8>
   129c8:	0008a707          	flw	fa4,0(a7)
   129cc:	00088793          	mv	a5,a7
   129d0:	ffc88893          	addi	a7,a7,-4
   129d4:	00e7f7d3          	fadd.s	fa5,fa5,fa4
   129d8:	fef318e3          	bne	t1,a5,129c8 <__kernel_rem_pio2f+0x6c0>
   129dc:	160c1863          	bnez	s8,12b4c <__kernel_rem_pio2f+0x844>
   129e0:	01012783          	lw	a5,16(sp)
   129e4:	0c012707          	flw	fa4,192(sp)
   129e8:	00f7a027          	fsw	fa5,0(a5)
   129ec:	08f777d3          	fsub.s	fa5,fa4,fa5
   129f0:	03d05463          	blez	t4,12a18 <__kernel_rem_pio2f+0x710>
   129f4:	0c410713          	addi	a4,sp,196
   129f8:	00100793          	li	a5,1
   129fc:	00072707          	flw	fa4,0(a4)
   12a00:	00178793          	addi	a5,a5,1
   12a04:	00470713          	addi	a4,a4,4
   12a08:	00e7f7d3          	fadd.s	fa5,fa5,fa4
   12a0c:	fefed8e3          	bge	t4,a5,129fc <__kernel_rem_pio2f+0x6f4>
   12a10:	000c0463          	beqz	s8,12a18 <__kernel_rem_pio2f+0x710>
   12a14:	20f797d3          	fneg.s	fa5,fa5
   12a18:	01012783          	lw	a5,16(sp)
   12a1c:	00f7a227          	fsw	fa5,4(a5)
   12a20:	ed9ff06f          	j	128f8 <__kernel_rem_pio2f+0x5f0>
   12a24:	01412703          	lw	a4,20(sp)
   12a28:	00300793          	li	a5,3
   12a2c:	ecf716e3          	bne	a4,a5,128f8 <__kernel_rem_pio2f+0x5f0>
   12a30:	040e8263          	beqz	t4,12a74 <__kernel_rem_pio2f+0x76c>
   12a34:	16010713          	addi	a4,sp,352
   12a38:	01170733          	add	a4,a4,a7
   12a3c:	002e9793          	slli	a5,t4,0x2
   12a40:	f6072707          	flw	fa4,-160(a4)
   12a44:	ffc78793          	addi	a5,a5,-4
   12a48:	00f307b3          	add	a5,t1,a5
   12a4c:	0007a787          	flw	fa5,0(a5)
   12a50:	20e706d3          	fmv.s	fa3,fa4
   12a54:	00078713          	mv	a4,a5
   12a58:	00f77753          	fadd.s	fa4,fa4,fa5
   12a5c:	ffc78793          	addi	a5,a5,-4
   12a60:	08e7f7d3          	fsub.s	fa5,fa5,fa4
   12a64:	00e7a227          	fsw	fa4,4(a5)
   12a68:	00d7f7d3          	fadd.s	fa5,fa5,fa3
   12a6c:	00f7a427          	fsw	fa5,8(a5)
   12a70:	fce31ee3          	bne	t1,a4,12a4c <__kernel_rem_pio2f+0x744>
   12a74:	00100793          	li	a5,1
   12a78:	f00007d3          	fmv.w.x	fa5,zero
   12a7c:	07d7d063          	bge	a5,t4,12adc <__kernel_rem_pio2f+0x7d4>
   12a80:	16010793          	addi	a5,sp,352
   12a84:	011788b3          	add	a7,a5,a7
   12a88:	f608a707          	flw	fa4,-160(a7)
   12a8c:	002e9793          	slli	a5,t4,0x2
   12a90:	ffc78793          	addi	a5,a5,-4
   12a94:	00f30733          	add	a4,t1,a5
   12a98:	00072787          	flw	fa5,0(a4)
   12a9c:	20e706d3          	fmv.s	fa3,fa4
   12aa0:	00070693          	mv	a3,a4
   12aa4:	00f77753          	fadd.s	fa4,fa4,fa5
   12aa8:	ffc70713          	addi	a4,a4,-4
   12aac:	08e7f7d3          	fsub.s	fa5,fa5,fa4
   12ab0:	00e72227          	fsw	fa4,4(a4)
   12ab4:	00d7f7d3          	fadd.s	fa5,fa5,fa3
   12ab8:	00f72427          	fsw	fa5,8(a4)
   12abc:	fce31ee3          	bne	t1,a4,12a98 <__kernel_rem_pio2f+0x790>
   12ac0:	f00007d3          	fmv.w.x	fa5,zero
   12ac4:	00478793          	addi	a5,a5,4
   12ac8:	00f30333          	add	t1,t1,a5
   12acc:	00032707          	flw	fa4,0(t1)
   12ad0:	ffc30313          	addi	t1,t1,-4
   12ad4:	00e7f7d3          	fadd.s	fa5,fa5,fa4
   12ad8:	fe669ae3          	bne	a3,t1,12acc <__kernel_rem_pio2f+0x7c4>
   12adc:	0c012687          	flw	fa3,192(sp)
   12ae0:	0c412707          	flw	fa4,196(sp)
   12ae4:	080c1463          	bnez	s8,12b6c <__kernel_rem_pio2f+0x864>
   12ae8:	01012783          	lw	a5,16(sp)
   12aec:	00d7a027          	fsw	fa3,0(a5)
   12af0:	00e7a227          	fsw	fa4,4(a5)
   12af4:	00f7a427          	fsw	fa5,8(a5)
   12af8:	e01ff06f          	j	128f8 <__kernel_rem_pio2f+0x5f0>
   12afc:	fffa0793          	addi	a5,s4,-1
   12b00:	16010713          	addi	a4,sp,352
   12b04:	00279793          	slli	a5,a5,0x2
   12b08:	00f707b3          	add	a5,a4,a5
   12b0c:	ec07a703          	lw	a4,-320(a5)
   12b10:	07f77713          	andi	a4,a4,127
   12b14:	ece7a023          	sw	a4,-320(a5)
   12b18:	c3dff06f          	j	12754 <__kernel_rem_pio2f+0x44c>
   12b1c:	00800793          	li	a5,8
   12b20:	00f12c23          	sw	a5,24(sp)
   12b24:	00012023          	sw	zero,0(sp)
   12b28:	895ff06f          	j	123bc <__kernel_rem_pio2f+0xb4>
   12b2c:	00000e93          	li	t4,0
   12b30:	bf5ff06f          	j	12724 <__kernel_rem_pio2f+0x41c>
   12b34:	c00517d3          	fcvt.w.s	a5,fa0,rtz
   12b38:	16010713          	addi	a4,sp,352
   12b3c:	01370fb3          	add	t6,a4,s3
   12b40:	000a0e93          	mv	t4,s4
   12b44:	ecffa023          	sw	a5,-320(t6)
   12b48:	c99ff06f          	j	127e0 <__kernel_rem_pio2f+0x4d8>
   12b4c:	20f79753          	fneg.s	fa4,fa5
   12b50:	01012783          	lw	a5,16(sp)
   12b54:	00e7a027          	fsw	fa4,0(a5)
   12b58:	0c012707          	flw	fa4,192(sp)
   12b5c:	08f777d3          	fsub.s	fa5,fa4,fa5
   12b60:	e9d04ae3          	bgtz	t4,129f4 <__kernel_rem_pio2f+0x6ec>
   12b64:	20f797d3          	fneg.s	fa5,fa5
   12b68:	eb1ff06f          	j	12a18 <__kernel_rem_pio2f+0x710>
   12b6c:	01012783          	lw	a5,16(sp)
   12b70:	20d696d3          	fneg.s	fa3,fa3
   12b74:	20e71753          	fneg.s	fa4,fa4
   12b78:	20f797d3          	fneg.s	fa5,fa5
   12b7c:	00d7a027          	fsw	fa3,0(a5)
   12b80:	00e7a227          	fsw	fa4,4(a5)
   12b84:	00f7a427          	fsw	fa5,8(a5)
   12b88:	d71ff06f          	j	128f8 <__kernel_rem_pio2f+0x5f0>
   12b8c:	01412703          	lw	a4,20(sp)
   12b90:	00200793          	li	a5,2
   12b94:	00e7cc63          	blt	a5,a4,12bac <__kernel_rem_pio2f+0x8a4>
   12b98:	f00007d3          	fmv.w.x	fa5,zero
   12b9c:	e4e040e3          	bgtz	a4,129dc <__kernel_rem_pio2f+0x6d4>
   12ba0:	d4071ce3          	bnez	a4,128f8 <__kernel_rem_pio2f+0x5f0>
   12ba4:	d40c06e3          	beqz	s8,128f0 <__kernel_rem_pio2f+0x5e8>
   12ba8:	d45ff06f          	j	128ec <__kernel_rem_pio2f+0x5e4>
   12bac:	01412703          	lw	a4,20(sp)
   12bb0:	00300793          	li	a5,3
   12bb4:	f00007d3          	fmv.w.x	fa5,zero
   12bb8:	f2f702e3          	beq	a4,a5,12adc <__kernel_rem_pio2f+0x7d4>
   12bbc:	d3dff06f          	j	128f8 <__kernel_rem_pio2f+0x5f0>

00012bc0 <__kernel_sinf>:
   12bc0:	e00507d3          	fmv.x.w	a5,fa0
   12bc4:	320006b7          	lui	a3,0x32000
   12bc8:	00179713          	slli	a4,a5,0x1
   12bcc:	00175713          	srli	a4,a4,0x1
   12bd0:	00d75663          	bge	a4,a3,12bdc <__kernel_sinf+0x1c>
   12bd4:	c0051753          	fcvt.w.s	a4,fa0,rtz
   12bd8:	06070863          	beqz	a4,12c48 <__kernel_sinf+0x88>
   12bdc:	f00787d3          	fmv.w.x	fa5,a5
   12be0:	10f7f753          	fmul.s	fa4,fa5,fa5
   12be4:	cb01a787          	flw	fa5,-848(gp) # 16840 <__SDATA_BEGIN__+0x58>
   12be8:	cb41a687          	flw	fa3,-844(gp) # 16844 <__SDATA_BEGIN__+0x5c>
   12bec:	68f777c3          	fmadd.s	fa5,fa4,fa5,fa3
   12bf0:	cb81a687          	flw	fa3,-840(gp) # 16848 <__SDATA_BEGIN__+0x60>
   12bf4:	68e7f7c3          	fmadd.s	fa5,fa5,fa4,fa3
   12bf8:	f00786d3          	fmv.w.x	fa3,a5
   12bfc:	10e6f553          	fmul.s	fa0,fa3,fa4
   12c00:	cbc1a687          	flw	fa3,-836(gp) # 1684c <__SDATA_BEGIN__+0x64>
   12c04:	68e7f7c3          	fmadd.s	fa5,fa5,fa4,fa3
   12c08:	cc01a687          	flw	fa3,-832(gp) # 16850 <__SDATA_BEGIN__+0x68>
   12c0c:	68e7f7c3          	fmadd.s	fa5,fa5,fa4,fa3
   12c10:	00051c63          	bnez	a0,12c28 <__kernel_sinf+0x68>
   12c14:	cc41a687          	flw	fa3,-828(gp) # 16854 <__SDATA_BEGIN__+0x6c>
   12c18:	68f777c3          	fmadd.s	fa5,fa4,fa5,fa3
   12c1c:	f0078753          	fmv.w.x	fa4,a5
   12c20:	70a7f543          	fmadd.s	fa0,fa5,fa0,fa4
   12c24:	00008067          	ret
   12c28:	10f577d3          	fmul.s	fa5,fa0,fa5
   12c2c:	c6c1a687          	flw	fa3,-916(gp) # 167fc <__SDATA_BEGIN__+0x14>
   12c30:	78d5f7c7          	fmsub.s	fa5,fa1,fa3,fa5
   12c34:	58e7f5c7          	fmsub.s	fa1,fa5,fa4,fa1
   12c38:	cc81a787          	flw	fa5,-824(gp) # 16858 <__SDATA_BEGIN__+0x70>
   12c3c:	58f57543          	fmadd.s	fa0,fa0,fa5,fa1
   12c40:	f00787d3          	fmv.w.x	fa5,a5
   12c44:	08a7f553          	fsub.s	fa0,fa5,fa0
   12c48:	00008067          	ret

00012c4c <fabsf>:
   12c4c:	20a52553          	fabs.s	fa0,fa0
   12c50:	00008067          	ret

00012c54 <floorf>:
   12c54:	e00507d3          	fmv.x.w	a5,fa0
   12c58:	01600613          	li	a2,22
   12c5c:	00179693          	slli	a3,a5,0x1
   12c60:	0186d713          	srli	a4,a3,0x18
   12c64:	f8170713          	addi	a4,a4,-127
   12c68:	00078593          	mv	a1,a5
   12c6c:	0016d693          	srli	a3,a3,0x1
   12c70:	08e64063          	blt	a2,a4,12cf0 <floorf+0x9c>
   12c74:	04074663          	bltz	a4,12cc0 <floorf+0x6c>
   12c78:	00800537          	lui	a0,0x800
   12c7c:	fff50693          	addi	a3,a0,-1 # 7fffff <__BSS_END__+0x7e9457>
   12c80:	40e6d6b3          	sra	a3,a3,a4
   12c84:	00f6f833          	and	a6,a3,a5
   12c88:	e0050653          	fmv.x.w	a2,fa0
   12c8c:	02080663          	beqz	a6,12cb8 <floorf+0x64>
   12c90:	cd01a787          	flw	fa5,-816(gp) # 16860 <__SDATA_BEGIN__+0x78>
   12c94:	f0000753          	fmv.w.x	fa4,zero
   12c98:	00f577d3          	fadd.s	fa5,fa0,fa5
   12c9c:	a0f71853          	flt.s	a6,fa4,fa5
   12ca0:	00080c63          	beqz	a6,12cb8 <floorf+0x64>
   12ca4:	0007d663          	bgez	a5,12cb0 <floorf+0x5c>
   12ca8:	40e55733          	sra	a4,a0,a4
   12cac:	00f705b3          	add	a1,a4,a5
   12cb0:	fff6c693          	not	a3,a3
   12cb4:	00b6f633          	and	a2,a3,a1
   12cb8:	f0060553          	fmv.w.x	fa0,a2
   12cbc:	00008067          	ret
   12cc0:	cd01a787          	flw	fa5,-816(gp) # 16860 <__SDATA_BEGIN__+0x78>
   12cc4:	f0000753          	fmv.w.x	fa4,zero
   12cc8:	e0050653          	fmv.x.w	a2,fa0
   12ccc:	00f577d3          	fadd.s	fa5,fa0,fa5
   12cd0:	a0f71753          	flt.s	a4,fa4,fa5
   12cd4:	fe0702e3          	beqz	a4,12cb8 <floorf+0x64>
   12cd8:	e0070653          	fmv.x.w	a2,fa4
   12cdc:	fc07dee3          	bgez	a5,12cb8 <floorf+0x64>
   12ce0:	e0050653          	fmv.x.w	a2,fa0
   12ce4:	fc068ae3          	beqz	a3,12cb8 <floorf+0x64>
   12ce8:	ccc1a603          	lw	a2,-820(gp) # 1685c <__SDATA_BEGIN__+0x74>
   12cec:	fcdff06f          	j	12cb8 <floorf+0x64>
   12cf0:	7f800737          	lui	a4,0x7f800
   12cf4:	e0050653          	fmv.x.w	a2,fa0
   12cf8:	fce6e0e3          	bltu	a3,a4,12cb8 <floorf+0x64>
   12cfc:	00a577d3          	fadd.s	fa5,fa0,fa0
   12d00:	e0078653          	fmv.x.w	a2,fa5
   12d04:	f0060553          	fmv.w.x	fa0,a2
   12d08:	00008067          	ret

00012d0c <scalbnf>:
   12d0c:	e00507d3          	fmv.x.w	a5,fa0
   12d10:	00179693          	slli	a3,a5,0x1
   12d14:	0016d713          	srli	a4,a3,0x1
   12d18:	04068e63          	beqz	a3,12d74 <scalbnf+0x68>
   12d1c:	7f8006b7          	lui	a3,0x7f800
   12d20:	04d77e63          	bgeu	a4,a3,12d7c <scalbnf+0x70>
   12d24:	00d7f633          	and	a2,a5,a3
   12d28:	06061263          	bnez	a2,12d8c <scalbnf+0x80>
   12d2c:	cd41a787          	flw	fa5,-812(gp) # 16864 <__SDATA_BEGIN__+0x7c>
   12d30:	ffff4737          	lui	a4,0xffff4
   12d34:	cb070713          	addi	a4,a4,-848 # ffff3cb0 <__BSS_END__+0xfffdd108>
   12d38:	10f577d3          	fmul.s	fa5,fa0,fa5
   12d3c:	e00787d3          	fmv.x.w	a5,fa5
   12d40:	0ae54663          	blt	a0,a4,12dec <scalbnf+0xe0>
   12d44:	4177d713          	srai	a4,a5,0x17
   12d48:	0ff77713          	andi	a4,a4,255
   12d4c:	fe770713          	addi	a4,a4,-25
   12d50:	00a70733          	add	a4,a4,a0
   12d54:	0fe00613          	li	a2,254
   12d58:	00078693          	mv	a3,a5
   12d5c:	04e65263          	bge	a2,a4,12da0 <scalbnf+0x94>
   12d60:	cd01a707          	flw	fa4,-816(gp) # 16860 <__SDATA_BEGIN__+0x78>
   12d64:	f00787d3          	fmv.w.x	fa5,a5
   12d68:	20f707d3          	fsgnj.s	fa5,fa4,fa5
   12d6c:	10e7f7d3          	fmul.s	fa5,fa5,fa4
   12d70:	e00787d3          	fmv.x.w	a5,fa5
   12d74:	f0078553          	fmv.w.x	fa0,a5
   12d78:	00008067          	ret
   12d7c:	00a577d3          	fadd.s	fa5,fa0,fa0
   12d80:	e00787d3          	fmv.x.w	a5,fa5
   12d84:	f0078553          	fmv.w.x	fa0,a5
   12d88:	00008067          	ret
   12d8c:	01775713          	srli	a4,a4,0x17
   12d90:	00a70733          	add	a4,a4,a0
   12d94:	0fe00613          	li	a2,254
   12d98:	00078693          	mv	a3,a5
   12d9c:	fce642e3          	blt	a2,a4,12d60 <scalbnf+0x54>
   12da0:	02e04863          	bgtz	a4,12dd0 <scalbnf+0xc4>
   12da4:	fea00613          	li	a2,-22
   12da8:	04c75c63          	bge	a4,a2,12e00 <scalbnf+0xf4>
   12dac:	0000c737          	lui	a4,0xc
   12db0:	35070713          	addi	a4,a4,848 # c350 <main-0x3d24>
   12db4:	faa746e3          	blt	a4,a0,12d60 <scalbnf+0x54>
   12db8:	cd81a707          	flw	fa4,-808(gp) # 16868 <__SDATA_BEGIN__+0x80>
   12dbc:	f00787d3          	fmv.w.x	fa5,a5
   12dc0:	20f707d3          	fsgnj.s	fa5,fa4,fa5
   12dc4:	10e7f7d3          	fmul.s	fa5,fa5,fa4
   12dc8:	e00787d3          	fmv.x.w	a5,fa5
   12dcc:	fa9ff06f          	j	12d74 <scalbnf+0x68>
   12dd0:	808007b7          	lui	a5,0x80800
   12dd4:	fff78793          	addi	a5,a5,-1 # 807fffff <__BSS_END__+0x807e9457>
   12dd8:	00f6f6b3          	and	a3,a3,a5
   12ddc:	01771793          	slli	a5,a4,0x17
   12de0:	00f6e7b3          	or	a5,a3,a5
   12de4:	f0078553          	fmv.w.x	fa0,a5
   12de8:	00008067          	ret
   12dec:	f0078753          	fmv.w.x	fa4,a5
   12df0:	cd81a787          	flw	fa5,-808(gp) # 16868 <__SDATA_BEGIN__+0x80>
   12df4:	10f777d3          	fmul.s	fa5,fa4,fa5
   12df8:	e00787d3          	fmv.x.w	a5,fa5
   12dfc:	f79ff06f          	j	12d74 <scalbnf+0x68>
   12e00:	01970793          	addi	a5,a4,25
   12e04:	80800737          	lui	a4,0x80800
   12e08:	fff70713          	addi	a4,a4,-1 # 807fffff <__BSS_END__+0x807e9457>
   12e0c:	00e6f6b3          	and	a3,a3,a4
   12e10:	01779793          	slli	a5,a5,0x17
   12e14:	00d7e7b3          	or	a5,a5,a3
   12e18:	f0078753          	fmv.w.x	fa4,a5
   12e1c:	cdc1a787          	flw	fa5,-804(gp) # 1686c <__SDATA_BEGIN__+0x84>
   12e20:	10f777d3          	fmul.s	fa5,fa4,fa5
   12e24:	e00787d3          	fmv.x.w	a5,fa5
   12e28:	f4dff06f          	j	12d74 <scalbnf+0x68>

00012e2c <__udivdi3>:
#endif

#ifdef L_udivdi3
UDWtype
__udivdi3 (UDWtype n, UDWtype d)
{
   12e2c:	00050893          	mv	a7,a0
   12e30:	00058793          	mv	a5,a1
  d0 = dd.s.low;
   12e34:	00060813          	mv	a6,a2
  d1 = dd.s.high;
   12e38:	00068513          	mv	a0,a3
  n0 = nn.s.low;
   12e3c:	00088313          	mv	t1,a7
  if (d1 == 0)
   12e40:	28069463          	bnez	a3,130c8 <__udivdi3+0x29c>
      if (d0 > n1)
   12e44:	000156b7          	lui	a3,0x15
   12e48:	3e868693          	addi	a3,a3,1000 # 153e8 <__clz_tab>
   12e4c:	0ec5f663          	bgeu	a1,a2,12f38 <__udivdi3+0x10c>
	  count_leading_zeros (bm, d0);
   12e50:	00010737          	lui	a4,0x10
   12e54:	0ce67863          	bgeu	a2,a4,12f24 <__udivdi3+0xf8>
   12e58:	0ff00713          	li	a4,255
   12e5c:	00c73733          	sltu	a4,a4,a2
   12e60:	00371713          	slli	a4,a4,0x3
   12e64:	00e65533          	srl	a0,a2,a4
   12e68:	00a686b3          	add	a3,a3,a0
   12e6c:	0006c683          	lbu	a3,0(a3)
   12e70:	02000513          	li	a0,32
   12e74:	00e68733          	add	a4,a3,a4
   12e78:	40e506b3          	sub	a3,a0,a4
	  if (bm != 0)
   12e7c:	00e50c63          	beq	a0,a4,12e94 <__udivdi3+0x68>
	      n1 = (n1 << bm) | (n0 >> (W_TYPE_SIZE - bm));
   12e80:	00d795b3          	sll	a1,a5,a3
   12e84:	00e8d733          	srl	a4,a7,a4
	      d0 = d0 << bm;
   12e88:	00d61833          	sll	a6,a2,a3
	      n1 = (n1 << bm) | (n0 >> (W_TYPE_SIZE - bm));
   12e8c:	00b765b3          	or	a1,a4,a1
	      n0 = n0 << bm;
   12e90:	00d89333          	sll	t1,a7,a3
	  udiv_qrnnd (q0, n0, n1, n0, d0);
   12e94:	01085893          	srli	a7,a6,0x10
   12e98:	0315d6b3          	divu	a3,a1,a7
   12e9c:	01081613          	slli	a2,a6,0x10
   12ea0:	01065613          	srli	a2,a2,0x10
   12ea4:	01035793          	srli	a5,t1,0x10
   12ea8:	0315f733          	remu	a4,a1,a7
   12eac:	00068513          	mv	a0,a3
   12eb0:	02d605b3          	mul	a1,a2,a3
   12eb4:	01071713          	slli	a4,a4,0x10
   12eb8:	00f767b3          	or	a5,a4,a5
   12ebc:	00b7fe63          	bgeu	a5,a1,12ed8 <__udivdi3+0xac>
   12ec0:	010787b3          	add	a5,a5,a6
   12ec4:	fff68513          	addi	a0,a3,-1
   12ec8:	0107e863          	bltu	a5,a6,12ed8 <__udivdi3+0xac>
   12ecc:	00b7f663          	bgeu	a5,a1,12ed8 <__udivdi3+0xac>
   12ed0:	ffe68513          	addi	a0,a3,-2
   12ed4:	010787b3          	add	a5,a5,a6
   12ed8:	40b787b3          	sub	a5,a5,a1
   12edc:	0317f733          	remu	a4,a5,a7
   12ee0:	01031313          	slli	t1,t1,0x10
   12ee4:	01035313          	srli	t1,t1,0x10
   12ee8:	0317d7b3          	divu	a5,a5,a7
   12eec:	01071713          	slli	a4,a4,0x10
   12ef0:	00676333          	or	t1,a4,t1
   12ef4:	02f606b3          	mul	a3,a2,a5
   12ef8:	00078613          	mv	a2,a5
   12efc:	00d37c63          	bgeu	t1,a3,12f14 <__udivdi3+0xe8>
   12f00:	00680333          	add	t1,a6,t1
   12f04:	fff78613          	addi	a2,a5,-1
   12f08:	01036663          	bltu	t1,a6,12f14 <__udivdi3+0xe8>
   12f0c:	00d37463          	bgeu	t1,a3,12f14 <__udivdi3+0xe8>
   12f10:	ffe78613          	addi	a2,a5,-2
   12f14:	01051513          	slli	a0,a0,0x10
   12f18:	00c56533          	or	a0,a0,a2
	      q1 = 0;
   12f1c:	00000593          	li	a1,0
   12f20:	0e40006f          	j	13004 <__udivdi3+0x1d8>
	  count_leading_zeros (bm, d0);
   12f24:	01000537          	lui	a0,0x1000
   12f28:	01000713          	li	a4,16
   12f2c:	f2a66ce3          	bltu	a2,a0,12e64 <__udivdi3+0x38>
   12f30:	01800713          	li	a4,24
   12f34:	f31ff06f          	j	12e64 <__udivdi3+0x38>
	  if (d0 == 0)
   12f38:	00061663          	bnez	a2,12f44 <__udivdi3+0x118>
	    d0 = 1 / d0;	/* Divide intentionally by zero.  */
   12f3c:	00100713          	li	a4,1
   12f40:	02c75833          	divu	a6,a4,a2
	  count_leading_zeros (bm, d0);
   12f44:	00010737          	lui	a4,0x10
   12f48:	0ce87063          	bgeu	a6,a4,13008 <__udivdi3+0x1dc>
   12f4c:	0ff00713          	li	a4,255
   12f50:	01077463          	bgeu	a4,a6,12f58 <__udivdi3+0x12c>
   12f54:	00800513          	li	a0,8
   12f58:	00a85733          	srl	a4,a6,a0
   12f5c:	00e686b3          	add	a3,a3,a4
   12f60:	0006c703          	lbu	a4,0(a3)
   12f64:	02000613          	li	a2,32
   12f68:	00a70733          	add	a4,a4,a0
   12f6c:	40e606b3          	sub	a3,a2,a4
	  if (bm == 0)
   12f70:	0ae61663          	bne	a2,a4,1301c <__udivdi3+0x1f0>
	      n1 -= d0;
   12f74:	410787b3          	sub	a5,a5,a6
	      q1 = 1;
   12f78:	00100593          	li	a1,1
	  udiv_qrnnd (q0, n0, n1, n0, d0);
   12f7c:	01085893          	srli	a7,a6,0x10
   12f80:	01081613          	slli	a2,a6,0x10
   12f84:	01065613          	srli	a2,a2,0x10
   12f88:	01035713          	srli	a4,t1,0x10
   12f8c:	0317f6b3          	remu	a3,a5,a7
   12f90:	0317d7b3          	divu	a5,a5,a7
   12f94:	01069693          	slli	a3,a3,0x10
   12f98:	00e6e733          	or	a4,a3,a4
   12f9c:	02f60e33          	mul	t3,a2,a5
   12fa0:	00078513          	mv	a0,a5
   12fa4:	01c77e63          	bgeu	a4,t3,12fc0 <__udivdi3+0x194>
   12fa8:	01070733          	add	a4,a4,a6
   12fac:	fff78513          	addi	a0,a5,-1
   12fb0:	01076863          	bltu	a4,a6,12fc0 <__udivdi3+0x194>
   12fb4:	01c77663          	bgeu	a4,t3,12fc0 <__udivdi3+0x194>
   12fb8:	ffe78513          	addi	a0,a5,-2
   12fbc:	01070733          	add	a4,a4,a6
   12fc0:	41c70733          	sub	a4,a4,t3
   12fc4:	031777b3          	remu	a5,a4,a7
   12fc8:	01031313          	slli	t1,t1,0x10
   12fcc:	01035313          	srli	t1,t1,0x10
   12fd0:	03175733          	divu	a4,a4,a7
   12fd4:	01079793          	slli	a5,a5,0x10
   12fd8:	0067e333          	or	t1,a5,t1
   12fdc:	02e606b3          	mul	a3,a2,a4
   12fe0:	00070613          	mv	a2,a4
   12fe4:	00d37c63          	bgeu	t1,a3,12ffc <__udivdi3+0x1d0>
   12fe8:	00680333          	add	t1,a6,t1
   12fec:	fff70613          	addi	a2,a4,-1 # ffff <main-0x75>
   12ff0:	01036663          	bltu	t1,a6,12ffc <__udivdi3+0x1d0>
   12ff4:	00d37463          	bgeu	t1,a3,12ffc <__udivdi3+0x1d0>
   12ff8:	ffe70613          	addi	a2,a4,-2
   12ffc:	01051513          	slli	a0,a0,0x10
   13000:	00c56533          	or	a0,a0,a2
  return __udivmoddi4 (n, d, (UDWtype *) 0);
}
   13004:	00008067          	ret
	  count_leading_zeros (bm, d0);
   13008:	01000737          	lui	a4,0x1000
   1300c:	01000513          	li	a0,16
   13010:	f4e864e3          	bltu	a6,a4,12f58 <__udivdi3+0x12c>
   13014:	01800513          	li	a0,24
   13018:	f41ff06f          	j	12f58 <__udivdi3+0x12c>
	      d0 = d0 << bm;
   1301c:	00d81833          	sll	a6,a6,a3
	      n2 = n1 >> b;
   13020:	00e7d533          	srl	a0,a5,a4
	      n0 = n0 << bm;
   13024:	00d89333          	sll	t1,a7,a3
	      n1 = (n1 << bm) | (n0 >> b);
   13028:	00d797b3          	sll	a5,a5,a3
   1302c:	00e8d733          	srl	a4,a7,a4
	      udiv_qrnnd (q1, n1, n2, n1, d0);
   13030:	01085893          	srli	a7,a6,0x10
	      n1 = (n1 << bm) | (n0 >> b);
   13034:	00f76633          	or	a2,a4,a5
	      udiv_qrnnd (q1, n1, n2, n1, d0);
   13038:	03157733          	remu	a4,a0,a7
   1303c:	01081793          	slli	a5,a6,0x10
   13040:	0107d793          	srli	a5,a5,0x10
   13044:	01065593          	srli	a1,a2,0x10
   13048:	03155533          	divu	a0,a0,a7
   1304c:	01071713          	slli	a4,a4,0x10
   13050:	00b76733          	or	a4,a4,a1
   13054:	02a786b3          	mul	a3,a5,a0
   13058:	00050593          	mv	a1,a0
   1305c:	00d77e63          	bgeu	a4,a3,13078 <__udivdi3+0x24c>
   13060:	01070733          	add	a4,a4,a6
   13064:	fff50593          	addi	a1,a0,-1 # ffffff <__BSS_END__+0xfe9457>
   13068:	01076863          	bltu	a4,a6,13078 <__udivdi3+0x24c>
   1306c:	00d77663          	bgeu	a4,a3,13078 <__udivdi3+0x24c>
   13070:	ffe50593          	addi	a1,a0,-2
   13074:	01070733          	add	a4,a4,a6
   13078:	40d706b3          	sub	a3,a4,a3
   1307c:	0316f733          	remu	a4,a3,a7
   13080:	01061613          	slli	a2,a2,0x10
   13084:	01065613          	srli	a2,a2,0x10
   13088:	0316d6b3          	divu	a3,a3,a7
   1308c:	01071713          	slli	a4,a4,0x10
   13090:	02d78533          	mul	a0,a5,a3
   13094:	00c767b3          	or	a5,a4,a2
   13098:	00068713          	mv	a4,a3
   1309c:	00a7fe63          	bgeu	a5,a0,130b8 <__udivdi3+0x28c>
   130a0:	010787b3          	add	a5,a5,a6
   130a4:	fff68713          	addi	a4,a3,-1
   130a8:	0107e863          	bltu	a5,a6,130b8 <__udivdi3+0x28c>
   130ac:	00a7f663          	bgeu	a5,a0,130b8 <__udivdi3+0x28c>
   130b0:	ffe68713          	addi	a4,a3,-2
   130b4:	010787b3          	add	a5,a5,a6
   130b8:	01059593          	slli	a1,a1,0x10
   130bc:	40a787b3          	sub	a5,a5,a0
   130c0:	00e5e5b3          	or	a1,a1,a4
   130c4:	eb9ff06f          	j	12f7c <__udivdi3+0x150>
      if (d1 > n1)
   130c8:	18d5e663          	bltu	a1,a3,13254 <__udivdi3+0x428>
	  count_leading_zeros (bm, d1);
   130cc:	00010737          	lui	a4,0x10
   130d0:	04e6f463          	bgeu	a3,a4,13118 <__udivdi3+0x2ec>
   130d4:	0ff00713          	li	a4,255
   130d8:	00d735b3          	sltu	a1,a4,a3
   130dc:	00359593          	slli	a1,a1,0x3
   130e0:	00015737          	lui	a4,0x15
   130e4:	00b6d533          	srl	a0,a3,a1
   130e8:	3e870713          	addi	a4,a4,1000 # 153e8 <__clz_tab>
   130ec:	00a70733          	add	a4,a4,a0
   130f0:	00074703          	lbu	a4,0(a4)
   130f4:	02000513          	li	a0,32
   130f8:	00b70733          	add	a4,a4,a1
   130fc:	40e505b3          	sub	a1,a0,a4
	  if (bm == 0)
   13100:	02e51663          	bne	a0,a4,1312c <__udivdi3+0x300>
		  q0 = 1;
   13104:	00100513          	li	a0,1
	      if (n1 > d1 || n0 >= d0)
   13108:	eef6eee3          	bltu	a3,a5,13004 <__udivdi3+0x1d8>
   1310c:	00c8b533          	sltu	a0,a7,a2
   13110:	00154513          	xori	a0,a0,1
   13114:	ef1ff06f          	j	13004 <__udivdi3+0x1d8>
	  count_leading_zeros (bm, d1);
   13118:	01000737          	lui	a4,0x1000
   1311c:	01000593          	li	a1,16
   13120:	fce6e0e3          	bltu	a3,a4,130e0 <__udivdi3+0x2b4>
   13124:	01800593          	li	a1,24
   13128:	fb9ff06f          	j	130e0 <__udivdi3+0x2b4>
	      d1 = (d1 << bm) | (d0 >> b);
   1312c:	00e65833          	srl	a6,a2,a4
   13130:	00b696b3          	sll	a3,a3,a1
   13134:	00d86833          	or	a6,a6,a3
	      n2 = n1 >> b;
   13138:	00e7de33          	srl	t3,a5,a4
	      udiv_qrnnd (q0, n1, n2, n1, d1);
   1313c:	01085e93          	srli	t4,a6,0x10
   13140:	03de76b3          	remu	a3,t3,t4
	      n1 = (n1 << bm) | (n0 >> b);
   13144:	00b797b3          	sll	a5,a5,a1
   13148:	00e8d733          	srl	a4,a7,a4
	      d0 = d0 << bm;
   1314c:	00b61333          	sll	t1,a2,a1
	      n1 = (n1 << bm) | (n0 >> b);
   13150:	00f76633          	or	a2,a4,a5
	      udiv_qrnnd (q0, n1, n2, n1, d1);
   13154:	01081793          	slli	a5,a6,0x10
   13158:	0107d793          	srli	a5,a5,0x10
   1315c:	01065713          	srli	a4,a2,0x10
   13160:	03de5e33          	divu	t3,t3,t4
   13164:	01069693          	slli	a3,a3,0x10
   13168:	00e6e733          	or	a4,a3,a4
   1316c:	03c78f33          	mul	t5,a5,t3
   13170:	000e0513          	mv	a0,t3
   13174:	01e77e63          	bgeu	a4,t5,13190 <__udivdi3+0x364>
   13178:	01070733          	add	a4,a4,a6
   1317c:	fffe0513          	addi	a0,t3,-1
   13180:	01076863          	bltu	a4,a6,13190 <__udivdi3+0x364>
   13184:	01e77663          	bgeu	a4,t5,13190 <__udivdi3+0x364>
   13188:	ffee0513          	addi	a0,t3,-2
   1318c:	01070733          	add	a4,a4,a6
   13190:	41e70733          	sub	a4,a4,t5
   13194:	03d776b3          	remu	a3,a4,t4
   13198:	03d75733          	divu	a4,a4,t4
   1319c:	01069693          	slli	a3,a3,0x10
   131a0:	02e78e33          	mul	t3,a5,a4
   131a4:	01061793          	slli	a5,a2,0x10
   131a8:	0107d793          	srli	a5,a5,0x10
   131ac:	00f6e7b3          	or	a5,a3,a5
   131b0:	00070613          	mv	a2,a4
   131b4:	01c7fe63          	bgeu	a5,t3,131d0 <__udivdi3+0x3a4>
   131b8:	010787b3          	add	a5,a5,a6
   131bc:	fff70613          	addi	a2,a4,-1 # ffffff <__BSS_END__+0xfe9457>
   131c0:	0107e863          	bltu	a5,a6,131d0 <__udivdi3+0x3a4>
   131c4:	01c7f663          	bgeu	a5,t3,131d0 <__udivdi3+0x3a4>
   131c8:	ffe70613          	addi	a2,a4,-2
   131cc:	010787b3          	add	a5,a5,a6
   131d0:	01051513          	slli	a0,a0,0x10
	      umul_ppmm (m1, m0, q0, d0);
   131d4:	00010eb7          	lui	t4,0x10
	      udiv_qrnnd (q0, n1, n2, n1, d1);
   131d8:	00c56533          	or	a0,a0,a2
	      umul_ppmm (m1, m0, q0, d0);
   131dc:	fffe8693          	addi	a3,t4,-1 # ffff <main-0x75>
   131e0:	00d57833          	and	a6,a0,a3
   131e4:	01055613          	srli	a2,a0,0x10
   131e8:	00d376b3          	and	a3,t1,a3
   131ec:	01035313          	srli	t1,t1,0x10
	      udiv_qrnnd (q0, n1, n2, n1, d1);
   131f0:	41c787b3          	sub	a5,a5,t3
	      umul_ppmm (m1, m0, q0, d0);
   131f4:	02d80e33          	mul	t3,a6,a3
   131f8:	02d606b3          	mul	a3,a2,a3
   131fc:	010e5713          	srli	a4,t3,0x10
   13200:	02680833          	mul	a6,a6,t1
   13204:	00d80833          	add	a6,a6,a3
   13208:	01070733          	add	a4,a4,a6
   1320c:	02660633          	mul	a2,a2,t1
   13210:	00d77463          	bgeu	a4,a3,13218 <__udivdi3+0x3ec>
   13214:	01d60633          	add	a2,a2,t4
   13218:	01075693          	srli	a3,a4,0x10
   1321c:	00c68633          	add	a2,a3,a2
	      if (m1 > n1 || (m1 == n1 && m0 > n0))
   13220:	02c7e663          	bltu	a5,a2,1324c <__udivdi3+0x420>
   13224:	cec79ce3          	bne	a5,a2,12f1c <__udivdi3+0xf0>
	      umul_ppmm (m1, m0, q0, d0);
   13228:	000107b7          	lui	a5,0x10
   1322c:	fff78793          	addi	a5,a5,-1 # ffff <main-0x75>
   13230:	00f77733          	and	a4,a4,a5
   13234:	01071713          	slli	a4,a4,0x10
   13238:	00fe7e33          	and	t3,t3,a5
	      n0 = n0 << bm;
   1323c:	00b898b3          	sll	a7,a7,a1
	      umul_ppmm (m1, m0, q0, d0);
   13240:	01c70733          	add	a4,a4,t3
	      q1 = 0;
   13244:	00000593          	li	a1,0
	      if (m1 > n1 || (m1 == n1 && m0 > n0))
   13248:	dae8fee3          	bgeu	a7,a4,13004 <__udivdi3+0x1d8>
		  q0--;
   1324c:	fff50513          	addi	a0,a0,-1
		  sub_ddmmss (m1, m0, m1, m0, d1, d0);
   13250:	ccdff06f          	j	12f1c <__udivdi3+0xf0>
	  q1 = 0;
   13254:	00000593          	li	a1,0
	  q0 = 0;
   13258:	00000513          	li	a0,0
   1325c:	da9ff06f          	j	13004 <__udivdi3+0x1d8>

00013260 <__errno>:
   13260:	ce41a503          	lw	a0,-796(gp) # 16874 <_impure_ptr>
   13264:	00008067          	ret

00013268 <exit>:
   13268:	ff010113          	addi	sp,sp,-16
   1326c:	00000593          	li	a1,0
   13270:	00812423          	sw	s0,8(sp)
   13274:	00112623          	sw	ra,12(sp)
   13278:	00050413          	mv	s0,a0
   1327c:	2bc000ef          	jal	ra,13538 <__call_exitprocs>
   13280:	ce01a503          	lw	a0,-800(gp) # 16870 <_global_impure_ptr>
   13284:	03c52783          	lw	a5,60(a0)
   13288:	00078463          	beqz	a5,13290 <exit+0x28>
   1328c:	000780e7          	jalr	a5
   13290:	00040513          	mv	a0,s0
   13294:	4cc000ef          	jal	ra,13760 <_exit>

00013298 <__libc_init_array>:
   13298:	ff010113          	addi	sp,sp,-16
   1329c:	00812423          	sw	s0,8(sp)
   132a0:	01212023          	sw	s2,0(sp)
   132a4:	00016437          	lui	s0,0x16
   132a8:	00016937          	lui	s2,0x16
   132ac:	37c40793          	addi	a5,s0,892 # 1637c <__init_array_start>
   132b0:	37c90913          	addi	s2,s2,892 # 1637c <__init_array_start>
   132b4:	40f90933          	sub	s2,s2,a5
   132b8:	00112623          	sw	ra,12(sp)
   132bc:	00912223          	sw	s1,4(sp)
   132c0:	40295913          	srai	s2,s2,0x2
   132c4:	02090063          	beqz	s2,132e4 <__libc_init_array+0x4c>
   132c8:	37c40413          	addi	s0,s0,892
   132cc:	00000493          	li	s1,0
   132d0:	00042783          	lw	a5,0(s0)
   132d4:	00148493          	addi	s1,s1,1
   132d8:	00440413          	addi	s0,s0,4
   132dc:	000780e7          	jalr	a5
   132e0:	fe9918e3          	bne	s2,s1,132d0 <__libc_init_array+0x38>
   132e4:	00016437          	lui	s0,0x16
   132e8:	00016937          	lui	s2,0x16
   132ec:	37c40793          	addi	a5,s0,892 # 1637c <__init_array_start>
   132f0:	38890913          	addi	s2,s2,904 # 16388 <__do_global_dtors_aux_fini_array_entry>
   132f4:	40f90933          	sub	s2,s2,a5
   132f8:	40295913          	srai	s2,s2,0x2
   132fc:	02090063          	beqz	s2,1331c <__libc_init_array+0x84>
   13300:	37c40413          	addi	s0,s0,892
   13304:	00000493          	li	s1,0
   13308:	00042783          	lw	a5,0(s0)
   1330c:	00148493          	addi	s1,s1,1
   13310:	00440413          	addi	s0,s0,4
   13314:	000780e7          	jalr	a5
   13318:	fe9918e3          	bne	s2,s1,13308 <__libc_init_array+0x70>
   1331c:	00c12083          	lw	ra,12(sp)
   13320:	00812403          	lw	s0,8(sp)
   13324:	00412483          	lw	s1,4(sp)
   13328:	00012903          	lw	s2,0(sp)
   1332c:	01010113          	addi	sp,sp,16
   13330:	00008067          	ret

00013334 <memcpy>:
   13334:	00a5c7b3          	xor	a5,a1,a0
   13338:	0037f793          	andi	a5,a5,3
   1333c:	00c508b3          	add	a7,a0,a2
   13340:	06079663          	bnez	a5,133ac <memcpy+0x78>
   13344:	00300793          	li	a5,3
   13348:	06c7f263          	bgeu	a5,a2,133ac <memcpy+0x78>
   1334c:	00357793          	andi	a5,a0,3
   13350:	00050713          	mv	a4,a0
   13354:	0c079a63          	bnez	a5,13428 <memcpy+0xf4>
   13358:	ffc8f613          	andi	a2,a7,-4
   1335c:	40e606b3          	sub	a3,a2,a4
   13360:	02000793          	li	a5,32
   13364:	02000293          	li	t0,32
   13368:	06d7c263          	blt	a5,a3,133cc <memcpy+0x98>
   1336c:	00058693          	mv	a3,a1
   13370:	00070793          	mv	a5,a4
   13374:	02c77863          	bgeu	a4,a2,133a4 <memcpy+0x70>
   13378:	0006a803          	lw	a6,0(a3)
   1337c:	00478793          	addi	a5,a5,4
   13380:	00468693          	addi	a3,a3,4
   13384:	ff07ae23          	sw	a6,-4(a5)
   13388:	fec7e8e3          	bltu	a5,a2,13378 <memcpy+0x44>
   1338c:	fff60793          	addi	a5,a2,-1
   13390:	40e787b3          	sub	a5,a5,a4
   13394:	ffc7f793          	andi	a5,a5,-4
   13398:	00478793          	addi	a5,a5,4
   1339c:	00f70733          	add	a4,a4,a5
   133a0:	00f585b3          	add	a1,a1,a5
   133a4:	01176863          	bltu	a4,a7,133b4 <memcpy+0x80>
   133a8:	00008067          	ret
   133ac:	00050713          	mv	a4,a0
   133b0:	ff157ce3          	bgeu	a0,a7,133a8 <memcpy+0x74>
   133b4:	0005c783          	lbu	a5,0(a1)
   133b8:	00170713          	addi	a4,a4,1
   133bc:	00158593          	addi	a1,a1,1
   133c0:	fef70fa3          	sb	a5,-1(a4)
   133c4:	ff1768e3          	bltu	a4,a7,133b4 <memcpy+0x80>
   133c8:	00008067          	ret
   133cc:	0045a683          	lw	a3,4(a1)
   133d0:	01c5a783          	lw	a5,28(a1)
   133d4:	0005af83          	lw	t6,0(a1)
   133d8:	0085af03          	lw	t5,8(a1)
   133dc:	00c5ae83          	lw	t4,12(a1)
   133e0:	0105ae03          	lw	t3,16(a1)
   133e4:	0145a303          	lw	t1,20(a1)
   133e8:	0185a803          	lw	a6,24(a1)
   133ec:	00d72223          	sw	a3,4(a4)
   133f0:	0205a683          	lw	a3,32(a1)
   133f4:	01f72023          	sw	t6,0(a4)
   133f8:	01e72423          	sw	t5,8(a4)
   133fc:	01d72623          	sw	t4,12(a4)
   13400:	01c72823          	sw	t3,16(a4)
   13404:	00672a23          	sw	t1,20(a4)
   13408:	01072c23          	sw	a6,24(a4)
   1340c:	00f72e23          	sw	a5,28(a4)
   13410:	02470713          	addi	a4,a4,36
   13414:	40e607b3          	sub	a5,a2,a4
   13418:	fed72e23          	sw	a3,-4(a4)
   1341c:	02458593          	addi	a1,a1,36
   13420:	faf2c6e3          	blt	t0,a5,133cc <memcpy+0x98>
   13424:	f49ff06f          	j	1336c <memcpy+0x38>
   13428:	0005c683          	lbu	a3,0(a1)
   1342c:	00170713          	addi	a4,a4,1
   13430:	00377793          	andi	a5,a4,3
   13434:	fed70fa3          	sb	a3,-1(a4)
   13438:	00158593          	addi	a1,a1,1
   1343c:	f0078ee3          	beqz	a5,13358 <memcpy+0x24>
   13440:	0005c683          	lbu	a3,0(a1)
   13444:	00170713          	addi	a4,a4,1
   13448:	00377793          	andi	a5,a4,3
   1344c:	fed70fa3          	sb	a3,-1(a4)
   13450:	00158593          	addi	a1,a1,1
   13454:	fc079ae3          	bnez	a5,13428 <memcpy+0xf4>
   13458:	f01ff06f          	j	13358 <memcpy+0x24>

0001345c <memset>:
   1345c:	00f00313          	li	t1,15
   13460:	00050713          	mv	a4,a0
   13464:	02c37e63          	bgeu	t1,a2,134a0 <memset+0x44>
   13468:	00f77793          	andi	a5,a4,15
   1346c:	0a079063          	bnez	a5,1350c <memset+0xb0>
   13470:	08059263          	bnez	a1,134f4 <memset+0x98>
   13474:	ff067693          	andi	a3,a2,-16
   13478:	00f67613          	andi	a2,a2,15
   1347c:	00e686b3          	add	a3,a3,a4
   13480:	00b72023          	sw	a1,0(a4)
   13484:	00b72223          	sw	a1,4(a4)
   13488:	00b72423          	sw	a1,8(a4)
   1348c:	00b72623          	sw	a1,12(a4)
   13490:	01070713          	addi	a4,a4,16
   13494:	fed766e3          	bltu	a4,a3,13480 <memset+0x24>
   13498:	00061463          	bnez	a2,134a0 <memset+0x44>
   1349c:	00008067          	ret
   134a0:	40c306b3          	sub	a3,t1,a2
   134a4:	00269693          	slli	a3,a3,0x2
   134a8:	00000297          	auipc	t0,0x0
   134ac:	005686b3          	add	a3,a3,t0
   134b0:	00c68067          	jr	12(a3)
   134b4:	00b70723          	sb	a1,14(a4)
   134b8:	00b706a3          	sb	a1,13(a4)
   134bc:	00b70623          	sb	a1,12(a4)
   134c0:	00b705a3          	sb	a1,11(a4)
   134c4:	00b70523          	sb	a1,10(a4)
   134c8:	00b704a3          	sb	a1,9(a4)
   134cc:	00b70423          	sb	a1,8(a4)
   134d0:	00b703a3          	sb	a1,7(a4)
   134d4:	00b70323          	sb	a1,6(a4)
   134d8:	00b702a3          	sb	a1,5(a4)
   134dc:	00b70223          	sb	a1,4(a4)
   134e0:	00b701a3          	sb	a1,3(a4)
   134e4:	00b70123          	sb	a1,2(a4)
   134e8:	00b700a3          	sb	a1,1(a4)
   134ec:	00b70023          	sb	a1,0(a4)
   134f0:	00008067          	ret
   134f4:	0ff5f593          	andi	a1,a1,255
   134f8:	00859693          	slli	a3,a1,0x8
   134fc:	00d5e5b3          	or	a1,a1,a3
   13500:	01059693          	slli	a3,a1,0x10
   13504:	00d5e5b3          	or	a1,a1,a3
   13508:	f6dff06f          	j	13474 <memset+0x18>
   1350c:	00279693          	slli	a3,a5,0x2
   13510:	00000297          	auipc	t0,0x0
   13514:	005686b3          	add	a3,a3,t0
   13518:	00008293          	mv	t0,ra
   1351c:	fa0680e7          	jalr	-96(a3)
   13520:	00028093          	mv	ra,t0
   13524:	ff078793          	addi	a5,a5,-16
   13528:	40f70733          	sub	a4,a4,a5
   1352c:	00f60633          	add	a2,a2,a5
   13530:	f6c378e3          	bgeu	t1,a2,134a0 <memset+0x44>
   13534:	f3dff06f          	j	13470 <memset+0x14>

00013538 <__call_exitprocs>:
   13538:	fd010113          	addi	sp,sp,-48
   1353c:	01412c23          	sw	s4,24(sp)
   13540:	ce01aa03          	lw	s4,-800(gp) # 16870 <_global_impure_ptr>
   13544:	03212023          	sw	s2,32(sp)
   13548:	02112623          	sw	ra,44(sp)
   1354c:	148a2903          	lw	s2,328(s4)
   13550:	02812423          	sw	s0,40(sp)
   13554:	02912223          	sw	s1,36(sp)
   13558:	01312e23          	sw	s3,28(sp)
   1355c:	01512a23          	sw	s5,20(sp)
   13560:	01612823          	sw	s6,16(sp)
   13564:	01712623          	sw	s7,12(sp)
   13568:	01812423          	sw	s8,8(sp)
   1356c:	04090063          	beqz	s2,135ac <__call_exitprocs+0x74>
   13570:	00050b13          	mv	s6,a0
   13574:	00058b93          	mv	s7,a1
   13578:	00100a93          	li	s5,1
   1357c:	fff00993          	li	s3,-1
   13580:	00492483          	lw	s1,4(s2)
   13584:	fff48413          	addi	s0,s1,-1
   13588:	02044263          	bltz	s0,135ac <__call_exitprocs+0x74>
   1358c:	00249493          	slli	s1,s1,0x2
   13590:	009904b3          	add	s1,s2,s1
   13594:	040b8463          	beqz	s7,135dc <__call_exitprocs+0xa4>
   13598:	1044a783          	lw	a5,260(s1)
   1359c:	05778063          	beq	a5,s7,135dc <__call_exitprocs+0xa4>
   135a0:	fff40413          	addi	s0,s0,-1
   135a4:	ffc48493          	addi	s1,s1,-4
   135a8:	ff3416e3          	bne	s0,s3,13594 <__call_exitprocs+0x5c>
   135ac:	02c12083          	lw	ra,44(sp)
   135b0:	02812403          	lw	s0,40(sp)
   135b4:	02412483          	lw	s1,36(sp)
   135b8:	02012903          	lw	s2,32(sp)
   135bc:	01c12983          	lw	s3,28(sp)
   135c0:	01812a03          	lw	s4,24(sp)
   135c4:	01412a83          	lw	s5,20(sp)
   135c8:	01012b03          	lw	s6,16(sp)
   135cc:	00c12b83          	lw	s7,12(sp)
   135d0:	00812c03          	lw	s8,8(sp)
   135d4:	03010113          	addi	sp,sp,48
   135d8:	00008067          	ret
   135dc:	00492783          	lw	a5,4(s2)
   135e0:	0044a683          	lw	a3,4(s1)
   135e4:	fff78793          	addi	a5,a5,-1
   135e8:	04878e63          	beq	a5,s0,13644 <__call_exitprocs+0x10c>
   135ec:	0004a223          	sw	zero,4(s1)
   135f0:	fa0688e3          	beqz	a3,135a0 <__call_exitprocs+0x68>
   135f4:	18892783          	lw	a5,392(s2)
   135f8:	008a9733          	sll	a4,s5,s0
   135fc:	00492c03          	lw	s8,4(s2)
   13600:	00f777b3          	and	a5,a4,a5
   13604:	02079263          	bnez	a5,13628 <__call_exitprocs+0xf0>
   13608:	000680e7          	jalr	a3
   1360c:	00492703          	lw	a4,4(s2)
   13610:	148a2783          	lw	a5,328(s4)
   13614:	01871463          	bne	a4,s8,1361c <__call_exitprocs+0xe4>
   13618:	f92784e3          	beq	a5,s2,135a0 <__call_exitprocs+0x68>
   1361c:	f80788e3          	beqz	a5,135ac <__call_exitprocs+0x74>
   13620:	00078913          	mv	s2,a5
   13624:	f5dff06f          	j	13580 <__call_exitprocs+0x48>
   13628:	18c92783          	lw	a5,396(s2)
   1362c:	0844a583          	lw	a1,132(s1)
   13630:	00f77733          	and	a4,a4,a5
   13634:	00071c63          	bnez	a4,1364c <__call_exitprocs+0x114>
   13638:	000b0513          	mv	a0,s6
   1363c:	000680e7          	jalr	a3
   13640:	fcdff06f          	j	1360c <__call_exitprocs+0xd4>
   13644:	00892223          	sw	s0,4(s2)
   13648:	fa9ff06f          	j	135f0 <__call_exitprocs+0xb8>
   1364c:	00058513          	mv	a0,a1
   13650:	000680e7          	jalr	a3
   13654:	fb9ff06f          	j	1360c <__call_exitprocs+0xd4>

00013658 <__libc_fini_array>:
   13658:	ff010113          	addi	sp,sp,-16
   1365c:	00812423          	sw	s0,8(sp)
   13660:	000167b7          	lui	a5,0x16
   13664:	00016437          	lui	s0,0x16
   13668:	38840413          	addi	s0,s0,904 # 16388 <__do_global_dtors_aux_fini_array_entry>
   1366c:	38c78793          	addi	a5,a5,908 # 1638c <__fini_array_end>
   13670:	408787b3          	sub	a5,a5,s0
   13674:	00912223          	sw	s1,4(sp)
   13678:	00112623          	sw	ra,12(sp)
   1367c:	4027d493          	srai	s1,a5,0x2
   13680:	02048063          	beqz	s1,136a0 <__libc_fini_array+0x48>
   13684:	ffc78793          	addi	a5,a5,-4
   13688:	00878433          	add	s0,a5,s0
   1368c:	00042783          	lw	a5,0(s0)
   13690:	fff48493          	addi	s1,s1,-1
   13694:	ffc40413          	addi	s0,s0,-4
   13698:	000780e7          	jalr	a5
   1369c:	fe0498e3          	bnez	s1,1368c <__libc_fini_array+0x34>
   136a0:	00c12083          	lw	ra,12(sp)
   136a4:	00812403          	lw	s0,8(sp)
   136a8:	00412483          	lw	s1,4(sp)
   136ac:	01010113          	addi	sp,sp,16
   136b0:	00008067          	ret

000136b4 <atexit>:
   136b4:	00050593          	mv	a1,a0
   136b8:	00000693          	li	a3,0
   136bc:	00000613          	li	a2,0
   136c0:	00000513          	li	a0,0
   136c4:	0040006f          	j	136c8 <__register_exitproc>

000136c8 <__register_exitproc>:
   136c8:	ce01a703          	lw	a4,-800(gp) # 16870 <_global_impure_ptr>
   136cc:	14872783          	lw	a5,328(a4)
   136d0:	04078c63          	beqz	a5,13728 <__register_exitproc+0x60>
   136d4:	0047a703          	lw	a4,4(a5)
   136d8:	01f00813          	li	a6,31
   136dc:	06e84e63          	blt	a6,a4,13758 <__register_exitproc+0x90>
   136e0:	00271813          	slli	a6,a4,0x2
   136e4:	02050663          	beqz	a0,13710 <__register_exitproc+0x48>
   136e8:	01078333          	add	t1,a5,a6
   136ec:	08c32423          	sw	a2,136(t1)
   136f0:	1887a883          	lw	a7,392(a5)
   136f4:	00100613          	li	a2,1
   136f8:	00e61633          	sll	a2,a2,a4
   136fc:	00c8e8b3          	or	a7,a7,a2
   13700:	1917a423          	sw	a7,392(a5)
   13704:	10d32423          	sw	a3,264(t1)
   13708:	00200693          	li	a3,2
   1370c:	02d50463          	beq	a0,a3,13734 <__register_exitproc+0x6c>
   13710:	00170713          	addi	a4,a4,1
   13714:	00e7a223          	sw	a4,4(a5)
   13718:	010787b3          	add	a5,a5,a6
   1371c:	00b7a423          	sw	a1,8(a5)
   13720:	00000513          	li	a0,0
   13724:	00008067          	ret
   13728:	14c70793          	addi	a5,a4,332
   1372c:	14f72423          	sw	a5,328(a4)
   13730:	fa5ff06f          	j	136d4 <__register_exitproc+0xc>
   13734:	18c7a683          	lw	a3,396(a5)
   13738:	00170713          	addi	a4,a4,1
   1373c:	00e7a223          	sw	a4,4(a5)
   13740:	00c6e633          	or	a2,a3,a2
   13744:	18c7a623          	sw	a2,396(a5)
   13748:	010787b3          	add	a5,a5,a6
   1374c:	00b7a423          	sw	a1,8(a5)
   13750:	00000513          	li	a0,0
   13754:	00008067          	ret
   13758:	fff00513          	li	a0,-1
   1375c:	00008067          	ret

00013760 <_exit>:
   13760:	05d00893          	li	a7,93
   13764:	00000073          	ecall
   13768:	00054463          	bltz	a0,13770 <_exit+0x10>
   1376c:	0000006f          	j	1376c <_exit+0xc>
   13770:	ff010113          	addi	sp,sp,-16
   13774:	00812423          	sw	s0,8(sp)
   13778:	00050413          	mv	s0,a0
   1377c:	00112623          	sw	ra,12(sp)
   13780:	40800433          	neg	s0,s0
   13784:	addff0ef          	jal	ra,13260 <__errno>
   13788:	00852023          	sw	s0,0(a0)
   1378c:	0000006f          	j	1378c <_exit+0x2c>

Disassembly of section .rodata:

00013790 <npio2_hw-0x1888>:
   13790:	20555047          	fmsub.s	ft0,fa0,ft5,ft4,unknown
   13794:	4950                	lw	a2,20(a0)
   13796:	4550                	lw	a2,12(a0)
   13798:	494c                	lw	a1,20(a0)
   1379a:	454e                	lw	a0,208(sp)
   1379c:	5420                	lw	s0,104(s0)
   1379e:	5345                	li	t1,-15
   137a0:	0054                	addi	a3,sp,4
   137a2:	0000                	unimp
   137a4:	4954                	lw	a3,20(a0)
   137a6:	454d                	li	a0,19
   137a8:	203a                	fld	ft0,392(sp)
   137aa:	0000                	unimp
   137ac:	003a                	c.slli	zero,0xe
   137ae:	0000                	unimp
   137b0:	3fc90fdb          	0x3fc90fdb
   137b4:	0000                	unimp
   137b6:	4280                	lw	s0,0(a3)
   137b8:	0000                	unimp
   137ba:	4200                	lw	s0,0(a2)
   137bc:	0000                	unimp
   137be:	4040                	lw	s0,4(s0)
   137c0:	d70a                	sw	sp,172(sp)
   137c2:	d70a3ca3          	0xd70a3ca3
   137c6:	00003d23          	0x3d23
   137ca:	4030                	lw	a2,64(s0)
   137cc:	0000                	unimp
   137ce:	3fc0                	fld	fs0,184(a5)
   137d0:	0000                	unimp
   137d2:	42c0                	lw	s0,4(a3)
   137d4:	0000                	unimp
   137d6:	4300                	lw	s0,0(a4)
   137d8:	0000                	unimp
   137da:	437f                	0x437f
   137dc:	0000                	unimp
   137de:	4340                	lw	s0,4(a4)
   137e0:	3a83126f          	jal	tp,44b88 <__BSS_END__+0x2dfe0>
   137e4:	2020                	fld	fs0,64(s0)
   137e6:	2020                	fld	fs0,64(s0)
   137e8:	2020                	fld	fs0,64(s0)
   137ea:	2020                	fld	fs0,64(s0)
   137ec:	2020                	fld	fs0,64(s0)
   137ee:	2020                	fld	fs0,64(s0)
   137f0:	2020                	fld	fs0,64(s0)
   137f2:	2020                	fld	fs0,64(s0)
   137f4:	2020                	fld	fs0,64(s0)
   137f6:	0020                	addi	s0,sp,8
   137f8:	3130                	fld	fa2,96(a0)
   137fa:	3332                	fld	ft6,296(sp)
   137fc:	3534                	fld	fa3,104(a0)
   137fe:	3736                	fld	fa4,360(sp)
   13800:	3938                	fld	fa4,112(a0)
   13802:	0000                	unimp
   13804:	3130                	fld	fa2,96(a0)
   13806:	3332                	fld	ft6,296(sp)
   13808:	3534                	fld	fa3,104(a0)
   1380a:	3736                	fld	fa4,360(sp)
   1380c:	3938                	fld	fa4,112(a0)
   1380e:	4241                	li	tp,16
   13810:	46454443          	fmadd.q	fs0,fa0,ft4,fs0,rmm
	...
   13820:	0000                	unimp
   13822:	00ff                	0xff
   13824:	0000                	unimp
   13826:	0000                	unimp
   13828:	ff00                	fsw	fs0,56(a4)
   1382a:	ff00                	fsw	fs0,56(a4)
   1382c:	0000                	unimp
   1382e:	0000                	unimp
   13830:	0000                	unimp
   13832:	00ff                	0xff
   13834:	00ff                	0xff
   13836:	0000                	unimp
   13838:	ff00                	fsw	fs0,56(a4)
   1383a:	ffff                	0xffff
   1383c:	0000                	unimp
   1383e:	0000                	unimp
   13840:	ff00                	fsw	fs0,56(a4)
   13842:	ffff                	0xffff
   13844:	00ff                	0xff
   13846:	0000                	unimp
   13848:	0000                	unimp
   1384a:	00ff                	0xff
   1384c:	0000                	unimp
   1384e:	0000                	unimp
   13850:	0000                	unimp
   13852:	00ff                	0xff
   13854:	0000                	unimp
   13856:	0000                	unimp
   13858:	0000                	unimp
   1385a:	ff00                	fsw	fs0,56(a4)
   1385c:	0000                	unimp
   1385e:	0000                	unimp
   13860:	ff00                	fsw	fs0,56(a4)
	...
   1386a:	00ff                	0xff
	...
   13894:	00ff                	0xff
   13896:	0000                	unimp
   13898:	ff00                	fsw	fs0,56(a4)
   1389a:	ffff                	0xffff
   1389c:	0000                	unimp
   1389e:	0000                	unimp
   138a0:	0000                	unimp
   138a2:	00ff                	0xff
   138a4:	0000                	unimp
   138a6:	0000                	unimp
   138a8:	ff00                	fsw	fs0,56(a4)
   138aa:	ffff                	0xffff
   138ac:	0000                	unimp
   138ae:	0000                	unimp
   138b0:	ffff                	0xffff
   138b2:	ffff                	0xffff
   138b4:	00ff                	0xff
   138b6:	0000                	unimp
   138b8:	0000                	unimp
   138ba:	ff00                	fsw	fs0,56(a4)
   138bc:	0000                	unimp
   138be:	0000                	unimp
   138c0:	ffff                	0xffff
   138c2:	ffff                	0xffff
   138c4:	00ff                	0xff
   138c6:	0000                	unimp
   138c8:	0000                	unimp
   138ca:	ffff                	0xffff
   138cc:	0000                	unimp
   138ce:	0000                	unimp
   138d0:	ffff                	0xffff
   138d2:	ffff                	0xffff
   138d4:	00ff                	0xff
   138d6:	0000                	unimp
   138d8:	ff00                	fsw	fs0,56(a4)
   138da:	ffff                	0xffff
   138dc:	0000                	unimp
   138de:	0000                	unimp
   138e0:	ff00                	fsw	fs0,56(a4)
   138e2:	ffff                	0xffff
	...
   13910:	0000                	unimp
   13912:	ffff                	0xffff
	...
   13920:	0000                	unimp
   13922:	00ff                	0xff
   13924:	0000                	unimp
   13926:	0000                	unimp
   13928:	ff00                	fsw	fs0,56(a4)
   1392a:	ff00                	fsw	fs0,56(a4)
   1392c:	0000                	unimp
   1392e:	0000                	unimp
   13930:	ffff                	0xffff
   13932:	ffff                	0xffff
   13934:	00ff                	0xff
   13936:	0000                	unimp
   13938:	00ff                	0xff
   1393a:	00ff                	0xff
   1393c:	00ff                	0xff
   1393e:	0000                	unimp
   13940:	00ff                	0xff
   13942:	00ff                	0xff
   13944:	00ff                	0xff
   13946:	0000                	unimp
   13948:	ff00                	fsw	fs0,56(a4)
   1394a:	ff00                	fsw	fs0,56(a4)
   1394c:	0000                	unimp
   1394e:	0000                	unimp
   13950:	0000                	unimp
   13952:	00ff                	0xff
   13954:	0000                	unimp
   13956:	0000                	unimp
   13958:	0000                	unimp
   1395a:	00ff                	0xff
   1395c:	0000                	unimp
   1395e:	0000                	unimp
   13960:	0000                	unimp
   13962:	00ff                	0xff
   13964:	0000                	unimp
   13966:	0000                	unimp
   13968:	00ff                	0xff
   1396a:	00ff                	0xff
   1396c:	00ff                	0xff
   1396e:	0000                	unimp
   13970:	0000                	unimp
   13972:	00ff                	0xff
	...
   13994:	00ff                	0xff
   13996:	0000                	unimp
   13998:	00ff                	0xff
   1399a:	0000                	unimp
   1399c:	00ff                	0xff
   1399e:	0000                	unimp
   139a0:	ff00                	fsw	fs0,56(a4)
   139a2:	00ff                	0xff
   139a4:	0000                	unimp
   139a6:	0000                	unimp
   139a8:	00ff                	0xff
   139aa:	0000                	unimp
   139ac:	00ff                	0xff
   139ae:	0000                	unimp
   139b0:	0000                	unimp
   139b2:	ff00                	fsw	fs0,56(a4)
   139b4:	0000                	unimp
   139b6:	0000                	unimp
   139b8:	0000                	unimp
   139ba:	ffff                	0xffff
   139bc:	0000                	unimp
   139be:	0000                	unimp
   139c0:	00ff                	0xff
   139c2:	0000                	unimp
   139c4:	0000                	unimp
   139c6:	0000                	unimp
   139c8:	ff00                	fsw	fs0,56(a4)
	...
   139d2:	0000                	unimp
   139d4:	00ff                	0xff
   139d6:	0000                	unimp
   139d8:	00ff                	0xff
   139da:	0000                	unimp
   139dc:	00ff                	0xff
   139de:	0000                	unimp
   139e0:	00ff                	0xff
   139e2:	0000                	unimp
   139e4:	00ff                	0xff
	...
   139fa:	ff00                	fsw	fs0,56(a4)
	...
   13a08:	ff00                	fsw	fs0,56(a4)
   13a0a:	0000                	unimp
   13a0c:	0000                	unimp
   13a0e:	0000                	unimp
   13a10:	ff00                	fsw	fs0,56(a4)
   13a12:	0000                	unimp
   13a14:	00ff                	0xff
	...
   13a22:	00ff                	0xff
	...
   13a30:	ff00                	fsw	fs0,56(a4)
   13a32:	ff00                	fsw	fs0,56(a4)
   13a34:	0000                	unimp
   13a36:	0000                	unimp
   13a38:	00ff                	0xff
   13a3a:	00ff                	0xff
   13a3c:	0000                	unimp
   13a3e:	0000                	unimp
   13a40:	00ff                	0xff
   13a42:	ffff                	0xffff
   13a44:	0000                	unimp
   13a46:	0000                	unimp
   13a48:	0000                	unimp
   13a4a:	00ff                	0xff
	...
   13a58:	ff00                	fsw	fs0,56(a4)
	...
   13a62:	ff00                	fsw	fs0,56(a4)
   13a64:	0000                	unimp
   13a66:	0000                	unimp
   13a68:	ff00                	fsw	fs0,56(a4)
   13a6a:	ffff                	0xffff
   13a6c:	0000                	unimp
   13a6e:	0000                	unimp
   13a70:	0000                	unimp
   13a72:	00ff                	0xff
	...
   13a90:	0000                	unimp
   13a92:	ff00                	fsw	fs0,56(a4)
   13a94:	0000                	unimp
   13a96:	0000                	unimp
   13a98:	00ff                	0xff
   13a9a:	ff00                	fsw	fs0,56(a4)
   13a9c:	00ff                	0xff
   13a9e:	0000                	unimp
   13aa0:	0000                	unimp
   13aa2:	00ff                	0xff
	...
   13aac:	00ff                	0xff
   13aae:	0000                	unimp
   13ab0:	0000                	unimp
   13ab2:	00ff                	0xff
   13ab4:	0000                	unimp
   13ab6:	0000                	unimp
   13ab8:	ff00                	fsw	fs0,56(a4)
   13aba:	ff00                	fsw	fs0,56(a4)
   13abc:	0000                	unimp
   13abe:	0000                	unimp
   13ac0:	ffff                	0xffff
   13ac2:	ffff                	0xffff
   13ac4:	0000                	unimp
   13ac6:	0000                	unimp
   13ac8:	00ff                	0xff
	...
   13ad2:	ff00                	fsw	fs0,56(a4)
   13ad4:	0000                	unimp
   13ad6:	0000                	unimp
   13ad8:	00ff                	0xff
   13ada:	0000                	unimp
   13adc:	00ff                	0xff
   13ade:	0000                	unimp
   13ae0:	00ff                	0xff
   13ae2:	0000                	unimp
   13ae4:	00ff                	0xff
   13ae6:	0000                	unimp
   13ae8:	0000                	unimp
   13aea:	00ff                	0xff
   13aec:	0000                	unimp
   13aee:	0000                	unimp
   13af0:	0000                	unimp
   13af2:	00ff                	0xff
   13af4:	0000                	unimp
   13af6:	0000                	unimp
   13af8:	0000                	unimp
   13afa:	00ff                	0xff
   13afc:	0000                	unimp
   13afe:	0000                	unimp
   13b00:	ffff                	0xffff
   13b02:	ffff                	0xffff
   13b04:	00ff                	0xff
   13b06:	0000                	unimp
   13b08:	0000                	unimp
   13b0a:	00ff                	0xff
	...
   13b14:	00ff                	0xff
	...
   13b22:	00ff                	0xff
	...
   13b30:	ffff                	0xffff
   13b32:	ffff                	0xffff
   13b34:	00ff                	0xff
   13b36:	0000                	unimp
   13b38:	ff00                	fsw	fs0,56(a4)
   13b3a:	ffff                	0xffff
   13b3c:	0000                	unimp
   13b3e:	0000                	unimp
   13b40:	ff00                	fsw	fs0,56(a4)
   13b42:	ffff                	0xffff
   13b44:	00ff                	0xff
   13b46:	0000                	unimp
   13b48:	ff00                	fsw	fs0,56(a4)
   13b4a:	ff00                	fsw	fs0,56(a4)
   13b4c:	ff00                	fsw	fs0,56(a4)
	...
   13b56:	0000                	unimp
   13b58:	ff00                	fsw	fs0,56(a4)
	...
   13b62:	ff00                	fsw	fs0,56(a4)
   13b64:	0000                	unimp
   13b66:	0000                	unimp
   13b68:	ff00                	fsw	fs0,56(a4)
   13b6a:	ff00                	fsw	fs0,56(a4)
   13b6c:	0000                	unimp
   13b6e:	0000                	unimp
   13b70:	ffff                	0xffff
   13b72:	ffff                	0xffff
   13b74:	00ff                	0xff
	...
   13b7e:	0000                	unimp
   13b80:	ff00                	fsw	fs0,56(a4)
   13b82:	ffff                	0xffff
   13b84:	00ff                	0xff
	...
   13b92:	ff00                	fsw	fs0,56(a4)
   13b94:	0000                	unimp
   13b96:	0000                	unimp
   13b98:	00ff                	0xff
   13b9a:	00ff                	0xff
   13b9c:	00ff                	0xff
   13b9e:	0000                	unimp
   13ba0:	0000                	unimp
   13ba2:	00ff                	0xff
   13ba4:	0000                	unimp
   13ba6:	0000                	unimp
   13ba8:	0000                	unimp
   13baa:	ff00                	fsw	fs0,56(a4)
   13bac:	0000                	unimp
   13bae:	0000                	unimp
   13bb0:	ff00                	fsw	fs0,56(a4)
   13bb2:	ffff                	0xffff
   13bb4:	0000                	unimp
   13bb6:	0000                	unimp
   13bb8:	00ff                	0xff
   13bba:	ff00                	fsw	fs0,56(a4)
	...
   13bc4:	00ff                	0xff
   13bc6:	0000                	unimp
   13bc8:	ffff                	0xffff
   13bca:	ffff                	0xffff
   13bcc:	0000                	unimp
   13bce:	0000                	unimp
   13bd0:	0000                	unimp
   13bd2:	ff00                	fsw	fs0,56(a4)
   13bd4:	0000                	unimp
   13bd6:	0000                	unimp
   13bd8:	ff00                	fsw	fs0,56(a4)
   13bda:	ffff                	0xffff
   13bdc:	0000                	unimp
   13bde:	0000                	unimp
   13be0:	ff00                	fsw	fs0,56(a4)
   13be2:	ffff                	0xffff
   13be4:	00ff                	0xff
	...
   13bf6:	0000                	unimp
   13bf8:	ff00                	fsw	fs0,56(a4)
	...
   13c0a:	ff00                	fsw	fs0,56(a4)
   13c0c:	0000                	unimp
   13c0e:	0000                	unimp
   13c10:	0000                	unimp
   13c12:	ff00                	fsw	fs0,56(a4)
	...
   13c20:	0000                	unimp
   13c22:	00ff                	0xff
	...
   13c30:	00ff                	0xff
   13c32:	00ff                	0xff
   13c34:	0000                	unimp
   13c36:	0000                	unimp
   13c38:	0000                	unimp
   13c3a:	00ff                	0xff
   13c3c:	00ff                	0xff
   13c3e:	0000                	unimp
   13c40:	0000                	unimp
   13c42:	ffff                	0xffff
   13c44:	ff00                	fsw	fs0,56(a4)
   13c46:	0000                	unimp
   13c48:	00ff                	0xff
   13c4a:	0000                	unimp
   13c4c:	00ff                	0xff
	...
   13c56:	0000                	unimp
   13c58:	ff00                	fsw	fs0,56(a4)
	...
   13c62:	ff00                	fsw	fs0,56(a4)
   13c64:	0000                	unimp
   13c66:	0000                	unimp
   13c68:	00ff                	0xff
   13c6a:	0000                	unimp
   13c6c:	00ff                	0xff
   13c6e:	0000                	unimp
   13c70:	0000                	unimp
   13c72:	00ff                	0xff
	...
   13c90:	0000                	unimp
   13c92:	00ff                	0xff
   13c94:	0000                	unimp
   13c96:	0000                	unimp
   13c98:	ffff                	0xffff
   13c9a:	0000                	unimp
   13c9c:	00ff                	0xff
   13c9e:	0000                	unimp
   13ca0:	0000                	unimp
   13ca2:	00ff                	0xff
   13ca4:	0000                	unimp
   13ca6:	0000                	unimp
   13ca8:	0000                	unimp
   13caa:	00ff                	0xff
	...
   13cb4:	00ff                	0xff
   13cb6:	0000                	unimp
   13cb8:	ffff                	0xffff
   13cba:	ffff                	0xffff
   13cbc:	00ff                	0xff
   13cbe:	0000                	unimp
   13cc0:	0000                	unimp
   13cc2:	0000                	unimp
   13cc4:	00ff                	0xff
   13cc6:	0000                	unimp
   13cc8:	00ff                	0xff
   13cca:	0000                	unimp
   13ccc:	00ff                	0xff
   13cce:	0000                	unimp
   13cd0:	0000                	unimp
   13cd2:	00ff                	0xff
   13cd4:	0000                	unimp
   13cd6:	0000                	unimp
   13cd8:	00ff                	0xff
   13cda:	0000                	unimp
   13cdc:	00ff                	0xff
   13cde:	0000                	unimp
   13ce0:	0000                	unimp
   13ce2:	0000                	unimp
   13ce4:	00ff                	0xff
	...
   13cfa:	00ff                	0xff
   13cfc:	0000                	unimp
   13cfe:	0000                	unimp
   13d00:	ffff                	0xffff
   13d02:	ffff                	0xffff
   13d04:	00ff                	0xff
   13d06:	0000                	unimp
   13d08:	0000                	unimp
   13d0a:	00ff                	0xff
   13d0c:	0000                	unimp
   13d0e:	0000                	unimp
   13d10:	0000                	unimp
   13d12:	00ff                	0xff
	...
   13d38:	00ff                	0xff
   13d3a:	00ff                	0xff
   13d3c:	00ff                	0xff
   13d3e:	0000                	unimp
   13d40:	ff00                	fsw	fs0,56(a4)
   13d42:	ff00                	fsw	fs0,56(a4)
   13d44:	ff00                	fsw	fs0,56(a4)
   13d46:	0000                	unimp
   13d48:	00ff                	0xff
   13d4a:	0000                	unimp
   13d4c:	00ff                	0xff
	...
   13d56:	0000                	unimp
   13d58:	ff00                	fsw	fs0,56(a4)
	...
   13d62:	ff00                	fsw	fs0,56(a4)
	...
   13d70:	0000                	unimp
   13d72:	00ff                	0xff
   13d74:	0000                	unimp
   13d76:	0000                	unimp
   13d78:	0000                	unimp
   13d7a:	00ff                	0xff
	...
   13d90:	0000                	unimp
   13d92:	00ff                	0xff
   13d94:	0000                	unimp
   13d96:	0000                	unimp
   13d98:	00ff                	0xff
   13d9a:	0000                	unimp
   13d9c:	00ff                	0xff
   13d9e:	0000                	unimp
   13da0:	0000                	unimp
   13da2:	00ff                	0xff
   13da4:	0000                	unimp
   13da6:	0000                	unimp
   13da8:	ff00                	fsw	fs0,56(a4)
   13daa:	0000                	unimp
   13dac:	0000                	unimp
   13dae:	0000                	unimp
   13db0:	00ff                	0xff
   13db2:	0000                	unimp
   13db4:	00ff                	0xff
   13db6:	0000                	unimp
   13db8:	0000                	unimp
   13dba:	ff00                	fsw	fs0,56(a4)
   13dbc:	0000                	unimp
   13dbe:	0000                	unimp
   13dc0:	00ff                	0xff
   13dc2:	0000                	unimp
   13dc4:	00ff                	0xff
   13dc6:	0000                	unimp
   13dc8:	00ff                	0xff
   13dca:	0000                	unimp
   13dcc:	00ff                	0xff
   13dce:	0000                	unimp
   13dd0:	0000                	unimp
   13dd2:	00ff                	0xff
   13dd4:	0000                	unimp
   13dd6:	0000                	unimp
   13dd8:	00ff                	0xff
   13dda:	0000                	unimp
   13ddc:	00ff                	0xff
   13dde:	0000                	unimp
   13de0:	0000                	unimp
   13de2:	ff00                	fsw	fs0,56(a4)
	...
   13df0:	0000                	unimp
   13df2:	00ff                	0xff
   13df4:	0000                	unimp
   13df6:	0000                	unimp
   13df8:	0000                	unimp
   13dfa:	ff00                	fsw	fs0,56(a4)
	...
   13e08:	ff00                	fsw	fs0,56(a4)
	...
   13e22:	00ff                	0xff
	...
   13e38:	ff00                	fsw	fs0,56(a4)
   13e3a:	ffff                	0xffff
   13e3c:	0000                	unimp
   13e3e:	0000                	unimp
   13e40:	ff00                	fsw	fs0,56(a4)
   13e42:	0000                	unimp
   13e44:	00ff                	0xff
   13e46:	0000                	unimp
   13e48:	ff00                	fsw	fs0,56(a4)
   13e4a:	ffff                	0xffff
   13e4c:	ff00                	fsw	fs0,56(a4)
	...
   13e5a:	00ff                	0xff
   13e5c:	0000                	unimp
   13e5e:	0000                	unimp
   13e60:	0000                	unimp
   13e62:	00ff                	0xff
	...
   13e78:	0000                	unimp
   13e7a:	00ff                	0xff
	...
   13e88:	0000                	unimp
   13e8a:	00ff                	0xff
   13e8c:	0000                	unimp
   13e8e:	0000                	unimp
   13e90:	ff00                	fsw	fs0,56(a4)
   13e92:	0000                	unimp
   13e94:	0000                	unimp
   13e96:	0000                	unimp
   13e98:	ff00                	fsw	fs0,56(a4)
   13e9a:	ffff                	0xffff
   13e9c:	0000                	unimp
   13e9e:	0000                	unimp
   13ea0:	0000                	unimp
   13ea2:	00ff                	0xff
   13ea4:	0000                	unimp
   13ea6:	0000                	unimp
   13ea8:	ffff                	0xffff
   13eaa:	ffff                	0xffff
   13eac:	00ff                	0xff
   13eae:	0000                	unimp
   13eb0:	ff00                	fsw	fs0,56(a4)
   13eb2:	ffff                	0xffff
   13eb4:	0000                	unimp
   13eb6:	0000                	unimp
   13eb8:	0000                	unimp
   13eba:	ff00                	fsw	fs0,56(a4)
   13ebc:	0000                	unimp
   13ebe:	0000                	unimp
   13ec0:	ff00                	fsw	fs0,56(a4)
   13ec2:	ffff                	0xffff
   13ec4:	0000                	unimp
   13ec6:	0000                	unimp
   13ec8:	ff00                	fsw	fs0,56(a4)
   13eca:	ffff                	0xffff
   13ecc:	0000                	unimp
   13ece:	0000                	unimp
   13ed0:	0000                	unimp
   13ed2:	00ff                	0xff
   13ed4:	0000                	unimp
   13ed6:	0000                	unimp
   13ed8:	ff00                	fsw	fs0,56(a4)
   13eda:	ffff                	0xffff
   13edc:	0000                	unimp
   13ede:	0000                	unimp
   13ee0:	ff00                	fsw	fs0,56(a4)
   13ee2:	00ff                	0xff
   13ee4:	0000                	unimp
   13ee6:	0000                	unimp
   13ee8:	0000                	unimp
   13eea:	00ff                	0xff
   13eec:	0000                	unimp
   13eee:	0000                	unimp
   13ef0:	0000                	unimp
   13ef2:	00ff                	0xff
	...
   13f10:	0000                	unimp
   13f12:	00ff                	0xff
	...
   13f38:	0000                	unimp
   13f3a:	00ff                	0xff
	...
   13f58:	0000                	unimp
   13f5a:	ff00                	fsw	fs0,56(a4)
   13f5c:	0000                	unimp
   13f5e:	0000                	unimp
   13f60:	ff00                	fsw	fs0,56(a4)
	...
   13f76:	0000                	unimp
   13f78:	ff00                	fsw	fs0,56(a4)
	...
   13f8e:	0000                	unimp
   13f90:	ff00                	fsw	fs0,56(a4)
	...
   13fee:	0000                	unimp
   13ff0:	ff00                	fsw	fs0,56(a4)
	...
   1401a:	ffff                	0xffff
   1401c:	0000                	unimp
   1401e:	0000                	unimp
   14020:	0000                	unimp
   14022:	00ff                	0xff
   14024:	0000                	unimp
   14026:	0000                	unimp
   14028:	ffff                	0xffff
   1402a:	ffff                	0xffff
   1402c:	0000                	unimp
   1402e:	0000                	unimp
   14030:	ff00                	fsw	fs0,56(a4)
   14032:	ffff                	0xffff
   14034:	0000                	unimp
   14036:	0000                	unimp
   14038:	ffff                	0xffff
   1403a:	00ff                	0xff
   1403c:	0000                	unimp
   1403e:	0000                	unimp
   14040:	ff00                	fsw	fs0,56(a4)
   14042:	ffff                	0xffff
   14044:	00ff                	0xff
   14046:	0000                	unimp
   14048:	ff00                	fsw	fs0,56(a4)
   1404a:	ffff                	0xffff
   1404c:	00ff                	0xff
   1404e:	0000                	unimp
   14050:	ff00                	fsw	fs0,56(a4)
   14052:	ffff                	0xffff
   14054:	0000                	unimp
   14056:	0000                	unimp
   14058:	00ff                	0xff
   1405a:	0000                	unimp
   1405c:	00ff                	0xff
   1405e:	0000                	unimp
   14060:	0000                	unimp
   14062:	00ff                	0xff
	...
   1406c:	00ff                	0xff
   1406e:	0000                	unimp
   14070:	00ff                	0xff
   14072:	0000                	unimp
   14074:	00ff                	0xff
   14076:	0000                	unimp
   14078:	ff00                	fsw	fs0,56(a4)
   1407a:	0000                	unimp
   1407c:	0000                	unimp
   1407e:	0000                	unimp
   14080:	00ff                	0xff
   14082:	0000                	unimp
   14084:	00ff                	0xff
   14086:	0000                	unimp
   14088:	ffff                	0xffff
   1408a:	0000                	unimp
   1408c:	00ff                	0xff
   1408e:	0000                	unimp
   14090:	ff00                	fsw	fs0,56(a4)
   14092:	ffff                	0xffff
   14094:	0000                	unimp
   14096:	0000                	unimp
   14098:	ffff                	0xffff
   1409a:	ffff                	0xffff
   1409c:	0000                	unimp
   1409e:	0000                	unimp
   140a0:	ff00                	fsw	fs0,56(a4)
   140a2:	ffff                	0xffff
   140a4:	0000                	unimp
   140a6:	0000                	unimp
   140a8:	ffff                	0xffff
   140aa:	ffff                	0xffff
   140ac:	0000                	unimp
   140ae:	0000                	unimp
   140b0:	ff00                	fsw	fs0,56(a4)
   140b2:	ffff                	0xffff
   140b4:	0000                	unimp
   140b6:	0000                	unimp
   140b8:	ffff                	0xffff
   140ba:	ffff                	0xffff
   140bc:	00ff                	0xff
   140be:	0000                	unimp
   140c0:	00ff                	0xff
   140c2:	0000                	unimp
   140c4:	00ff                	0xff
   140c6:	0000                	unimp
   140c8:	00ff                	0xff
   140ca:	0000                	unimp
   140cc:	00ff                	0xff
   140ce:	0000                	unimp
   140d0:	00ff                	0xff
   140d2:	0000                	unimp
   140d4:	00ff                	0xff
   140d6:	0000                	unimp
   140d8:	00ff                	0xff
   140da:	0000                	unimp
   140dc:	00ff                	0xff
   140de:	0000                	unimp
   140e0:	00ff                	0xff
   140e2:	0000                	unimp
   140e4:	00ff                	0xff
   140e6:	0000                	unimp
   140e8:	ff00                	fsw	fs0,56(a4)
   140ea:	ffff                	0xffff
   140ec:	00ff                	0xff
   140ee:	0000                	unimp
   140f0:	0000                	unimp
   140f2:	ffff                	0xffff
   140f4:	0000                	unimp
   140f6:	0000                	unimp
   140f8:	ff00                	fsw	fs0,56(a4)
   140fa:	0000                	unimp
   140fc:	0000                	unimp
   140fe:	0000                	unimp
   14100:	ff00                	fsw	fs0,56(a4)
   14102:	00ff                	0xff
   14104:	0000                	unimp
   14106:	0000                	unimp
   14108:	0000                	unimp
   1410a:	00ff                	0xff
	...
   14118:	ff00                	fsw	fs0,56(a4)
   1411a:	0000                	unimp
   1411c:	00ff                	0xff
   1411e:	0000                	unimp
   14120:	0000                	unimp
   14122:	00ff                	0xff
   14124:	0000                	unimp
   14126:	0000                	unimp
   14128:	00ff                	0xff
   1412a:	0000                	unimp
   1412c:	00ff                	0xff
   1412e:	0000                	unimp
   14130:	00ff                	0xff
   14132:	0000                	unimp
   14134:	00ff                	0xff
   14136:	0000                	unimp
   14138:	00ff                	0xff
   1413a:	ff00                	fsw	fs0,56(a4)
   1413c:	0000                	unimp
   1413e:	0000                	unimp
   14140:	ff00                	fsw	fs0,56(a4)
   14142:	0000                	unimp
   14144:	0000                	unimp
   14146:	0000                	unimp
   14148:	ff00                	fsw	fs0,56(a4)
   1414a:	0000                	unimp
   1414c:	0000                	unimp
   1414e:	0000                	unimp
   14150:	00ff                	0xff
   14152:	0000                	unimp
   14154:	00ff                	0xff
   14156:	0000                	unimp
   14158:	00ff                	0xff
   1415a:	0000                	unimp
   1415c:	00ff                	0xff
   1415e:	0000                	unimp
   14160:	0000                	unimp
   14162:	00ff                	0xff
	...
   1416c:	00ff                	0xff
   1416e:	0000                	unimp
   14170:	00ff                	0xff
   14172:	ff00                	fsw	fs0,56(a4)
   14174:	0000                	unimp
   14176:	0000                	unimp
   14178:	ff00                	fsw	fs0,56(a4)
   1417a:	0000                	unimp
   1417c:	0000                	unimp
   1417e:	0000                	unimp
   14180:	ffff                	0xffff
   14182:	ff00                	fsw	fs0,56(a4)
   14184:	00ff                	0xff
   14186:	0000                	unimp
   14188:	ffff                	0xffff
   1418a:	0000                	unimp
   1418c:	00ff                	0xff
   1418e:	0000                	unimp
   14190:	00ff                	0xff
   14192:	0000                	unimp
   14194:	00ff                	0xff
   14196:	0000                	unimp
   14198:	00ff                	0xff
   1419a:	0000                	unimp
   1419c:	00ff                	0xff
   1419e:	0000                	unimp
   141a0:	00ff                	0xff
   141a2:	0000                	unimp
   141a4:	00ff                	0xff
   141a6:	0000                	unimp
   141a8:	00ff                	0xff
   141aa:	0000                	unimp
   141ac:	00ff                	0xff
   141ae:	0000                	unimp
   141b0:	00ff                	0xff
   141b2:	0000                	unimp
   141b4:	00ff                	0xff
   141b6:	0000                	unimp
   141b8:	0000                	unimp
   141ba:	00ff                	0xff
   141bc:	0000                	unimp
   141be:	0000                	unimp
   141c0:	00ff                	0xff
   141c2:	0000                	unimp
   141c4:	00ff                	0xff
   141c6:	0000                	unimp
   141c8:	00ff                	0xff
   141ca:	0000                	unimp
   141cc:	00ff                	0xff
   141ce:	0000                	unimp
   141d0:	00ff                	0xff
   141d2:	0000                	unimp
   141d4:	00ff                	0xff
   141d6:	0000                	unimp
   141d8:	00ff                	0xff
   141da:	0000                	unimp
   141dc:	00ff                	0xff
   141de:	0000                	unimp
   141e0:	00ff                	0xff
   141e2:	0000                	unimp
   141e4:	00ff                	0xff
   141e6:	0000                	unimp
   141e8:	0000                	unimp
   141ea:	0000                	unimp
   141ec:	00ff                	0xff
   141ee:	0000                	unimp
   141f0:	0000                	unimp
   141f2:	00ff                	0xff
   141f4:	0000                	unimp
   141f6:	0000                	unimp
   141f8:	ff00                	fsw	fs0,56(a4)
	...
   14202:	00ff                	0xff
   14204:	0000                	unimp
   14206:	0000                	unimp
   14208:	ff00                	fsw	fs0,56(a4)
   1420a:	ff00                	fsw	fs0,56(a4)
	...
   14218:	00ff                	0xff
   1421a:	ffff                	0xffff
   1421c:	ff00                	fsw	fs0,56(a4)
   1421e:	0000                	unimp
   14220:	ff00                	fsw	fs0,56(a4)
   14222:	ff00                	fsw	fs0,56(a4)
   14224:	0000                	unimp
   14226:	0000                	unimp
   14228:	00ff                	0xff
   1422a:	0000                	unimp
   1422c:	00ff                	0xff
   1422e:	0000                	unimp
   14230:	00ff                	0xff
   14232:	0000                	unimp
   14234:	0000                	unimp
   14236:	0000                	unimp
   14238:	00ff                	0xff
   1423a:	0000                	unimp
   1423c:	00ff                	0xff
   1423e:	0000                	unimp
   14240:	ff00                	fsw	fs0,56(a4)
   14242:	0000                	unimp
   14244:	0000                	unimp
   14246:	0000                	unimp
   14248:	ff00                	fsw	fs0,56(a4)
   1424a:	0000                	unimp
   1424c:	0000                	unimp
   1424e:	0000                	unimp
   14250:	00ff                	0xff
   14252:	0000                	unimp
   14254:	0000                	unimp
   14256:	0000                	unimp
   14258:	00ff                	0xff
   1425a:	0000                	unimp
   1425c:	00ff                	0xff
   1425e:	0000                	unimp
   14260:	0000                	unimp
   14262:	00ff                	0xff
	...
   1426c:	00ff                	0xff
   1426e:	0000                	unimp
   14270:	00ff                	0xff
   14272:	00ff                	0xff
   14274:	0000                	unimp
   14276:	0000                	unimp
   14278:	ff00                	fsw	fs0,56(a4)
   1427a:	0000                	unimp
   1427c:	0000                	unimp
   1427e:	0000                	unimp
   14280:	00ff                	0xff
   14282:	00ff                	0xff
   14284:	00ff                	0xff
   14286:	0000                	unimp
   14288:	00ff                	0xff
   1428a:	00ff                	0xff
   1428c:	00ff                	0xff
   1428e:	0000                	unimp
   14290:	00ff                	0xff
   14292:	0000                	unimp
   14294:	00ff                	0xff
   14296:	0000                	unimp
   14298:	00ff                	0xff
   1429a:	0000                	unimp
   1429c:	00ff                	0xff
   1429e:	0000                	unimp
   142a0:	00ff                	0xff
   142a2:	0000                	unimp
   142a4:	00ff                	0xff
   142a6:	0000                	unimp
   142a8:	00ff                	0xff
   142aa:	0000                	unimp
   142ac:	00ff                	0xff
   142ae:	0000                	unimp
   142b0:	00ff                	0xff
	...
   142ba:	00ff                	0xff
   142bc:	0000                	unimp
   142be:	0000                	unimp
   142c0:	00ff                	0xff
   142c2:	0000                	unimp
   142c4:	00ff                	0xff
   142c6:	0000                	unimp
   142c8:	00ff                	0xff
   142ca:	0000                	unimp
   142cc:	00ff                	0xff
   142ce:	0000                	unimp
   142d0:	00ff                	0xff
   142d2:	00ff                	0xff
   142d4:	00ff                	0xff
   142d6:	0000                	unimp
   142d8:	ff00                	fsw	fs0,56(a4)
   142da:	ff00                	fsw	fs0,56(a4)
   142dc:	0000                	unimp
   142de:	0000                	unimp
   142e0:	ff00                	fsw	fs0,56(a4)
   142e2:	ff00                	fsw	fs0,56(a4)
   142e4:	0000                	unimp
   142e6:	0000                	unimp
   142e8:	0000                	unimp
   142ea:	ff00                	fsw	fs0,56(a4)
   142ec:	0000                	unimp
   142ee:	0000                	unimp
   142f0:	0000                	unimp
   142f2:	00ff                	0xff
   142f4:	0000                	unimp
   142f6:	0000                	unimp
   142f8:	0000                	unimp
   142fa:	00ff                	0xff
   142fc:	0000                	unimp
   142fe:	0000                	unimp
   14300:	0000                	unimp
   14302:	00ff                	0xff
	...
   14318:	ffff                	0xffff
   1431a:	ff00                	fsw	fs0,56(a4)
   1431c:	ff00                	fsw	fs0,56(a4)
   1431e:	0000                	unimp
   14320:	ff00                	fsw	fs0,56(a4)
   14322:	ff00                	fsw	fs0,56(a4)
   14324:	0000                	unimp
   14326:	0000                	unimp
   14328:	ffff                	0xffff
   1432a:	ffff                	0xffff
   1432c:	0000                	unimp
   1432e:	0000                	unimp
   14330:	00ff                	0xff
   14332:	0000                	unimp
   14334:	0000                	unimp
   14336:	0000                	unimp
   14338:	00ff                	0xff
   1433a:	0000                	unimp
   1433c:	00ff                	0xff
   1433e:	0000                	unimp
   14340:	ff00                	fsw	fs0,56(a4)
   14342:	ffff                	0xffff
   14344:	0000                	unimp
   14346:	0000                	unimp
   14348:	ff00                	fsw	fs0,56(a4)
   1434a:	ffff                	0xffff
   1434c:	0000                	unimp
   1434e:	0000                	unimp
   14350:	00ff                	0xff
   14352:	ff00                	fsw	fs0,56(a4)
   14354:	00ff                	0xff
   14356:	0000                	unimp
   14358:	ffff                	0xffff
   1435a:	ffff                	0xffff
   1435c:	00ff                	0xff
   1435e:	0000                	unimp
   14360:	0000                	unimp
   14362:	00ff                	0xff
	...
   1436c:	00ff                	0xff
   1436e:	0000                	unimp
   14370:	ffff                	0xffff
   14372:	0000                	unimp
   14374:	0000                	unimp
   14376:	0000                	unimp
   14378:	ff00                	fsw	fs0,56(a4)
   1437a:	0000                	unimp
   1437c:	0000                	unimp
   1437e:	0000                	unimp
   14380:	00ff                	0xff
   14382:	0000                	unimp
   14384:	00ff                	0xff
   14386:	0000                	unimp
   14388:	00ff                	0xff
   1438a:	00ff                	0xff
   1438c:	00ff                	0xff
   1438e:	0000                	unimp
   14390:	00ff                	0xff
   14392:	0000                	unimp
   14394:	00ff                	0xff
   14396:	0000                	unimp
   14398:	ffff                	0xffff
   1439a:	ffff                	0xffff
   1439c:	0000                	unimp
   1439e:	0000                	unimp
   143a0:	00ff                	0xff
   143a2:	0000                	unimp
   143a4:	00ff                	0xff
   143a6:	0000                	unimp
   143a8:	ffff                	0xffff
   143aa:	ffff                	0xffff
   143ac:	0000                	unimp
   143ae:	0000                	unimp
   143b0:	ff00                	fsw	fs0,56(a4)
   143b2:	ffff                	0xffff
   143b4:	0000                	unimp
   143b6:	0000                	unimp
   143b8:	0000                	unimp
   143ba:	00ff                	0xff
   143bc:	0000                	unimp
   143be:	0000                	unimp
   143c0:	00ff                	0xff
   143c2:	0000                	unimp
   143c4:	00ff                	0xff
   143c6:	0000                	unimp
   143c8:	ff00                	fsw	fs0,56(a4)
   143ca:	ff00                	fsw	fs0,56(a4)
   143cc:	0000                	unimp
   143ce:	0000                	unimp
   143d0:	00ff                	0xff
   143d2:	00ff                	0xff
   143d4:	00ff                	0xff
   143d6:	0000                	unimp
   143d8:	0000                	unimp
   143da:	00ff                	0xff
   143dc:	0000                	unimp
   143de:	0000                	unimp
   143e0:	0000                	unimp
   143e2:	00ff                	0xff
   143e4:	0000                	unimp
   143e6:	0000                	unimp
   143e8:	0000                	unimp
   143ea:	00ff                	0xff
   143ec:	0000                	unimp
   143ee:	0000                	unimp
   143f0:	0000                	unimp
   143f2:	00ff                	0xff
   143f4:	0000                	unimp
   143f6:	0000                	unimp
   143f8:	0000                	unimp
   143fa:	00ff                	0xff
   143fc:	0000                	unimp
   143fe:	0000                	unimp
   14400:	0000                	unimp
   14402:	00ff                	0xff
	...
   14418:	ffff                	0xffff
   1441a:	ff00                	fsw	fs0,56(a4)
   1441c:	ff00                	fsw	fs0,56(a4)
   1441e:	0000                	unimp
   14420:	ffff                	0xffff
   14422:	ffff                	0xffff
   14424:	00ff                	0xff
   14426:	0000                	unimp
   14428:	00ff                	0xff
   1442a:	0000                	unimp
   1442c:	00ff                	0xff
   1442e:	0000                	unimp
   14430:	00ff                	0xff
   14432:	0000                	unimp
   14434:	0000                	unimp
   14436:	0000                	unimp
   14438:	00ff                	0xff
   1443a:	0000                	unimp
   1443c:	00ff                	0xff
   1443e:	0000                	unimp
   14440:	ff00                	fsw	fs0,56(a4)
   14442:	0000                	unimp
   14444:	0000                	unimp
   14446:	0000                	unimp
   14448:	ff00                	fsw	fs0,56(a4)
   1444a:	0000                	unimp
   1444c:	0000                	unimp
   1444e:	0000                	unimp
   14450:	00ff                	0xff
   14452:	0000                	unimp
   14454:	00ff                	0xff
   14456:	0000                	unimp
   14458:	00ff                	0xff
   1445a:	0000                	unimp
   1445c:	00ff                	0xff
   1445e:	0000                	unimp
   14460:	0000                	unimp
   14462:	00ff                	0xff
   14464:	0000                	unimp
   14466:	0000                	unimp
   14468:	00ff                	0xff
   1446a:	0000                	unimp
   1446c:	00ff                	0xff
   1446e:	0000                	unimp
   14470:	00ff                	0xff
   14472:	00ff                	0xff
   14474:	0000                	unimp
   14476:	0000                	unimp
   14478:	ff00                	fsw	fs0,56(a4)
   1447a:	0000                	unimp
   1447c:	0000                	unimp
   1447e:	0000                	unimp
   14480:	00ff                	0xff
   14482:	0000                	unimp
   14484:	00ff                	0xff
   14486:	0000                	unimp
   14488:	00ff                	0xff
   1448a:	ff00                	fsw	fs0,56(a4)
   1448c:	00ff                	0xff
   1448e:	0000                	unimp
   14490:	00ff                	0xff
   14492:	0000                	unimp
   14494:	00ff                	0xff
   14496:	0000                	unimp
   14498:	00ff                	0xff
   1449a:	0000                	unimp
   1449c:	0000                	unimp
   1449e:	0000                	unimp
   144a0:	00ff                	0xff
   144a2:	0000                	unimp
   144a4:	00ff                	0xff
   144a6:	0000                	unimp
   144a8:	00ff                	0xff
   144aa:	00ff                	0xff
	...
   144b4:	00ff                	0xff
   144b6:	0000                	unimp
   144b8:	0000                	unimp
   144ba:	00ff                	0xff
   144bc:	0000                	unimp
   144be:	0000                	unimp
   144c0:	00ff                	0xff
   144c2:	0000                	unimp
   144c4:	00ff                	0xff
   144c6:	0000                	unimp
   144c8:	ff00                	fsw	fs0,56(a4)
   144ca:	ff00                	fsw	fs0,56(a4)
   144cc:	0000                	unimp
   144ce:	0000                	unimp
   144d0:	ff00                	fsw	fs0,56(a4)
   144d2:	ff00                	fsw	fs0,56(a4)
   144d4:	0000                	unimp
   144d6:	0000                	unimp
   144d8:	ff00                	fsw	fs0,56(a4)
   144da:	ff00                	fsw	fs0,56(a4)
   144dc:	0000                	unimp
   144de:	0000                	unimp
   144e0:	0000                	unimp
   144e2:	00ff                	0xff
   144e4:	0000                	unimp
   144e6:	0000                	unimp
   144e8:	ff00                	fsw	fs0,56(a4)
	...
   144f2:	00ff                	0xff
   144f4:	0000                	unimp
   144f6:	0000                	unimp
   144f8:	0000                	unimp
   144fa:	ff00                	fsw	fs0,56(a4)
   144fc:	0000                	unimp
   144fe:	0000                	unimp
   14500:	0000                	unimp
   14502:	00ff                	0xff
	...
   14518:	00ff                	0xff
   1451a:	ffff                	0xffff
   1451c:	00ff                	0xff
   1451e:	0000                	unimp
   14520:	00ff                	0xff
   14522:	0000                	unimp
   14524:	00ff                	0xff
   14526:	0000                	unimp
   14528:	00ff                	0xff
   1452a:	0000                	unimp
   1452c:	00ff                	0xff
   1452e:	0000                	unimp
   14530:	00ff                	0xff
   14532:	0000                	unimp
   14534:	00ff                	0xff
   14536:	0000                	unimp
   14538:	00ff                	0xff
   1453a:	ff00                	fsw	fs0,56(a4)
   1453c:	0000                	unimp
   1453e:	0000                	unimp
   14540:	ff00                	fsw	fs0,56(a4)
   14542:	0000                	unimp
   14544:	0000                	unimp
   14546:	0000                	unimp
   14548:	ff00                	fsw	fs0,56(a4)
   1454a:	0000                	unimp
   1454c:	0000                	unimp
   1454e:	0000                	unimp
   14550:	00ff                	0xff
   14552:	0000                	unimp
   14554:	00ff                	0xff
   14556:	0000                	unimp
   14558:	00ff                	0xff
   1455a:	0000                	unimp
   1455c:	00ff                	0xff
   1455e:	0000                	unimp
   14560:	0000                	unimp
   14562:	00ff                	0xff
   14564:	0000                	unimp
   14566:	0000                	unimp
   14568:	00ff                	0xff
   1456a:	0000                	unimp
   1456c:	00ff                	0xff
   1456e:	0000                	unimp
   14570:	00ff                	0xff
   14572:	ff00                	fsw	fs0,56(a4)
   14574:	0000                	unimp
   14576:	0000                	unimp
   14578:	ff00                	fsw	fs0,56(a4)
   1457a:	0000                	unimp
   1457c:	0000                	unimp
   1457e:	0000                	unimp
   14580:	00ff                	0xff
   14582:	0000                	unimp
   14584:	00ff                	0xff
   14586:	0000                	unimp
   14588:	00ff                	0xff
   1458a:	ff00                	fsw	fs0,56(a4)
   1458c:	00ff                	0xff
   1458e:	0000                	unimp
   14590:	00ff                	0xff
   14592:	0000                	unimp
   14594:	00ff                	0xff
   14596:	0000                	unimp
   14598:	00ff                	0xff
   1459a:	0000                	unimp
   1459c:	0000                	unimp
   1459e:	0000                	unimp
   145a0:	00ff                	0xff
   145a2:	00ff                	0xff
   145a4:	00ff                	0xff
   145a6:	0000                	unimp
   145a8:	00ff                	0xff
   145aa:	ff00                	fsw	fs0,56(a4)
   145ac:	0000                	unimp
   145ae:	0000                	unimp
   145b0:	00ff                	0xff
   145b2:	0000                	unimp
   145b4:	00ff                	0xff
   145b6:	0000                	unimp
   145b8:	0000                	unimp
   145ba:	00ff                	0xff
   145bc:	0000                	unimp
   145be:	0000                	unimp
   145c0:	00ff                	0xff
   145c2:	0000                	unimp
   145c4:	00ff                	0xff
   145c6:	0000                	unimp
   145c8:	0000                	unimp
   145ca:	00ff                	0xff
   145cc:	0000                	unimp
   145ce:	0000                	unimp
   145d0:	ff00                	fsw	fs0,56(a4)
   145d2:	ff00                	fsw	fs0,56(a4)
   145d4:	0000                	unimp
   145d6:	0000                	unimp
   145d8:	00ff                	0xff
   145da:	0000                	unimp
   145dc:	00ff                	0xff
   145de:	0000                	unimp
   145e0:	0000                	unimp
   145e2:	00ff                	0xff
   145e4:	0000                	unimp
   145e6:	0000                	unimp
   145e8:	ff00                	fsw	fs0,56(a4)
	...
   145f2:	00ff                	0xff
   145f4:	0000                	unimp
   145f6:	0000                	unimp
   145f8:	0000                	unimp
   145fa:	ff00                	fsw	fs0,56(a4)
   145fc:	0000                	unimp
   145fe:	0000                	unimp
   14600:	0000                	unimp
   14602:	00ff                	0xff
	...
   14618:	ff00                	fsw	fs0,56(a4)
   1461a:	0000                	unimp
   1461c:	0000                	unimp
   1461e:	0000                	unimp
   14620:	00ff                	0xff
   14622:	0000                	unimp
   14624:	00ff                	0xff
   14626:	0000                	unimp
   14628:	ffff                	0xffff
   1462a:	ffff                	0xffff
   1462c:	0000                	unimp
   1462e:	0000                	unimp
   14630:	ff00                	fsw	fs0,56(a4)
   14632:	ffff                	0xffff
   14634:	0000                	unimp
   14636:	0000                	unimp
   14638:	ffff                	0xffff
   1463a:	00ff                	0xff
   1463c:	0000                	unimp
   1463e:	0000                	unimp
   14640:	ff00                	fsw	fs0,56(a4)
   14642:	ffff                	0xffff
   14644:	00ff                	0xff
   14646:	0000                	unimp
   14648:	ff00                	fsw	fs0,56(a4)
   1464a:	0000                	unimp
   1464c:	0000                	unimp
   1464e:	0000                	unimp
   14650:	ff00                	fsw	fs0,56(a4)
   14652:	ffff                	0xffff
   14654:	0000                	unimp
   14656:	0000                	unimp
   14658:	00ff                	0xff
   1465a:	0000                	unimp
   1465c:	00ff                	0xff
   1465e:	0000                	unimp
   14660:	0000                	unimp
   14662:	00ff                	0xff
   14664:	0000                	unimp
   14666:	0000                	unimp
   14668:	ff00                	fsw	fs0,56(a4)
   1466a:	ffff                	0xffff
   1466c:	0000                	unimp
   1466e:	0000                	unimp
   14670:	00ff                	0xff
   14672:	0000                	unimp
   14674:	00ff                	0xff
   14676:	0000                	unimp
   14678:	ff00                	fsw	fs0,56(a4)
   1467a:	ffff                	0xffff
   1467c:	00ff                	0xff
   1467e:	0000                	unimp
   14680:	00ff                	0xff
   14682:	0000                	unimp
   14684:	00ff                	0xff
   14686:	0000                	unimp
   14688:	00ff                	0xff
   1468a:	0000                	unimp
   1468c:	00ff                	0xff
   1468e:	0000                	unimp
   14690:	ff00                	fsw	fs0,56(a4)
   14692:	ffff                	0xffff
   14694:	0000                	unimp
   14696:	0000                	unimp
   14698:	00ff                	0xff
   1469a:	0000                	unimp
   1469c:	0000                	unimp
   1469e:	0000                	unimp
   146a0:	ff00                	fsw	fs0,56(a4)
   146a2:	ffff                	0xffff
   146a4:	0000                	unimp
   146a6:	0000                	unimp
   146a8:	00ff                	0xff
   146aa:	0000                	unimp
   146ac:	00ff                	0xff
   146ae:	0000                	unimp
   146b0:	ff00                	fsw	fs0,56(a4)
   146b2:	ffff                	0xffff
   146b4:	0000                	unimp
   146b6:	0000                	unimp
   146b8:	0000                	unimp
   146ba:	00ff                	0xff
   146bc:	0000                	unimp
   146be:	0000                	unimp
   146c0:	ff00                	fsw	fs0,56(a4)
   146c2:	ffff                	0xffff
   146c4:	0000                	unimp
   146c6:	0000                	unimp
   146c8:	0000                	unimp
   146ca:	00ff                	0xff
   146cc:	0000                	unimp
   146ce:	0000                	unimp
   146d0:	ff00                	fsw	fs0,56(a4)
   146d2:	ff00                	fsw	fs0,56(a4)
   146d4:	0000                	unimp
   146d6:	0000                	unimp
   146d8:	00ff                	0xff
   146da:	0000                	unimp
   146dc:	00ff                	0xff
   146de:	0000                	unimp
   146e0:	0000                	unimp
   146e2:	00ff                	0xff
   146e4:	0000                	unimp
   146e6:	0000                	unimp
   146e8:	ff00                	fsw	fs0,56(a4)
   146ea:	ffff                	0xffff
   146ec:	00ff                	0xff
   146ee:	0000                	unimp
   146f0:	0000                	unimp
   146f2:	00ff                	0xff
	...
   146fc:	00ff                	0xff
   146fe:	0000                	unimp
   14700:	0000                	unimp
   14702:	00ff                	0xff
	...
   14718:	0000                	unimp
   1471a:	ffff                	0xffff
	...
   147a0:	0000                	unimp
   147a2:	ff00                	fsw	fs0,56(a4)
	...
   147f0:	0000                	unimp
   147f2:	ffff                	0xffff
	...
   147fc:	00ff                	0xff
   147fe:	0000                	unimp
   14800:	ff00                	fsw	fs0,56(a4)
   14802:	00ff                	0xff
	...
   14810:	ffff                	0xffff
   14812:	ffff                	0xffff
   14814:	ffff                	0xffff
   14816:	0000                	unimp
   14818:	0000                	unimp
   1481a:	ffff                	0xffff
	...
   14828:	ff00                	fsw	fs0,56(a4)
	...
   1483a:	0000                	unimp
   1483c:	00ff                	0xff
	...
   1484a:	ff00                	fsw	fs0,56(a4)
   1484c:	00ff                	0xff
	...
   14856:	0000                	unimp
   14858:	ff00                	fsw	fs0,56(a4)
	...
   14862:	00ff                	0xff
   14864:	0000                	unimp
   14866:	0000                	unimp
   14868:	0000                	unimp
   1486a:	ff00                	fsw	fs0,56(a4)
   1486c:	0000                	unimp
   1486e:	0000                	unimp
   14870:	ff00                	fsw	fs0,56(a4)
	...
   1487a:	00ff                	0xff
	...
   148b8:	0000                	unimp
   148ba:	00ff                	0xff
	...
   148f0:	0000                	unimp
   148f2:	ff00                	fsw	fs0,56(a4)
   148f4:	0000                	unimp
   148f6:	0000                	unimp
   148f8:	0000                	unimp
   148fa:	00ff                	0xff
   148fc:	0000                	unimp
   148fe:	0000                	unimp
   14900:	ff00                	fsw	fs0,56(a4)
   14902:	0000                	unimp
   14904:	0000                	unimp
   14906:	0000                	unimp
   14908:	ff00                	fsw	fs0,56(a4)
   1490a:	00ff                	0xff
   1490c:	00ff                	0xff
   1490e:	0000                	unimp
   14910:	0000                	unimp
   14912:	ffff                	0xffff
   14914:	0000                	unimp
   14916:	0000                	unimp
   14918:	ff00                	fsw	fs0,56(a4)
	...
   14926:	0000                	unimp
   14928:	ff00                	fsw	fs0,56(a4)
	...
   1493a:	0000                	unimp
   1493c:	00ff                	0xff
	...
   1494a:	00ff                	0xff
	...
   14958:	ff00                	fsw	fs0,56(a4)
	...
   1496e:	0000                	unimp
   14970:	ff00                	fsw	fs0,56(a4)
	...
   1497a:	00ff                	0xff
	...
   149b8:	0000                	unimp
   149ba:	00ff                	0xff
	...
   149f0:	0000                	unimp
   149f2:	00ff                	0xff
   149f4:	0000                	unimp
   149f6:	0000                	unimp
   149f8:	0000                	unimp
   149fa:	00ff                	0xff
   149fc:	0000                	unimp
   149fe:	0000                	unimp
   14a00:	0000                	unimp
   14a02:	00ff                	0xff
   14a04:	0000                	unimp
   14a06:	0000                	unimp
   14a08:	00ff                	0xff
   14a0a:	ffff                	0xffff
   14a0c:	0000                	unimp
   14a0e:	0000                	unimp
   14a10:	ff00                	fsw	fs0,56(a4)
   14a12:	0000                	unimp
   14a14:	00ff                	0xff
   14a16:	0000                	unimp
   14a18:	ff00                	fsw	fs0,56(a4)
	...
   14a22:	ffff                	0xffff
   14a24:	0000                	unimp
   14a26:	0000                	unimp
   14a28:	ff00                	fsw	fs0,56(a4)
   14a2a:	ffff                	0xffff
   14a2c:	0000                	unimp
   14a2e:	0000                	unimp
   14a30:	0000                	unimp
   14a32:	ffff                	0xffff
   14a34:	0000                	unimp
   14a36:	0000                	unimp
   14a38:	0000                	unimp
   14a3a:	ffff                	0xffff
   14a3c:	00ff                	0xff
   14a3e:	0000                	unimp
   14a40:	0000                	unimp
   14a42:	ffff                	0xffff
   14a44:	0000                	unimp
   14a46:	0000                	unimp
   14a48:	ff00                	fsw	fs0,56(a4)
   14a4a:	ffff                	0xffff
   14a4c:	0000                	unimp
   14a4e:	0000                	unimp
   14a50:	0000                	unimp
   14a52:	ffff                	0xffff
   14a54:	00ff                	0xff
   14a56:	0000                	unimp
   14a58:	ff00                	fsw	fs0,56(a4)
   14a5a:	ffff                	0xffff
   14a5c:	0000                	unimp
   14a5e:	0000                	unimp
   14a60:	0000                	unimp
   14a62:	00ff                	0xff
   14a64:	0000                	unimp
   14a66:	0000                	unimp
   14a68:	0000                	unimp
   14a6a:	ff00                	fsw	fs0,56(a4)
   14a6c:	0000                	unimp
   14a6e:	0000                	unimp
   14a70:	ff00                	fsw	fs0,56(a4)
   14a72:	0000                	unimp
   14a74:	00ff                	0xff
   14a76:	0000                	unimp
   14a78:	0000                	unimp
   14a7a:	00ff                	0xff
   14a7c:	0000                	unimp
   14a7e:	0000                	unimp
   14a80:	ffff                	0xffff
   14a82:	ff00                	fsw	fs0,56(a4)
   14a84:	0000                	unimp
   14a86:	0000                	unimp
   14a88:	ff00                	fsw	fs0,56(a4)
   14a8a:	ffff                	0xffff
   14a8c:	0000                	unimp
   14a8e:	0000                	unimp
   14a90:	0000                	unimp
   14a92:	ffff                	0xffff
   14a94:	0000                	unimp
   14a96:	0000                	unimp
   14a98:	ff00                	fsw	fs0,56(a4)
   14a9a:	ffff                	0xffff
   14a9c:	0000                	unimp
   14a9e:	0000                	unimp
   14aa0:	0000                	unimp
   14aa2:	ffff                	0xffff
   14aa4:	00ff                	0xff
   14aa6:	0000                	unimp
   14aa8:	ff00                	fsw	fs0,56(a4)
   14aaa:	ff00                	fsw	fs0,56(a4)
   14aac:	00ff                	0xff
   14aae:	0000                	unimp
   14ab0:	0000                	unimp
   14ab2:	ffff                	0xffff
   14ab4:	00ff                	0xff
   14ab6:	0000                	unimp
   14ab8:	ff00                	fsw	fs0,56(a4)
   14aba:	ffff                	0xffff
   14abc:	0000                	unimp
   14abe:	0000                	unimp
   14ac0:	ff00                	fsw	fs0,56(a4)
   14ac2:	0000                	unimp
   14ac4:	00ff                	0xff
   14ac6:	0000                	unimp
   14ac8:	00ff                	0xff
   14aca:	0000                	unimp
   14acc:	00ff                	0xff
   14ace:	0000                	unimp
   14ad0:	00ff                	0xff
   14ad2:	0000                	unimp
   14ad4:	00ff                	0xff
   14ad6:	0000                	unimp
   14ad8:	00ff                	0xff
   14ada:	0000                	unimp
   14adc:	00ff                	0xff
   14ade:	0000                	unimp
   14ae0:	00ff                	0xff
   14ae2:	0000                	unimp
   14ae4:	00ff                	0xff
   14ae6:	0000                	unimp
   14ae8:	ff00                	fsw	fs0,56(a4)
   14aea:	ffff                	0xffff
   14aec:	00ff                	0xff
   14aee:	0000                	unimp
   14af0:	0000                	unimp
   14af2:	00ff                	0xff
   14af4:	0000                	unimp
   14af6:	0000                	unimp
   14af8:	0000                	unimp
   14afa:	00ff                	0xff
   14afc:	0000                	unimp
   14afe:	0000                	unimp
   14b00:	0000                	unimp
   14b02:	00ff                	0xff
	...
   14b10:	00ff                	0xff
   14b12:	ffff                	0xffff
   14b14:	ff00                	fsw	fs0,56(a4)
   14b16:	0000                	unimp
   14b18:	ffff                	0xffff
   14b1a:	00ff                	0xff
	...
   14b24:	00ff                	0xff
   14b26:	0000                	unimp
   14b28:	ff00                	fsw	fs0,56(a4)
   14b2a:	0000                	unimp
   14b2c:	00ff                	0xff
   14b2e:	0000                	unimp
   14b30:	ff00                	fsw	fs0,56(a4)
   14b32:	0000                	unimp
   14b34:	00ff                	0xff
   14b36:	0000                	unimp
   14b38:	ff00                	fsw	fs0,56(a4)
   14b3a:	0000                	unimp
   14b3c:	00ff                	0xff
   14b3e:	0000                	unimp
   14b40:	ff00                	fsw	fs0,56(a4)
   14b42:	0000                	unimp
   14b44:	00ff                	0xff
   14b46:	0000                	unimp
   14b48:	0000                	unimp
   14b4a:	00ff                	0xff
   14b4c:	0000                	unimp
   14b4e:	0000                	unimp
   14b50:	ff00                	fsw	fs0,56(a4)
   14b52:	0000                	unimp
   14b54:	00ff                	0xff
   14b56:	0000                	unimp
   14b58:	ff00                	fsw	fs0,56(a4)
   14b5a:	0000                	unimp
   14b5c:	00ff                	0xff
   14b5e:	0000                	unimp
   14b60:	0000                	unimp
   14b62:	00ff                	0xff
   14b64:	0000                	unimp
   14b66:	0000                	unimp
   14b68:	0000                	unimp
   14b6a:	ff00                	fsw	fs0,56(a4)
   14b6c:	0000                	unimp
   14b6e:	0000                	unimp
   14b70:	ff00                	fsw	fs0,56(a4)
   14b72:	ff00                	fsw	fs0,56(a4)
   14b74:	0000                	unimp
   14b76:	0000                	unimp
   14b78:	0000                	unimp
   14b7a:	00ff                	0xff
   14b7c:	0000                	unimp
   14b7e:	0000                	unimp
   14b80:	00ff                	0xff
   14b82:	00ff                	0xff
   14b84:	00ff                	0xff
   14b86:	0000                	unimp
   14b88:	ff00                	fsw	fs0,56(a4)
   14b8a:	0000                	unimp
   14b8c:	00ff                	0xff
   14b8e:	0000                	unimp
   14b90:	ff00                	fsw	fs0,56(a4)
   14b92:	0000                	unimp
   14b94:	00ff                	0xff
   14b96:	0000                	unimp
   14b98:	ff00                	fsw	fs0,56(a4)
   14b9a:	0000                	unimp
   14b9c:	00ff                	0xff
   14b9e:	0000                	unimp
   14ba0:	ff00                	fsw	fs0,56(a4)
   14ba2:	0000                	unimp
   14ba4:	00ff                	0xff
   14ba6:	0000                	unimp
   14ba8:	ff00                	fsw	fs0,56(a4)
   14baa:	00ff                	0xff
   14bac:	0000                	unimp
   14bae:	0000                	unimp
   14bb0:	ff00                	fsw	fs0,56(a4)
	...
   14bba:	00ff                	0xff
   14bbc:	0000                	unimp
   14bbe:	0000                	unimp
   14bc0:	ff00                	fsw	fs0,56(a4)
   14bc2:	0000                	unimp
   14bc4:	00ff                	0xff
   14bc6:	0000                	unimp
   14bc8:	ff00                	fsw	fs0,56(a4)
   14bca:	ff00                	fsw	fs0,56(a4)
   14bcc:	0000                	unimp
   14bce:	0000                	unimp
   14bd0:	00ff                	0xff
   14bd2:	0000                	unimp
   14bd4:	00ff                	0xff
   14bd6:	0000                	unimp
   14bd8:	ff00                	fsw	fs0,56(a4)
   14bda:	ff00                	fsw	fs0,56(a4)
   14bdc:	0000                	unimp
   14bde:	0000                	unimp
   14be0:	ff00                	fsw	fs0,56(a4)
   14be2:	ff00                	fsw	fs0,56(a4)
   14be4:	0000                	unimp
   14be6:	0000                	unimp
   14be8:	0000                	unimp
   14bea:	ff00                	fsw	fs0,56(a4)
   14bec:	0000                	unimp
   14bee:	0000                	unimp
   14bf0:	ff00                	fsw	fs0,56(a4)
	...
   14c02:	ff00                	fsw	fs0,56(a4)
	...
   14c10:	ffff                	0xffff
   14c12:	0000                	unimp
   14c14:	ff00                	fsw	fs0,56(a4)
   14c16:	0000                	unimp
   14c18:	ff00                	fsw	fs0,56(a4)
	...
   14c22:	ffff                	0xffff
   14c24:	00ff                	0xff
   14c26:	0000                	unimp
   14c28:	ff00                	fsw	fs0,56(a4)
   14c2a:	0000                	unimp
   14c2c:	00ff                	0xff
   14c2e:	0000                	unimp
   14c30:	ff00                	fsw	fs0,56(a4)
   14c32:	0000                	unimp
   14c34:	0000                	unimp
   14c36:	0000                	unimp
   14c38:	ff00                	fsw	fs0,56(a4)
   14c3a:	0000                	unimp
   14c3c:	00ff                	0xff
   14c3e:	0000                	unimp
   14c40:	ff00                	fsw	fs0,56(a4)
   14c42:	ffff                	0xffff
   14c44:	00ff                	0xff
   14c46:	0000                	unimp
   14c48:	0000                	unimp
   14c4a:	00ff                	0xff
   14c4c:	0000                	unimp
   14c4e:	0000                	unimp
   14c50:	ff00                	fsw	fs0,56(a4)
   14c52:	0000                	unimp
   14c54:	00ff                	0xff
   14c56:	0000                	unimp
   14c58:	ff00                	fsw	fs0,56(a4)
   14c5a:	0000                	unimp
   14c5c:	00ff                	0xff
   14c5e:	0000                	unimp
   14c60:	0000                	unimp
   14c62:	00ff                	0xff
   14c64:	0000                	unimp
   14c66:	0000                	unimp
   14c68:	0000                	unimp
   14c6a:	ff00                	fsw	fs0,56(a4)
   14c6c:	0000                	unimp
   14c6e:	0000                	unimp
   14c70:	ff00                	fsw	fs0,56(a4)
   14c72:	00ff                	0xff
   14c74:	0000                	unimp
   14c76:	0000                	unimp
   14c78:	0000                	unimp
   14c7a:	00ff                	0xff
   14c7c:	0000                	unimp
   14c7e:	0000                	unimp
   14c80:	00ff                	0xff
   14c82:	00ff                	0xff
   14c84:	00ff                	0xff
   14c86:	0000                	unimp
   14c88:	ff00                	fsw	fs0,56(a4)
   14c8a:	0000                	unimp
   14c8c:	00ff                	0xff
   14c8e:	0000                	unimp
   14c90:	ff00                	fsw	fs0,56(a4)
   14c92:	0000                	unimp
   14c94:	00ff                	0xff
   14c96:	0000                	unimp
   14c98:	ff00                	fsw	fs0,56(a4)
   14c9a:	0000                	unimp
   14c9c:	00ff                	0xff
   14c9e:	0000                	unimp
   14ca0:	ff00                	fsw	fs0,56(a4)
   14ca2:	0000                	unimp
   14ca4:	00ff                	0xff
   14ca6:	0000                	unimp
   14ca8:	ff00                	fsw	fs0,56(a4)
	...
   14cb2:	ffff                	0xffff
   14cb4:	0000                	unimp
   14cb6:	0000                	unimp
   14cb8:	0000                	unimp
   14cba:	00ff                	0xff
   14cbc:	0000                	unimp
   14cbe:	0000                	unimp
   14cc0:	ff00                	fsw	fs0,56(a4)
   14cc2:	0000                	unimp
   14cc4:	00ff                	0xff
   14cc6:	0000                	unimp
   14cc8:	ff00                	fsw	fs0,56(a4)
   14cca:	ff00                	fsw	fs0,56(a4)
   14ccc:	0000                	unimp
   14cce:	0000                	unimp
   14cd0:	00ff                	0xff
   14cd2:	00ff                	0xff
   14cd4:	00ff                	0xff
   14cd6:	0000                	unimp
   14cd8:	0000                	unimp
   14cda:	00ff                	0xff
   14cdc:	0000                	unimp
   14cde:	0000                	unimp
   14ce0:	ff00                	fsw	fs0,56(a4)
   14ce2:	ff00                	fsw	fs0,56(a4)
   14ce4:	0000                	unimp
   14ce6:	0000                	unimp
   14ce8:	0000                	unimp
   14cea:	00ff                	0xff
   14cec:	0000                	unimp
   14cee:	0000                	unimp
   14cf0:	0000                	unimp
   14cf2:	00ff                	0xff
	...
   14d00:	0000                	unimp
   14d02:	00ff                	0xff
	...
   14d10:	ffff                	0xffff
   14d12:	0000                	unimp
   14d14:	ff00                	fsw	fs0,56(a4)
   14d16:	0000                	unimp
   14d18:	ff00                	fsw	fs0,56(a4)
   14d1a:	0000                	unimp
   14d1c:	00ff                	0xff
   14d1e:	0000                	unimp
   14d20:	ff00                	fsw	fs0,56(a4)
   14d22:	0000                	unimp
   14d24:	00ff                	0xff
   14d26:	0000                	unimp
   14d28:	ff00                	fsw	fs0,56(a4)
   14d2a:	0000                	unimp
   14d2c:	00ff                	0xff
   14d2e:	0000                	unimp
   14d30:	ff00                	fsw	fs0,56(a4)
   14d32:	0000                	unimp
   14d34:	00ff                	0xff
   14d36:	0000                	unimp
   14d38:	ff00                	fsw	fs0,56(a4)
   14d3a:	0000                	unimp
   14d3c:	00ff                	0xff
   14d3e:	0000                	unimp
   14d40:	ff00                	fsw	fs0,56(a4)
	...
   14d4a:	00ff                	0xff
   14d4c:	0000                	unimp
   14d4e:	0000                	unimp
   14d50:	0000                	unimp
   14d52:	ffff                	0xffff
   14d54:	00ff                	0xff
   14d56:	0000                	unimp
   14d58:	ff00                	fsw	fs0,56(a4)
   14d5a:	0000                	unimp
   14d5c:	00ff                	0xff
   14d5e:	0000                	unimp
   14d60:	0000                	unimp
   14d62:	00ff                	0xff
   14d64:	0000                	unimp
   14d66:	0000                	unimp
   14d68:	0000                	unimp
   14d6a:	ff00                	fsw	fs0,56(a4)
   14d6c:	0000                	unimp
   14d6e:	0000                	unimp
   14d70:	ff00                	fsw	fs0,56(a4)
   14d72:	ff00                	fsw	fs0,56(a4)
   14d74:	0000                	unimp
   14d76:	0000                	unimp
   14d78:	0000                	unimp
   14d7a:	00ff                	0xff
   14d7c:	0000                	unimp
   14d7e:	0000                	unimp
   14d80:	00ff                	0xff
   14d82:	00ff                	0xff
   14d84:	00ff                	0xff
   14d86:	0000                	unimp
   14d88:	ff00                	fsw	fs0,56(a4)
   14d8a:	0000                	unimp
   14d8c:	00ff                	0xff
   14d8e:	0000                	unimp
   14d90:	ff00                	fsw	fs0,56(a4)
   14d92:	0000                	unimp
   14d94:	00ff                	0xff
   14d96:	0000                	unimp
   14d98:	ff00                	fsw	fs0,56(a4)
   14d9a:	ffff                	0xffff
   14d9c:	0000                	unimp
   14d9e:	0000                	unimp
   14da0:	0000                	unimp
   14da2:	ffff                	0xffff
   14da4:	00ff                	0xff
   14da6:	0000                	unimp
   14da8:	ff00                	fsw	fs0,56(a4)
	...
   14db2:	0000                	unimp
   14db4:	00ff                	0xff
   14db6:	0000                	unimp
   14db8:	0000                	unimp
   14dba:	00ff                	0xff
   14dbc:	0000                	unimp
   14dbe:	0000                	unimp
   14dc0:	ff00                	fsw	fs0,56(a4)
   14dc2:	0000                	unimp
   14dc4:	00ff                	0xff
   14dc6:	0000                	unimp
   14dc8:	0000                	unimp
   14dca:	00ff                	0xff
   14dcc:	0000                	unimp
   14dce:	0000                	unimp
   14dd0:	ff00                	fsw	fs0,56(a4)
   14dd2:	ff00                	fsw	fs0,56(a4)
   14dd4:	0000                	unimp
   14dd6:	0000                	unimp
   14dd8:	ff00                	fsw	fs0,56(a4)
   14dda:	ff00                	fsw	fs0,56(a4)
   14ddc:	0000                	unimp
   14dde:	0000                	unimp
   14de0:	0000                	unimp
   14de2:	00ff                	0xff
   14de4:	0000                	unimp
   14de6:	0000                	unimp
   14de8:	ff00                	fsw	fs0,56(a4)
	...
   14df2:	00ff                	0xff
   14df4:	0000                	unimp
   14df6:	0000                	unimp
   14df8:	0000                	unimp
   14dfa:	00ff                	0xff
   14dfc:	0000                	unimp
   14dfe:	0000                	unimp
   14e00:	0000                	unimp
   14e02:	00ff                	0xff
	...
   14e10:	00ff                	0xff
   14e12:	ffff                	0xffff
   14e14:	ff00                	fsw	fs0,56(a4)
   14e16:	0000                	unimp
   14e18:	ffff                	0xffff
   14e1a:	ffff                	0xffff
   14e1c:	0000                	unimp
   14e1e:	0000                	unimp
   14e20:	0000                	unimp
   14e22:	ffff                	0xffff
   14e24:	00ff                	0xff
   14e26:	0000                	unimp
   14e28:	ff00                	fsw	fs0,56(a4)
   14e2a:	ffff                	0xffff
   14e2c:	0000                	unimp
   14e2e:	0000                	unimp
   14e30:	0000                	unimp
   14e32:	ffff                	0xffff
   14e34:	0000                	unimp
   14e36:	0000                	unimp
   14e38:	0000                	unimp
   14e3a:	ffff                	0xffff
   14e3c:	00ff                	0xff
   14e3e:	0000                	unimp
   14e40:	0000                	unimp
   14e42:	ffff                	0xffff
   14e44:	0000                	unimp
   14e46:	0000                	unimp
   14e48:	0000                	unimp
   14e4a:	00ff                	0xff
	...
   14e54:	00ff                	0xff
   14e56:	0000                	unimp
   14e58:	ff00                	fsw	fs0,56(a4)
   14e5a:	0000                	unimp
   14e5c:	00ff                	0xff
   14e5e:	0000                	unimp
   14e60:	0000                	unimp
   14e62:	00ff                	0xff
   14e64:	0000                	unimp
   14e66:	0000                	unimp
   14e68:	0000                	unimp
   14e6a:	ff00                	fsw	fs0,56(a4)
   14e6c:	0000                	unimp
   14e6e:	0000                	unimp
   14e70:	ff00                	fsw	fs0,56(a4)
   14e72:	0000                	unimp
   14e74:	00ff                	0xff
   14e76:	0000                	unimp
   14e78:	0000                	unimp
   14e7a:	ff00                	fsw	fs0,56(a4)
   14e7c:	0000                	unimp
   14e7e:	0000                	unimp
   14e80:	00ff                	0xff
   14e82:	00ff                	0xff
   14e84:	00ff                	0xff
   14e86:	0000                	unimp
   14e88:	ff00                	fsw	fs0,56(a4)
   14e8a:	0000                	unimp
   14e8c:	00ff                	0xff
   14e8e:	0000                	unimp
   14e90:	0000                	unimp
   14e92:	ffff                	0xffff
   14e94:	0000                	unimp
   14e96:	0000                	unimp
   14e98:	ff00                	fsw	fs0,56(a4)
	...
   14ea2:	0000                	unimp
   14ea4:	00ff                	0xff
   14ea6:	0000                	unimp
   14ea8:	ff00                	fsw	fs0,56(a4)
   14eaa:	0000                	unimp
   14eac:	0000                	unimp
   14eae:	0000                	unimp
   14eb0:	ff00                	fsw	fs0,56(a4)
   14eb2:	ffff                	0xffff
   14eb4:	0000                	unimp
   14eb6:	0000                	unimp
   14eb8:	0000                	unimp
   14eba:	ff00                	fsw	fs0,56(a4)
   14ebc:	0000                	unimp
   14ebe:	0000                	unimp
   14ec0:	0000                	unimp
   14ec2:	ffff                	0xffff
   14ec4:	0000                	unimp
   14ec6:	0000                	unimp
   14ec8:	0000                	unimp
   14eca:	00ff                	0xff
   14ecc:	0000                	unimp
   14ece:	0000                	unimp
   14ed0:	ff00                	fsw	fs0,56(a4)
   14ed2:	ff00                	fsw	fs0,56(a4)
   14ed4:	0000                	unimp
   14ed6:	0000                	unimp
   14ed8:	00ff                	0xff
   14eda:	0000                	unimp
   14edc:	00ff                	0xff
   14ede:	0000                	unimp
   14ee0:	0000                	unimp
   14ee2:	00ff                	0xff
   14ee4:	0000                	unimp
   14ee6:	0000                	unimp
   14ee8:	ff00                	fsw	fs0,56(a4)
   14eea:	ffff                	0xffff
   14eec:	00ff                	0xff
   14eee:	0000                	unimp
   14ef0:	0000                	unimp
   14ef2:	00ff                	0xff
   14ef4:	0000                	unimp
   14ef6:	0000                	unimp
   14ef8:	0000                	unimp
   14efa:	00ff                	0xff
   14efc:	0000                	unimp
   14efe:	0000                	unimp
   14f00:	0000                	unimp
   14f02:	00ff                	0xff
	...
   14f10:	ff00                	fsw	fs0,56(a4)
   14f12:	0000                	unimp
   14f14:	00ff                	0xff
	...
   14f52:	ffff                	0xffff
	...
   14f68:	ff00                	fsw	fs0,56(a4)
   14f6a:	00ff                	0xff
	...
   14f98:	ff00                	fsw	fs0,56(a4)
	...
   14fa2:	0000                	unimp
   14fa4:	00ff                	0xff
	...
   14fde:	0000                	unimp
   14fe0:	ffff                	0xffff
	...
   14ff2:	ff00                	fsw	fs0,56(a4)
   14ff4:	0000                	unimp
   14ff6:	0000                	unimp
   14ff8:	0000                	unimp
   14ffa:	00ff                	0xff
   14ffc:	0000                	unimp
   14ffe:	0000                	unimp
   15000:	ff00                	fsw	fs0,56(a4)
	...
   15012:	ffff                	0xffff
   15014:	0000                	unimp
	...

00015018 <npio2_hw>:
   15018:	0f00                	addi	s0,sp,912
   1501a:	3fc9                	jal	14fec <_exit+0x188c>
   1501c:	0f00                	addi	s0,sp,912
   1501e:	4049                	c.li	zero,18
   15020:	cb00                	sw	s0,16(a4)
   15022:	4096                	lw	ra,68(sp)
   15024:	0f00                	addi	s0,sp,912
   15026:	40c9                	li	ra,18
   15028:	5300                	lw	s0,32(a4)
   1502a:	cb0040fb          	0xcb0040fb
   1502e:	4116                	lw	sp,68(sp)
   15030:	ed00                	fsw	fs0,24(a0)
   15032:	0f00412f          	0xf00412f
   15036:	4149                	li	sp,18
   15038:	3100                	fld	fs0,32(a0)
   1503a:	4162                	lw	sp,24(sp)
   1503c:	5300                	lw	s0,32(a4)
   1503e:	3a00417b          	0x3a00417b
   15042:	418a                	lw	gp,128(sp)
   15044:	cb00                	sw	s0,16(a4)
   15046:	4196                	lw	gp,68(sp)
   15048:	5c00                	lw	s0,56(s0)
   1504a:	ed0041a3          	0xed0041a3
   1504e:	7e0041af          	0x7e0041af
   15052:	41bc                	lw	a5,64(a1)
   15054:	0f00                	addi	s0,sp,912
   15056:	41c9                	li	gp,18
   15058:	a000                	fsd	fs0,0(s0)
   1505a:	41d5                	li	gp,21
   1505c:	3100                	fld	fs0,32(a0)
   1505e:	41e2                	lw	gp,24(sp)
   15060:	c200                	sw	s0,0(a2)
   15062:	41ee                	lw	gp,216(sp)
   15064:	5300                	lw	s0,32(a4)
   15066:	f20041fb          	0xf20041fb
   1506a:	3a004203          	lbu	tp,928(zero) # 3a0 <main-0xfcd4>
   1506e:	420a                	lw	tp,128(sp)
   15070:	8300                	0x8300
   15072:	4210                	lw	a2,0(a2)
   15074:	cb00                	sw	s0,16(a4)
   15076:	4216                	lw	tp,68(sp)
   15078:	1400                	addi	s0,sp,544
   1507a:	421d                	li	tp,7
   1507c:	5c00                	lw	s0,56(s0)
   1507e:	a5004223          	0xa5004223
   15082:	4229                	li	tp,10
   15084:	ed00                	fsw	fs0,24(a0)
   15086:	3600422f          	0x3600422f
   1508a:	4236                	lw	tp,76(sp)
   1508c:	7e00                	flw	fs0,56(a2)
   1508e:	423c                	lw	a5,64(a2)
   15090:	c700                	sw	s0,8(a4)
   15092:	4242                	lw	tp,16(sp)
   15094:	0f00                	addi	s0,sp,912
   15096:	4249                	li	tp,18

00015098 <two_over_pi>:
   15098:	00a2                	slli	ra,ra,0x8
   1509a:	0000                	unimp
   1509c:	00f9                	addi	ra,ra,30
   1509e:	0000                	unimp
   150a0:	00000083          	lb	ra,0(zero) # 0 <main-0x10074>
   150a4:	006e                	c.slli	zero,0x1b
   150a6:	0000                	unimp
   150a8:	004e                	c.slli	zero,0x13
   150aa:	0000                	unimp
   150ac:	0044                	addi	s1,sp,4
   150ae:	0000                	unimp
   150b0:	0015                	c.nop	5
   150b2:	0000                	unimp
   150b4:	0029                	c.nop	10
   150b6:	0000                	unimp
   150b8:	00fc                	addi	a5,sp,76
   150ba:	0000                	unimp
   150bc:	00000027          	0x27
   150c0:	00000057          	0x57
   150c4:	00d1                	addi	ra,ra,20
   150c6:	0000                	unimp
   150c8:	00f5                	addi	ra,ra,29
   150ca:	0000                	unimp
   150cc:	0034                	addi	a3,sp,8
   150ce:	0000                	unimp
   150d0:	00dd                	addi	ra,ra,23
   150d2:	0000                	unimp
   150d4:	00c0                	addi	s0,sp,68
   150d6:	0000                	unimp
   150d8:	000000db          	0xdb
   150dc:	0062                	c.slli	zero,0x18
   150de:	0000                	unimp
   150e0:	0095                	addi	ra,ra,5
   150e2:	0000                	unimp
   150e4:	0099                	addi	ra,ra,6
   150e6:	0000                	unimp
   150e8:	003c                	addi	a5,sp,8
   150ea:	0000                	unimp
   150ec:	00000043          	fmadd.s	ft0,ft0,ft0,ft0,rne
   150f0:	0090                	addi	a2,sp,64
   150f2:	0000                	unimp
   150f4:	0041                	c.nop	16
   150f6:	0000                	unimp
   150f8:	00fe                	slli	ra,ra,0x1f
   150fa:	0000                	unimp
   150fc:	0051                	c.nop	20
   150fe:	0000                	unimp
   15100:	00000063          	beqz	zero,15100 <two_over_pi+0x68>
   15104:	000000ab          	0xab
   15108:	00de                	slli	ra,ra,0x17
   1510a:	0000                	unimp
   1510c:	000000bb          	0xbb
   15110:	00c5                	addi	ra,ra,17
   15112:	0000                	unimp
   15114:	0061                	c.nop	24
   15116:	0000                	unimp
   15118:	000000b7          	lui	ra,0x0
   1511c:	0024                	addi	s1,sp,8
   1511e:	0000                	unimp
   15120:	006e                	c.slli	zero,0x1b
   15122:	0000                	unimp
   15124:	003a                	c.slli	zero,0xe
   15126:	0000                	unimp
   15128:	0042                	c.slli	zero,0x10
   1512a:	0000                	unimp
   1512c:	004d                	c.nop	19
   1512e:	0000                	unimp
   15130:	00d2                	slli	ra,ra,0x14
   15132:	0000                	unimp
   15134:	00e0                	addi	s0,sp,76
   15136:	0000                	unimp
   15138:	0006                	c.slli	zero,0x1
   1513a:	0000                	unimp
   1513c:	0049                	c.nop	18
   1513e:	0000                	unimp
   15140:	002e                	c.slli	zero,0xb
   15142:	0000                	unimp
   15144:	00ea                	slli	ra,ra,0x1a
   15146:	0000                	unimp
   15148:	0009                	c.nop	2
   1514a:	0000                	unimp
   1514c:	00d1                	addi	ra,ra,20
   1514e:	0000                	unimp
   15150:	0092                	slli	ra,ra,0x4
   15152:	0000                	unimp
   15154:	001c                	0x1c
   15156:	0000                	unimp
   15158:	00fe                	slli	ra,ra,0x1f
   1515a:	0000                	unimp
   1515c:	001d                	c.nop	7
   1515e:	0000                	unimp
   15160:	000000eb          	0xeb
   15164:	001c                	0x1c
   15166:	0000                	unimp
   15168:	00b1                	addi	ra,ra,12
   1516a:	0000                	unimp
   1516c:	0029                	c.nop	10
   1516e:	0000                	unimp
   15170:	000000a7          	0xa7
   15174:	003e                	c.slli	zero,0xf
   15176:	0000                	unimp
   15178:	00e8                	addi	a0,sp,76
   1517a:	0000                	unimp
   1517c:	0082                	c.slli64	ra
   1517e:	0000                	unimp
   15180:	0035                	c.nop	13
   15182:	0000                	unimp
   15184:	00f5                	addi	ra,ra,29
   15186:	0000                	unimp
   15188:	002e                	c.slli	zero,0xb
   1518a:	0000                	unimp
   1518c:	000000bb          	0xbb
   15190:	0044                	addi	s1,sp,4
   15192:	0000                	unimp
   15194:	0084                	addi	s1,sp,64
   15196:	0000                	unimp
   15198:	00e9                	addi	ra,ra,26
   1519a:	0000                	unimp
   1519c:	009c                	addi	a5,sp,64
   1519e:	0000                	unimp
   151a0:	0070                	addi	a2,sp,12
   151a2:	0000                	unimp
   151a4:	0026                	c.slli	zero,0x9
   151a6:	0000                	unimp
   151a8:	00b4                	addi	a3,sp,72
   151aa:	0000                	unimp
   151ac:	005f 0000 007e      	0x7e0000005f
   151b2:	0000                	unimp
   151b4:	0041                	c.nop	16
   151b6:	0000                	unimp
   151b8:	0039                	c.nop	14
   151ba:	0000                	unimp
   151bc:	0091                	addi	ra,ra,4
   151be:	0000                	unimp
   151c0:	00d6                	slli	ra,ra,0x15
   151c2:	0000                	unimp
   151c4:	0039                	c.nop	14
   151c6:	0000                	unimp
   151c8:	00000083          	lb	ra,0(zero) # 0 <main-0x10074>
   151cc:	00000053          	fadd.s	ft0,ft0,ft0,rne
   151d0:	0039                	c.nop	14
   151d2:	0000                	unimp
   151d4:	00f4                	addi	a3,sp,76
   151d6:	0000                	unimp
   151d8:	009c                	addi	a5,sp,64
   151da:	0000                	unimp
   151dc:	0084                	addi	s1,sp,64
   151de:	0000                	unimp
   151e0:	005f 0000 008b      	0x8b0000005f
   151e6:	0000                	unimp
   151e8:	00bd                	addi	ra,ra,15
   151ea:	0000                	unimp
   151ec:	00f9                	addi	ra,ra,30
   151ee:	0000                	unimp
   151f0:	0028                	addi	a0,sp,8
   151f2:	0000                	unimp
   151f4:	0000003b          	0x3b
   151f8:	001f 0000 00f8      	0xf80000001f
   151fe:	0000                	unimp
   15200:	00000097          	auipc	ra,0x0
   15204:	00ff                	0xff
   15206:	0000                	unimp
   15208:	00de                	slli	ra,ra,0x17
   1520a:	0000                	unimp
   1520c:	0005                	c.nop	1
   1520e:	0000                	unimp
   15210:	0098                	addi	a4,sp,64
   15212:	0000                	unimp
   15214:	0000000f          	fence	unknown,unknown
   15218:	000000ef          	jal	ra,15218 <two_over_pi+0x180>
   1521c:	0000002f          	0x2f
   15220:	0011                	c.nop	4
   15222:	0000                	unimp
   15224:	0000008b          	0x8b
   15228:	005a                	c.slli	zero,0x16
   1522a:	0000                	unimp
   1522c:	000a                	c.slli	zero,0x2
   1522e:	0000                	unimp
   15230:	006d                	c.nop	27
   15232:	0000                	unimp
   15234:	001f 0000 006d      	0x6d0000001f
   1523a:	0000                	unimp
   1523c:	0036                	c.slli	zero,0xd
   1523e:	0000                	unimp
   15240:	007e                	c.slli	zero,0x1f
   15242:	0000                	unimp
   15244:	000000cf          	fnmadd.s	ft1,ft0,ft0,ft0,rne
   15248:	00000027          	0x27
   1524c:	000000cb          	fnmsub.s	ft1,ft0,ft0,ft0,rne
   15250:	0009                	c.nop	2
   15252:	0000                	unimp
   15254:	000000b7          	lui	ra,0x0
   15258:	0000004f          	fnmadd.s	ft0,ft0,ft0,ft0,rne
   1525c:	0046                	c.slli	zero,0x11
   1525e:	0000                	unimp
   15260:	0000003f 00000066 	0x660000003f
   15268:	009e                	slli	ra,ra,0x7
   1526a:	0000                	unimp
   1526c:	005f 0000 00ea      	0xea0000005f
   15272:	0000                	unimp
   15274:	002d                	c.nop	11
   15276:	0000                	unimp
   15278:	0075                	c.nop	29
   1527a:	0000                	unimp
   1527c:	00000027          	0x27
   15280:	00ba                	slli	ra,ra,0xe
   15282:	0000                	unimp
   15284:	000000c7          	fmsub.s	ft1,ft0,ft0,ft0,rne
   15288:	000000eb          	0xeb
   1528c:	00e5                	addi	ra,ra,25
   1528e:	0000                	unimp
   15290:	00f1                	addi	ra,ra,28
   15292:	0000                	unimp
   15294:	0000007b          	0x7b
   15298:	003d                	c.nop	15
   1529a:	0000                	unimp
   1529c:	00000007          	0x7
   152a0:	0039                	c.nop	14
   152a2:	0000                	unimp
   152a4:	000000f7          	0xf7
   152a8:	008a                	slli	ra,ra,0x2
   152aa:	0000                	unimp
   152ac:	0052                	c.slli	zero,0x14
   152ae:	0000                	unimp
   152b0:	0092                	slli	ra,ra,0x4
   152b2:	0000                	unimp
   152b4:	00ea                	slli	ra,ra,0x1a
   152b6:	0000                	unimp
   152b8:	0000006b          	0x6b
   152bc:	000000fb          	0xfb
   152c0:	005f 0000 00b1      	0xb10000005f
   152c6:	0000                	unimp
   152c8:	001f 0000 008d      	0x8d0000001f
   152ce:	0000                	unimp
   152d0:	005d                	c.nop	23
   152d2:	0000                	unimp
   152d4:	0008                	0x8
   152d6:	0000                	unimp
   152d8:	0056                	c.slli	zero,0x15
   152da:	0000                	unimp
   152dc:	00000003          	lb	zero,0(zero) # 0 <main-0x10074>
   152e0:	0030                	addi	a2,sp,8
   152e2:	0000                	unimp
   152e4:	0046                	c.slli	zero,0x11
   152e6:	0000                	unimp
   152e8:	00fc                	addi	a5,sp,76
   152ea:	0000                	unimp
   152ec:	0000007b          	0x7b
   152f0:	0000006b          	0x6b
   152f4:	000000ab          	0xab
   152f8:	00f0                	addi	a2,sp,76
   152fa:	0000                	unimp
   152fc:	000000cf          	fnmadd.s	ft1,ft0,ft0,ft0,rne
   15300:	00bc                	addi	a5,sp,72
   15302:	0000                	unimp
   15304:	0020                	addi	s0,sp,8
   15306:	0000                	unimp
   15308:	009a                	slli	ra,ra,0x6
   1530a:	0000                	unimp
   1530c:	00f4                	addi	a3,sp,76
   1530e:	0000                	unimp
   15310:	0036                	c.slli	zero,0xd
   15312:	0000                	unimp
   15314:	001d                	c.nop	7
   15316:	0000                	unimp
   15318:	00a9                	addi	ra,ra,10
   1531a:	0000                	unimp
   1531c:	000000e3          	beqz	zero,15b1c <__clz_tab+0x734>
   15320:	0091                	addi	ra,ra,4
   15322:	0000                	unimp
   15324:	0061                	c.nop	24
   15326:	0000                	unimp
   15328:	005e                	c.slli	zero,0x17
   1532a:	0000                	unimp
   1532c:	00e6                	slli	ra,ra,0x19
   1532e:	0000                	unimp
   15330:	0000001b          	0x1b
   15334:	0008                	0x8
   15336:	0000                	unimp
   15338:	0065                	c.nop	25
   1533a:	0000                	unimp
   1533c:	0099                	addi	ra,ra,6
   1533e:	0000                	unimp
   15340:	0085                	addi	ra,ra,1
   15342:	0000                	unimp
   15344:	005f 0000 0014      	0x140000005f
   1534a:	0000                	unimp
   1534c:	00a0                	addi	s0,sp,72
   1534e:	0000                	unimp
   15350:	0068                	addi	a0,sp,12
   15352:	0000                	unimp
   15354:	0040                	addi	s0,sp,4
   15356:	0000                	unimp
   15358:	008d                	addi	ra,ra,3
   1535a:	0000                	unimp
   1535c:	00ff                	0xff
   1535e:	0000                	unimp
   15360:	00d8                	addi	a4,sp,68
   15362:	0000                	unimp
   15364:	0080                	addi	s0,sp,64
   15366:	0000                	unimp
   15368:	004d                	c.nop	19
   1536a:	0000                	unimp
   1536c:	00000073          	ecall
   15370:	00000027          	0x27
   15374:	0031                	c.nop	12
   15376:	0000                	unimp
   15378:	0006                	c.slli	zero,0x1
   1537a:	0000                	unimp
   1537c:	0006                	c.slli	zero,0x1
   1537e:	0000                	unimp
   15380:	0015                	c.nop	5
   15382:	0000                	unimp
   15384:	0056                	c.slli	zero,0x15
   15386:	0000                	unimp
   15388:	00ca                	slli	ra,ra,0x12
   1538a:	0000                	unimp
   1538c:	00000073          	ecall
   15390:	00a8                	addi	a0,sp,72
   15392:	0000                	unimp
   15394:	00c9                	addi	ra,ra,18
   15396:	0000                	unimp
   15398:	0060                	addi	s0,sp,12
   1539a:	0000                	unimp
   1539c:	00e2                	slli	ra,ra,0x18
   1539e:	0000                	unimp
   153a0:	0000007b          	0x7b
   153a4:	00c0                	addi	s0,sp,68
   153a6:	0000                	unimp
   153a8:	008c                	addi	a1,sp,64
   153aa:	0000                	unimp
   153ac:	0000006b          	0x6b

000153b0 <init_jk>:
   153b0:	0004                	0x4
   153b2:	0000                	unimp
   153b4:	00000007          	0x7
   153b8:	0009                	c.nop	2
	...

000153bc <PIo2>:
   153bc:	0000                	unimp
   153be:	3fc9                	jal	15390 <two_over_pi+0x2f8>
   153c0:	0000                	unimp
   153c2:	39f0                	fld	fa2,240(a1)
   153c4:	0000                	unimp
   153c6:	37da                	fld	fa5,432(sp)
   153c8:	0000                	unimp
   153ca:	33a2                	fld	ft7,40(sp)
   153cc:	0000                	unimp
   153ce:	2e84                	fld	fs1,24(a3)
   153d0:	0000                	unimp
   153d2:	2b50                	fld	fa2,144(a4)
   153d4:	0000                	unimp
   153d6:	27c2                	fld	fa5,16(sp)
   153d8:	0000                	unimp
   153da:	22d0                	fld	fa2,128(a3)
   153dc:	0000                	unimp
   153de:	1fc4                	addi	s1,sp,1012
   153e0:	0000                	unimp
   153e2:	1bc6                	slli	s7,s7,0x31
   153e4:	0000                	unimp
   153e6:	1744                	addi	s1,sp,932

000153e8 <__clz_tab>:
   153e8:	0100                	addi	s0,sp,128
   153ea:	0202                	c.slli64	tp
   153ec:	03030303          	lb	t1,48(t1)
   153f0:	0404                	addi	s1,sp,512
   153f2:	0404                	addi	s1,sp,512
   153f4:	0404                	addi	s1,sp,512
   153f6:	0404                	addi	s1,sp,512
   153f8:	0505                	addi	a0,a0,1
   153fa:	0505                	addi	a0,a0,1
   153fc:	0505                	addi	a0,a0,1
   153fe:	0505                	addi	a0,a0,1
   15400:	0505                	addi	a0,a0,1
   15402:	0505                	addi	a0,a0,1
   15404:	0505                	addi	a0,a0,1
   15406:	0505                	addi	a0,a0,1
   15408:	0606                	slli	a2,a2,0x1
   1540a:	0606                	slli	a2,a2,0x1
   1540c:	0606                	slli	a2,a2,0x1
   1540e:	0606                	slli	a2,a2,0x1
   15410:	0606                	slli	a2,a2,0x1
   15412:	0606                	slli	a2,a2,0x1
   15414:	0606                	slli	a2,a2,0x1
   15416:	0606                	slli	a2,a2,0x1
   15418:	0606                	slli	a2,a2,0x1
   1541a:	0606                	slli	a2,a2,0x1
   1541c:	0606                	slli	a2,a2,0x1
   1541e:	0606                	slli	a2,a2,0x1
   15420:	0606                	slli	a2,a2,0x1
   15422:	0606                	slli	a2,a2,0x1
   15424:	0606                	slli	a2,a2,0x1
   15426:	0606                	slli	a2,a2,0x1
   15428:	07070707          	0x7070707
   1542c:	07070707          	0x7070707
   15430:	07070707          	0x7070707
   15434:	07070707          	0x7070707
   15438:	07070707          	0x7070707
   1543c:	07070707          	0x7070707
   15440:	07070707          	0x7070707
   15444:	07070707          	0x7070707
   15448:	07070707          	0x7070707
   1544c:	07070707          	0x7070707
   15450:	07070707          	0x7070707
   15454:	07070707          	0x7070707
   15458:	07070707          	0x7070707
   1545c:	07070707          	0x7070707
   15460:	07070707          	0x7070707
   15464:	07070707          	0x7070707
   15468:	0808                	addi	a0,sp,16
   1546a:	0808                	addi	a0,sp,16
   1546c:	0808                	addi	a0,sp,16
   1546e:	0808                	addi	a0,sp,16
   15470:	0808                	addi	a0,sp,16
   15472:	0808                	addi	a0,sp,16
   15474:	0808                	addi	a0,sp,16
   15476:	0808                	addi	a0,sp,16
   15478:	0808                	addi	a0,sp,16
   1547a:	0808                	addi	a0,sp,16
   1547c:	0808                	addi	a0,sp,16
   1547e:	0808                	addi	a0,sp,16
   15480:	0808                	addi	a0,sp,16
   15482:	0808                	addi	a0,sp,16
   15484:	0808                	addi	a0,sp,16
   15486:	0808                	addi	a0,sp,16
   15488:	0808                	addi	a0,sp,16
   1548a:	0808                	addi	a0,sp,16
   1548c:	0808                	addi	a0,sp,16
   1548e:	0808                	addi	a0,sp,16
   15490:	0808                	addi	a0,sp,16
   15492:	0808                	addi	a0,sp,16
   15494:	0808                	addi	a0,sp,16
   15496:	0808                	addi	a0,sp,16
   15498:	0808                	addi	a0,sp,16
   1549a:	0808                	addi	a0,sp,16
   1549c:	0808                	addi	a0,sp,16
   1549e:	0808                	addi	a0,sp,16
   154a0:	0808                	addi	a0,sp,16
   154a2:	0808                	addi	a0,sp,16
   154a4:	0808                	addi	a0,sp,16
   154a6:	0808                	addi	a0,sp,16
   154a8:	0808                	addi	a0,sp,16
   154aa:	0808                	addi	a0,sp,16
   154ac:	0808                	addi	a0,sp,16
   154ae:	0808                	addi	a0,sp,16
   154b0:	0808                	addi	a0,sp,16
   154b2:	0808                	addi	a0,sp,16
   154b4:	0808                	addi	a0,sp,16
   154b6:	0808                	addi	a0,sp,16
   154b8:	0808                	addi	a0,sp,16
   154ba:	0808                	addi	a0,sp,16
   154bc:	0808                	addi	a0,sp,16
   154be:	0808                	addi	a0,sp,16
   154c0:	0808                	addi	a0,sp,16
   154c2:	0808                	addi	a0,sp,16
   154c4:	0808                	addi	a0,sp,16
   154c6:	0808                	addi	a0,sp,16
   154c8:	0808                	addi	a0,sp,16
   154ca:	0808                	addi	a0,sp,16
   154cc:	0808                	addi	a0,sp,16
   154ce:	0808                	addi	a0,sp,16
   154d0:	0808                	addi	a0,sp,16
   154d2:	0808                	addi	a0,sp,16
   154d4:	0808                	addi	a0,sp,16
   154d6:	0808                	addi	a0,sp,16
   154d8:	0808                	addi	a0,sp,16
   154da:	0808                	addi	a0,sp,16
   154dc:	0808                	addi	a0,sp,16
   154de:	0808                	addi	a0,sp,16
   154e0:	0808                	addi	a0,sp,16
   154e2:	0808                	addi	a0,sp,16
   154e4:	0808                	addi	a0,sp,16
   154e6:	0808                	addi	a0,sp,16

Disassembly of section .eh_frame:

00016000 <__EH_FRAME_BEGIN__>:
   16000:	0010                	0x10
   16002:	0000                	unimp
   16004:	0000                	unimp
   16006:	0000                	unimp
   16008:	00527a03          	0x527a03
   1600c:	7c01                	lui	s8,0xfffe0
   1600e:	0101                	addi	sp,sp,0
   16010:	00020d1b          	0x20d1b
   16014:	0034                	addi	a3,sp,8
   16016:	0000                	unimp
   16018:	0018                	0x18
   1601a:	0000                	unimp
   1601c:	a4e8                	fsd	fa0,200(s1)
   1601e:	ffff                	0xffff
   16020:	01d4                	addi	a3,sp,196
   16022:	0000                	unimp
   16024:	4400                	lw	s0,8(s0)
   16026:	300e                	fld	ft0,224(sp)
   16028:	b544                	fsd	fs1,168(a0)
   1602a:	4c0a                	lw	s8,128(sp)
   1602c:	07b2                	slli	a5,a5,0xc
   1602e:	8158                	0x8158
   16030:	a801                	j	16040 <__EH_FRAME_BEGIN__+0x40>
   16032:	a905                	j	16462 <impure_data+0xc2>
   16034:	b306                	fsd	ft1,416(sp)
   16036:	b408                	fsd	fa0,40(s0)
   16038:	0309                	addi	t1,t1,2
   1603a:	017c                	addi	a5,sp,140
   1603c:	50c1                	li	ra,-16
   1603e:	44e8                	lw	a0,76(s1)
   16040:	44e9                	li	s1,26
   16042:	44f2                	lw	s1,28(sp)
   16044:	44f444f3          	0x44f444f3
   16048:	44f5                	li	s1,29
   1604a:	000e                	c.slli	zero,0x3
   1604c:	0030                	addi	a2,sp,8
   1604e:	0000                	unimp
   16050:	0050                	addi	a2,sp,4
   16052:	0000                	unimp
   16054:	a684                	fsd	fs1,8(a3)
   16056:	ffff                	0xffff
   16058:	008c                	addi	a1,sp,64
   1605a:	0000                	unimp
   1605c:	4400                	lw	s0,8(s0)
   1605e:	200e                	fld	ft0,192(sp)
   16060:	8944                	0x8944
   16062:	02885803          	lhu	a6,40(a6)
   16066:	0492                	slli	s1,s1,0x4
   16068:	06940593          	addi	a1,s0,105
   1606c:	0181                	addi	gp,gp,0
   1606e:	5002                	0x5002
   16070:	44c1                	li	s1,16
   16072:	44c8                	lw	a0,12(s1)
   16074:	44c9                	li	s1,18
   16076:	44d2                	lw	s1,20(sp)
   16078:	44d444d3          	0x44d444d3
   1607c:	000e                	c.slli	zero,0x3
   1607e:	0000                	unimp
   16080:	006c                	addi	a1,sp,12
   16082:	0000                	unimp
   16084:	0084                	addi	s1,sp,64
   16086:	0000                	unimp
   16088:	a6dc                	fsd	fa5,136(a3)
   1608a:	ffff                	0xffff
   1608c:	0404                	addi	s1,sp,512
   1608e:	0000                	unimp
   16090:	4400                	lw	s0,8(s0)
   16092:	600e                	flw	ft0,192(sp)
   16094:	9344                	0x9344
   16096:	0205                	addi	tp,tp,1
   16098:	8854                	0x8854
   1609a:	8902                	jr	s2
   1609c:	96049203          	lh	tp,-1696(s1)
   160a0:	8108                	0x8108
   160a2:	9401                	srai	s0,s0,0x20
   160a4:	9506                	add	a0,a0,ra
   160a6:	98099707          	0x98099707
   160aa:	990a                	add	s2,s2,sp
   160ac:	9b0c9a0b          	0x9b0c9a0b
   160b0:	a80d                	j	160e2 <__EH_FRAME_BEGIN__+0xe2>
   160b2:	a911                	j	164c6 <impure_data+0x126>
   160b4:	b212                	fsd	ft4,288(sp)
   160b6:	b414b313          	sltiu	t1,s1,-1215
   160ba:	b515                	j	15ede <__clz_tab+0xaf6>
   160bc:	b616                	fsd	ft5,296(sp)
   160be:	02f40317          	auipc	t1,0x2f40
   160c2:	c10a                	sw	sp,128(sp)
   160c4:	c844                	sw	s1,20(s0)
   160c6:	c948                	sw	a0,20(a0)
   160c8:	d244                	sw	s1,36(a2)
   160ca:	d344                	sw	s1,36(a4)
   160cc:	d444                	sw	s1,44(s0)
   160ce:	d544                	sw	s1,44(a0)
   160d0:	d644                	sw	s1,44(a2)
   160d2:	d744                	sw	s1,44(a4)
   160d4:	d844                	sw	s1,52(s0)
   160d6:	d944                	sw	s1,52(a0)
   160d8:	da44                	sw	s1,52(a2)
   160da:	db44                	sw	s1,52(a4)
   160dc:	e844                	fsw	fs1,20(s0)
   160de:	e944                	fsw	fs1,20(a0)
   160e0:	f244                	fsw	fs1,36(a2)
   160e2:	f344                	fsw	fs1,36(a4)
   160e4:	f444                	fsw	fs1,44(s0)
   160e6:	f544                	fsw	fs1,44(a0)
   160e8:	f644                	fsw	fs1,44(a2)
   160ea:	0e44                	addi	s1,sp,788
   160ec:	4400                	lw	s0,8(s0)
   160ee:	0040000b          	0x40000b
   160f2:	0000                	unimp
   160f4:	00f4                	addi	a3,sp,76
   160f6:	0000                	unimp
   160f8:	9f7c                	0x9f7c
   160fa:	ffff                	0xffff
   160fc:	03a4                	addi	s1,sp,456
   160fe:	0000                	unimp
   16100:	4400                	lw	s0,8(s0)
   16102:	900e                	c.add	zero,gp
   16104:	0201                	addi	tp,tp,0
   16106:	0e58                	addi	a4,sp,788
   16108:	4190                	lw	a2,0(a1)
   1610a:	0181                	addi	gp,gp,0
   1610c:	0288                	addi	a0,sp,320
   1610e:	0389                	addi	t2,t2,2
   16110:	0492                	slli	s1,s1,0x4
   16112:	06940593          	addi	a1,s0,105
   16116:	0795                	addi	a5,a5,5
   16118:	0896                	slli	a7,a7,0x5
   1611a:	0a980997          	auipc	s3,0xa980
   1611e:	0b99                	addi	s7,s7,6
   16120:	0c9a                	slli	s9,s9,0x6
   16122:	11a80d9b          	0x11a80d9b
   16126:	12a9                	addi	t0,t0,-22
   16128:	13b2                	slli	t2,t2,0x2c
   1612a:	15b414b3          	0x15b414b3
   1612e:	16b5                	addi	a3,a3,-19
   16130:	17b6                	slli	a5,a5,0x2d
   16132:	0000                	unimp
   16134:	0010                	0x10
   16136:	0000                	unimp
   16138:	0138                	addi	a4,sp,136
   1613a:	0000                	unimp
   1613c:	aa2c                	fsd	fa1,80(a2)
   1613e:	ffff                	0xffff
   16140:	002c                	addi	a1,sp,8
   16142:	0000                	unimp
   16144:	0000                	unimp
   16146:	0000                	unimp
   16148:	0010                	0x10
   1614a:	0000                	unimp
   1614c:	014c                	addi	a1,sp,132
   1614e:	0000                	unimp
   16150:	aa44                	fsd	fs1,144(a2)
   16152:	ffff                	0xffff
   16154:	0014                	0x14
   16156:	0000                	unimp
   16158:	0000                	unimp
   1615a:	0000                	unimp
   1615c:	0018                	0x18
   1615e:	0000                	unimp
   16160:	0160                	addi	s0,sp,140
   16162:	0000                	unimp
   16164:	aa44                	fsd	fs1,144(a2)
   16166:	ffff                	0xffff
   16168:	0024                	addi	s1,sp,8
   1616a:	0000                	unimp
   1616c:	4800                	lw	s0,16(s0)
   1616e:	100e                	c.slli	zero,0x23
   16170:	814c                	0x814c
   16172:	4801                	li	a6,0
   16174:	44c1                	li	s1,16
   16176:	000e                	c.slli	zero,0x3
   16178:	0010                	0x10
   1617a:	0000                	unimp
   1617c:	017c                	addi	a5,sp,140
   1617e:	0000                	unimp
   16180:	aa4c                	fsd	fa1,144(a2)
   16182:	ffff                	0xffff
   16184:	0044                	addi	s1,sp,4
   16186:	0000                	unimp
   16188:	0000                	unimp
   1618a:	0000                	unimp
   1618c:	0010                	0x10
   1618e:	0000                	unimp
   16190:	0190                	addi	a2,sp,192
   16192:	0000                	unimp
   16194:	aa7c                	fsd	fa5,208(a2)
   16196:	ffff                	0xffff
   16198:	0018                	0x18
   1619a:	0000                	unimp
   1619c:	0000                	unimp
   1619e:	0000                	unimp
   161a0:	0010                	0x10
   161a2:	0000                	unimp
   161a4:	01a4                	addi	s1,sp,200
   161a6:	0000                	unimp
   161a8:	aa80                	fsd	fs0,16(a3)
   161aa:	ffff                	0xffff
   161ac:	001c                	0x1c
   161ae:	0000                	unimp
   161b0:	0000                	unimp
   161b2:	0000                	unimp
   161b4:	0010                	0x10
   161b6:	0000                	unimp
   161b8:	01b8                	addi	a4,sp,200
   161ba:	0000                	unimp
   161bc:	aa88                	fsd	fa0,16(a3)
   161be:	ffff                	0xffff
   161c0:	003c                	addi	a5,sp,8
   161c2:	0000                	unimp
   161c4:	0000                	unimp
   161c6:	0000                	unimp
   161c8:	001c                	0x1c
   161ca:	0000                	unimp
   161cc:	01cc                	addi	a1,sp,196
   161ce:	0000                	unimp
   161d0:	aab0                	fsd	fa2,80(a3)
   161d2:	ffff                	0xffff
   161d4:	0070                	addi	a2,sp,12
   161d6:	0000                	unimp
   161d8:	4400                	lw	s0,8(s0)
   161da:	100e                	c.slli	zero,0x23
   161dc:	8144                	0x8144
   161de:	0201                	addi	tp,tp,0
   161e0:	c160                	sw	s0,68(a0)
   161e2:	0e44                	addi	s1,sp,788
   161e4:	0000                	unimp
   161e6:	0000                	unimp
   161e8:	004c                	addi	a1,sp,4
   161ea:	0000                	unimp
   161ec:	01ec                	addi	a1,sp,204
   161ee:	0000                	unimp
   161f0:	ab00                	fsd	fs0,16(a4)
   161f2:	ffff                	0xffff
   161f4:	00fc                	addi	a5,sp,76
   161f6:	0000                	unimp
   161f8:	4c00                	lw	s0,24(s0)
   161fa:	300e                	fld	ft0,224(sp)
   161fc:	8864                	0x8864
   161fe:	8902                	jr	s2
   16200:	93049203          	lh	tp,-1744(s1)
   16204:	9405                	srai	s0,s0,0x21
   16206:	9506                	add	a0,a0,ra
   16208:	97089607          	0x97089607
   1620c:	8109                	srli	a0,a0,0x2
   1620e:	0201                	addi	tp,tp,0
   16210:	0a6c                	addi	a1,sp,284
   16212:	44c1                	li	s1,16
   16214:	44c8                	lw	a0,12(s1)
   16216:	44c9                	li	s1,18
   16218:	44d2                	lw	s1,20(sp)
   1621a:	44d444d3          	0x44d444d3
   1621e:	44d5                	li	s1,21
   16220:	44d6                	lw	s1,84(sp)
   16222:	000e44d7          	0xe44d7
   16226:	0b44                	addi	s1,sp,404
   16228:	3402                	fld	fs0,32(sp)
   1622a:	000e                	c.slli	zero,0x3
   1622c:	c8c1                	beqz	s1,162bc <__EH_FRAME_BEGIN__+0x2bc>
   1622e:	d2c9                	beqz	a3,161b0 <__EH_FRAME_BEGIN__+0x1b0>
   16230:	d6d5d4d3          	0xd6d5d4d3
   16234:	000000d7          	0xd7
   16238:	0020                	addi	s0,sp,8
   1623a:	0000                	unimp
   1623c:	023c                	addi	a5,sp,264
   1623e:	0000                	unimp
   16240:	abac                	fsd	fa1,80(a5)
   16242:	ffff                	0xffff
   16244:	03c4                	addi	s1,sp,452
   16246:	0000                	unimp
   16248:	7800                	flw	fs0,48(s0)
   1624a:	300e                	fld	ft0,224(sp)
   1624c:	814c                	0x814c
   1624e:	0301                	addi	t1,t1,0
   16250:	018c                	addi	a1,sp,192
   16252:	c10a                	sw	sp,128(sp)
   16254:	0e44                	addi	s1,sp,788
   16256:	4400                	lw	s0,8(s0)
   16258:	0000000b          	0xb
   1625c:	0028                	addi	a0,sp,8
   1625e:	0000                	unimp
   16260:	0260                	addi	s0,sp,268
   16262:	0000                	unimp
   16264:	af4c                	fsd	fa1,152(a4)
   16266:	ffff                	0xffff
   16268:	005c                	addi	a5,sp,4
   1626a:	0000                	unimp
   1626c:	4400                	lw	s0,8(s0)
   1626e:	100e                	c.slli	zero,0x23
   16270:	8850                	0x8850
   16272:	8902                	jr	s2
   16274:	81049203          	lh	tp,-2032(s1)
   16278:	0201                	addi	tp,tp,0
   1627a:	c134                	sw	a3,64(a0)
   1627c:	c844                	sw	s1,20(s0)
   1627e:	c944                	sw	s1,20(a0)
   16280:	d244                	sw	s1,36(a2)
   16282:	0e44                	addi	s1,sp,788
   16284:	0000                	unimp
   16286:	0000                	unimp
   16288:	0018                	0x18
   1628a:	0000                	unimp
   1628c:	028c                	addi	a1,sp,320
   1628e:	0000                	unimp
   16290:	af7c                	fsd	fa5,216(a4)
   16292:	ffff                	0xffff
   16294:	0034                	addi	a3,sp,8
   16296:	0000                	unimp
   16298:	5400                	lw	s0,40(s0)
   1629a:	100e                	c.slli	zero,0x23
   1629c:	8150                	0x8150
   1629e:	4801                	li	a6,0
   162a0:	44c1                	li	s1,16
   162a2:	000e                	c.slli	zero,0x3
   162a4:	001c                	0x1c
   162a6:	0000                	unimp
   162a8:	02a8                	addi	a0,sp,328
   162aa:	0000                	unimp
   162ac:	af94                	fsd	fa3,24(a5)
   162ae:	ffff                	0xffff
   162b0:	0344                	addi	s1,sp,388
   162b2:	0000                	unimp
   162b4:	0200                	addi	s0,sp,256
   162b6:	0e64                	addi	s1,sp,796
   162b8:	4410                	lw	a2,8(s0)
   162ba:	0188                	addi	a0,sp,192
   162bc:	c802c003          	lbu	zero,-896(t0) # 13190 <__udivdi3+0x364>
   162c0:	0e44                	addi	s1,sp,788
   162c2:	0000                	unimp
   162c4:	0040                	addi	s0,sp,4
   162c6:	0000                	unimp
   162c8:	02c8                	addi	a0,sp,324
   162ca:	0000                	unimp
   162cc:	b2b8                	fsd	fa4,96(a3)
   162ce:	ffff                	0xffff
   162d0:	039c                	addi	a5,sp,448
   162d2:	0000                	unimp
   162d4:	0200                	addi	s0,sp,256
   162d6:	0e7c                	addi	a5,sp,796
   162d8:	5c20                	lw	s0,120(s0)
   162da:	0188                	addi	a0,sp,192
   162dc:	0289                	addi	t0,t0,2
   162de:	0392                	slli	t2,t2,0x4
   162e0:	05940493          	addi	s1,s0,89
   162e4:	0695                	addi	a3,a3,5
   162e6:	0796                	slli	a5,a5,0x5
   162e8:	0a02bc03          	0xa02bc03
   162ec:	44c8                	lw	a0,12(s1)
   162ee:	44c9                	li	s1,18
   162f0:	44d2                	lw	s1,20(sp)
   162f2:	44d444d3          	0x44d444d3
   162f6:	44d5                	li	s1,21
   162f8:	44d6                	lw	s1,84(sp)
   162fa:	000e                	c.slli	zero,0x3
   162fc:	0b44                	addi	s1,sp,404
   162fe:	0e64                	addi	s1,sp,796
   16300:	c800                	sw	s0,16(s0)
   16302:	d2c9                	beqz	a3,16284 <__EH_FRAME_BEGIN__+0x284>
   16304:	d6d5d4d3          	0xd6d5d4d3
   16308:	001c                	0x1c
   1630a:	0000                	unimp
   1630c:	030c                	addi	a1,sp,384
   1630e:	0000                	unimp
   16310:	b610                	fsd	fa2,40(a2)
   16312:	ffff                	0xffff
   16314:	00f8                	addi	a4,sp,76
   16316:	0000                	unimp
   16318:	5c00                	lw	s0,56(s0)
   1631a:	300e                	fld	ft0,224(sp)
   1631c:	4402                	lw	s0,0(sp)
   1631e:	0181                	addi	gp,gp,0
   16320:	9002                	ebreak
   16322:	44c1                	li	s1,16
   16324:	000e                	c.slli	zero,0x3
   16326:	0000                	unimp
   16328:	0024                	addi	s1,sp,8
   1632a:	0000                	unimp
   1632c:	032c                	addi	a1,sp,392
   1632e:	0000                	unimp
   16330:	b6e8                	fsd	fa0,232(a3)
   16332:	ffff                	0xffff
   16334:	03dc                	addi	a5,sp,452
   16336:	0000                	unimp
   16338:	7800                	flw	fs0,48(s0)
   1633a:	300e                	fld	ft0,224(sp)
   1633c:	8150                	0x8150
   1633e:	8801                	andi	s0,s0,0
   16340:	0302                	c.slli64	t1
   16342:	0198                	addi	a4,sp,192
   16344:	c10a                	sw	sp,128(sp)
   16346:	c848                	sw	a0,20(s0)
   16348:	0e44                	addi	s1,sp,788
   1634a:	4400                	lw	s0,8(s0)
   1634c:	0000000b          	0xb
   16350:	0010                	0x10
   16352:	0000                	unimp
   16354:	0354                	addi	a3,sp,388
   16356:	0000                	unimp
   16358:	a0c0                	fsd	fs0,128(s1)
   1635a:	ffff                	0xffff
   1635c:	001c                	0x1c
   1635e:	0000                	unimp
   16360:	0000                	unimp
   16362:	0000                	unimp
   16364:	0010                	0x10
   16366:	0000                	unimp
   16368:	0368                	addi	a0,sp,396
   1636a:	0000                	unimp
   1636c:	cac0                	sw	s0,20(a3)
   1636e:	ffff                	0xffff
   16370:	0434                	addi	a3,sp,520
   16372:	0000                	unimp
   16374:	0000                	unimp
	...

00016378 <__FRAME_END__>:
   16378:	0000                	unimp
	...

Disassembly of section .init_array:

0001637c <__init_array_start>:
   1637c:	0434                	addi	a3,sp,520
   1637e:	0001                	nop

00016380 <__frame_dummy_init_array_entry>:
   16380:	04e4                	addi	s1,sp,588
   16382:	0001                	nop
   16384:	0418                	addi	a4,sp,512
   16386:	0001                	nop

Disassembly of section .fini_array:

00016388 <__do_global_dtors_aux_fini_array_entry>:
   16388:	0498                	addi	a4,sp,576
   1638a:	0001                	nop

Disassembly of section .data:

00016390 <seed>:
   16390:	00000007          	0x7

00016394 <GraphicsFontStart>:
   16394:	e800                	fsw	fs0,16(s0)
   16396:	1001                	c.nop	-32

00016398 <GraphicsRAMStart>:
   16398:	0000                	unimp
   1639a:	1000                	addi	s0,sp,32

0001639c <IO_GPUCommandFIFO>:
   1639c:	0000                	unimp
   1639e:	8000                	0x8000

000163a0 <impure_data>:
   163a0:	0000                	unimp
   163a2:	0000                	unimp
   163a4:	668c                	flw	fa1,8(a3)
   163a6:	0001                	nop
   163a8:	66f4                	flw	fa3,76(a3)
   163aa:	0001                	nop
   163ac:	675c                	flw	fa5,12(a4)
   163ae:	0001                	nop
	...
   16448:	0001                	nop
   1644a:	0000                	unimp
   1644c:	0000                	unimp
   1644e:	0000                	unimp
   16450:	330e                	fld	ft6,224(sp)
   16452:	abcd                	j	16a44 <_ZL11consoleText+0x1a8>
   16454:	1234                	addi	a3,sp,296
   16456:	e66d                	bnez	a2,16540 <impure_data+0x1a0>
   16458:	deec                	sw	a1,124(a3)
   1645a:	0005                	c.nop	1
   1645c:	0000000b          	0xb
	...

Disassembly of section .got:

000167c8 <.got>:
   167c8:	ffff                	0xffff
   167ca:	ffff                	0xffff
   167cc:	0000                	unimp
	...

000167d0 <_GLOBAL_OFFSET_TABLE_>:
   167d0:	0000                	unimp
   167d2:	0000                	unimp
   167d4:	639c                	flw	fa5,0(a5)
   167d6:	0001                	nop
   167d8:	6394                	flw	fa3,0(a5)
   167da:	0001                	nop
   167dc:	6ba4                	flw	fs1,80(a5)
   167de:	0001                	nop
   167e0:	6398                	flw	fa4,0(a5)
   167e2:	0001                	nop
   167e4:	6390                	flw	fa2,0(a5)
   167e6:	0001                	nop

Disassembly of section .sdata:

000167e8 <__SDATA_BEGIN__>:
   167e8:	0f80                	addi	s0,sp,976
   167ea:	3fc9                	jal	167bc <impure_data+0x41c>
   167ec:	37354443          	fmadd.q	fs0,fa0,fs3,ft6,rmm
   167f0:	4400                	lw	s0,8(s0)
   167f2:	3735                	jal	1671e <impure_data+0x37e>
   167f4:	a308                	fsd	fa0,0(a4)
   167f6:	2e85                	jal	16b66 <_ZL11consoleText+0x2ca>
   167f8:	f984                	fsw	fs1,48(a1)
   167fa:	3f22                	fld	ft10,40(sp)
   167fc:	0000                	unimp
   167fe:	3f00                	fld	fs0,56(a4)
   16800:	a300                	fsd	fs0,0(a4)
   16802:	2e85                	jal	16b72 <_ZL11consoleText+0x2d6>
   16804:	3132                	fld	ft2,296(sp)
   16806:	248d                	jal	16a68 <_ZL11consoleText+0x1cc>
   16808:	0000                	unimp
   1680a:	4380                	lw	s0,0(a5)
   1680c:	0000                	unimp
   1680e:	3f38                	fld	fa4,120(a4)
   16810:	0000                	unimp
   16812:	3e90                	fld	fa2,56(a3)
   16814:	0000                	unimp
   16816:	3f80                	fld	fs0,56(a5)
   16818:	d74e                	sw	s3,172(sp)
   1681a:	74f6ad47          	0x74f6ad47
   1681e:	f27c310f          	0xf27c310f
   16822:	0d01b493          	sltiu	s1,gp,208
   16826:	37d0                	fld	fa2,168(a5)
   16828:	0b61                	addi	s6,s6,24
   1682a:	bab6                	fsd	fa3,368(sp)
   1682c:	3d2aaaab          	0x3d2aaaab
   16830:	0000                	unimp
   16832:	3fc9                	jal	16804 <__SDATA_BEGIN__+0x1c>
   16834:	0000                	unimp
   16836:	3b80                	fld	fs0,48(a5)
   16838:	0000                	unimp
   1683a:	3e00                	fld	fs0,56(a2)
   1683c:	0000                	unimp
   1683e:	4100                	lw	s0,0(a0)
   16840:	2f2ec9d3          	0x2f2ec9d3
   16844:	2f34                	fld	fa3,88(a4)
   16846:	ef1bb2d7          	0xef1bb2d7
   1684a:	3638                	fld	fa4,104(a2)
   1684c:	0d01                	addi	s10,s10,0
   1684e:	b950                	fsd	fa2,176(a0)
   16850:	8889                	andi	s1,s1,2
   16852:	3c08                	fld	fa0,56(s0)
   16854:	be2aaaab          	0xbe2aaaab
   16858:	3e2aaaab          	0x3e2aaaab
   1685c:	0000                	unimp
   1685e:	bf80                	fsd	fs0,56(a5)
   16860:	f2ca                	fsw	fs2,100(sp)
   16862:	7149                	addi	sp,sp,-368
   16864:	0000                	unimp
   16866:	4c00                	lw	s0,24(s0)
   16868:	4260                	lw	s0,68(a2)
   1686a:	0da2                	slli	s11,s11,0x8
   1686c:	0000                	unimp
   1686e:	3300                	fld	fs0,32(a4)

00016870 <_global_impure_ptr>:
   16870:	63a0                	flw	fs0,64(a5)
   16872:	0001                	nop

00016874 <_impure_ptr>:
   16874:	63a0                	flw	fs0,64(a5)
   16876:	0001                	nop

Disassembly of section .bss:

00016878 <completed.1>:
   16878:	0000                	unimp
	...

0001687c <object.0>:
	...

00016894 <_ZZ13drawparticlesPsE12spawnerindex>:
   16894:	0000                	unimp
	...

00016898 <_ZZ13drawparticlesPsE5proll>:
   16898:	0000                	unimp
	...

0001689c <_ZL11consoleText>:
	...

00016b9c <_ZL7cursorx>:
   16b9c:	0000                	unimp
	...

00016ba0 <_ZL7cursory>:
   16ba0:	0000                	unimp
	...

00016ba4 <font>:
   16ba4:	0000                	unimp
	...

Disassembly of section .comment:

00000000 <.comment>:
   0:	3a434347          	fmsub.d	ft6,ft6,ft4,ft7,rmm
   4:	2820                	fld	fs0,80(s0)
   6:	29554e47          	fmsub.s	ft8,fa0,fs5,ft5,rmm
   a:	3120                	fld	fs0,96(a0)
   c:	2e30                	fld	fa2,88(a2)
   e:	2e32                	fld	ft8,264(sp)
  10:	0030                	addi	a2,sp,8

Disassembly of section .riscv.attributes:

00000000 <.riscv.attributes>:
   0:	2941                	jal	490 <main-0xfbe4>
   2:	0000                	unimp
   4:	7200                	flw	fs0,32(a2)
   6:	7369                	lui	t1,0xffffa
   8:	01007663          	bgeu	zero,a6,14 <main-0x10060>
   c:	001f 0000 1004      	0x10040000001f
  12:	7205                	lui	tp,0xfffe1
  14:	3376                	fld	ft6,376(sp)
  16:	6932                	flw	fs2,12(sp)
  18:	7032                	flw	ft0,44(sp)
  1a:	5f30                	lw	a2,120(a4)
  1c:	326d                	jal	fffff9c6 <__BSS_END__+0xfffe8e1e>
  1e:	3070                	fld	fa2,224(s0)
  20:	665f 7032 0030      	0x307032665f
  26:	0108                	addi	a0,sp,128
  28:	0b0a                	slli	s6,s6,0x2

Disassembly of section .debug_aranges:

00000000 <.debug_aranges>:
   0:	001c                	0x1c
   2:	0000                	unimp
   4:	0002                	c.slli64	zero
   6:	0000                	unimp
   8:	0000                	unimp
   a:	0004                	0x4
   c:	0000                	unimp
   e:	0000                	unimp
  10:	2e2c                	fld	fa1,88(a2)
  12:	0001                	nop
  14:	0434                	addi	a3,sp,520
	...
  1e:	0000                	unimp
  20:	0014                	0x14
  22:	0000                	unimp
  24:	0002                	c.slli64	zero
  26:	07b2                	slli	a5,a5,0xc
  28:	0000                	unimp
  2a:	0004                	0x4
	...

Disassembly of section .debug_info:

00000000 <.debug_info>:
   0:	07ae                	slli	a5,a5,0xb
   2:	0000                	unimp
   4:	0004                	0x4
   6:	0000                	unimp
   8:	0000                	unimp
   a:	0104                	addi	s1,sp,128
   c:	0000008f          	0x8f
  10:	200c                	fld	fa1,0(s0)
  12:	0000                	unimp
  14:	0000                	unimp
  16:	0002                	c.slli64	zero
  18:	2c00                	fld	fs0,24(s0)
  1a:	012e                	slli	sp,sp,0xb
  1c:	3400                	fld	fs0,40(s0)
  1e:	0004                	0x4
  20:	0000                	unimp
  22:	0000                	unimp
  24:	0200                	addi	s0,sp,256
  26:	0708                	addi	a0,sp,896
  28:	0078                	addi	a4,sp,12
  2a:	0000                	unimp
  2c:	0402                	c.slli64	s0
  2e:	00008207          	0x8207
  32:	0300                	addi	s0,sp,384
  34:	0504                	addi	s1,sp,640
  36:	6e69                	lui	t3,0x1a
  38:	0074                	addi	a3,sp,12
  3a:	0802                	c.slli64	a6
  3c:	6a05                	lui	s4,0x1
  3e:	0000                	unimp
  40:	0200                	addi	s0,sp,256
  42:	0410                	addi	a2,sp,512
  44:	01f4                	addi	a3,sp,204
  46:	0000                	unimp
  48:	0102                	c.slli64	sp
  4a:	7506                	flw	fa0,96(sp)
  4c:	0001                	nop
  4e:	0200                	addi	s0,sp,256
  50:	0801                	addi	a6,a6,0
  52:	00000173          	0x173
  56:	0202                	c.slli64	tp
  58:	5605                	li	a2,-31
  5a:	0000                	unimp
  5c:	0200                	addi	s0,sp,256
  5e:	0702                	c.slli64	a4
  60:	01a6                	slli	gp,gp,0x9
  62:	0000                	unimp
  64:	0402                	c.slli64	s0
  66:	6f05                	lui	t5,0x1
  68:	0000                	unimp
  6a:	0200                	addi	s0,sp,256
  6c:	0704                	addi	s1,sp,896
  6e:	007d                	c.nop	31
  70:	0000                	unimp
  72:	0102                	c.slli64	sp
  74:	7c08                	flw	fa0,56(s0)
  76:	0001                	nop
  78:	0400                	addi	s0,sp,512
  7a:	0195                	addi	gp,gp,5
  7c:	0000                	unimp
  7e:	7b02                	flw	fs6,32(sp)
  80:	4f16                	lw	t5,68(sp)
  82:	0000                	unimp
  84:	0500                	addi	s0,sp,640
  86:	0079                	c.nop	30
  88:	0000                	unimp
  8a:	7204                	flw	fs1,32(a2)
  8c:	0002                	c.slli64	zero
  8e:	0200                	addi	s0,sp,256
  90:	0f80                	addi	s0,sp,976
  92:	00000033          	add	zero,zero,zero
  96:	7104                	flw	fs1,32(a0)
  98:	0002                	c.slli64	zero
  9a:	0200                	addi	s0,sp,256
  9c:	1681                	addi	a3,a3,-32
  9e:	002c                	addi	a1,sp,8
  a0:	0000                	unimp
  a2:	ba04                	fsd	fs1,48(a2)
  a4:	0001                	nop
  a6:	0200                	addi	s0,sp,256
  a8:	0f84                	addi	s1,sp,976
  aa:	003a                	c.slli	zero,0xe
  ac:	0000                	unimp
  ae:	b904                	fsd	fs1,48(a0)
  b0:	0001                	nop
  b2:	0200                	addi	s0,sp,256
  b4:	1685                	addi	a3,a3,-31
  b6:	0025                	c.nop	9
  b8:	0000                	unimp
  ba:	0402                	c.slli64	s0
  bc:	1a04                	addi	s1,sp,304
  be:	0000                	unimp
  c0:	0200                	addi	s0,sp,256
  c2:	0308                	addi	a0,sp,384
  c4:	0012                	c.slli	zero,0x4
  c6:	0000                	unimp
  c8:	0802                	c.slli64	a6
  ca:	f904                	fsw	fs1,48(a0)
  cc:	0001                	nop
  ce:	0200                	addi	s0,sp,256
  d0:	0310                	addi	a2,sp,384
  d2:	000001cb          	fnmsub.s	ft3,ft0,ft0,ft0,rne
  d6:	2002                	fld	ft0,0(sp)
  d8:	0001ec03          	0x1ec03
  dc:	0600                	addi	s0,sp,768
  de:	019d                	addi	gp,gp,7
  e0:	0000                	unimp
  e2:	0208                	addi	a0,sp,256
  e4:	01ed                	addi	gp,gp,27
  e6:	080a                	slli	a6,a6,0x2
  e8:	0001                	nop
  ea:	0700                	addi	s0,sp,896
  ec:	6f6c                	flw	fa1,92(a4)
  ee:	ed020077          	0xed020077
  f2:	1a01                	addi	s4,s4,-32
  f4:	008a                	slli	ra,ra,0x2
  f6:	0000                	unimp
  f8:	0800                	addi	s0,sp,16
  fa:	0164                	addi	s1,sp,140
  fc:	0000                	unimp
  fe:	ed02                	fsw	ft0,152(sp)
 100:	1f01                	addi	t5,t5,-32
 102:	008a                	slli	ra,ra,0x2
 104:	0000                	unimp
 106:	0004                	0x4
 108:	0809                	addi	a6,a6,2
 10a:	f402                	fsw	ft0,40(sp)
 10c:	0901                	addi	s2,s2,0
 10e:	012a                	slli	sp,sp,0xa
 110:	0000                	unimp
 112:	730a                	flw	ft6,160(sp)
 114:	0200                	addi	s0,sp,256
 116:	01f6                	slli	gp,gp,0x1d
 118:	0000dd13          	srli	s10,ra,0x0
 11c:	0a00                	addi	s0,sp,272
 11e:	6c6c                	flw	fa1,92(s0)
 120:	0200                	addi	s0,sp,256
 122:	a20a01f7          	0xa20a01f7
 126:	0000                	unimp
 128:	0000                	unimp
 12a:	0000000b          	0xb
 12e:	0200                	addi	s0,sp,256
 130:	01f8                	addi	a4,sp,204
 132:	00010803          	lb	a6,0(sp)
 136:	0500                	addi	s0,sp,640
 138:	012a                	slli	sp,sp,0xa
 13a:	0000                	unimp
 13c:	850c                	0x850c
 13e:	0000                	unimp
 140:	4c00                	lw	s0,24(s0)
 142:	0001                	nop
 144:	0d00                	addi	s0,sp,656
 146:	002c                	addi	a1,sp,8
 148:	0000                	unimp
 14a:	00ff                	0xff
 14c:	3c05                	jal	fffffb7c <__BSS_END__+0xfffe8fd4>
 14e:	0001                	nop
 150:	0e00                	addi	s0,sp,784
 152:	0169                	addi	sp,sp,26
 154:	0000                	unimp
 156:	0202                	c.slli64	tp
 158:	1602                	slli	a2,a2,0x20
 15a:	014c                	addi	a1,sp,132
 15c:	0000                	unimp
 15e:	0000080f          	0x80f
 162:	0100                	addi	s0,sp,128
 164:	0526                	slli	a0,a0,0x9
 166:	ae01                	j	476 <main-0xfbfe>
 168:	0000                	unimp
 16a:	2c00                	fld	fs0,24(s0)
 16c:	012e                	slli	sp,sp,0xb
 16e:	3400                	fld	fs0,40(s0)
 170:	0004                	0x4
 172:	0100                	addi	s0,sp,128
 174:	3a9c                	fld	fa5,48(a3)
 176:	0004                	0x4
 178:	1000                	addi	s0,sp,32
 17a:	006e                	c.slli	zero,0x1b
 17c:	2601                	jal	47c <main-0xfbf8>
 17e:	1405                	addi	s0,s0,-31
 180:	00ae                	slli	ra,ra,0xb
 182:	0000                	unimp
 184:	0000                	unimp
 186:	0000                	unimp
 188:	6410                	flw	fa2,8(s0)
 18a:	0100                	addi	s0,sp,128
 18c:	0526                	slli	a0,a0,0x9
 18e:	ae1f 0000 2800      	0x28000000ae1f
 194:	0000                	unimp
 196:	1100                	addi	s0,sp,160
 198:	043a                	slli	s0,s0,0xe
 19a:	0000                	unimp
 19c:	2e30                	fld	fa2,88(a2)
 19e:	0001                	nop
 1a0:	0000                	unimp
 1a2:	0000                	unimp
 1a4:	2801                	jal	1b4 <main-0xfec0>
 1a6:	0a05                	addi	s4,s4,1
 1a8:	6212                	flw	ft4,4(sp)
 1aa:	0004                	0x4
 1ac:	c000                	sw	s0,0(s0)
 1ae:	0000                	unimp
 1b0:	1200                	addi	s0,sp,288
 1b2:	00000457          	0x457
 1b6:	00e0                	addi	s0,sp,76
 1b8:	0000                	unimp
 1ba:	4c12                	lw	s8,4(sp)
 1bc:	0004                	0x4
 1be:	9800                	0x9800
 1c0:	0001                	nop
 1c2:	1300                	addi	s0,sp,416
 1c4:	0000                	unimp
 1c6:	0000                	unimp
 1c8:	6e14                	flw	fa3,24(a2)
 1ca:	0004                	0x4
 1cc:	1400                	addi	s0,sp,544
 1ce:	047a                	slli	s0,s0,0x1e
 1d0:	0000                	unimp
 1d2:	8614                	0x8614
 1d4:	0004                	0x4
 1d6:	1500                	addi	s0,sp,672
 1d8:	0492                	slli	s1,s1,0x4
 1da:	0000                	unimp
 1dc:	0260                	addi	s0,sp,268
 1de:	0000                	unimp
 1e0:	9e15                	0x9e15
 1e2:	0004                	0x4
 1e4:	0600                	addi	s0,sp,768
 1e6:	15000003          	lb	zero,336(zero) # 150 <main-0xff24>
 1ea:	04aa                	slli	s1,s1,0xa
 1ec:	0000                	unimp
 1ee:	0392                	slli	t2,t2,0x4
 1f0:	0000                	unimp
 1f2:	b615                	j	fffffd16 <__BSS_END__+0xfffe916e>
 1f4:	0004                	0x4
 1f6:	0200                	addi	s0,sp,256
 1f8:	0004                	0x4
 1fa:	1500                	addi	s0,sp,672
 1fc:	04c2                	slli	s1,s1,0x10
 1fe:	0000                	unimp
 200:	04ba                	slli	s1,s1,0xe
 202:	0000                	unimp
 204:	ce15                	beqz	a2,240 <main-0xfe34>
 206:	0004                	0x4
 208:	d800                	sw	s0,48(s0)
 20a:	0004                	0x4
 20c:	1500                	addi	s0,sp,672
 20e:	04da                	slli	s1,s1,0x16
 210:	0000                	unimp
 212:	04f6                	slli	s1,s1,0x1d
 214:	0000                	unimp
 216:	e615                	bnez	a2,242 <main-0xfe32>
 218:	0004                	0x4
 21a:	2000                	fld	fs0,0(s0)
 21c:	0005                	c.nop	1
 21e:	1500                	addi	s0,sp,672
 220:	04f1                	addi	s1,s1,28
 222:	0000                	unimp
 224:	053e                	slli	a0,a0,0xf
 226:	0000                	unimp
 228:	fd14                	fsw	fa3,56(a0)
 22a:	0004                	0x4
 22c:	1600                	addi	s0,sp,800
 22e:	0509                	addi	a0,a0,2
 230:	0000                	unimp
 232:	0028                	addi	a0,sp,8
 234:	0000                	unimp
 236:	024d                	addi	tp,tp,19
 238:	0000                	unimp
 23a:	0e15                	addi	t3,t3,5
 23c:	0005                	c.nop	1
 23e:	7d00                	flw	fs0,56(a0)
 240:	0005                	c.nop	1
 242:	1500                	addi	s0,sp,672
 244:	0000051b          	0x51b
 248:	05b9                	addi	a1,a1,14
 24a:	0000                	unimp
 24c:	1700                	addi	s0,sp,928
 24e:	0529                	addi	a0,a0,10
 250:	0000                	unimp
 252:	2e94                	fld	fa3,24(a3)
 254:	0001                	nop
 256:	0088                	addi	a0,sp,64
 258:	0000                	unimp
 25a:	029e                	slli	t0,t0,0x7
 25c:	0000                	unimp
 25e:	2e15                	jal	592 <main-0xfae2>
 260:	0005                	c.nop	1
 262:	cc00                	sw	s0,24(s0)
 264:	0005                	c.nop	1
 266:	1500                	addi	s0,sp,672
 268:	0000053b          	0x53b
 26c:	05df 0000 4815      	0x4815000005df
 272:	0005                	c.nop	1
 274:	0300                	addi	s0,sp,384
 276:	0006                	c.slli	zero,0x1
 278:	1500                	addi	s0,sp,672
 27a:	0555                	addi	a0,a0,21
 27c:	0000                	unimp
 27e:	0621                	addi	a2,a2,8
 280:	0000                	unimp
 282:	6215                	lui	tp,0x5
 284:	0005                	c.nop	1
 286:	3f00                	fld	fs0,56(a4)
 288:	0006                	c.slli	zero,0x1
 28a:	1500                	addi	s0,sp,672
 28c:	0000056f          	jal	a0,28c <main-0xfde8>
 290:	067a                	slli	a2,a2,0x1e
 292:	0000                	unimp
 294:	7c15                	lui	s8,0xfffe5
 296:	0005                	c.nop	1
 298:	9800                	0x9800
 29a:	0006                	c.slli	zero,0x1
 29c:	0000                	unimp
 29e:	9f16                	add	t5,t5,t0
 2a0:	0006                	c.slli	zero,0x1
 2a2:	4000                	lw	s0,0(s0)
 2a4:	0000                	unimp
 2a6:	5d00                	lw	s0,56(a0)
 2a8:	15000003          	lb	zero,336(zero) # 150 <main-0xff24>
 2ac:	06a0                	addi	s0,sp,840
 2ae:	0000                	unimp
 2b0:	06b6                	slli	a3,a3,0xd
 2b2:	0000                	unimp
 2b4:	ac15                	j	4e8 <main-0xfb8c>
 2b6:	0006                	c.slli	zero,0x1
 2b8:	c900                	sw	s0,16(a0)
 2ba:	0006                	c.slli	zero,0x1
 2bc:	1600                	addi	s0,sp,800
 2be:	06b8                	addi	a4,sp,840
 2c0:	0000                	unimp
 2c2:	0058                	addi	a4,sp,4
 2c4:	0000                	unimp
 2c6:	030a                	slli	t1,t1,0x2
 2c8:	0000                	unimp
 2ca:	bd15                	j	fe <main-0xff76>
 2cc:	0006                	c.slli	zero,0x1
 2ce:	0a00                	addi	s0,sp,272
 2d0:	15000007          	0x15000007
 2d4:	06ca                	slli	a3,a3,0x12
 2d6:	0000                	unimp
 2d8:	072c                	addi	a1,sp,904
 2da:	0000                	unimp
 2dc:	d715                	beqz	a4,208 <main-0xfe6c>
 2de:	0006                	c.slli	zero,0x1
 2e0:	5000                	lw	s0,32(s0)
 2e2:	15000007          	0x15000007
 2e6:	06e4                	addi	s1,sp,844
 2e8:	0000                	unimp
 2ea:	076e                	slli	a4,a4,0x1b
 2ec:	0000                	unimp
 2ee:	f115                	bnez	a0,212 <main-0xfe62>
 2f0:	0006                	c.slli	zero,0x1
 2f2:	8c00                	0x8c00
 2f4:	15000007          	0x15000007
 2f8:	06fe                	slli	a3,a3,0x1f
 2fa:	0000                	unimp
 2fc:	000007c7          	fmsub.s	fa5,ft0,ft0,ft0,rne
 300:	0b15                	addi	s6,s6,5
 302:	f0000007          	0xf0000007
 306:	00000007          	0x7
 30a:	1918                	addi	a4,sp,176
 30c:	80000007          	0x80000007
 310:	0000                	unimp
 312:	1500                	addi	s0,sp,672
 314:	071e                	slli	a4,a4,0x7
 316:	0000                	unimp
 318:	080e                	slli	a6,a6,0x3
 31a:	0000                	unimp
 31c:	2b15                	jal	850 <main-0xf824>
 31e:	21000007          	0x21000007
 322:	0008                	0x8
 324:	1500                	addi	s0,sp,672
 326:	0738                	addi	a4,sp,904
 328:	0000                	unimp
 32a:	0874                	addi	a3,sp,28
 32c:	0000                	unimp
 32e:	4515                	li	a0,5
 330:	87000007          	0x87000007
 334:	0008                	0x8
 336:	1500                	addi	s0,sp,672
 338:	0752                	slli	a4,a4,0x14
 33a:	0000                	unimp
 33c:	089a                	slli	a7,a7,0x6
 33e:	0000                	unimp
 340:	5f15                	li	t5,-27
 342:	ed000007          	0xed000007
 346:	0008                	0x8
 348:	1500                	addi	s0,sp,672
 34a:	076c                	addi	a1,sp,908
 34c:	0000                	unimp
 34e:	0900                	addi	s0,sp,144
 350:	0000                	unimp
 352:	7915                	lui	s2,0xfffe5
 354:	31000007          	0x31000007
 358:	0009                	c.nop	2
 35a:	0000                	unimp
 35c:	1600                	addi	s0,sp,800
 35e:	058a                	slli	a1,a1,0x2
 360:	0000                	unimp
 362:	00b0                	addi	a2,sp,72
 364:	0000                	unimp
 366:	037d                	addi	t1,t1,31
 368:	0000                	unimp
 36a:	8f15                	sub	a4,a4,a3
 36c:	0005                	c.nop	1
 36e:	4400                	lw	s0,8(s0)
 370:	0009                	c.nop	2
 372:	1500                	addi	s0,sp,672
 374:	059c                	addi	a5,sp,704
 376:	0000                	unimp
 378:	0980                	addi	s0,sp,208
 37a:	0000                	unimp
 37c:	1700                	addi	s0,sp,928
 37e:	0000060b          	0x60b
 382:	2f7c                	fld	fa5,216(a4)
 384:	0001                	nop
 386:	0088                	addi	a0,sp,64
 388:	0000                	unimp
 38a:	03ce                	slli	t2,t2,0x13
 38c:	0000                	unimp
 38e:	1015                	c.nop	-27
 390:	0006                	c.slli	zero,0x1
 392:	9e00                	0x9e00
 394:	0009                	c.nop	2
 396:	1500                	addi	s0,sp,672
 398:	061d                	addi	a2,a2,7
 39a:	0000                	unimp
 39c:	09b1                	addi	s3,s3,12
 39e:	0000                	unimp
 3a0:	2a15                	jal	4d4 <main-0xfba0>
 3a2:	0006                	c.slli	zero,0x1
 3a4:	d500                	sw	s0,40(a0)
 3a6:	0009                	c.nop	2
 3a8:	1500                	addi	s0,sp,672
 3aa:	00000637          	lui	a2,0x0
 3ae:	000009f3          	0x9f3
 3b2:	4415                	li	s0,5
 3b4:	0006                	c.slli	zero,0x1
 3b6:	1100                	addi	s0,sp,160
 3b8:	000a                	c.slli	zero,0x2
 3ba:	1500                	addi	s0,sp,672
 3bc:	0651                	addi	a2,a2,20
 3be:	0000                	unimp
 3c0:	0a4c                	addi	a1,sp,276
 3c2:	0000                	unimp
 3c4:	5e15                	li	t3,-27
 3c6:	0006                	c.slli	zero,0x1
 3c8:	6a00                	flw	fs0,16(a2)
 3ca:	000a                	c.slli	zero,0x2
 3cc:	0000                	unimp
 3ce:	aa16                	fsd	ft5,272(sp)
 3d0:	0005                	c.nop	1
 3d2:	c800                	sw	s0,16(s0)
 3d4:	0000                	unimp
 3d6:	1b00                	addi	s0,sp,432
 3d8:	0004                	0x4
 3da:	1500                	addi	s0,sp,672
 3dc:	000005af          	0x5af
 3e0:	0a88                	addi	a0,sp,336
 3e2:	0000                	unimp
 3e4:	bc15                	j	fffffe18 <__BSS_END__+0xfffe9270>
 3e6:	0005                	c.nop	1
 3e8:	9b00                	0x9b00
 3ea:	000a                	c.slli	zero,0x2
 3ec:	1500                	addi	s0,sp,672
 3ee:	05c9                	addi	a1,a1,18
 3f0:	0000                	unimp
 3f2:	00000abf 0005d615 	0x5d61500000abf
 3fa:	dd00                	sw	s0,56(a0)
 3fc:	000a                	c.slli	zero,0x2
 3fe:	1500                	addi	s0,sp,672
 400:	000005e3          	beqz	zero,c0a <main-0xf46a>
 404:	00000afb          	0xafb
 408:	f015                	bnez	s0,32c <main-0xfd48>
 40a:	0005                	c.nop	1
 40c:	2f00                	fld	fs0,24(a4)
 40e:	1500000b          	0x1500000b
 412:	05fd                	addi	a1,a1,31
 414:	0000                	unimp
 416:	0b58                	addi	a4,sp,404
 418:	0000                	unimp
 41a:	1800                	addi	s0,sp,48
 41c:	066c                	addi	a1,sp,780
 41e:	0000                	unimp
 420:	00e0                	addi	s0,sp,76
 422:	0000                	unimp
 424:	7115                	addi	sp,sp,-224
 426:	0006                	c.slli	zero,0x1
 428:	8600                	0x8600
 42a:	1500000b          	0x1500000b
 42e:	067e                	slli	a2,a2,0x1f
 430:	0000                	unimp
 432:	0bba                	slli	s7,s7,0xe
 434:	0000                	unimp
 436:	0000                	unimp
 438:	0000                	unimp
 43a:	df19                	beqz	a4,358 <main-0xfd1c>
 43c:	0001                	nop
 43e:	0100                	addi	s0,sp,128
 440:	ae0103f7          	0xae0103f7
 444:	0000                	unimp
 446:	0300                	addi	s0,sp,384
 448:	000007ab          	0x7ab
 44c:	6e1a                	flw	ft8,132(sp)
 44e:	0100                	addi	s0,sp,128
 450:	ae1703f7          	0xae1703f7
 454:	0000                	unimp
 456:	1a00                	addi	s0,sp,304
 458:	0064                	addi	s1,sp,12
 45a:	f701                	bnez	a4,362 <main-0xfd12>
 45c:	00ae2203          	lw	tp,10(t3) # 1a00a <__BSS_END__+0x3462>
 460:	0000                	unimp
 462:	721a                	flw	ft4,164(sp)
 464:	0070                	addi	a2,sp,12
 466:	f701                	bnez	a4,36e <main-0xfd06>
 468:	07ab2e03          	lw	t3,122(s6)
 46c:	0000                	unimp
 46e:	006e6e1b          	0x6e6e1b
 472:	f901                	bnez	a0,382 <main-0xfcf2>
 474:	01371103          	lh	sp,19(a4)
 478:	0000                	unimp
 47a:	0064641b          	0x64641b
 47e:	fa01                	bnez	a2,38e <main-0xfce6>
 480:	01371103          	lh	sp,19(a4)
 484:	0000                	unimp
 486:	0072721b          	0x72721b
 48a:	fb01                	bnez	a4,39a <main-0xfcda>
 48c:	012a0b03          	lb	s6,18(s4) # 1012 <main-0xf062>
 490:	0000                	unimp
 492:	0030641b          	0x30641b
 496:	fc01                	bnez	s0,3ae <main-0xfcc6>
 498:	00960a03          	lb	s4,9(a2) # 9 <main-0x1006b>
 49c:	0000                	unimp
 49e:	0031641b          	0x31641b
 4a2:	fc01                	bnez	s0,3ba <main-0xfcba>
 4a4:	00960e03          	lb	t3,9(a2)
 4a8:	0000                	unimp
 4aa:	00306e1b          	0x306e1b
 4ae:	fc01                	bnez	s0,3c6 <main-0xfcae>
 4b0:	00961203          	lh	tp,9(a2)
 4b4:	0000                	unimp
 4b6:	00316e1b          	0x316e1b
 4ba:	fc01                	bnez	s0,3d2 <main-0xfca2>
 4bc:	00961603          	lh	a2,9(a2)
 4c0:	0000                	unimp
 4c2:	00326e1b          	0x326e1b
 4c6:	fc01                	bnez	s0,3de <main-0xfc96>
 4c8:	00961a03          	lh	s4,9(a2)
 4cc:	0000                	unimp
 4ce:	0030711b          	0x30711b
 4d2:	fd01                	bnez	a0,3ea <main-0xfc8a>
 4d4:	00960a03          	lb	s4,9(a2)
 4d8:	0000                	unimp
 4da:	0031711b          	0x31711b
 4de:	fd01                	bnez	a0,3f6 <main-0xfc7e>
 4e0:	00960e03          	lb	t3,9(a2)
 4e4:	0000                	unimp
 4e6:	0100621b          	0x100621b
 4ea:	03fe                	slli	t2,t2,0x1f
 4ec:	960a                	add	a2,a2,sp
 4ee:	0000                	unimp
 4f0:	1b00                	addi	s0,sp,432
 4f2:	6d62                	flw	fs10,24(sp)
 4f4:	0100                	addi	s0,sp,128
 4f6:	03fe                	slli	t2,t2,0x1f
 4f8:	960d                	srai	a2,a2,0x23
 4fa:	0000                	unimp
 4fc:	1b00                	addi	s0,sp,432
 4fe:	01007777          	0x1007777
 502:	371104c7          	fmsub.q	fs1,ft2,fa7,ft6,rne
 506:	0001                	nop
 508:	1c00                	addi	s0,sp,560
 50a:	0529                	addi	a0,a0,10
 50c:	0000                	unimp
 50e:	da1d                	beqz	a2,444 <main-0xfc30>
 510:	0001                	nop
 512:	0100                	addi	s0,sp,128
 514:	042e                	slli	s0,s0,0xb
 516:	9604                	0x9604
 518:	0000                	unimp
 51a:	1b00                	addi	s0,sp,432
 51c:	5f5f 0061 2e01      	0x2e0100615f5f
 522:	0404                	addi	s1,sp,512
 524:	0096                	slli	ra,ra,0x5
 526:	0000                	unimp
 528:	1c00                	addi	s0,sp,560
 52a:	058a                	slli	a1,a1,0x2
 52c:	0000                	unimp
 52e:	511d                	li	sp,-25
 530:	0000                	unimp
 532:	0100                	addi	s0,sp,128
 534:	043a                	slli	s0,s0,0xe
 536:	9604                	0x9604
 538:	0000                	unimp
 53a:	1d00                	addi	s0,sp,688
 53c:	004c                	addi	a1,sp,4
 53e:	0000                	unimp
 540:	3a01                	jal	fffffe50 <__BSS_END__+0xfffe92a8>
 542:	0404                	addi	s1,sp,512
 544:	0096                	slli	ra,ra,0x5
 546:	0000                	unimp
 548:	c61d                	beqz	a2,576 <main-0xfafe>
 54a:	0001                	nop
 54c:	0100                	addi	s0,sp,128
 54e:	043a                	slli	s0,s0,0xe
 550:	9604                	0x9604
 552:	0000                	unimp
 554:	1d00                	addi	s0,sp,688
 556:	01c1                	addi	gp,gp,16
 558:	0000                	unimp
 55a:	3a01                	jal	fffffe6a <__BSS_END__+0xfffe92c2>
 55c:	0404                	addi	s1,sp,512
 55e:	0096                	slli	ra,ra,0x5
 560:	0000                	unimp
 562:	7e1d                	lui	t3,0xfffe7
 564:	0002                	c.slli64	zero
 566:	0100                	addi	s0,sp,128
 568:	043a                	slli	s0,s0,0xe
 56a:	9604                	0x9604
 56c:	0000                	unimp
 56e:	1d00                	addi	s0,sp,688
 570:	0279                	addi	tp,tp,30
 572:	0000                	unimp
 574:	3a01                	jal	fffffe84 <__BSS_END__+0xfffe92dc>
 576:	0404                	addi	s1,sp,512
 578:	0096                	slli	ra,ra,0x5
 57a:	0000                	unimp
 57c:	6d5f5f1b          	0x6d5f5f1b
 580:	0100                	addi	s0,sp,128
 582:	043a                	slli	s0,s0,0xe
 584:	9604                	0x9604
 586:	0000                	unimp
 588:	0000                	unimp
 58a:	aa1c                	fsd	fa5,16(a2)
 58c:	0005                	c.nop	1
 58e:	1d00                	addi	s0,sp,688
 590:	01da                	slli	gp,gp,0x16
 592:	0000                	unimp
 594:	4601                	li	a2,0
 596:	0404                	addi	s1,sp,512
 598:	0096                	slli	ra,ra,0x5
 59a:	0000                	unimp
 59c:	615f5f1b          	0x615f5f1b
 5a0:	0100                	addi	s0,sp,128
 5a2:	0446                	slli	s0,s0,0x11
 5a4:	9604                	0x9604
 5a6:	0000                	unimp
 5a8:	0000                	unimp
 5aa:	0b1c                	addi	a5,sp,400
 5ac:	0006                	c.slli	zero,0x1
 5ae:	1d00                	addi	s0,sp,688
 5b0:	0051                	c.nop	20
 5b2:	0000                	unimp
 5b4:	5f01                	li	t5,-32
 5b6:	0804                	addi	s1,sp,16
 5b8:	0096                	slli	ra,ra,0x5
 5ba:	0000                	unimp
 5bc:	4c1d                	li	s8,7
 5be:	0000                	unimp
 5c0:	0100                	addi	s0,sp,128
 5c2:	045f 9608 0000      	0x9608045f
 5c8:	1d00                	addi	s0,sp,688
 5ca:	01c6                	slli	gp,gp,0x11
 5cc:	0000                	unimp
 5ce:	5f01                	li	t5,-32
 5d0:	0804                	addi	s1,sp,16
 5d2:	0096                	slli	ra,ra,0x5
 5d4:	0000                	unimp
 5d6:	c11d                	beqz	a0,5fc <main-0xfa78>
 5d8:	0001                	nop
 5da:	0100                	addi	s0,sp,128
 5dc:	045f 9608 0000      	0x9608045f
 5e2:	1d00                	addi	s0,sp,688
 5e4:	027e                	slli	tp,tp,0x1f
 5e6:	0000                	unimp
 5e8:	5f01                	li	t5,-32
 5ea:	0804                	addi	s1,sp,16
 5ec:	0096                	slli	ra,ra,0x5
 5ee:	0000                	unimp
 5f0:	791d                	lui	s2,0xfffe7
 5f2:	0002                	c.slli64	zero
 5f4:	0100                	addi	s0,sp,128
 5f6:	045f 9608 0000      	0x9608045f
 5fc:	1b00                	addi	s0,sp,432
 5fe:	5f5f 006d 5f01      	0x5f01006d5f5f
 604:	0804                	addi	s1,sp,16
 606:	0096                	slli	ra,ra,0x5
 608:	0000                	unimp
 60a:	1c00                	addi	s0,sp,560
 60c:	066c                	addi	a1,sp,780
 60e:	0000                	unimp
 610:	511d                	li	sp,-25
 612:	0000                	unimp
 614:	0100                	addi	s0,sp,128
 616:	0464                	addi	s1,sp,524
 618:	9604                	0x9604
 61a:	0000                	unimp
 61c:	1d00                	addi	s0,sp,688
 61e:	004c                	addi	a1,sp,4
 620:	0000                	unimp
 622:	6401                	0x6401
 624:	0404                	addi	s1,sp,512
 626:	0096                	slli	ra,ra,0x5
 628:	0000                	unimp
 62a:	c61d                	beqz	a2,658 <main-0xfa1c>
 62c:	0001                	nop
 62e:	0100                	addi	s0,sp,128
 630:	0464                	addi	s1,sp,524
 632:	9604                	0x9604
 634:	0000                	unimp
 636:	1d00                	addi	s0,sp,688
 638:	01c1                	addi	gp,gp,16
 63a:	0000                	unimp
 63c:	6401                	0x6401
 63e:	0404                	addi	s1,sp,512
 640:	0096                	slli	ra,ra,0x5
 642:	0000                	unimp
 644:	7e1d                	lui	t3,0xfffe7
 646:	0002                	c.slli64	zero
 648:	0100                	addi	s0,sp,128
 64a:	0464                	addi	s1,sp,524
 64c:	9604                	0x9604
 64e:	0000                	unimp
 650:	1d00                	addi	s0,sp,688
 652:	0279                	addi	tp,tp,30
 654:	0000                	unimp
 656:	6401                	0x6401
 658:	0404                	addi	s1,sp,512
 65a:	0096                	slli	ra,ra,0x5
 65c:	0000                	unimp
 65e:	6d5f5f1b          	0x6d5f5f1b
 662:	0100                	addi	s0,sp,128
 664:	0464                	addi	s1,sp,524
 666:	9604                	0x9604
 668:	0000                	unimp
 66a:	0000                	unimp
 66c:	8c1c                	0x8c1c
 66e:	0006                	c.slli	zero,0x1
 670:	1d00                	addi	s0,sp,688
 672:	01da                	slli	gp,gp,0x16
 674:	0000                	unimp
 676:	8701                	c.srai64	a4
 678:	0404                	addi	s1,sp,512
 67a:	0096                	slli	ra,ra,0x5
 67c:	0000                	unimp
 67e:	615f5f1b          	0x615f5f1b
 682:	0100                	addi	s0,sp,128
 684:	96040487          	0x96040487
 688:	0000                	unimp
 68a:	0000                	unimp
 68c:	9f1c                	0x9f1c
 68e:	0006                	c.slli	zero,0x1
 690:	1b00                	addi	s0,sp,432
 692:	5f5f 0078 9501      	0x950100785f5f
 698:	0504                	addi	s1,sp,640
 69a:	0096                	slli	ra,ra,0x5
 69c:	0000                	unimp
 69e:	1e00                	addi	s0,sp,816
 6a0:	00316d1b          	0x316d1b
 6a4:	a501                	j	ca4 <main-0xf3d0>
 6a6:	0f04                	addi	s1,sp,912
 6a8:	0096                	slli	ra,ra,0x5
 6aa:	0000                	unimp
 6ac:	00306d1b          	0x306d1b
 6b0:	a501                	j	cb0 <main-0xf3c4>
 6b2:	1304                	addi	s1,sp,416
 6b4:	0096                	slli	ra,ra,0x5
 6b6:	0000                	unimp
 6b8:	191c                	addi	a5,sp,176
 6ba:	1d000007          	0x1d000007
 6be:	0051                	c.nop	20
 6c0:	0000                	unimp
 6c2:	b001                	j	fffffec2 <__BSS_END__+0xfffe931a>
 6c4:	0804                	addi	s1,sp,16
 6c6:	0096                	slli	ra,ra,0x5
 6c8:	0000                	unimp
 6ca:	4c1d                	li	s8,7
 6cc:	0000                	unimp
 6ce:	0100                	addi	s0,sp,128
 6d0:	04b0                	addi	a2,sp,584
 6d2:	9608                	0x9608
 6d4:	0000                	unimp
 6d6:	1d00                	addi	s0,sp,688
 6d8:	01c6                	slli	gp,gp,0x11
 6da:	0000                	unimp
 6dc:	b001                	j	fffffedc <__BSS_END__+0xfffe9334>
 6de:	0804                	addi	s1,sp,16
 6e0:	0096                	slli	ra,ra,0x5
 6e2:	0000                	unimp
 6e4:	c11d                	beqz	a0,70a <main-0xf96a>
 6e6:	0001                	nop
 6e8:	0100                	addi	s0,sp,128
 6ea:	04b0                	addi	a2,sp,584
 6ec:	9608                	0x9608
 6ee:	0000                	unimp
 6f0:	1d00                	addi	s0,sp,688
 6f2:	027e                	slli	tp,tp,0x1f
 6f4:	0000                	unimp
 6f6:	b001                	j	fffffef6 <__BSS_END__+0xfffe934e>
 6f8:	0804                	addi	s1,sp,16
 6fa:	0096                	slli	ra,ra,0x5
 6fc:	0000                	unimp
 6fe:	791d                	lui	s2,0xfffe7
 700:	0002                	c.slli64	zero
 702:	0100                	addi	s0,sp,128
 704:	04b0                	addi	a2,sp,584
 706:	9608                	0x9608
 708:	0000                	unimp
 70a:	1b00                	addi	s0,sp,432
 70c:	5f5f 006d b001      	0xb001006d5f5f
 712:	0804                	addi	s1,sp,16
 714:	0096                	slli	ra,ra,0x5
 716:	0000                	unimp
 718:	1c00                	addi	s0,sp,560
 71a:	00000787          	0x787
 71e:	811d                	srli	a0,a0,0x7
 720:	0001                	nop
 722:	0100                	addi	s0,sp,128
 724:	04b1                	addi	s1,s1,12
 726:	9608                	0x9608
 728:	0000                	unimp
 72a:	1d00                	addi	s0,sp,688
 72c:	0186                	slli	gp,gp,0x1
 72e:	0000                	unimp
 730:	b101                	j	330 <main-0xfd44>
 732:	0804                	addi	s1,sp,16
 734:	0096                	slli	ra,ra,0x5
 736:	0000                	unimp
 738:	8b1d                	andi	a4,a4,7
 73a:	0001                	nop
 73c:	0100                	addi	s0,sp,128
 73e:	04b1                	addi	s1,s1,12
 740:	9608                	0x9608
 742:	0000                	unimp
 744:	1d00                	addi	s0,sp,688
 746:	0190                	addi	a2,sp,192
 748:	0000                	unimp
 74a:	b101                	j	34a <main-0xfd2a>
 74c:	0804                	addi	s1,sp,16
 74e:	0096                	slli	ra,ra,0x5
 750:	0000                	unimp
 752:	881d                	andi	s0,s0,7
 754:	0002                	c.slli64	zero
 756:	0100                	addi	s0,sp,128
 758:	04b1                	addi	s1,s1,12
 75a:	9608                	0x9608
 75c:	0000                	unimp
 75e:	1d00                	addi	s0,sp,688
 760:	0065                	c.nop	25
 762:	0000                	unimp
 764:	b101                	j	364 <main-0xfd10>
 766:	0804                	addi	s1,sp,16
 768:	0096                	slli	ra,ra,0x5
 76a:	0000                	unimp
 76c:	831d                	srli	a4,a4,0x7
 76e:	0002                	c.slli64	zero
 770:	0100                	addi	s0,sp,128
 772:	04b1                	addi	s1,s1,12
 774:	9608                	0x9608
 776:	0000                	unimp
 778:	1d00                	addi	s0,sp,688
 77a:	0060                	addi	s0,sp,12
 77c:	0000                	unimp
 77e:	b101                	j	37e <main-0xfcf6>
 780:	0804                	addi	s1,sp,16
 782:	0096                	slli	ra,ra,0x5
 784:	0000                	unimp
 786:	1c00                	addi	s0,sp,560
 788:	079a                	slli	a5,a5,0x6
 78a:	0000                	unimp
 78c:	785f5f1b          	0x785f5f1b
 790:	0100                	addi	s0,sp,128
 792:	04b6                	slli	s1,s1,0xd
 794:	9605                	srai	a2,a2,0x21
 796:	0000                	unimp
 798:	0000                	unimp
 79a:	1b1e                	slli	s6,s6,0x27
 79c:	5f5f 0078 be01      	0xbe0100785f5f
 7a2:	0504                	addi	s1,sp,640
 7a4:	0096                	slli	ra,ra,0x5
 7a6:	0000                	unimp
 7a8:	0000                	unimp
 7aa:	1f00                	addi	s0,sp,944
 7ac:	ae04                	fsd	fs1,24(a2)
 7ae:	0000                	unimp
 7b0:	0000                	unimp
 7b2:	000000d3          	fadd.s	ft1,ft0,ft0,rne
 7b6:	0004                	0x4
 7b8:	019d                	addi	gp,gp,7
 7ba:	0000                	unimp
 7bc:	0104                	addi	s1,sp,128
 7be:	028d                	addi	t0,t0,3
 7c0:	0000                	unimp
 7c2:	200c                	fld	fa1,0(s0)
 7c4:	0000                	unimp
 7c6:	0000                	unimp
 7c8:	0002                	c.slli64	zero
 7ca:	4f00                	lw	s0,24(a4)
 7cc:	02000007          	0x2000007
 7d0:	0504                	addi	s1,sp,640
 7d2:	6e69                	lui	t3,0x1a
 7d4:	0074                	addi	a3,sp,12
 7d6:	82070403          	lb	s0,-2016(a4)
 7da:	0000                	unimp
 7dc:	0300                	addi	s0,sp,384
 7de:	0508                	addi	a0,sp,640
 7e0:	006a                	c.slli	zero,0x1a
 7e2:	0000                	unimp
 7e4:	f4041003          	lh	zero,-192(s0)
 7e8:	0001                	nop
 7ea:	0300                	addi	s0,sp,384
 7ec:	0601                	addi	a2,a2,0
 7ee:	0175                	addi	sp,sp,29
 7f0:	0000                	unimp
 7f2:	73080103          	lb	sp,1840(a6)
 7f6:	0001                	nop
 7f8:	0300                	addi	s0,sp,384
 7fa:	0502                	c.slli64	a0
 7fc:	0056                	c.slli	zero,0x15
 7fe:	0000                	unimp
 800:	a6070203          	lb	tp,-1440(a4)
 804:	0001                	nop
 806:	0300                	addi	s0,sp,384
 808:	0504                	addi	s1,sp,640
 80a:	0000006f          	j	80a <main-0xf86a>
 80e:	7d070403          	lb	s0,2000(a4)
 812:	0000                	unimp
 814:	0300                	addi	s0,sp,384
 816:	0708                	addi	a0,sp,896
 818:	0078                	addi	a4,sp,12
 81a:	0000                	unimp
 81c:	7c080103          	lb	sp,1984(a6)
 820:	0001                	nop
 822:	0400                	addi	s0,sp,512
 824:	0195                	addi	gp,gp,5
 826:	0000                	unimp
 828:	7b01                	lui	s6,0xfffe0
 82a:	4016                	0x4016
 82c:	0000                	unimp
 82e:	0500                	addi	s0,sp,640
 830:	0071                	c.nop	28
 832:	0000                	unimp
 834:	1a040403          	lb	s0,416(s0)
 838:	0000                	unimp
 83a:	0300                	addi	s0,sp,384
 83c:	0308                	addi	a0,sp,384
 83e:	0012                	c.slli	zero,0x4
 840:	0000                	unimp
 842:	f9040803          	lb	a6,-112(s0)
 846:	0001                	nop
 848:	0300                	addi	s0,sp,384
 84a:	0310                	addi	a2,sp,384
 84c:	000001cb          	fnmsub.s	ft3,ft0,ft0,ft0,rne
 850:	ec032003          	lw	zero,-320(t1) # ffff9ec0 <__BSS_END__+0xfffe3318>
 854:	0001                	nop
 856:	0600                	addi	s0,sp,768
 858:	007d                	c.nop	31
 85a:	0000                	unimp
 85c:	00b5                	addi	ra,ra,13
 85e:	0000                	unimp
 860:	00002407          	flw	fs0,0(zero) # 0 <main-0x10074>
 864:	ff00                	fsw	fs0,56(a4)
 866:	0500                	addi	s0,sp,640
 868:	00a5                	addi	ra,ra,9
 86a:	0000                	unimp
 86c:	6908                	flw	fa0,16(a0)
 86e:	0001                	nop
 870:	0100                	addi	s0,sp,128
 872:	0202                	c.slli64	tp
 874:	b516                	fsd	ft5,168(sp)
 876:	0000                	unimp
 878:	0900                	addi	s0,sp,144
 87a:	00ba                	slli	ra,ra,0xe
 87c:	0000                	unimp
 87e:	b202                	fsd	ft0,288(sp)
 880:	0f02                	c.slli64	t5
 882:	0305                	addi	t1,t1,1
 884:	53e8                	lw	a0,100(a5)
 886:	0001                	nop
	...

Disassembly of section .debug_abbrev:

00000000 <.debug_abbrev>:
   0:	1101                	addi	sp,sp,-32
   2:	2501                	jal	602 <main-0xfa72>
   4:	130e                	slli	t1,t1,0x23
   6:	1b0e030b          	0x1b0e030b
   a:	110e                	slli	sp,sp,0x23
   c:	1201                	addi	tp,tp,-32
   e:	1006                	c.slli	zero,0x21
  10:	02000017          	auipc	zero,0x2000
  14:	0024                	addi	s1,sp,8
  16:	0b3e0b0b          	0xb3e0b0b
  1a:	00000e03          	lb	t3,0(zero) # 0 <main-0x10074>
  1e:	0b002403          	lw	s0,176(zero) # b0 <main-0xffc4>
  22:	030b3e0b          	0x30b3e0b
  26:	0008                	0x8
  28:	0400                	addi	s0,sp,512
  2a:	0016                	c.slli	zero,0x5
  2c:	0b3a0e03          	lb	t3,179(s4)
  30:	0b390b3b          	0xb390b3b
  34:	1349                	addi	t1,t1,-14
  36:	0000                	unimp
  38:	2605                	jal	358 <main-0xfd1c>
  3a:	4900                	lw	s0,16(a0)
  3c:	06000013          	li	zero,96
  40:	0e030113          	addi	sp,t1,224
  44:	0b3a0b0b          	0xb3a0b0b
  48:	0b39053b          	0xb39053b
  4c:	1301                	addi	t1,t1,-32
  4e:	0000                	unimp
  50:	03000d07          	0x3000d07
  54:	3a08                	fld	fa0,48(a2)
  56:	39053b0b          	0x39053b0b
  5a:	3813490b          	0x3813490b
  5e:	0800000b          	0x800000b
  62:	000d                	c.nop	3
  64:	0b3a0e03          	lb	t3,179(s4)
  68:	0b39053b          	0xb39053b
  6c:	1349                	addi	t1,t1,-14
  6e:	0b38                	addi	a4,sp,408
  70:	0000                	unimp
  72:	1709                	addi	a4,a4,-30
  74:	0b01                	addi	s6,s6,0
  76:	3b0b3a0b          	0x3b0b3a0b
  7a:	3905                	jal	fffffcaa <__BSS_END__+0xfffe9102>
  7c:	0013010b          	0x13010b
  80:	0a00                	addi	s0,sp,272
  82:	000d                	c.nop	3
  84:	0b3a0803          	lb	a6,179(s4)
  88:	0b39053b          	0xb39053b
  8c:	1349                	addi	t1,t1,-14
  8e:	0000                	unimp
  90:	0300160b          	0x300160b
  94:	3a0e                	fld	fs4,224(sp)
  96:	39053b0b          	0x39053b0b
  9a:	0013490b          	0x13490b
  9e:	0c00                	addi	s0,sp,528
  a0:	0101                	addi	sp,sp,0
  a2:	1349                	addi	t1,t1,-14
  a4:	1301                	addi	t1,t1,-32
  a6:	0000                	unimp
  a8:	210d                	jal	4ca <main-0xfbaa>
  aa:	4900                	lw	s0,16(a0)
  ac:	000b2f13          	slti	t5,s6,0
  b0:	0e00                	addi	s0,sp,784
  b2:	0034                	addi	a3,sp,8
  b4:	0b3a0e03          	lb	t3,179(s4)
  b8:	0b39053b          	0xb39053b
  bc:	1349                	addi	t1,t1,-14
  be:	193c193f 2e0f0000 	0x2e0f0000193c193f
  c6:	3f01                	jal	ffffffd6 <__BSS_END__+0xfffe942e>
  c8:	0319                	addi	t1,t1,6
  ca:	3a0e                	fld	fs4,224(sp)
  cc:	39053b0b          	0x39053b0b
  d0:	4919270b          	0x4919270b
  d4:	12011113          	0x12011113
  d8:	4006                	0x4006
  da:	9718                	0x9718
  dc:	1942                	slli	s2,s2,0x30
  de:	1301                	addi	t1,t1,-32
  e0:	0000                	unimp
  e2:	0510                	addi	a2,sp,640
  e4:	0300                	addi	s0,sp,384
  e6:	3a08                	fld	fa0,48(a2)
  e8:	39053b0b          	0x39053b0b
  ec:	0213490b          	0x213490b
  f0:	11000017          	auipc	zero,0x11000
  f4:	011d                	addi	sp,sp,7
  f6:	1331                	addi	t1,t1,-20
  f8:	0152                	slli	sp,sp,0x14
  fa:	1755                	addi	a4,a4,-11
  fc:	0b58                	addi	a4,sp,404
  fe:	0559                	addi	a0,a0,22
 100:	00000b57          	0xb57
 104:	0512                	slli	a0,a0,0x4
 106:	3100                	fld	fs0,32(a0)
 108:	00170213          	addi	tp,a4,1
 10c:	1300                	addi	s0,sp,416
 10e:	1755010b          	0x1755010b
 112:	0000                	unimp
 114:	3414                	fld	fa3,40(s0)
 116:	3100                	fld	fs0,32(a0)
 118:	15000013          	li	zero,336
 11c:	0034                	addi	a3,sp,8
 11e:	1331                	addi	t1,t1,-20
 120:	1702                	slli	a4,a4,0x20
 122:	0000                	unimp
 124:	0b16                	slli	s6,s6,0x5
 126:	3101                	jal	fffffd26 <__BSS_END__+0xfffe917e>
 128:	01175513          	srli	a0,a4,0x11
 12c:	17000013          	li	zero,368
 130:	1331010b          	0x1331010b
 134:	0111                	addi	sp,sp,4
 136:	0612                	slli	a2,a2,0x4
 138:	1301                	addi	t1,t1,-32
 13a:	0000                	unimp
 13c:	0b18                	addi	a4,sp,400
 13e:	3101                	jal	fffffd3e <__BSS_END__+0xfffe9196>
 140:	00175513          	srli	a0,a4,0x1
 144:	1900                	addi	s0,sp,176
 146:	012e                	slli	sp,sp,0xb
 148:	0b3a0e03          	lb	t3,179(s4)
 14c:	0b39053b          	0xb39053b
 150:	13491927          	0x13491927
 154:	0b20                	addi	s0,sp,408
 156:	1301                	addi	t1,t1,-32
 158:	0000                	unimp
 15a:	051a                	slli	a0,a0,0x6
 15c:	0300                	addi	s0,sp,384
 15e:	3a08                	fld	fa0,48(a2)
 160:	39053b0b          	0x39053b0b
 164:	0013490b          	0x13490b
 168:	1b00                	addi	s0,sp,432
 16a:	0034                	addi	a3,sp,8
 16c:	0b3a0803          	lb	a6,179(s4)
 170:	0b39053b          	0xb39053b
 174:	1349                	addi	t1,t1,-14
 176:	0000                	unimp
 178:	0b1c                	addi	a5,sp,400
 17a:	0101                	addi	sp,sp,0
 17c:	1d000013          	li	zero,464
 180:	0034                	addi	a3,sp,8
 182:	0b3a0e03          	lb	t3,179(s4)
 186:	0b39053b          	0xb39053b
 18a:	1349                	addi	t1,t1,-14
 18c:	0000                	unimp
 18e:	0b1e                	slli	s6,s6,0x7
 190:	0001                	nop
 192:	1f00                	addi	s0,sp,944
 194:	0b0b000f          	0xb0b000f
 198:	1349                	addi	t1,t1,-14
 19a:	0000                	unimp
 19c:	0100                	addi	s0,sp,128
 19e:	0111                	addi	sp,sp,4
 1a0:	0e25                	addi	t3,t3,9
 1a2:	0e030b13          	addi	s6,t1,224
 1a6:	17100e1b          	0x17100e1b
 1aa:	0000                	unimp
 1ac:	2402                	fld	fs0,0(sp)
 1ae:	0b00                	addi	s0,sp,400
 1b0:	030b3e0b          	0x30b3e0b
 1b4:	0008                	0x8
 1b6:	0300                	addi	s0,sp,384
 1b8:	0024                	addi	s1,sp,8
 1ba:	0b3e0b0b          	0xb3e0b0b
 1be:	00000e03          	lb	t3,0(zero) # 0 <main-0x10074>
 1c2:	1604                	addi	s1,sp,800
 1c4:	0300                	addi	s0,sp,384
 1c6:	3a0e                	fld	fs4,224(sp)
 1c8:	390b3b0b          	0x390b3b0b
 1cc:	0013490b          	0x13490b
 1d0:	0500                	addi	s0,sp,640
 1d2:	0026                	c.slli	zero,0x9
 1d4:	1349                	addi	t1,t1,-14
 1d6:	0000                	unimp
 1d8:	0106                	slli	sp,sp,0x1
 1da:	4901                	li	s2,0
 1dc:	00130113          	addi	sp,t1,1
 1e0:	0700                	addi	s0,sp,896
 1e2:	0021                	c.nop	8
 1e4:	1349                	addi	t1,t1,-14
 1e6:	00000b2f          	0xb2f
 1ea:	3408                	fld	fa0,40(s0)
 1ec:	0300                	addi	s0,sp,384
 1ee:	3a0e                	fld	fs4,224(sp)
 1f0:	39053b0b          	0x39053b0b
 1f4:	3f13490b          	0x3f13490b
 1f8:	3c19                	jal	fffffc0e <__BSS_END__+0xfffe9066>
 1fa:	0019                	c.nop	6
 1fc:	0900                	addi	s0,sp,144
 1fe:	0034                	addi	a3,sp,8
 200:	0b3a1347          	fmsub.d	ft6,fs4,fs3,ft1,rtz
 204:	0b39053b          	0xb39053b
 208:	1802                	slli	a6,a6,0x20
 20a:	0000                	unimp
	...

Disassembly of section .debug_line:

00000000 <.debug_line>:
   0:	0000074b          	fnmsub.s	fa4,ft0,ft0,ft0,rne
   4:	004f0003          	lb	zero,4(t5) # 1004 <main-0xf070>
   8:	0000                	unimp
   a:	0101                	addi	sp,sp,0
   c:	000d0efb          	0xd0efb
  10:	0101                	addi	sp,sp,0
  12:	0101                	addi	sp,sp,0
  14:	0000                	unimp
  16:	0100                	addi	s0,sp,128
  18:	0000                	unimp
  1a:	2e01                	jal	32a <main-0xfd4a>
  1c:	2f2e                	fld	ft10,200(sp)
  1e:	2e2e                	fld	ft8,200(sp)
  20:	2f2e2e2f          	0x2f2e2e2f
  24:	2e2e                	fld	ft8,200(sp)
  26:	2f2e2e2f          	0x2f2e2e2f
  2a:	2f2e                	fld	ft10,200(sp)
  2c:	6972                	flw	fs2,28(sp)
  2e:	2d766373          	csrrsi	t1,0x2d7,12
  32:	2f636367          	0x2f636367
  36:	696c                	flw	fa1,84(a0)
  38:	6762                	flw	fa4,24(sp)
  3a:	00006363          	bltu	zero,zero,40 <main-0x10034>
  3e:	696c                	flw	fa1,84(a0)
  40:	6762                	flw	fa4,24(sp)
  42:	2e326363          	bltu	tp,gp,328 <main-0xfd4c>
  46:	00010063          	beqz	sp,46 <main-0x1002e>
  4a:	6c00                	flw	fs0,24(s0)
  4c:	6269                	lui	tp,0x1a
  4e:	32636367          	0x32636367
  52:	682e                	flw	fa6,200(sp)
  54:	0100                	addi	s0,sp,128
  56:	0000                	unimp
  58:	0500                	addi	s0,sp,640
  5a:	0001                	nop
  5c:	0205                	addi	tp,tp,1
  5e:	2e2c                	fld	fa1,88(a2)
  60:	0001                	nop
  62:	010aa603          	lw	a2,16(s5)
  66:	0305                	addi	t1,t1,1
  68:	00090103          	lb	sp,0(s2) # fffe7000 <__BSS_END__+0xfffd0458>
  6c:	0100                	addi	s0,sp,128
  6e:	0105                	addi	sp,sp,1
  70:	0306                	slli	t1,t1,0x1
  72:	097f                	0x97f
  74:	0000                	unimp
  76:	0501                	addi	a0,a0,0
  78:	d2030603          	lb	a2,-736(t1)
  7c:	097d                	addi	s2,s2,31
  7e:	0004                	0x4
  80:	0301                	addi	t1,t1,0
  82:	0901                	addi	s2,s2,0
  84:	0000                	unimp
  86:	0301                	addi	t1,t1,0
  88:	0901                	addi	s2,s2,0
  8a:	0000                	unimp
  8c:	0301                	addi	t1,t1,0
  8e:	0901                	addi	s2,s2,0
  90:	0000                	unimp
  92:	0301                	addi	t1,t1,0
  94:	0901                	addi	s2,s2,0
  96:	0000                	unimp
  98:	0301                	addi	t1,t1,0
  9a:	0901                	addi	s2,s2,0
  9c:	0000                	unimp
  9e:	0301                	addi	t1,t1,0
  a0:	0902                	c.slli64	s2
  a2:	0000                	unimp
  a4:	0501                	addi	a0,a0,0
  a6:	0601                	addi	a2,a2,0
  a8:	0902a703          	lw	a4,144(t0)
  ac:	0000                	unimp
  ae:	0501                	addi	a0,a0,0
  b0:	0306                	slli	t1,t1,0x1
  b2:	7dd9                	lui	s11,0xffff6
  b4:	0409                	addi	s0,s0,2
  b6:	0100                	addi	s0,sp,128
  b8:	0305                	addi	t1,t1,1
  ba:	0306                	slli	t1,t1,0x1
  bc:	0901                	addi	s2,s2,0
  be:	0004                	0x4
  c0:	0501                	addi	a0,a0,0
  c2:	0606                	slli	a2,a2,0x1
  c4:	00090003          	lb	zero,0(s2)
  c8:	0100                	addi	s0,sp,128
  ca:	0305                	addi	t1,t1,1
  cc:	0306                	slli	t1,t1,0x1
  ce:	0901                	addi	s2,s2,0
  d0:	0004                	0x4
  d2:	0501                	addi	a0,a0,0
  d4:	0606                	slli	a2,a2,0x1
  d6:	00090003          	lb	zero,0(s2)
  da:	0100                	addi	s0,sp,128
  dc:	0305                	addi	t1,t1,1
  de:	0306                	slli	t1,t1,0x1
  e0:	0901                	addi	s2,s2,0
  e2:	0004                	0x4
  e4:	0301                	addi	t1,t1,0
  e6:	0925                	addi	s2,s2,9
  e8:	0000                	unimp
  ea:	0501                	addi	a0,a0,0
  ec:	0606                	slli	a2,a2,0x1
  ee:	00090003          	lb	zero,0(s2)
  f2:	0100                	addi	s0,sp,128
  f4:	0705                	addi	a4,a4,1
  f6:	0306                	slli	t1,t1,0x1
  f8:	0902                	c.slli64	s2
  fa:	0004                	0x4
  fc:	0501                	addi	a0,a0,0
  fe:	060a                	slli	a2,a2,0x2
 100:	08090003          	lb	zero,128(s2)
 104:	0100                	addi	s0,sp,128
 106:	0405                	addi	s0,s0,1
 108:	0306                	slli	t1,t1,0x1
 10a:	0904                	addi	s1,sp,144
 10c:	0004                	0x4
 10e:	0301                	addi	t1,t1,0
 110:	0900                	addi	s0,sp,144
 112:	0000                	unimp
 114:	0301                	addi	t1,t1,0
 116:	0900                	addi	s0,sp,144
 118:	0000                	unimp
 11a:	0301                	addi	t1,t1,0
 11c:	0900                	addi	s0,sp,144
 11e:	0000                	unimp
 120:	0301                	addi	t1,t1,0
 122:	0900                	addi	s0,sp,144
 124:	0000                	unimp
 126:	0301                	addi	t1,t1,0
 128:	0900                	addi	s0,sp,144
 12a:	0014                	0x14
 12c:	0301                	addi	t1,t1,0
 12e:	0900                	addi	s0,sp,144
 130:	0018                	0x18
 132:	0301                	addi	t1,t1,0
 134:	0902                	c.slli64	s2
 136:	0000                	unimp
 138:	0501                	addi	a0,a0,0
 13a:	00030607          	0x30607
 13e:	0009                	c.nop	2
 140:	0100                	addi	s0,sp,128
 142:	0805                	addi	a6,a6,1
 144:	0306                	slli	t1,t1,0x1
 146:	0905                	addi	s2,s2,1
 148:	0004                	0x4
 14a:	0501                	addi	a0,a0,0
 14c:	0611                	addi	a2,a2,4
 14e:	00090103          	lb	sp,0(s2)
 152:	0100                	addi	s0,sp,128
 154:	1e05                	addi	t3,t3,-31
 156:	04090003          	lb	zero,64(s2)
 15a:	0100                	addi	s0,sp,128
 15c:	0b05                	addi	s6,s6,1
 15e:	04097f03          	0x4097f03
 162:	0100                	addi	s0,sp,128
 164:	0805                	addi	a6,a6,1
 166:	0306                	slli	t1,t1,0x1
 168:	0901                	addi	s2,s2,0
 16a:	0004                	0x4
 16c:	0501                	addi	a0,a0,0
 16e:	0003060b          	0x3060b
 172:	0009                	c.nop	2
 174:	0100                	addi	s0,sp,128
 176:	0805                	addi	a6,a6,1
 178:	0306                	slli	t1,t1,0x1
 17a:	0901                	addi	s2,s2,0
 17c:	0004                	0x4
 17e:	0501                	addi	a0,a0,0
 180:	0003060b          	0x3060b
 184:	0009                	c.nop	2
 186:	0100                	addi	s0,sp,128
 188:	0405                	addi	s0,s0,1
 18a:	0306                	slli	t1,t1,0x1
 18c:	00040903          	lb	s2,0(s0)
 190:	0301                	addi	t1,t1,0
 192:	0900                	addi	s0,sp,144
 194:	0000                	unimp
 196:	0301                	addi	t1,t1,0
 198:	0900                	addi	s0,sp,144
 19a:	0000                	unimp
 19c:	0301                	addi	t1,t1,0
 19e:	0900                	addi	s0,sp,144
 1a0:	0000                	unimp
 1a2:	0301                	addi	t1,t1,0
 1a4:	0900                	addi	s0,sp,144
 1a6:	0004                	0x4
 1a8:	0301                	addi	t1,t1,0
 1aa:	0900                	addi	s0,sp,144
 1ac:	000c                	0xc
 1ae:	0301                	addi	t1,t1,0
 1b0:	0900                	addi	s0,sp,144
 1b2:	0008                	0x8
 1b4:	0301                	addi	t1,t1,0
 1b6:	0900                	addi	s0,sp,144
 1b8:	0000                	unimp
 1ba:	0301                	addi	t1,t1,0
 1bc:	0900                	addi	s0,sp,144
 1be:	0008                	0x8
 1c0:	0301                	addi	t1,t1,0
 1c2:	0900                	addi	s0,sp,144
 1c4:	0008                	0x8
 1c6:	0301                	addi	t1,t1,0
 1c8:	0900                	addi	s0,sp,144
 1ca:	0004                	0x4
 1cc:	0301                	addi	t1,t1,0
 1ce:	0900                	addi	s0,sp,144
 1d0:	0008                	0x8
 1d2:	0301                	addi	t1,t1,0
 1d4:	0900                	addi	s0,sp,144
 1d6:	0004                	0x4
 1d8:	0301                	addi	t1,t1,0
 1da:	0900                	addi	s0,sp,144
 1dc:	0004                	0x4
 1de:	0301                	addi	t1,t1,0
 1e0:	0900                	addi	s0,sp,144
 1e2:	0008                	0x8
 1e4:	0301                	addi	t1,t1,0
 1e6:	0900                	addi	s0,sp,144
 1e8:	0004                	0x4
 1ea:	0301                	addi	t1,t1,0
 1ec:	0900                	addi	s0,sp,144
 1ee:	0004                	0x4
 1f0:	0301                	addi	t1,t1,0
 1f2:	0900                	addi	s0,sp,144
 1f4:	000c                	0xc
 1f6:	0301                	addi	t1,t1,0
 1f8:	0900                	addi	s0,sp,144
 1fa:	000c                	0xc
 1fc:	0301                	addi	t1,t1,0
 1fe:	0900                	addi	s0,sp,144
 200:	0000                	unimp
 202:	0301                	addi	t1,t1,0
 204:	0900                	addi	s0,sp,144
 206:	0008                	0x8
 208:	0301                	addi	t1,t1,0
 20a:	0900                	addi	s0,sp,144
 20c:	0008                	0x8
 20e:	0301                	addi	t1,t1,0
 210:	0900                	addi	s0,sp,144
 212:	0004                	0x4
 214:	0301                	addi	t1,t1,0
 216:	0900                	addi	s0,sp,144
 218:	0004                	0x4
 21a:	0301                	addi	t1,t1,0
 21c:	0900                	addi	s0,sp,144
 21e:	0004                	0x4
 220:	0301                	addi	t1,t1,0
 222:	0900                	addi	s0,sp,144
 224:	0000                	unimp
 226:	0301                	addi	t1,t1,0
 228:	0900                	addi	s0,sp,144
 22a:	0008                	0x8
 22c:	0301                	addi	t1,t1,0
 22e:	0900                	addi	s0,sp,144
 230:	0000                	unimp
 232:	0301                	addi	t1,t1,0
 234:	0901                	addi	s2,s2,0
 236:	0000                	unimp
 238:	0501                	addi	a0,a0,0
 23a:	fe03060b          	0xfe03060b
 23e:	0900                	addi	s0,sp,144
 240:	0000                	unimp
 242:	0501                	addi	a0,a0,0
 244:	0304                	addi	s1,sp,384
 246:	7ef5                	lui	t4,0xffffd
 248:	0809                	addi	a6,a6,2
 24a:	0100                	addi	s0,sp,128
 24c:	0306                	slli	t1,t1,0x1
 24e:	0915                	addi	s2,s2,5
 250:	0014                	0x14
 252:	0501                	addi	a0,a0,0
 254:	00030607          	0x30607
 258:	0009                	c.nop	2
 25a:	0100                	addi	s0,sp,128
 25c:	0605                	addi	a2,a2,1
 25e:	0306                	slli	t1,t1,0x1
 260:	0901                	addi	s2,s2,0
 262:	0004                	0x4
 264:	0501                	addi	a0,a0,0
 266:	0609                	addi	a2,a2,2
 268:	00090003          	lb	zero,0(s2)
 26c:	0100                	addi	s0,sp,128
 26e:	0405                	addi	s0,s0,1
 270:	0306                	slli	t1,t1,0x1
 272:	0902                	c.slli64	s2
 274:	0008                	0x8
 276:	0301                	addi	t1,t1,0
 278:	0900                	addi	s0,sp,144
 27a:	0000                	unimp
 27c:	0301                	addi	t1,t1,0
 27e:	0900                	addi	s0,sp,144
 280:	0000                	unimp
 282:	0301                	addi	t1,t1,0
 284:	0900                	addi	s0,sp,144
 286:	0000                	unimp
 288:	0301                	addi	t1,t1,0
 28a:	0900                	addi	s0,sp,144
 28c:	0000                	unimp
 28e:	0301                	addi	t1,t1,0
 290:	0900                	addi	s0,sp,144
 292:	0014                	0x14
 294:	0301                	addi	t1,t1,0
 296:	0900                	addi	s0,sp,144
 298:	0018                	0x18
 29a:	0301                	addi	t1,t1,0
 29c:	0902                	c.slli64	s2
 29e:	0000                	unimp
 2a0:	0501                	addi	a0,a0,0
 2a2:	00030607          	0x30607
 2a6:	0009                	c.nop	2
 2a8:	0100                	addi	s0,sp,128
 2aa:	0805                	addi	a6,a6,1
 2ac:	0306                	slli	t1,t1,0x1
 2ae:	0909                	addi	s2,s2,2
 2b0:	0004                	0x4
 2b2:	0501                	addi	a0,a0,0
 2b4:	0003060b          	0x3060b
 2b8:	0009                	c.nop	2
 2ba:	0100                	addi	s0,sp,128
 2bc:	0805                	addi	a6,a6,1
 2be:	0306                	slli	t1,t1,0x1
 2c0:	0901                	addi	s2,s2,0
 2c2:	0004                	0x4
 2c4:	0501                	addi	a0,a0,0
 2c6:	0003060b          	0x3060b
 2ca:	0009                	c.nop	2
 2cc:	0100                	addi	s0,sp,128
 2ce:	0805                	addi	a6,a6,1
 2d0:	0306                	slli	t1,t1,0x1
 2d2:	090d                	addi	s2,s2,3
 2d4:	0004                	0x4
 2d6:	0501                	addi	a0,a0,0
 2d8:	0304                	addi	s1,sp,384
 2da:	0905                	addi	s2,s2,1
 2dc:	0000                	unimp
 2de:	0301                	addi	t1,t1,0
 2e0:	0900                	addi	s0,sp,144
 2e2:	0000                	unimp
 2e4:	0301                	addi	t1,t1,0
 2e6:	0900                	addi	s0,sp,144
 2e8:	0000                	unimp
 2ea:	0301                	addi	t1,t1,0
 2ec:	0900                	addi	s0,sp,144
 2ee:	0000                	unimp
 2f0:	0301                	addi	t1,t1,0
 2f2:	0900                	addi	s0,sp,144
 2f4:	0004                	0x4
 2f6:	0301                	addi	t1,t1,0
 2f8:	0900                	addi	s0,sp,144
 2fa:	0008                	0x8
 2fc:	0301                	addi	t1,t1,0
 2fe:	0900                	addi	s0,sp,144
 300:	0008                	0x8
 302:	0301                	addi	t1,t1,0
 304:	0900                	addi	s0,sp,144
 306:	0004                	0x4
 308:	0301                	addi	t1,t1,0
 30a:	0900                	addi	s0,sp,144
 30c:	000c                	0xc
 30e:	0301                	addi	t1,t1,0
 310:	0900                	addi	s0,sp,144
 312:	0000                	unimp
 314:	0301                	addi	t1,t1,0
 316:	0900                	addi	s0,sp,144
 318:	0008                	0x8
 31a:	0301                	addi	t1,t1,0
 31c:	0900                	addi	s0,sp,144
 31e:	0008                	0x8
 320:	0301                	addi	t1,t1,0
 322:	0900                	addi	s0,sp,144
 324:	0004                	0x4
 326:	0301                	addi	t1,t1,0
 328:	0900                	addi	s0,sp,144
 32a:	0004                	0x4
 32c:	0301                	addi	t1,t1,0
 32e:	0900                	addi	s0,sp,144
 330:	0008                	0x8
 332:	0301                	addi	t1,t1,0
 334:	0900                	addi	s0,sp,144
 336:	0004                	0x4
 338:	0301                	addi	t1,t1,0
 33a:	0900                	addi	s0,sp,144
 33c:	0004                	0x4
 33e:	0301                	addi	t1,t1,0
 340:	0900                	addi	s0,sp,144
 342:	000c                	0xc
 344:	0301                	addi	t1,t1,0
 346:	0900                	addi	s0,sp,144
 348:	000c                	0xc
 34a:	0301                	addi	t1,t1,0
 34c:	0900                	addi	s0,sp,144
 34e:	0000                	unimp
 350:	0301                	addi	t1,t1,0
 352:	0900                	addi	s0,sp,144
 354:	0008                	0x8
 356:	0301                	addi	t1,t1,0
 358:	0900                	addi	s0,sp,144
 35a:	0008                	0x8
 35c:	0301                	addi	t1,t1,0
 35e:	0900                	addi	s0,sp,144
 360:	0004                	0x4
 362:	0301                	addi	t1,t1,0
 364:	0900                	addi	s0,sp,144
 366:	0004                	0x4
 368:	0301                	addi	t1,t1,0
 36a:	0900                	addi	s0,sp,144
 36c:	0004                	0x4
 36e:	0301                	addi	t1,t1,0
 370:	0900                	addi	s0,sp,144
 372:	0000                	unimp
 374:	0301                	addi	t1,t1,0
 376:	0900                	addi	s0,sp,144
 378:	0008                	0x8
 37a:	0501                	addi	a0,a0,0
 37c:	00e30303          	lb	t1,14(t1)
 380:	0009                	c.nop	2
 382:	0100                	addi	s0,sp,128
 384:	00090103          	lb	sp,0(s2)
 388:	0100                	addi	s0,sp,128
 38a:	0105                	addi	sp,sp,1
 38c:	0306                	slli	t1,t1,0x1
 38e:	00e1                	addi	ra,ra,24
 390:	0009                	c.nop	2
 392:	0100                	addi	s0,sp,128
 394:	0405                	addi	s0,s0,1
 396:	097e9d03          	lh	s10,151(t4) # ffffd097 <__BSS_END__+0xfffe64ef>
 39a:	0004                	0x4
 39c:	0501                	addi	a0,a0,0
 39e:	0608                	addi	a0,sp,768
 3a0:	14091203          	lh	tp,320(s2)
 3a4:	0100                	addi	s0,sp,128
 3a6:	00090203          	lb	tp,0(s2)
 3aa:	0100                	addi	s0,sp,128
 3ac:	0b05                	addi	s6,s6,1
 3ae:	0306                	slli	t1,t1,0x1
 3b0:	0900                	addi	s0,sp,144
 3b2:	0000                	unimp
 3b4:	0501                	addi	a0,a0,0
 3b6:	0608                	addi	a0,sp,768
 3b8:	04090103          	lb	sp,64(s2)
 3bc:	0100                	addi	s0,sp,128
 3be:	0b05                	addi	s6,s6,1
 3c0:	0306                	slli	t1,t1,0x1
 3c2:	0900                	addi	s0,sp,144
 3c4:	0000                	unimp
 3c6:	0501                	addi	a0,a0,0
 3c8:	0608                	addi	a0,sp,768
 3ca:	04090103          	lb	sp,64(s2)
 3ce:	0100                	addi	s0,sp,128
 3d0:	0b05                	addi	s6,s6,1
 3d2:	0306                	slli	t1,t1,0x1
 3d4:	0901                	addi	s2,s2,0
 3d6:	0000                	unimp
 3d8:	0501                	addi	a0,a0,0
 3da:	0311                	addi	t1,t1,4
 3dc:	097f                	0x97f
 3de:	0004                	0x4
 3e0:	0501                	addi	a0,a0,0
 3e2:	031e                	slli	t1,t1,0x7
 3e4:	0900                	addi	s0,sp,144
 3e6:	0004                	0x4
 3e8:	0501                	addi	a0,a0,0
 3ea:	0308                	addi	a0,sp,384
 3ec:	00040903          	lb	s2,0(s0)
 3f0:	0501                	addi	a0,a0,0
 3f2:	097d030b          	0x97d030b
 3f6:	0004                	0x4
 3f8:	0501                	addi	a0,a0,0
 3fa:	0608                	addi	a0,sp,768
 3fc:	04090103          	lb	sp,64(s2)
 400:	0100                	addi	s0,sp,128
 402:	00090203          	lb	tp,0(s2)
 406:	0100                	addi	s0,sp,128
 408:	00090003          	lb	zero,0(s2)
 40c:	0100                	addi	s0,sp,128
 40e:	00090003          	lb	zero,0(s2)
 412:	0100                	addi	s0,sp,128
 414:	00090003          	lb	zero,0(s2)
 418:	0100                	addi	s0,sp,128
 41a:	00090003          	lb	zero,0(s2)
 41e:	0100                	addi	s0,sp,128
 420:	0c090003          	lb	zero,192(s2)
 424:	0100                	addi	s0,sp,128
 426:	00090003          	lb	zero,0(s2)
 42a:	0100                	addi	s0,sp,128
 42c:	08090003          	lb	zero,128(s2)
 430:	0100                	addi	s0,sp,128
 432:	0c090003          	lb	zero,192(s2)
 436:	0100                	addi	s0,sp,128
 438:	00090003          	lb	zero,0(s2)
 43c:	0100                	addi	s0,sp,128
 43e:	08090003          	lb	zero,128(s2)
 442:	0100                	addi	s0,sp,128
 444:	08090003          	lb	zero,128(s2)
 448:	0100                	addi	s0,sp,128
 44a:	04090003          	lb	zero,64(s2)
 44e:	0100                	addi	s0,sp,128
 450:	04090003          	lb	zero,64(s2)
 454:	0100                	addi	s0,sp,128
 456:	08090003          	lb	zero,128(s2)
 45a:	0100                	addi	s0,sp,128
 45c:	04090003          	lb	zero,64(s2)
 460:	0100                	addi	s0,sp,128
 462:	04090003          	lb	zero,64(s2)
 466:	0100                	addi	s0,sp,128
 468:	0c090003          	lb	zero,192(s2)
 46c:	0100                	addi	s0,sp,128
 46e:	08090003          	lb	zero,128(s2)
 472:	0100                	addi	s0,sp,128
 474:	04090003          	lb	zero,64(s2)
 478:	0100                	addi	s0,sp,128
 47a:	08090003          	lb	zero,128(s2)
 47e:	0100                	addi	s0,sp,128
 480:	08090003          	lb	zero,128(s2)
 484:	0100                	addi	s0,sp,128
 486:	04090003          	lb	zero,64(s2)
 48a:	0100                	addi	s0,sp,128
 48c:	04090003          	lb	zero,64(s2)
 490:	0100                	addi	s0,sp,128
 492:	08090003          	lb	zero,128(s2)
 496:	0100                	addi	s0,sp,128
 498:	08090003          	lb	zero,128(s2)
 49c:	0100                	addi	s0,sp,128
 49e:	04090003          	lb	zero,64(s2)
 4a2:	0100                	addi	s0,sp,128
 4a4:	0705                	addi	a4,a4,1
 4a6:	04091503          	lh	a0,64(s2)
 4aa:	0100                	addi	s0,sp,128
 4ac:	0a05                	addi	s4,s4,1
 4ae:	0306                	slli	t1,t1,0x1
 4b0:	0900                	addi	s0,sp,144
 4b2:	0000                	unimp
 4b4:	0501                	addi	a0,a0,0
 4b6:	0604                	addi	s1,sp,768
 4b8:	04091303          	lh	t1,64(s2)
 4bc:	0100                	addi	s0,sp,128
 4be:	00090003          	lb	zero,0(s2)
 4c2:	0100                	addi	s0,sp,128
 4c4:	00090003          	lb	zero,0(s2)
 4c8:	0100                	addi	s0,sp,128
 4ca:	00090003          	lb	zero,0(s2)
 4ce:	0100                	addi	s0,sp,128
 4d0:	00090003          	lb	zero,0(s2)
 4d4:	0100                	addi	s0,sp,128
 4d6:	14090003          	lb	zero,320(s2)
 4da:	0100                	addi	s0,sp,128
 4dc:	20090003          	lb	zero,512(s2)
 4e0:	0100                	addi	s0,sp,128
 4e2:	00090103          	lb	sp,0(s2)
 4e6:	0100                	addi	s0,sp,128
 4e8:	0705                	addi	a4,a4,1
 4ea:	0306                	slli	t1,t1,0x1
 4ec:	0900                	addi	s0,sp,144
 4ee:	0000                	unimp
 4f0:	0501                	addi	a0,a0,0
 4f2:	0608                	addi	a0,sp,768
 4f4:	04090a03          	lb	s4,64(s2)
 4f8:	0100                	addi	s0,sp,128
 4fa:	0306                	slli	t1,t1,0x1
 4fc:	0902                	c.slli64	s2
 4fe:	0000                	unimp
 500:	0501                	addi	a0,a0,0
 502:	097e030b          	0x97e030b
 506:	0004                	0x4
 508:	0501                	addi	a0,a0,0
 50a:	0314                	addi	a3,sp,384
 50c:	0900                	addi	s0,sp,144
 50e:	0004                	0x4
 510:	0501                	addi	a0,a0,0
 512:	0304                	addi	s1,sp,384
 514:	0975                	addi	s2,s2,29
 516:	000c                	0xc
 518:	0501                	addi	a0,a0,0
 51a:	0608                	addi	a0,sp,768
 51c:	14091e03          	lh	t3,320(s2)
 520:	0100                	addi	s0,sp,128
 522:	00090303          	lb	t1,0(s2)
 526:	0100                	addi	s0,sp,128
 528:	00090203          	lb	tp,0(s2)
 52c:	0100                	addi	s0,sp,128
 52e:	1e05                	addi	t3,t3,-31
 530:	0306                	slli	t1,t1,0x1
 532:	0900                	addi	s0,sp,144
 534:	0000                	unimp
 536:	0501                	addi	a0,a0,0
 538:	0311                	addi	t1,t1,4
 53a:	0900                	addi	s0,sp,144
 53c:	0004                	0x4
 53e:	0501                	addi	a0,a0,0
 540:	0900030b          	0x900030b
 544:	0004                	0x4
 546:	0501                	addi	a0,a0,0
 548:	0608                	addi	a0,sp,768
 54a:	04090103          	lb	sp,64(s2)
 54e:	0100                	addi	s0,sp,128
 550:	0b05                	addi	s6,s6,1
 552:	0306                	slli	t1,t1,0x1
 554:	0901                	addi	s2,s2,0
 556:	0000                	unimp
 558:	0501                	addi	a0,a0,0
 55a:	0308                	addi	a0,sp,384
 55c:	0904                	addi	s1,sp,144
 55e:	0004                	0x4
 560:	0501                	addi	a0,a0,0
 562:	0311                	addi	t1,t1,4
 564:	097d                	addi	s2,s2,31
 566:	0008                	0x8
 568:	0501                	addi	a0,a0,0
 56a:	031e                	slli	t1,t1,0x7
 56c:	0900                	addi	s0,sp,144
 56e:	0004                	0x4
 570:	0501                	addi	a0,a0,0
 572:	097e030b          	0x97e030b
 576:	0004                	0x4
 578:	0501                	addi	a0,a0,0
 57a:	0608                	addi	a0,sp,768
 57c:	04090103          	lb	sp,64(s2)
 580:	0100                	addi	s0,sp,128
 582:	00090103          	lb	sp,0(s2)
 586:	0100                	addi	s0,sp,128
 588:	0b05                	addi	s6,s6,1
 58a:	0306                	slli	t1,t1,0x1
 58c:	0900                	addi	s0,sp,144
 58e:	0000                	unimp
 590:	0501                	addi	a0,a0,0
 592:	0608                	addi	a0,sp,768
 594:	04090103          	lb	sp,64(s2)
 598:	0100                	addi	s0,sp,128
 59a:	00090203          	lb	tp,0(s2)
 59e:	0100                	addi	s0,sp,128
 5a0:	00090003          	lb	zero,0(s2)
 5a4:	0100                	addi	s0,sp,128
 5a6:	00090003          	lb	zero,0(s2)
 5aa:	0100                	addi	s0,sp,128
 5ac:	00090003          	lb	zero,0(s2)
 5b0:	0100                	addi	s0,sp,128
 5b2:	00090003          	lb	zero,0(s2)
 5b6:	0100                	addi	s0,sp,128
 5b8:	08090003          	lb	zero,128(s2)
 5bc:	0100                	addi	s0,sp,128
 5be:	00090003          	lb	zero,0(s2)
 5c2:	0100                	addi	s0,sp,128
 5c4:	08090003          	lb	zero,128(s2)
 5c8:	0100                	addi	s0,sp,128
 5ca:	0c090003          	lb	zero,192(s2)
 5ce:	0100                	addi	s0,sp,128
 5d0:	00090003          	lb	zero,0(s2)
 5d4:	0100                	addi	s0,sp,128
 5d6:	08090003          	lb	zero,128(s2)
 5da:	0100                	addi	s0,sp,128
 5dc:	08090003          	lb	zero,128(s2)
 5e0:	0100                	addi	s0,sp,128
 5e2:	04090003          	lb	zero,64(s2)
 5e6:	0100                	addi	s0,sp,128
 5e8:	04090003          	lb	zero,64(s2)
 5ec:	0100                	addi	s0,sp,128
 5ee:	08090003          	lb	zero,128(s2)
 5f2:	0100                	addi	s0,sp,128
 5f4:	04090003          	lb	zero,64(s2)
 5f8:	0100                	addi	s0,sp,128
 5fa:	04090003          	lb	zero,64(s2)
 5fe:	0100                	addi	s0,sp,128
 600:	04090003          	lb	zero,64(s2)
 604:	0100                	addi	s0,sp,128
 606:	08090003          	lb	zero,128(s2)
 60a:	0100                	addi	s0,sp,128
 60c:	0c090003          	lb	zero,192(s2)
 610:	0100                	addi	s0,sp,128
 612:	08090003          	lb	zero,128(s2)
 616:	0100                	addi	s0,sp,128
 618:	08090003          	lb	zero,128(s2)
 61c:	0100                	addi	s0,sp,128
 61e:	04090003          	lb	zero,64(s2)
 622:	0100                	addi	s0,sp,128
 624:	04090003          	lb	zero,64(s2)
 628:	0100                	addi	s0,sp,128
 62a:	08090003          	lb	zero,128(s2)
 62e:	0100                	addi	s0,sp,128
 630:	0306                	slli	t1,t1,0x1
 632:	0901                	addi	s2,s2,0
 634:	0004                	0x4
 636:	0301                	addi	t1,t1,0
 638:	097f                	0x97f
 63a:	0004                	0x4
 63c:	0301                	addi	t1,t1,0
 63e:	0901                	addi	s2,s2,0
 640:	0004                	0x4
 642:	0301                	addi	t1,t1,0
 644:	097f                	0x97f
 646:	0014                	0x14
 648:	0601                	addi	a2,a2,0
 64a:	04090003          	lb	zero,64(s2)
 64e:	0100                	addi	s0,sp,128
 650:	00090003          	lb	zero,0(s2)
 654:	0100                	addi	s0,sp,128
 656:	00090003          	lb	zero,0(s2)
 65a:	0100                	addi	s0,sp,128
 65c:	00090103          	lb	sp,0(s2)
 660:	0100                	addi	s0,sp,128
 662:	00090003          	lb	zero,0(s2)
 666:	0100                	addi	s0,sp,128
 668:	00090003          	lb	zero,0(s2)
 66c:	0100                	addi	s0,sp,128
 66e:	00090003          	lb	zero,0(s2)
 672:	0100                	addi	s0,sp,128
 674:	00090003          	lb	zero,0(s2)
 678:	0100                	addi	s0,sp,128
 67a:	00090003          	lb	zero,0(s2)
 67e:	0100                	addi	s0,sp,128
 680:	00090003          	lb	zero,0(s2)
 684:	0100                	addi	s0,sp,128
 686:	00090003          	lb	zero,0(s2)
 68a:	0100                	addi	s0,sp,128
 68c:	04090003          	lb	zero,64(s2)
 690:	0100                	addi	s0,sp,128
 692:	00090003          	lb	zero,0(s2)
 696:	0100                	addi	s0,sp,128
 698:	04090003          	lb	zero,64(s2)
 69c:	0100                	addi	s0,sp,128
 69e:	14090003          	lb	zero,320(s2)
 6a2:	0100                	addi	s0,sp,128
 6a4:	00090003          	lb	zero,0(s2)
 6a8:	0100                	addi	s0,sp,128
 6aa:	00090003          	lb	zero,0(s2)
 6ae:	0100                	addi	s0,sp,128
 6b0:	04090003          	lb	zero,64(s2)
 6b4:	0100                	addi	s0,sp,128
 6b6:	04090003          	lb	zero,64(s2)
 6ba:	0100                	addi	s0,sp,128
 6bc:	08090003          	lb	zero,128(s2)
 6c0:	0100                	addi	s0,sp,128
 6c2:	00090003          	lb	zero,0(s2)
 6c6:	0100                	addi	s0,sp,128
 6c8:	00090203          	lb	tp,0(s2)
 6cc:	0100                	addi	s0,sp,128
 6ce:	0b05                	addi	s6,s6,1
 6d0:	0306                	slli	t1,t1,0x1
 6d2:	0900                	addi	s0,sp,144
 6d4:	0000                	unimp
 6d6:	0501                	addi	a0,a0,0
 6d8:	0314                	addi	a3,sp,384
 6da:	0900                	addi	s0,sp,144
 6dc:	0004                	0x4
 6de:	0501                	addi	a0,a0,0
 6e0:	0308                	addi	a0,sp,384
 6e2:	097e                	slli	s2,s2,0x1f
 6e4:	0004                	0x4
 6e6:	0501                	addi	a0,a0,0
 6e8:	097d030b          	0x97d030b
 6ec:	0014                	0x14
 6ee:	0501                	addi	a0,a0,0
 6f0:	0308                	addi	a0,sp,384
 6f2:	00040903          	lb	s2,0(s0)
 6f6:	0501                	addi	a0,a0,0
 6f8:	0908030b          	0x908030b
 6fc:	0004                	0x4
 6fe:	0501                	addi	a0,a0,0
 700:	0321                	addi	t1,t1,8
 702:	097a                	slli	s2,s2,0x1e
 704:	0004                	0x4
 706:	0501                	addi	a0,a0,0
 708:	0605                	addi	a2,a2,1
 70a:	04090203          	lb	tp,64(s2)
 70e:	0100                	addi	s0,sp,128
 710:	0705                	addi	a4,a4,1
 712:	0306                	slli	t1,t1,0x1
 714:	0900                	addi	s0,sp,144
 716:	0000                	unimp
 718:	0501                	addi	a0,a0,0
 71a:	0605                	addi	a2,a2,1
 71c:	04090103          	lb	sp,64(s2)
 720:	0100                	addi	s0,sp,128
 722:	00090003          	lb	zero,0(s2)
 726:	0100                	addi	s0,sp,128
 728:	00090003          	lb	zero,0(s2)
 72c:	0100                	addi	s0,sp,128
 72e:	00090003          	lb	zero,0(s2)
 732:	0100                	addi	s0,sp,128
 734:	00090003          	lb	zero,0(s2)
 738:	0100                	addi	s0,sp,128
 73a:	0705                	addi	a4,a4,1
 73c:	0306                	slli	t1,t1,0x1
 73e:	00040943          	fmadd.s	fs2,fs0,ft0,ft0,rne
 742:	0301                	addi	t1,t1,0
 744:	097f                	0x97f
 746:	0004                	0x4
 748:	0901                	addi	s2,s2,0
 74a:	0008                	0x8
 74c:	0100                	addi	s0,sp,128
 74e:	5501                	li	a0,-32
 750:	0000                	unimp
 752:	0300                	addi	s0,sp,384
 754:	4f00                	lw	s0,24(a4)
 756:	0000                	unimp
 758:	0100                	addi	s0,sp,128
 75a:	fb01                	bnez	a4,66a <main-0xfa0a>
 75c:	0d0e                	slli	s10,s10,0x3
 75e:	0100                	addi	s0,sp,128
 760:	0101                	addi	sp,sp,0
 762:	0001                	nop
 764:	0000                	unimp
 766:	0001                	nop
 768:	0100                	addi	s0,sp,128
 76a:	2e2e                	fld	ft8,200(sp)
 76c:	2f2e2e2f          	0x2f2e2e2f
 770:	2e2e                	fld	ft8,200(sp)
 772:	2f2e2e2f          	0x2f2e2e2f
 776:	2e2e                	fld	ft8,200(sp)
 778:	722f2e2f          	0x722f2e2f
 77c:	7369                	lui	t1,0xffffa
 77e:	672d7663          	bgeu	s10,s2,dea <main-0xf28a>
 782:	6c2f6363          	bltu	t5,sp,e48 <main-0xf22c>
 786:	6269                	lui	tp,0x1a
 788:	00636367          	0x636367
 78c:	6c00                	flw	fs0,24(s0)
 78e:	6269                	lui	tp,0x1a
 790:	32636367          	0x32636367
 794:	682e                	flw	fa6,200(sp)
 796:	0100                	addi	s0,sp,128
 798:	0000                	unimp
 79a:	696c                	flw	fa1,84(a0)
 79c:	6762                	flw	fa4,24(sp)
 79e:	2e326363          	bltu	tp,gp,a84 <main-0xf5f0>
 7a2:	00010063          	beqz	sp,7a2 <main-0xf8d2>
	...

Disassembly of section .debug_str:

00000000 <.debug_str>:
   0:	5744                	lw	s1,44(a4)
   2:	6e75                	lui	t3,0x1d
   4:	6f69                	lui	t5,0x1a
   6:	006e                	c.slli	zero,0x1b
   8:	5f5f 6475 7669      	0x766964755f5f
   e:	6964                	flw	fs1,84(a0)
  10:	6f630033          	0x6f630033
  14:	706d                	c.lui	zero,0xffffb
  16:	656c                	flw	fa1,76(a0)
  18:	2078                	fld	fa4,192(s0)
  1a:	6c66                	flw	fs8,88(sp)
  1c:	0074616f          	jal	sp,46822 <__BSS_END__+0x2fc7a>
  20:	2e2e                	fld	ft8,200(sp)
  22:	2f2e2e2f          	0x2f2e2e2f
  26:	2e2e                	fld	ft8,200(sp)
  28:	2f2e2e2f          	0x2f2e2e2f
  2c:	2e2e                	fld	ft8,200(sp)
  2e:	722f2e2f          	0x722f2e2f
  32:	7369                	lui	t1,0xffffa
  34:	672d7663          	bgeu	s10,s2,6a0 <main-0xf9d4>
  38:	6c2f6363          	bltu	t5,sp,6fe <main-0xf976>
  3c:	6269                	lui	tp,0x1a
  3e:	2f636367          	0x2f636367
  42:	696c                	flw	fa1,84(a0)
  44:	6762                	flw	fa4,24(sp)
  46:	2e326363          	bltu	tp,gp,32c <main-0xfd48>
  4a:	5f5f0063          	beq	t5,s5,62a <main-0xfa4a>
  4e:	3064                	fld	fs1,224(s0)
  50:	5f00                	lw	s0,56(a4)
  52:	645f 0031 6873      	0x68730031645f
  58:	2074726f          	jal	tp,47a5e <__BSS_END__+0x30eb6>
  5c:	6e69                	lui	t3,0x1a
  5e:	0074                	addi	a3,sp,12
  60:	5f5f 6876 5f00      	0x5f0068765f5f
  66:	765f 006c 6f6c      	0x6f6c006c765f
  6c:	676e                	flw	fa4,216(sp)
  6e:	6c20                	flw	fs0,88(s0)
  70:	20676e6f          	jal	t3,76276 <__BSS_END__+0x5f6ce>
  74:	6e69                	lui	t3,0x1a
  76:	0074                	addi	a3,sp,12
  78:	6f6c                	flw	fa1,92(a4)
  7a:	676e                	flw	fa4,216(sp)
  7c:	6c20                	flw	fs0,88(s0)
  7e:	20676e6f          	jal	t3,76284 <__BSS_END__+0x5f6dc>
  82:	6e75                	lui	t3,0x1d
  84:	6e676973          	csrrsi	s2,0x6e6,14
  88:	6465                	lui	s0,0x19
  8a:	6920                	flw	fs0,80(a0)
  8c:	746e                	flw	fs0,248(sp)
  8e:	4700                	lw	s0,8(a4)
  90:	554e                	lw	a0,240(sp)
  92:	4320                	lw	s0,64(a4)
  94:	3731                	jal	ffffffa0 <__BSS_END__+0xfffe93f8>
  96:	3120                	fld	fs0,96(a0)
  98:	2e30                	fld	fa2,88(a2)
  9a:	2e32                	fld	ft8,264(sp)
  9c:	2030                	fld	fa2,64(s0)
  9e:	6d2d                	lui	s10,0xb
  a0:	646f6d63          	bltu	t5,t1,6fa <main-0xf97a>
  a4:	6c65                	lui	s8,0x19
  a6:	6d3d                	lui	s10,0xf
  a8:	6465                	lui	s0,0x19
  aa:	6f6c                	flw	fa1,92(a4)
  ac:	6d2d2077          	0x6d2d2077
  b0:	7261                	lui	tp,0xffff8
  b2:	723d6863          	bltu	s10,gp,7e2 <main-0xf892>
  b6:	3376                	fld	ft6,376(sp)
  b8:	6932                	flw	fs2,12(sp)
  ba:	666d                	lui	a2,0x1b
  bc:	2d20                	fld	fs0,88(a0)
  be:	616d                	addi	sp,sp,240
  c0:	6962                	flw	fs2,24(sp)
  c2:	693d                	lui	s2,0xf
  c4:	706c                	flw	fa1,100(s0)
  c6:	20663233          	0x20663233
  ca:	6d2d                	lui	s10,0xb
  cc:	646f6d63          	bltu	t5,t1,726 <main-0xf94e>
  d0:	6c65                	lui	s8,0x19
  d2:	6d3d                	lui	s10,0xf
  d4:	6465                	lui	s0,0x19
  d6:	6f6c                	flw	fa1,92(a4)
  d8:	6d2d2077          	0x6d2d2077
  dc:	7574                	flw	fa3,108(a0)
  de:	656e                	flw	fa0,216(sp)
  e0:	723d                	lui	tp,0xfffef
  e2:	656b636f          	jal	t1,b6738 <__BSS_END__+0x9fb90>
  e6:	2074                	fld	fa3,192(s0)
  e8:	6d2d                	lui	s10,0xb
  ea:	7261                	lui	tp,0xffff8
  ec:	723d6863          	bltu	s10,gp,81c <main-0xf858>
  f0:	3376                	fld	ft6,376(sp)
  f2:	6932                	flw	fs2,12(sp)
  f4:	666d                	lui	a2,0x1b
  f6:	2d20                	fld	fs0,88(a0)
  f8:	4f2d2067          	0x4f2d2067
  fc:	4f2d2073          	csrs	0x4f2,s10
 100:	2032                	fld	ft0,264(sp)
 102:	4f2d                	li	t5,11
 104:	662d2073          	csrs	0x662,s10
 108:	7562                	flw	fa0,56(sp)
 10a:	6c69                	lui	s8,0x1a
 10c:	6964                	flw	fs1,84(a0)
 10e:	676e                	flw	fa4,216(sp)
 110:	6c2d                	lui	s8,0xb
 112:	6269                	lui	tp,0x1a
 114:	20636367          	0x20636367
 118:	662d                	lui	a2,0xb
 11a:	6f6e                	flw	ft10,216(sp)
 11c:	732d                	lui	t1,0xfffeb
 11e:	6174                	flw	fa3,68(a0)
 120:	702d6b63          	bltu	s10,sp,836 <main-0xf83e>
 124:	6f72                	flw	ft10,28(sp)
 126:	6574                	flw	fa3,76(a0)
 128:	726f7463          	bgeu	t5,t1,850 <main-0xf824>
 12c:	2d20                	fld	fs0,88(a0)
 12e:	6566                	flw	fa0,88(sp)
 130:	6378                	flw	fa4,68(a4)
 132:	7065                	c.lui	zero,0xffff9
 134:	6974                	flw	fa3,84(a0)
 136:	20736e6f          	jal	t3,36b3c <__BSS_END__+0x1ff94>
 13a:	662d                	lui	a2,0xb
 13c:	6f6e                	flw	ft10,216(sp)
 13e:	2d6e                	fld	fs10,216(sp)
 140:	6c6c6163          	bltu	s8,t1,802 <main-0xf872>
 144:	652d                	lui	a0,0xb
 146:	6378                	flw	fa4,68(a4)
 148:	7065                	c.lui	zero,0xffff9
 14a:	6974                	flw	fa3,84(a0)
 14c:	20736e6f          	jal	t3,36b52 <__BSS_END__+0x1ffaa>
 150:	662d                	lui	a2,0xb
 152:	6976                	flw	fs2,92(sp)
 154:	69626973          	csrrsi	s2,0x696,4
 158:	696c                	flw	fa1,84(a0)
 15a:	7974                	flw	fa3,116(a0)
 15c:	683d                	lui	a6,0xf
 15e:	6469                	lui	s0,0x1a
 160:	6564                	flw	fs1,76(a0)
 162:	006e                	c.slli	zero,0x1b
 164:	6968                	flw	fa0,84(a0)
 166:	5f006867          	0x5f006867
 16a:	635f 7a6c 745f      	0x745f7a6c635f
 170:	6261                	lui	tp,0x18
 172:	7500                	flw	fs0,40(a0)
 174:	736e                	flw	ft6,248(sp)
 176:	6769                	lui	a4,0x1a
 178:	656e                	flw	fa0,216(sp)
 17a:	2064                	fld	fs1,192(s0)
 17c:	72616863          	bltu	sp,t1,8ac <main-0xf7c8>
 180:	5f00                	lw	s0,56(a4)
 182:	785f 0030 5f5f      	0x5f5f0030785f
 188:	3178                	fld	fa4,224(a0)
 18a:	5f00                	lw	s0,56(a4)
 18c:	785f 0032 5f5f      	0x5f5f0032785f
 192:	3378                	fld	fa4,224(a4)
 194:	5500                	lw	s0,40(a0)
 196:	4951                	li	s2,20
 198:	7974                	flw	fa3,116(a0)
 19a:	6570                	flw	fa2,76(a0)
 19c:	4400                	lw	s0,8(s0)
 19e:	72747357          	0x72747357
 1a2:	6375                	lui	t1,0x1d
 1a4:	0074                	addi	a3,sp,12
 1a6:	726f6873          	csrrsi	a6,0x726,30
 1aa:	2074                	fld	fa3,192(s0)
 1ac:	6e75                	lui	t3,0x1d
 1ae:	6e676973          	csrrsi	s2,0x6e6,14
 1b2:	6465                	lui	s0,0x19
 1b4:	6920                	flw	fs0,80(a0)
 1b6:	746e                	flw	fs0,248(sp)
 1b8:	5500                	lw	s0,40(a0)
 1ba:	4944                	lw	s1,20(a0)
 1bc:	7974                	flw	fa3,116(a0)
 1be:	6570                	flw	fa2,76(a0)
 1c0:	5f00                	lw	s0,56(a4)
 1c2:	715f 0030 5f5f      	0x5f5f0030715f
 1c8:	3171                	jal	fffffe54 <__BSS_END__+0xfffe92ac>
 1ca:	6300                	flw	fs0,0(a4)
 1cc:	6c706d6f          	jal	s10,7092 <main-0x8fe2>
 1d0:	7865                	lui	a6,0xffff9
 1d2:	6420                	flw	fs0,72(s0)
 1d4:	6c62756f          	jal	a0,2789a <__BSS_END__+0x10cf2>
 1d8:	0065                	c.nop	25
 1da:	5f5f 7278 5f00      	0x5f0072785f5f
 1e0:	755f 6964 6d76      	0x6d766964755f
 1e6:	6964646f          	jal	s0,4687c <__BSS_END__+0x2fcd4>
 1ea:	0034                	addi	a3,sp,8
 1ec:	706d6f63          	bltu	s10,t1,90a <main-0xf76a>
 1f0:	656c                	flw	fa1,76(a0)
 1f2:	2078                	fld	fa4,192(s0)
 1f4:	6f6c                	flw	fa1,92(a4)
 1f6:	676e                	flw	fa4,216(sp)
 1f8:	6420                	flw	fs0,72(s0)
 1fa:	6c62756f          	jal	a0,278c0 <__BSS_END__+0x10d18>
 1fe:	0065                	c.nop	25
 200:	64656d2f          	0x64656d2f
 204:	6169                	addi	sp,sp,208
 206:	676e652f          	0x676e652f
 20a:	6e69                	lui	t3,0x1a
 20c:	6f74532f          	0x6f74532f
 210:	6172                	flw	ft2,28(sp)
 212:	2f416567          	0x2f416567
 216:	5046                	0x5046
 218:	722f4147          	fmsub.d	ft2,ft10,ft2,fa4,rmm
 21c:	7369                	lui	t1,0xffffa
 21e:	672d7663          	bgeu	s10,s2,88a <main-0xf7ea>
 222:	756e                	flw	fa0,248(sp)
 224:	742d                	lui	s0,0xfffeb
 226:	636c6f6f          	jal	t5,c685c <__BSS_END__+0xafcb4>
 22a:	6168                	flw	fa0,68(a0)
 22c:	6e69                	lui	t3,0x1a
 22e:	6975622f          	0x6975622f
 232:	646c                	flw	fa1,76(s0)
 234:	672d                	lui	a4,0xb
 236:	6e2d6363          	bltu	s10,sp,91c <main-0xf758>
 23a:	7765                	lui	a4,0xffff9
 23c:	696c                	flw	fa1,84(a0)
 23e:	2d62                	fld	fs10,24(sp)
 240:	67617473          	csrrci	s0,0x676,2
 244:	3265                	jal	fffffbec <__BSS_END__+0xfffe9044>
 246:	7369722f          	0x7369722f
 24a:	34367663          	bgeu	a2,gp,596 <main-0xfade>
 24e:	752d                	lui	a0,0xfffeb
 250:	6b6e                	flw	fs6,216(sp)
 252:	6f6e                	flw	ft10,216(sp)
 254:	652d6e77          	0x652d6e77
 258:	666c                	flw	fa1,76(a2)
 25a:	3376722f          	0x3376722f
 25e:	6932                	flw	fs2,12(sp)
 260:	666d                	lui	a2,0x1b
 262:	706c692f          	0x706c692f
 266:	2f663233          	0x2f663233
 26a:	696c                	flw	fa1,84(a0)
 26c:	6762                	flw	fa4,24(sp)
 26e:	55006363          	bltu	zero,a6,7b4 <main-0xf8c0>
 272:	79744953          	0x79744953
 276:	6570                	flw	fa2,76(a0)
 278:	5f00                	lw	s0,56(a4)
 27a:	725f 0030 5f5f      	0x5f5f0030725f
 280:	3172                	fld	ft2,312(sp)
 282:	5f00                	lw	s0,56(a4)
 284:	755f 0068 5f5f      	0x5f5f0068755f
 28a:	6c75                	lui	s8,0x1d
 28c:	4700                	lw	s0,8(a4)
 28e:	554e                	lw	a0,240(sp)
 290:	4320                	lw	s0,64(a4)
 292:	3731                	jal	19e <main-0xfed6>
 294:	3120                	fld	fs0,96(a0)
 296:	2e30                	fld	fa2,88(a2)
 298:	2e32                	fld	ft8,264(sp)
 29a:	2030                	fld	fa2,64(s0)
 29c:	6d2d                	lui	s10,0xb
 29e:	646f6d63          	bltu	t5,t1,8f8 <main-0xf77c>
 2a2:	6c65                	lui	s8,0x19
 2a4:	6d3d                	lui	s10,0xf
 2a6:	6465                	lui	s0,0x19
 2a8:	6f6c                	flw	fa1,92(a4)
 2aa:	6d2d2077          	0x6d2d2077
 2ae:	7261                	lui	tp,0xffff8
 2b0:	723d6863          	bltu	s10,gp,9e0 <main-0xf694>
 2b4:	3376                	fld	ft6,376(sp)
 2b6:	6932                	flw	fs2,12(sp)
 2b8:	666d                	lui	a2,0x1b
 2ba:	2d20                	fld	fs0,88(a0)
 2bc:	616d                	addi	sp,sp,240
 2be:	6962                	flw	fs2,24(sp)
 2c0:	693d                	lui	s2,0xf
 2c2:	706c                	flw	fa1,100(s0)
 2c4:	20663233          	0x20663233
 2c8:	6d2d                	lui	s10,0xb
 2ca:	646f6d63          	bltu	t5,t1,924 <main-0xf750>
 2ce:	6c65                	lui	s8,0x19
 2d0:	6d3d                	lui	s10,0xf
 2d2:	6465                	lui	s0,0x19
 2d4:	6f6c                	flw	fa1,92(a4)
 2d6:	6d2d2077          	0x6d2d2077
 2da:	7574                	flw	fa3,108(a0)
 2dc:	656e                	flw	fa0,216(sp)
 2de:	723d                	lui	tp,0xfffef
 2e0:	656b636f          	jal	t1,b6936 <__BSS_END__+0x9fd8e>
 2e4:	2074                	fld	fa3,192(s0)
 2e6:	6d2d                	lui	s10,0xb
 2e8:	7261                	lui	tp,0xffff8
 2ea:	723d6863          	bltu	s10,gp,a1a <main-0xf65a>
 2ee:	3376                	fld	ft6,376(sp)
 2f0:	6932                	flw	fs2,12(sp)
 2f2:	666d                	lui	a2,0x1b
 2f4:	2d20                	fld	fs0,88(a0)
 2f6:	4f2d2067          	0x4f2d2067
 2fa:	4f2d2073          	csrs	0x4f2,s10
 2fe:	2032                	fld	ft0,264(sp)
 300:	4f2d                	li	t5,11
 302:	662d2073          	csrs	0x662,s10
 306:	7562                	flw	fa0,56(sp)
 308:	6c69                	lui	s8,0x1a
 30a:	6964                	flw	fs1,84(a0)
 30c:	676e                	flw	fa4,216(sp)
 30e:	6c2d                	lui	s8,0xb
 310:	6269                	lui	tp,0x1a
 312:	20636367          	0x20636367
 316:	662d                	lui	a2,0xb
 318:	6f6e                	flw	ft10,216(sp)
 31a:	732d                	lui	t1,0xfffeb
 31c:	6174                	flw	fa3,68(a0)
 31e:	702d6b63          	bltu	s10,sp,a34 <main-0xf640>
 322:	6f72                	flw	ft10,28(sp)
 324:	6574                	flw	fa3,76(a0)
 326:	726f7463          	bgeu	t5,t1,a4e <main-0xf626>
 32a:	2d20                	fld	fs0,88(a0)
 32c:	7666                	flw	fa2,120(sp)
 32e:	7369                	lui	t1,0xffffa
 330:	6269                	lui	tp,0x1a
 332:	6c69                	lui	s8,0x1a
 334:	7469                	lui	s0,0xffffa
 336:	3d79                	jal	1d4 <main-0xfea0>
 338:	6968                	flw	fa0,84(a0)
 33a:	6464                	flw	fs1,76(s0)
 33c:	6e65                	lui	t3,0x19
	...

Disassembly of section .debug_loc:

00000000 <.debug_loc>:
   0:	0000                	unimp
   2:	0000                	unimp
   4:	0010                	0x10
   6:	0000                	unimp
   8:	0006                	c.slli	zero,0x1
   a:	935a                	add	t1,t1,s6
   c:	5b04                	lw	s1,48(a4)
   e:	00100493          	li	s1,1
  12:	0000                	unimp
  14:	0434                	addi	a3,sp,520
  16:	0000                	unimp
  18:	0006                	c.slli	zero,0x1
  1a:	0af503f3          	0xaf503f3
  1e:	9f25                	0x9f25
	...
  2c:	0074                	addi	a3,sp,12
  2e:	0000                	unimp
  30:	0006                	c.slli	zero,0x1
  32:	935c                	0x935c
  34:	5d04                	lw	s1,56(a0)
  36:	00740493          	addi	s1,s0,7 # ffffa007 <__BSS_END__+0xfffe345f>
  3a:	0000                	unimp
  3c:	00f8                	addi	a4,sp,76
  3e:	0000                	unimp
  40:	0006                	c.slli	zero,0x1
  42:	0cf503f3          	0xcf503f3
  46:	9f25                	0x9f25
  48:	00f8                	addi	a4,sp,76
  4a:	0000                	unimp
  4c:	013c                	addi	a5,sp,136
  4e:	0000                	unimp
  50:	0006                	c.slli	zero,0x1
  52:	935c                	0x935c
  54:	5d04                	lw	s1,56(a0)
  56:	013c0493          	addi	s1,s8,19 # 1a013 <__BSS_END__+0x346b>
  5a:	0000                	unimp
  5c:	01dc                	addi	a5,sp,196
  5e:	0000                	unimp
  60:	0006                	c.slli	zero,0x1
  62:	0cf503f3          	0xcf503f3
  66:	9f25                	0x9f25
  68:	01dc                	addi	a5,sp,196
  6a:	0000                	unimp
  6c:	01f0                	addi	a2,sp,204
  6e:	0000                	unimp
  70:	0006                	c.slli	zero,0x1
  72:	935c                	0x935c
  74:	5d04                	lw	s1,56(a0)
  76:	01f00493          	li	s1,31
  7a:	0000                	unimp
  7c:	029c                	addi	a5,sp,320
  7e:	0000                	unimp
  80:	0006                	c.slli	zero,0x1
  82:	0cf503f3          	0xcf503f3
  86:	9f25                	0x9f25
  88:	029c                	addi	a5,sp,320
  8a:	0000                	unimp
  8c:	0328                	addi	a0,sp,392
  8e:	0000                	unimp
  90:	0006                	c.slli	zero,0x1
  92:	935c                	0x935c
  94:	5d04                	lw	s1,56(a0)
  96:	03280493          	addi	s1,a6,50 # ffff9032 <__BSS_END__+0xfffe248a>
  9a:	0000                	unimp
  9c:	0428                	addi	a0,sp,520
  9e:	0000                	unimp
  a0:	0006                	c.slli	zero,0x1
  a2:	0cf503f3          	0xcf503f3
  a6:	9f25                	0x9f25
  a8:	0428                	addi	a0,sp,520
  aa:	0000                	unimp
  ac:	0434                	addi	a3,sp,520
  ae:	0000                	unimp
  b0:	0006                	c.slli	zero,0x1
  b2:	935c                	0x935c
  b4:	5d04                	lw	s1,56(a0)
  b6:	00000493          	li	s1,0
  ba:	0000                	unimp
  bc:	0000                	unimp
  be:	0000                	unimp
  c0:	0004                	0x4
  c2:	0000                	unimp
  c4:	01d8                	addi	a4,sp,196
  c6:	0000                	unimp
  c8:	0002                	c.slli64	zero
  ca:	9f30                	0x9f30
  cc:	01dc                	addi	a5,sp,196
  ce:	0000                	unimp
  d0:	0434                	addi	a3,sp,520
  d2:	0000                	unimp
  d4:	0002                	c.slli64	zero
  d6:	9f30                	0x9f30
	...
  e0:	0004                	0x4
  e2:	0000                	unimp
  e4:	001c                	0x1c
  e6:	0000                	unimp
  e8:	0006                	c.slli	zero,0x1
  ea:	935c                	0x935c
  ec:	5d04                	lw	s1,56(a0)
  ee:	001c0493          	addi	s1,s8,1
  f2:	0000                	unimp
  f4:	0038                	addi	a4,sp,8
  f6:	0000                	unimp
  f8:	0006                	c.slli	zero,0x1
  fa:	935c                	0x935c
  fc:	5a04                	lw	s1,48(a2)
  fe:	00f80493          	addi	s1,a6,15
 102:	0000                	unimp
 104:	00fc                	addi	a5,sp,76
 106:	0000                	unimp
 108:	0006                	c.slli	zero,0x1
 10a:	935c                	0x935c
 10c:	5a04                	lw	s1,48(a2)
 10e:	010c0493          	addi	s1,s8,16
 112:	0000                	unimp
 114:	012c                	addi	a1,sp,136
 116:	0000                	unimp
 118:	0006                	c.slli	zero,0x1
 11a:	935c                	0x935c
 11c:	5a04                	lw	s1,48(a2)
 11e:	01dc0493          	addi	s1,s8,29
 122:	0000                	unimp
 124:	01e4                	addi	s1,sp,204
 126:	0000                	unimp
 128:	0006                	c.slli	zero,0x1
 12a:	935c                	0x935c
 12c:	5a04                	lw	s1,48(a2)
 12e:	029c0493          	addi	s1,s8,41
 132:	0000                	unimp
 134:	02bc                	addi	a5,sp,328
 136:	0000                	unimp
 138:	0006                	c.slli	zero,0x1
 13a:	935c                	0x935c
 13c:	5a04                	lw	s1,48(a2)
 13e:	02bc0493          	addi	s1,s8,43
 142:	0000                	unimp
 144:	02ec                	addi	a1,sp,332
 146:	0000                	unimp
 148:	0006                	c.slli	zero,0x1
 14a:	935c                	0x935c
 14c:	5d04                	lw	s1,56(a0)
 14e:	02ec0493          	addi	s1,s8,46
 152:	0000                	unimp
 154:	0300                	addi	s0,sp,384
 156:	0000                	unimp
 158:	0006                	c.slli	zero,0x1
 15a:	935c                	0x935c
 15c:	5a04                	lw	s1,48(a2)
 15e:	03000493          	li	s1,48
 162:	0000                	unimp
 164:	0308                	addi	a0,sp,384
 166:	0000                	unimp
 168:	0006                	c.slli	zero,0x1
 16a:	935c                	0x935c
 16c:	5d04                	lw	s1,56(a0)
 16e:	04280493          	addi	s1,a6,66
 172:	0000                	unimp
 174:	0430                	addi	a2,sp,520
 176:	0000                	unimp
 178:	0006                	c.slli	zero,0x1
 17a:	935c                	0x935c
 17c:	5a04                	lw	s1,48(a2)
 17e:	04300493          	li	s1,67
 182:	0000                	unimp
 184:	0434                	addi	a3,sp,520
 186:	0000                	unimp
 188:	0006                	c.slli	zero,0x1
 18a:	935c                	0x935c
 18c:	5d04                	lw	s1,56(a0)
 18e:	00000493          	li	s1,0
 192:	0000                	unimp
 194:	0000                	unimp
 196:	0000                	unimp
 198:	0004                	0x4
 19a:	0000                	unimp
 19c:	0010                	0x10
 19e:	0000                	unimp
 1a0:	0006                	c.slli	zero,0x1
 1a2:	935a                	add	t1,t1,s6
 1a4:	5b04                	lw	s1,48(a4)
 1a6:	00100493          	li	s1,1
 1aa:	0000                	unimp
 1ac:	0058                	addi	a4,sp,4
 1ae:	0000                	unimp
 1b0:	0006                	c.slli	zero,0x1
 1b2:	9361                	srli	a4,a4,0x38
 1b4:	5b04                	lw	s1,48(a4)
 1b6:	00580493          	addi	s1,a6,5
 1ba:	0000                	unimp
 1bc:	006c                	addi	a1,sp,12
 1be:	0000                	unimp
 1c0:	0006                	c.slli	zero,0x1
 1c2:	9361                	srli	a4,a4,0x38
 1c4:	5f04                	lw	s1,56(a4)
 1c6:	00f80493          	addi	s1,a6,15
 1ca:	0000                	unimp
 1cc:	0150                	addi	a2,sp,132
 1ce:	0000                	unimp
 1d0:	0006                	c.slli	zero,0x1
 1d2:	9356                	add	t1,t1,s5
 1d4:	5b04                	lw	s1,48(a4)
 1d6:	01dc0493          	addi	s1,s8,29
 1da:	0000                	unimp
 1dc:	01fc                	addi	a5,sp,204
 1de:	0000                	unimp
 1e0:	0006                	c.slli	zero,0x1
 1e2:	9356                	add	t1,t1,s5
 1e4:	5b04                	lw	s1,48(a4)
 1e6:	01fc0493          	addi	s1,s8,31
 1ea:	0000                	unimp
 1ec:	0208                	addi	a0,sp,256
 1ee:	0000                	unimp
 1f0:	0006                	c.slli	zero,0x1
 1f2:	9361                	srli	a4,a4,0x38
 1f4:	5b04                	lw	s1,48(a4)
 1f6:	029c0493          	addi	s1,s8,41
 1fa:	0000                	unimp
 1fc:	02b0                	addi	a2,sp,328
 1fe:	0000                	unimp
 200:	0006                	c.slli	zero,0x1
 202:	9356                	add	t1,t1,s5
 204:	5b04                	lw	s1,48(a4)
 206:	02b00493          	li	s1,43
 20a:	0000                	unimp
 20c:	02ec                	addi	a1,sp,332
 20e:	0000                	unimp
 210:	0006                	c.slli	zero,0x1
 212:	9356                	add	t1,t1,s5
 214:	5f04                	lw	s1,56(a4)
 216:	02ec0493          	addi	s1,s8,46
 21a:	0000                	unimp
 21c:	02f4                	addi	a3,sp,332
 21e:	0000                	unimp
 220:	0006                	c.slli	zero,0x1
 222:	9356                	add	t1,t1,s5
 224:	5b04                	lw	s1,48(a4)
 226:	02f40493          	addi	s1,s0,47
 22a:	0000                	unimp
 22c:	031c                	addi	a5,sp,384
 22e:	0000                	unimp
 230:	0006                	c.slli	zero,0x1
 232:	9356                	add	t1,t1,s5
 234:	5f04                	lw	s1,56(a4)
 236:	04280493          	addi	s1,a6,66
 23a:	0000                	unimp
 23c:	042c                	addi	a1,sp,520
 23e:	0000                	unimp
 240:	0006                	c.slli	zero,0x1
 242:	9356                	add	t1,t1,s5
 244:	5b04                	lw	s1,48(a4)
 246:	042c0493          	addi	s1,s8,66
 24a:	0000                	unimp
 24c:	0434                	addi	a3,sp,520
 24e:	0000                	unimp
 250:	0006                	c.slli	zero,0x1
 252:	9356                	add	t1,t1,s5
 254:	5f04                	lw	s1,56(a4)
 256:	00000493          	li	s1,0
 25a:	0000                	unimp
 25c:	0000                	unimp
 25e:	0000                	unimp
 260:	000c                	0xc
 262:	0000                	unimp
 264:	0054                	addi	a3,sp,4
 266:	0000                	unimp
 268:	0001                	nop
 26a:	545c                	lw	a5,44(s0)
 26c:	0000                	unimp
 26e:	6000                	flw	fs0,0(s0)
 270:	0000                	unimp
 272:	0900                	addi	s0,sp,144
 274:	7c00                	flw	fs0,56(s0)
 276:	7d00                	flw	fs0,56(a0)
 278:	0800                	addi	s0,sp,16
 27a:	1aff                	0x1aff
 27c:	9f24                	0x9f24
 27e:	0060                	addi	s0,sp,12
 280:	0000                	unimp
 282:	00f0                	addi	a2,sp,76
 284:	0000                	unimp
 286:	0001                	nop
 288:	f860                	fsw	fs0,116(s0)
 28a:	0000                	unimp
 28c:	1400                	addi	s0,sp,544
 28e:	0001                	nop
 290:	0100                	addi	s0,sp,128
 292:	5c00                	lw	s0,56(s0)
 294:	0114                	addi	a3,sp,128
 296:	0000                	unimp
 298:	0118                	addi	a4,sp,128
 29a:	0000                	unimp
 29c:	f731000b          	0xf731000b
 2a0:	7c2c                	flw	fa1,120(s0)
 2a2:	f700                	fsw	fs0,40(a4)
 2a4:	1b2c                	addi	a1,sp,440
 2a6:	189f00f7          	0x189f00f7
 2aa:	0001                	nop
 2ac:	d800                	sw	s0,48(s0)
 2ae:	0001                	nop
 2b0:	0100                	addi	s0,sp,128
 2b2:	6000                	flw	fs0,0(s0)
 2b4:	01dc                	addi	a5,sp,196
 2b6:	0000                	unimp
 2b8:	01f0                	addi	a2,sp,204
 2ba:	0000                	unimp
 2bc:	0001                	nop
 2be:	f060                	fsw	fs0,100(s0)
 2c0:	0001                	nop
 2c2:	f400                	fsw	fs0,40(s0)
 2c4:	0001                	nop
 2c6:	0900                	addi	s0,sp,144
 2c8:	8000                	0x8000
 2ca:	7d00                	flw	fs0,56(a0)
 2cc:	0800                	addi	s0,sp,16
 2ce:	1aff                	0x1aff
 2d0:	9f24                	0x9f24
 2d2:	01f4                	addi	a3,sp,204
 2d4:	0000                	unimp
 2d6:	029c                	addi	a5,sp,320
 2d8:	0000                	unimp
 2da:	0001                	nop
 2dc:	9c60                	0x9c60
 2de:	0002                	c.slli64	zero
 2e0:	2400                	fld	fs0,8(s0)
 2e2:	01000003          	lb	zero,16(zero) # 10 <main-0x10064>
 2e6:	5c00                	lw	s0,56(s0)
 2e8:	0324                	addi	s1,sp,392
 2ea:	0000                	unimp
 2ec:	03c4                	addi	s1,sp,452
 2ee:	0000                	unimp
 2f0:	0001                	nop
 2f2:	2856                	fld	fa6,336(sp)
 2f4:	0004                	0x4
 2f6:	3400                	fld	fs0,40(s0)
 2f8:	0004                	0x4
 2fa:	0100                	addi	s0,sp,128
 2fc:	5c00                	lw	s0,56(s0)
	...
 306:	0010                	0x10
 308:	0000                	unimp
 30a:	001c                	0x1c
 30c:	0000                	unimp
 30e:	0001                	nop
 310:	1c5d                	addi	s8,s8,-9
 312:	0000                	unimp
 314:	3800                	fld	fs0,48(s0)
 316:	0000                	unimp
 318:	0100                	addi	s0,sp,128
 31a:	5a00                	lw	s0,48(a2)
 31c:	00f8                	addi	a4,sp,76
 31e:	0000                	unimp
 320:	00fc                	addi	a5,sp,76
 322:	0000                	unimp
 324:	0001                	nop
 326:	0c5a                	slli	s8,s8,0x16
 328:	0001                	nop
 32a:	2c00                	fld	fs0,24(s0)
 32c:	0001                	nop
 32e:	0100                	addi	s0,sp,128
 330:	5a00                	lw	s0,48(a2)
 332:	01dc                	addi	a5,sp,196
 334:	0000                	unimp
 336:	01e4                	addi	s1,sp,204
 338:	0000                	unimp
 33a:	0001                	nop
 33c:	9c5a                	add	s8,s8,s6
 33e:	0002                	c.slli64	zero
 340:	bc00                	fsd	fs0,56(s0)
 342:	0002                	c.slli64	zero
 344:	0100                	addi	s0,sp,128
 346:	5a00                	lw	s0,48(a2)
 348:	02bc                	addi	a5,sp,328
 34a:	0000                	unimp
 34c:	02ec                	addi	a1,sp,332
 34e:	0000                	unimp
 350:	0001                	nop
 352:	ec5d                	bnez	s0,410 <main-0xfc64>
 354:	0002                	c.slli64	zero
 356:	0000                	unimp
 358:	01000003          	lb	zero,16(zero) # 10 <main-0x10064>
 35c:	5a00                	lw	s0,48(a2)
 35e:	0300                	addi	s0,sp,384
 360:	0000                	unimp
 362:	0308                	addi	a0,sp,384
 364:	0000                	unimp
 366:	0001                	nop
 368:	0c5d                	addi	s8,s8,23
 36a:	b8000003          	lb	zero,-1152(zero) # fffffb80 <__BSS_END__+0xfffe8fd8>
 36e:	01000003          	lb	zero,16(zero) # 10 <main-0x10064>
 372:	6000                	flw	fs0,0(s0)
 374:	0428                	addi	a0,sp,520
 376:	0000                	unimp
 378:	0430                	addi	a2,sp,520
 37a:	0000                	unimp
 37c:	0001                	nop
 37e:	305a                	fld	ft0,432(sp)
 380:	0004                	0x4
 382:	3400                	fld	fs0,40(s0)
 384:	0004                	0x4
 386:	0100                	addi	s0,sp,128
 388:	5d00                	lw	s0,56(a0)
	...
 392:	0014                	0x14
 394:	0000                	unimp
 396:	0068                	addi	a0,sp,12
 398:	0000                	unimp
 39a:	0001                	nop
 39c:	6861                	lui	a6,0x18
 39e:	0000                	unimp
 3a0:	b800                	fsd	fs0,48(s0)
 3a2:	0000                	unimp
 3a4:	0100                	addi	s0,sp,128
 3a6:	5600                	lw	s0,40(a2)
 3a8:	00f8                	addi	a4,sp,76
 3aa:	0000                	unimp
 3ac:	01a0                	addi	s0,sp,200
 3ae:	0000                	unimp
 3b0:	0001                	nop
 3b2:	dc56                	sw	s5,56(sp)
 3b4:	0001                	nop
 3b6:	fc00                	fsw	fs0,56(s0)
 3b8:	0001                	nop
 3ba:	0100                	addi	s0,sp,128
 3bc:	5600                	lw	s0,40(a2)
 3be:	01fc                	addi	a5,sp,204
 3c0:	0000                	unimp
 3c2:	0208                	addi	a0,sp,256
 3c4:	0000                	unimp
 3c6:	0001                	nop
 3c8:	0c61                	addi	s8,s8,24
 3ca:	0002                	c.slli64	zero
 3cc:	2400                	fld	fs0,8(s0)
 3ce:	01000003          	lb	zero,16(zero) # 10 <main-0x10064>
 3d2:	5600                	lw	s0,40(a2)
 3d4:	0324                	addi	s1,sp,392
 3d6:	0000                	unimp
 3d8:	0328                	addi	a0,sp,392
 3da:	0000                	unimp
 3dc:	0001                	nop
 3de:	2861                	jal	476 <main-0xfbfe>
 3e0:	14000003          	lb	zero,320(zero) # 140 <main-0xff34>
 3e4:	0004                	0x4
 3e6:	0600                	addi	s0,sp,768
 3e8:	8100                	0x8100
 3ea:	7b00                	flw	fs0,48(a4)
 3ec:	2400                	fld	fs0,8(s0)
 3ee:	289f 0004 3400      	0x34000004289f
 3f4:	0004                	0x4
 3f6:	0100                	addi	s0,sp,128
 3f8:	5600                	lw	s0,40(a2)
	...
 402:	0014                	0x14
 404:	0000                	unimp
 406:	0058                	addi	a4,sp,4
 408:	0000                	unimp
 40a:	0001                	nop
 40c:	0000585b          	0x585b
 410:	6400                	flw	fs0,8(s0)
 412:	0000                	unimp
 414:	0100                	addi	s0,sp,128
 416:	5f00                	lw	s0,56(a4)
 418:	0064                	addi	s1,sp,12
 41a:	0000                	unimp
 41c:	0088                	addi	a0,sp,64
 41e:	0000                	unimp
 420:	0001                	nop
 422:	0000f85b          	0xf85b
 426:	4c00                	lw	s0,24(s0)
 428:	0001                	nop
 42a:	0100                	addi	s0,sp,128
 42c:	5b00                	lw	s0,48(a4)
 42e:	014c                	addi	a1,sp,132
 430:	0000                	unimp
 432:	0168                	addi	a0,sp,140
 434:	0000                	unimp
 436:	0001                	nop
 438:	dc5f 0001 0c00      	0xc000001dc5f
 43e:	0002                	c.slli64	zero
 440:	0100                	addi	s0,sp,128
 442:	5b00                	lw	s0,48(a4)
 444:	020c                	addi	a1,sp,256
 446:	0000                	unimp
 448:	0258                	addi	a4,sp,260
 44a:	0000                	unimp
 44c:	0001                	nop
 44e:	985c                	0x985c
 450:	0002                	c.slli64	zero
 452:	9c00                	0x9c00
 454:	0002                	c.slli64	zero
 456:	0100                	addi	s0,sp,128
 458:	5f00                	lw	s0,56(a4)
 45a:	029c                	addi	a5,sp,320
 45c:	0000                	unimp
 45e:	02b0                	addi	a2,sp,328
 460:	0000                	unimp
 462:	0001                	nop
 464:	0002b05b          	0x2b05b
 468:	ec00                	fsw	fs0,24(s0)
 46a:	0002                	c.slli64	zero
 46c:	0100                	addi	s0,sp,128
 46e:	5f00                	lw	s0,56(a4)
 470:	02ec                	addi	a1,sp,332
 472:	0000                	unimp
 474:	02f4                	addi	a3,sp,332
 476:	0000                	unimp
 478:	0001                	nop
 47a:	0002f45b          	0x2f45b
 47e:	1c00                	addi	s0,sp,560
 480:	01000003          	lb	zero,16(zero) # 10 <main-0x10064>
 484:	5f00                	lw	s0,56(a4)
 486:	0328                	addi	a0,sp,392
 488:	0000                	unimp
 48a:	0388                	addi	a0,sp,448
 48c:	0000                	unimp
 48e:	0001                	nop
 490:	c85c                	sw	a5,20(s0)
 492:	00000003          	lb	zero,0(zero) # 0 <main-0x10074>
 496:	0004                	0x4
 498:	0100                	addi	s0,sp,128
 49a:	5f00                	lw	s0,56(a4)
 49c:	0428                	addi	a0,sp,520
 49e:	0000                	unimp
 4a0:	042c                	addi	a1,sp,520
 4a2:	0000                	unimp
 4a4:	0001                	nop
 4a6:	00042c5b          	0x42c5b
 4aa:	3400                	fld	fs0,40(s0)
 4ac:	0004                	0x4
 4ae:	0100                	addi	s0,sp,128
 4b0:	5f00                	lw	s0,56(a4)
	...
 4ba:	01f8                	addi	a4,sp,204
 4bc:	0000                	unimp
 4be:	0220                	addi	s0,sp,264
 4c0:	0000                	unimp
 4c2:	0001                	nop
 4c4:	245a                	fld	fs0,400(sp)
 4c6:	38000003          	lb	zero,896(zero) # 380 <main-0xfcf4>
 4ca:	01000003          	lb	zero,16(zero) # 10 <main-0x10064>
 4ce:	6c00                	flw	fs0,24(s0)
	...
 4d8:	00f0                	addi	a2,sp,76
 4da:	0000                	unimp
 4dc:	00f8                	addi	a4,sp,76
 4de:	0000                	unimp
 4e0:	0001                	nop
 4e2:	c85a                	sw	s6,16(sp)
 4e4:	28000003          	lb	zero,640(zero) # 280 <main-0xfdf4>
 4e8:	0004                	0x4
 4ea:	0100                	addi	s0,sp,128
 4ec:	5a00                	lw	s0,48(a2)
	...
 4f6:	014c                	addi	a1,sp,132
 4f8:	0000                	unimp
 4fa:	0150                	addi	a2,sp,132
 4fc:	0000                	unimp
 4fe:	0002                	c.slli64	zero
 500:	9f31                	0x9f31
 502:	0150                	addi	a2,sp,132
 504:	0000                	unimp
 506:	01d8                	addi	a4,sp,196
 508:	0000                	unimp
 50a:	0001                	nop
 50c:	0002985b          	0x2985b
 510:	9c00                	0x9c00
 512:	0002                	c.slli64	zero
 514:	0100                	addi	s0,sp,128
 516:	5b00                	lw	s0,48(a4)
	...
 520:	01f0                	addi	a2,sp,204
 522:	0000                	unimp
 524:	0204                	addi	s1,sp,256
 526:	0000                	unimp
 528:	0001                	nop
 52a:	005e                	c.slli	zero,0x17
 52c:	20000003          	lb	zero,512(zero) # 200 <main-0xfe74>
 530:	01000003          	lb	zero,16(zero) # 10 <main-0x10064>
 534:	5e00                	lw	s0,56(a2)
	...
 53e:	0050                	addi	a2,sp,4
 540:	0000                	unimp
 542:	0070                	addi	a2,sp,12
 544:	0000                	unimp
 546:	0001                	nop
 548:	445d                	li	s0,23
 54a:	0001                	nop
 54c:	5000                	lw	s0,32(s0)
 54e:	0001                	nop
 550:	0100                	addi	s0,sp,128
 552:	5d00                	lw	s0,56(a0)
 554:	01f0                	addi	a2,sp,204
 556:	0000                	unimp
 558:	022c                	addi	a1,sp,264
 55a:	0000                	unimp
 55c:	0001                	nop
 55e:	d45d                	beqz	s0,50c <main-0xfb68>
 560:	0002                	c.slli64	zero
 562:	ec00                	fsw	fs0,24(s0)
 564:	0002                	c.slli64	zero
 566:	0100                	addi	s0,sp,128
 568:	5b00                	lw	s0,48(a4)
 56a:	0300                	addi	s0,sp,384
 56c:	0000                	unimp
 56e:	041c                	addi	a5,sp,512
 570:	0000                	unimp
 572:	0001                	nop
 574:	0000005b          	0x5b
 578:	0000                	unimp
 57a:	0000                	unimp
 57c:	2400                	fld	fs0,8(s0)
 57e:	0000                	unimp
 580:	5400                	lw	s0,40(s0)
 582:	0000                	unimp
 584:	0100                	addi	s0,sp,128
 586:	5c00                	lw	s0,56(s0)
 588:	0054                	addi	a3,sp,4
 58a:	0000                	unimp
 58c:	0060                	addi	s0,sp,12
 58e:	0000                	unimp
 590:	0009                	c.nop	2
 592:	007c                	addi	a5,sp,12
 594:	007d                	c.nop	31
 596:	ff08                	fsw	fa0,56(a4)
 598:	241a                	fld	fs0,384(sp)
 59a:	609f 0000 f000      	0xf0000000609f
 5a0:	0000                	unimp
 5a2:	0100                	addi	s0,sp,128
 5a4:	6000                	flw	fs0,0(s0)
 5a6:	00f8                	addi	a4,sp,76
 5a8:	0000                	unimp
 5aa:	010c                	addi	a1,sp,128
 5ac:	0000                	unimp
 5ae:	0001                	nop
 5b0:	005c                	addi	a5,sp,4
 5b2:	0000                	unimp
 5b4:	0000                	unimp
 5b6:	0000                	unimp
 5b8:	3800                	fld	fs0,48(s0)
 5ba:	0000                	unimp
 5bc:	4c00                	lw	s0,24(s0)
 5be:	0000                	unimp
 5c0:	0100                	addi	s0,sp,128
 5c2:	5e00                	lw	s0,56(a2)
	...
 5cc:	006c                	addi	a1,sp,12
 5ce:	0000                	unimp
 5d0:	00f0                	addi	a2,sp,76
 5d2:	0000                	unimp
 5d4:	0001                	nop
 5d6:	0061                	c.nop	24
 5d8:	0000                	unimp
 5da:	0000                	unimp
 5dc:	0000                	unimp
 5de:	7800                	flw	fs0,48(s0)
 5e0:	0000                	unimp
 5e2:	d000                	sw	s0,32(s0)
 5e4:	0000                	unimp
 5e6:	0100                	addi	s0,sp,128
 5e8:	5c00                	lw	s0,56(s0)
 5ea:	00d0                	addi	a2,sp,68
 5ec:	0000                	unimp
 5ee:	00f0                	addi	a2,sp,76
 5f0:	0000                	unimp
 5f2:	00800007          	0x800007
 5f6:	2440                	fld	fs0,136(s0)
 5f8:	2540                	fld	fs0,136(a0)
 5fa:	009f 0000 0000      	0x9f
 600:	0000                	unimp
 602:	8000                	0x8000
 604:	0000                	unimp
 606:	9c00                	0x9c00
 608:	0000                	unimp
 60a:	0100                	addi	s0,sp,128
 60c:	5d00                	lw	s0,56(a0)
 60e:	009c                	addi	a5,sp,64
 610:	0000                	unimp
 612:	00ec                	addi	a1,sp,76
 614:	0000                	unimp
 616:	0001                	nop
 618:	005a                	c.slli	zero,0x16
 61a:	0000                	unimp
 61c:	0000                	unimp
 61e:	0000                	unimp
 620:	c000                	sw	s0,0(s0)
 622:	0000                	unimp
 624:	dc00                	sw	s0,56(s0)
 626:	0000                	unimp
 628:	0100                	addi	s0,sp,128
 62a:	5f00                	lw	s0,56(a4)
 62c:	00dc                	addi	a5,sp,68
 62e:	0000                	unimp
 630:	00f0                	addi	a2,sp,76
 632:	0000                	unimp
 634:	0001                	nop
 636:	005c                	addi	a5,sp,4
 638:	0000                	unimp
 63a:	0000                	unimp
 63c:	0000                	unimp
 63e:	8000                	0x8000
 640:	0000                	unimp
 642:	8c00                	0x8c00
 644:	0000                	unimp
 646:	0100                	addi	s0,sp,128
 648:	5e00                	lw	s0,56(a2)
 64a:	0090                	addi	a2,sp,64
 64c:	0000                	unimp
 64e:	0098                	addi	a4,sp,64
 650:	0000                	unimp
 652:	0001                	nop
 654:	985f 0000 9c00      	0x9c000000985f
 65a:	0000                	unimp
 65c:	0800                	addi	s0,sp,16
 65e:	7600                	flw	fs0,40(a2)
 660:	4000                	lw	s0,0(s0)
 662:	7e25                	lui	t3,0xfffe9
 664:	2100                	fld	fs0,0(a0)
 666:	9c9f 0000 c000      	0xc00000009c9f
 66c:	0000                	unimp
 66e:	0100                	addi	s0,sp,128
 670:	5f00                	lw	s0,56(a4)
	...
 67a:	00b4                	addi	a3,sp,72
 67c:	0000                	unimp
 67e:	00c4                	addi	s1,sp,68
 680:	0000                	unimp
 682:	0001                	nop
 684:	cc5e                	sw	s7,24(sp)
 686:	0000                	unimp
 688:	d800                	sw	s0,48(s0)
 68a:	0000                	unimp
 68c:	0100                	addi	s0,sp,128
 68e:	5600                	lw	s0,40(a2)
	...
 698:	0088                	addi	a0,sp,64
 69a:	0000                	unimp
 69c:	00cc                	addi	a1,sp,68
 69e:	0000                	unimp
 6a0:	0001                	nop
 6a2:	0000cc5b          	0xcc5b
 6a6:	f000                	fsw	fs0,32(s0)
 6a8:	0000                	unimp
 6aa:	0100                	addi	s0,sp,128
 6ac:	5d00                	lw	s0,56(a0)
	...
 6b6:	03f4                	addi	a3,sp,460
 6b8:	0000                	unimp
 6ba:	0424                	addi	s1,sp,520
 6bc:	0000                	unimp
 6be:	0001                	nop
 6c0:	005c                	addi	a5,sp,4
 6c2:	0000                	unimp
 6c4:	0000                	unimp
 6c6:	0000                	unimp
 6c8:	f400                	fsw	fs0,40(s0)
 6ca:	08000003          	lb	zero,128(zero) # 80 <main-0xfff4>
 6ce:	0004                	0x4
 6d0:	1000                	addi	s0,sp,32
 6d2:	8c00                	0x8c00
 6d4:	0a00                	addi	s0,sp,272
 6d6:	ffff                	0xffff
 6d8:	7e1a                	flw	ft8,164(sp)
 6da:	0a00                	addi	s0,sp,272
 6dc:	ffff                	0xffff
 6de:	401a                	0x401a
 6e0:	2224                	fld	fs1,64(a2)
 6e2:	089f 0004 1000      	0x10000004089f
 6e8:	0004                	0x4
 6ea:	1500                	addi	s0,sp,672
 6ec:	8c00                	0x8c00
 6ee:	0a00                	addi	s0,sp,272
 6f0:	ffff                	0xffff
 6f2:	8c1a                	mv	s8,t1
 6f4:	4000                	lw	s0,0(s0)
 6f6:	8025                	srli	s0,s0,0x9
 6f8:	2200                	fld	fs0,0(a2)
 6fa:	ff0a                	fsw	ft2,188(sp)
 6fc:	1aff                	0x1aff
 6fe:	2440                	fld	fs0,136(s0)
 700:	9f22                	add	t5,t5,s0
	...
 70a:	0328                	addi	a0,sp,392
 70c:	0000                	unimp
 70e:	03ac                	addi	a1,sp,456
 710:	0000                	unimp
 712:	0001                	nop
 714:	ac6d                	j	9ce <main-0xf6a6>
 716:	b8000003          	lb	zero,-1152(zero) # fffffb80 <__BSS_END__+0xfffe8fd8>
 71a:	05000003          	lb	zero,80(zero) # 50 <main-0x10024>
 71e:	8000                	0x8000
 720:	4000                	lw	s0,0(s0)
 722:	9f25                	0x9f25
	...
 72c:	0330                	addi	a2,sp,392
 72e:	0000                	unimp
 730:	037c                	addi	a5,sp,396
 732:	0000                	unimp
 734:	0001                	nop
 736:	7c5f 0003 b800      	0xb80000037c5f
 73c:	07000003          	lb	zero,112(zero) # 70 <main-0x10004>
 740:	8000                	0x8000
 742:	4000                	lw	s0,0(s0)
 744:	4024                	lw	s1,64(s0)
 746:	9f25                	0x9f25
	...
 750:	0338                	addi	a4,sp,392
 752:	0000                	unimp
 754:	0354                	addi	a3,sp,388
 756:	0000                	unimp
 758:	0001                	nop
 75a:	546c                	lw	a1,108(s0)
 75c:	a8000003          	lb	zero,-1408(zero) # fffffa80 <__BSS_END__+0xfffe8ed8>
 760:	01000003          	lb	zero,16(zero) # 10 <main-0x10064>
 764:	5a00                	lw	s0,48(a2)
	...
 76e:	0370                	addi	a2,sp,396
 770:	0000                	unimp
 772:	0394                	addi	a3,sp,448
 774:	0000                	unimp
 776:	0001                	nop
 778:	945e                	add	s0,s0,s7
 77a:	bc000003          	lb	zero,-1088(zero) # fffffbc0 <__BSS_END__+0xfffe9018>
 77e:	01000003          	lb	zero,16(zero) # 10 <main-0x10064>
 782:	5c00                	lw	s0,56(s0)
	...
 78c:	0330                	addi	a2,sp,392
 78e:	0000                	unimp
 790:	033c                	addi	a5,sp,392
 792:	0000                	unimp
 794:	0001                	nop
 796:	445d                	li	s0,23
 798:	50000003          	lb	zero,1280(zero) # 500 <main-0xfb74>
 79c:	01000003          	lb	zero,16(zero) # 10 <main-0x10064>
 7a0:	5e00                	lw	s0,56(a2)
 7a2:	0350                	addi	a2,sp,388
 7a4:	0000                	unimp
 7a6:	0354                	addi	a3,sp,388
 7a8:	0000                	unimp
 7aa:	0008                	0x8
 7ac:	007c                	addi	a5,sp,12
 7ae:	2540                	fld	fs0,136(a0)
 7b0:	007d                	c.nop	31
 7b2:	9f21                	0x9f21
 7b4:	0354                	addi	a3,sp,388
 7b6:	0000                	unimp
 7b8:	0370                	addi	a2,sp,396
 7ba:	0000                	unimp
 7bc:	0001                	nop
 7be:	005e                	c.slli	zero,0x17
 7c0:	0000                	unimp
 7c2:	0000                	unimp
 7c4:	0000                	unimp
 7c6:	6c00                	flw	fs0,24(s0)
 7c8:	74000003          	lb	zero,1856(zero) # 740 <main-0xf934>
 7cc:	01000003          	lb	zero,16(zero) # 10 <main-0x10064>
 7d0:	5d00                	lw	s0,56(a0)
 7d2:	0384                	addi	s1,sp,448
 7d4:	0000                	unimp
 7d6:	0390                	addi	a2,sp,448
 7d8:	0000                	unimp
 7da:	0001                	nop
 7dc:	945f 0003 0000      	0x3945f
 7e2:	0004                	0x4
 7e4:	0100                	addi	s0,sp,128
 7e6:	5f00                	lw	s0,56(a4)
	...
 7f0:	0344                	addi	s1,sp,388
 7f2:	0000                	unimp
 7f4:	0378                	addi	a4,sp,396
 7f6:	0000                	unimp
 7f8:	0001                	nop
 7fa:	786e                	flw	fa6,248(sp)
 7fc:	cc000003          	lb	zero,-832(zero) # fffffcc0 <__BSS_END__+0xfffe9118>
 800:	01000003          	lb	zero,16(zero) # 10 <main-0x10064>
 804:	6c00                	flw	fs0,24(s0)
	...
 80e:	03cc                	addi	a1,sp,452
 810:	0000                	unimp
 812:	0410                	addi	a2,sp,512
 814:	0000                	unimp
 816:	0001                	nop
 818:	006c                	addi	a1,sp,12
 81a:	0000                	unimp
 81c:	0000                	unimp
 81e:	0000                	unimp
 820:	cc00                	sw	s0,24(s0)
 822:	d8000003          	lb	zero,-640(zero) # fffffd80 <__BSS_END__+0xfffe91d8>
 826:	06000003          	lb	zero,96(zero) # 60 <main-0x10014>
 82a:	8000                	0x8000
 82c:	7600                	flw	fs0,40(a2)
 82e:	1e00                	addi	s0,sp,816
 830:	d89f 0003 dc00      	0xdc000003d89f
 836:	01000003          	lb	zero,16(zero) # 10 <main-0x10064>
 83a:	6000                	flw	fs0,0(s0)
 83c:	03dc                	addi	a5,sp,452
 83e:	0000                	unimp
 840:	03e4                	addi	s1,sp,460
 842:	0000                	unimp
 844:	0009                	c.nop	2
 846:	7f8d                	lui	t6,0xfffe3
 848:	007a                	c.slli	zero,0x1e
 84a:	761a                	flw	fa2,164(sp)
 84c:	1e00                	addi	s0,sp,816
 84e:	e49f 0003 0800      	0x8000003e49f
 854:	0004                	0x4
 856:	0100                	addi	s0,sp,128
 858:	5e00                	lw	s0,56(a2)
 85a:	0408                	addi	a0,sp,512
 85c:	0000                	unimp
 85e:	0410                	addi	a2,sp,512
 860:	0000                	unimp
 862:	0008                	0x8
 864:	008c                	addi	a1,sp,64
 866:	2540                	fld	fs0,136(a0)
 868:	0080                	addi	s0,sp,64
 86a:	9f22                	add	t5,t5,s0
	...
 874:	03d0                	addi	a2,sp,452
 876:	0000                	unimp
 878:	03f0                	addi	a2,sp,460
 87a:	0000                	unimp
 87c:	0001                	nop
 87e:	005d                	c.nop	23
 880:	0000                	unimp
 882:	0000                	unimp
 884:	0000                	unimp
 886:	e400                	fsw	fs0,8(s0)
 888:	f4000003          	lb	zero,-192(zero) # ffffff40 <__BSS_END__+0xfffe9398>
 88c:	01000003          	lb	zero,16(zero) # 10 <main-0x10064>
 890:	5c00                	lw	s0,56(s0)
	...
 89a:	03c8                	addi	a0,sp,452
 89c:	0000                	unimp
 89e:	03d8                	addi	a4,sp,452
 8a0:	0000                	unimp
 8a2:	0001                	nop
 8a4:	d860                	sw	s0,116(s0)
 8a6:	04000003          	lb	zero,64(zero) # 40 <main-0x10034>
 8aa:	0004                	0x4
 8ac:	0600                	addi	s0,sp,768
 8ae:	8d00                	0x8d00
 8b0:	7a7f                	0x7a7f
 8b2:	1a00                	addi	s0,sp,304
 8b4:	049f 0004 2000      	0x20000004049f
 8ba:	0004                	0x4
 8bc:	0600                	addi	s0,sp,768
 8be:	7a00                	flw	fs0,48(a2)
 8c0:	7f00                	flw	fs0,56(a4)
 8c2:	1a00                	addi	s0,sp,304
 8c4:	209f 0004 2400      	0x24000004209f
 8ca:	0004                	0x4
 8cc:	0600                	addi	s0,sp,768
 8ce:	8d00                	0x8d00
 8d0:	7a7f                	0x7a7f
 8d2:	1a00                	addi	s0,sp,304
 8d4:	249f 0004 2800      	0x28000004249f
 8da:	0004                	0x4
 8dc:	0600                	addi	s0,sp,768
 8de:	7a00                	flw	fs0,48(a2)
 8e0:	8d01                	sub	a0,a0,s0
 8e2:	1a7f                	0x1a7f
 8e4:	009f 0000 0000      	0x9f
 8ea:	0000                	unimp
 8ec:	c800                	sw	s0,16(s0)
 8ee:	d0000003          	lb	zero,-768(zero) # fffffd00 <__BSS_END__+0xfffe9158>
 8f2:	01000003          	lb	zero,16(zero) # 10 <main-0x10064>
 8f6:	5d00                	lw	s0,56(a0)
	...
 900:	03c8                	addi	a0,sp,452
 902:	0000                	unimp
 904:	03e4                	addi	s1,sp,460
 906:	0000                	unimp
 908:	0001                	nop
 90a:	e45c                	fsw	fa5,12(s0)
 90c:	24000003          	lb	zero,576(zero) # 240 <main-0xfe34>
 910:	0004                	0x4
 912:	0500                	addi	s0,sp,640
 914:	7a00                	flw	fs0,48(a2)
 916:	4000                	lw	s0,0(s0)
 918:	9f25                	0x9f25
 91a:	0424                	addi	s1,sp,520
 91c:	0000                	unimp
 91e:	0428                	addi	a0,sp,520
 920:	0000                	unimp
 922:	0005                	c.nop	1
 924:	017a                	slli	sp,sp,0x1e
 926:	2540                	fld	fs0,136(a0)
 928:	009f 0000 0000      	0x9f
 92e:	0000                	unimp
 930:	c800                	sw	s0,16(s0)
 932:	28000003          	lb	zero,640(zero) # 280 <main-0xfdf4>
 936:	0004                	0x4
 938:	0100                	addi	s0,sp,128
 93a:	5600                	lw	s0,40(a2)
	...
 944:	0118                	addi	a4,sp,128
 946:	0000                	unimp
 948:	01d8                	addi	a4,sp,196
 94a:	0000                	unimp
 94c:	0001                	nop
 94e:	dc60                	sw	s0,124(s0)
 950:	0001                	nop
 952:	f000                	fsw	fs0,32(s0)
 954:	0001                	nop
 956:	0100                	addi	s0,sp,128
 958:	6000                	flw	fs0,0(s0)
 95a:	01f0                	addi	a2,sp,204
 95c:	0000                	unimp
 95e:	01f4                	addi	a3,sp,204
 960:	0000                	unimp
 962:	0009                	c.nop	2
 964:	0080                	addi	s0,sp,64
 966:	007d                	c.nop	31
 968:	ff08                	fsw	fa0,56(a4)
 96a:	241a                	fld	fs0,384(sp)
 96c:	f49f 0001 9c00      	0x9c000001f49f
 972:	0002                	c.slli64	zero
 974:	0100                	addi	s0,sp,128
 976:	6000                	flw	fs0,0(s0)
	...
 980:	012c                	addi	a1,sp,136
 982:	0000                	unimp
 984:	0150                	addi	a2,sp,132
 986:	0000                	unimp
 988:	0001                	nop
 98a:	f05a                	fsw	fs6,32(sp)
 98c:	0001                	nop
 98e:	f800                	fsw	fs0,48(s0)
 990:	0001                	nop
 992:	0100                	addi	s0,sp,128
 994:	5a00                	lw	s0,48(a2)
	...
 99e:	0154                	addi	a3,sp,132
 9a0:	0000                	unimp
 9a2:	01d8                	addi	a4,sp,196
 9a4:	0000                	unimp
 9a6:	0001                	nop
 9a8:	0061                	c.nop	24
 9aa:	0000                	unimp
 9ac:	0000                	unimp
 9ae:	0000                	unimp
 9b0:	5c00                	lw	s0,56(s0)
 9b2:	0001                	nop
 9b4:	b800                	fsd	fs0,48(s0)
 9b6:	0001                	nop
 9b8:	0100                	addi	s0,sp,128
 9ba:	5c00                	lw	s0,56(s0)
 9bc:	01b8                	addi	a4,sp,200
 9be:	0000                	unimp
 9c0:	01d8                	addi	a4,sp,196
 9c2:	0000                	unimp
 9c4:	00800007          	0x800007
 9c8:	2440                	fld	fs0,136(s0)
 9ca:	2540                	fld	fs0,136(a0)
 9cc:	009f 0000 0000      	0x9f
 9d2:	0000                	unimp
 9d4:	6800                	flw	fs0,16(s0)
 9d6:	0001                	nop
 9d8:	8400                	0x8400
 9da:	0001                	nop
 9dc:	0100                	addi	s0,sp,128
 9de:	5f00                	lw	s0,56(a4)
 9e0:	0184                	addi	s1,sp,192
 9e2:	0000                	unimp
 9e4:	01d4                	addi	a3,sp,196
 9e6:	0000                	unimp
 9e8:	0001                	nop
 9ea:	005a                	c.slli	zero,0x16
 9ec:	0000                	unimp
 9ee:	0000                	unimp
 9f0:	0000                	unimp
 9f2:	a800                	fsd	fs0,16(s0)
 9f4:	0001                	nop
 9f6:	c400                	sw	s0,8(s0)
 9f8:	0001                	nop
 9fa:	0100                	addi	s0,sp,128
 9fc:	5e00                	lw	s0,56(a2)
 9fe:	01c4                	addi	s1,sp,196
 a00:	0000                	unimp
 a02:	01d8                	addi	a4,sp,196
 a04:	0000                	unimp
 a06:	0001                	nop
 a08:	005c                	addi	a5,sp,4
 a0a:	0000                	unimp
 a0c:	0000                	unimp
 a0e:	0000                	unimp
 a10:	6400                	flw	fs0,8(s0)
 a12:	0001                	nop
 a14:	6c00                	flw	fs0,24(s0)
 a16:	0001                	nop
 a18:	0100                	addi	s0,sp,128
 a1a:	5d00                	lw	s0,56(a0)
 a1c:	0174                	addi	a3,sp,140
 a1e:	0000                	unimp
 a20:	0180                	addi	s0,sp,192
 a22:	0000                	unimp
 a24:	0001                	nop
 a26:	805e                	c.mv	zero,s7
 a28:	0001                	nop
 a2a:	8400                	0x8400
 a2c:	0001                	nop
 a2e:	0800                	addi	s0,sp,16
 a30:	7600                	flw	fs0,40(a2)
 a32:	4000                	lw	s0,0(s0)
 a34:	7d25                	lui	s10,0xfffe9
 a36:	2100                	fld	fs0,0(a0)
 a38:	849f 0001 a800      	0xa8000001849f
 a3e:	0001                	nop
 a40:	0100                	addi	s0,sp,128
 a42:	5e00                	lw	s0,56(a2)
	...
 a4c:	019c                	addi	a5,sp,192
 a4e:	0000                	unimp
 a50:	01ac                	addi	a1,sp,200
 a52:	0000                	unimp
 a54:	0001                	nop
 a56:	b45f 0001 c000      	0xc0000001b45f
 a5c:	0001                	nop
 a5e:	0100                	addi	s0,sp,128
 a60:	5600                	lw	s0,40(a2)
	...
 a6a:	0174                	addi	a3,sp,140
 a6c:	0000                	unimp
 a6e:	01b4                	addi	a3,sp,200
 a70:	0000                	unimp
 a72:	0001                	nop
 a74:	b46c                	fsd	fa1,232(s0)
 a76:	0001                	nop
 a78:	d800                	sw	s0,48(s0)
 a7a:	0001                	nop
 a7c:	0100                	addi	s0,sp,128
 a7e:	5d00                	lw	s0,56(a0)
	...
 a88:	020c                	addi	a1,sp,256
 a8a:	0000                	unimp
 a8c:	029c                	addi	a5,sp,320
 a8e:	0000                	unimp
 a90:	0001                	nop
 a92:	0061                	c.nop	24
 a94:	0000                	unimp
 a96:	0000                	unimp
 a98:	0000                	unimp
 a9a:	1800                	addi	s0,sp,48
 a9c:	0002                	c.slli64	zero
 a9e:	6c00                	flw	fs0,24(s0)
 aa0:	0002                	c.slli64	zero
 aa2:	0100                	addi	s0,sp,128
 aa4:	5f00                	lw	s0,56(a4)
 aa6:	026c                	addi	a1,sp,268
 aa8:	0000                	unimp
 aaa:	029c                	addi	a5,sp,320
 aac:	0000                	unimp
 aae:	00800007          	0x800007
 ab2:	2440                	fld	fs0,136(s0)
 ab4:	2540                	fld	fs0,136(a0)
 ab6:	009f 0000 0000      	0x9f
 abc:	0000                	unimp
 abe:	2000                	fld	fs0,0(s0)
 ac0:	0002                	c.slli64	zero
 ac2:	3c00                	fld	fs0,56(s0)
 ac4:	0002                	c.slli64	zero
 ac6:	0100                	addi	s0,sp,128
 ac8:	5a00                	lw	s0,48(a2)
 aca:	023c                	addi	a5,sp,264
 acc:	0000                	unimp
 ace:	0290                	addi	a2,sp,320
 ad0:	0000                	unimp
 ad2:	0001                	nop
 ad4:	0000005b          	0x5b
 ad8:	0000                	unimp
 ada:	0000                	unimp
 adc:	6000                	flw	fs0,0(s0)
 ade:	0002                	c.slli64	zero
 ae0:	7c00                	flw	fs0,56(s0)
 ae2:	0002                	c.slli64	zero
 ae4:	0100                	addi	s0,sp,128
 ae6:	5d00                	lw	s0,56(a0)
 ae8:	027c                	addi	a5,sp,268
 aea:	0000                	unimp
 aec:	029c                	addi	a5,sp,320
 aee:	0000                	unimp
 af0:	0001                	nop
 af2:	005e                	c.slli	zero,0x17
 af4:	0000                	unimp
 af6:	0000                	unimp
 af8:	0000                	unimp
 afa:	1800                	addi	s0,sp,48
 afc:	0002                	c.slli64	zero
 afe:	2400                	fld	fs0,8(s0)
 b00:	0002                	c.slli64	zero
 b02:	0100                	addi	s0,sp,128
 b04:	5e00                	lw	s0,56(a2)
 b06:	022c                	addi	a1,sp,264
 b08:	0000                	unimp
 b0a:	0238                	addi	a4,sp,264
 b0c:	0000                	unimp
 b0e:	0001                	nop
 b10:	3c5e                	fld	fs8,496(sp)
 b12:	0002                	c.slli64	zero
 b14:	5000                	lw	s0,32(s0)
 b16:	0002                	c.slli64	zero
 b18:	0100                	addi	s0,sp,128
 b1a:	5e00                	lw	s0,56(a2)
 b1c:	0250                	addi	a2,sp,260
 b1e:	0000                	unimp
 b20:	0260                	addi	s0,sp,268
 b22:	0000                	unimp
 b24:	0001                	nop
 b26:	005d                	c.nop	23
 b28:	0000                	unimp
 b2a:	0000                	unimp
 b2c:	0000                	unimp
 b2e:	5400                	lw	s0,40(s0)
 b30:	0002                	c.slli64	zero
 b32:	6400                	flw	fs0,8(s0)
 b34:	0002                	c.slli64	zero
 b36:	0100                	addi	s0,sp,128
 b38:	5e00                	lw	s0,56(a2)
 b3a:	026c                	addi	a1,sp,268
 b3c:	0000                	unimp
 b3e:	0278                	addi	a4,sp,268
 b40:	0000                	unimp
 b42:	0001                	nop
 b44:	7c5f 0002 9c00      	0x9c0000027c5f
 b4a:	0002                	c.slli64	zero
 b4c:	0100                	addi	s0,sp,128
 b4e:	5f00                	lw	s0,56(a4)
	...
 b58:	022c                	addi	a1,sp,264
 b5a:	0000                	unimp
 b5c:	0250                	addi	a2,sp,260
 b5e:	0000                	unimp
 b60:	0001                	nop
 b62:	505d                	c.li	zero,-9
 b64:	0002                	c.slli64	zero
 b66:	6800                	flw	fs0,16(s0)
 b68:	0002                	c.slli64	zero
 b6a:	0600                	addi	s0,sp,768
 b6c:	7f00                	flw	fs0,56(a4)
 b6e:	7a00                	flw	fs0,48(a2)
 b70:	1e00                	addi	s0,sp,816
 b72:	689f 0002 9c00      	0x9c000002689f
 b78:	0002                	c.slli64	zero
 b7a:	0100                	addi	s0,sp,128
 b7c:	5a00                	lw	s0,48(a2)
	...
 b86:	02a0                	addi	s0,sp,328
 b88:	0000                	unimp
 b8a:	02bc                	addi	a5,sp,328
 b8c:	0000                	unimp
 b8e:	0001                	nop
 b90:	bc5a                	fsd	fs6,56(sp)
 b92:	0002                	c.slli64	zero
 b94:	ec00                	fsw	fs0,24(s0)
 b96:	0002                	c.slli64	zero
 b98:	0100                	addi	s0,sp,128
 b9a:	5d00                	lw	s0,56(a0)
 b9c:	02ec                	addi	a1,sp,332
 b9e:	0000                	unimp
 ba0:	0300                	addi	s0,sp,384
 ba2:	0000                	unimp
 ba4:	0001                	nop
 ba6:	005a                	c.slli	zero,0x16
 ba8:	08000003          	lb	zero,128(zero) # 80 <main-0xfff4>
 bac:	01000003          	lb	zero,16(zero) # 10 <main-0x10064>
 bb0:	5d00                	lw	s0,56(a0)
	...
 bba:	02b4                	addi	a3,sp,328
 bbc:	0000                	unimp
 bbe:	02d4                	addi	a3,sp,324
 bc0:	0000                	unimp
 bc2:	0001                	nop
 bc4:	0000005b          	0x5b
 bc8:	0000                	unimp
 bca:	0000                	unimp
	...

Disassembly of section .debug_ranges:

00000000 <.debug_ranges>:
   0:	0004                	0x4
   2:	0000                	unimp
   4:	0004                	0x4
   6:	0000                	unimp
   8:	0008                	0x8
   a:	0000                	unimp
   c:	01d8                	addi	a4,sp,196
   e:	0000                	unimp
  10:	01dc                	addi	a5,sp,196
  12:	0000                	unimp
  14:	0424                	addi	s1,sp,520
  16:	0000                	unimp
  18:	0428                	addi	a0,sp,520
  1a:	0000                	unimp
  1c:	0434                	addi	a3,sp,520
	...
  26:	0000                	unimp
  28:	0024                	addi	s1,sp,8
  2a:	0000                	unimp
  2c:	0050                	addi	a2,sp,4
  2e:	0000                	unimp
  30:	00f8                	addi	a4,sp,76
  32:	0000                	unimp
  34:	010c                	addi	a1,sp,128
	...
  3e:	0000                	unimp
  40:	00f0                	addi	a2,sp,76
  42:	0000                	unimp
  44:	00f8                	addi	a4,sp,76
  46:	0000                	unimp
  48:	0300                	addi	s0,sp,384
  4a:	0000                	unimp
  4c:	0424                	addi	s1,sp,520
	...
  56:	0000                	unimp
  58:	0310                	addi	a2,sp,384
  5a:	0000                	unimp
  5c:	0318                	addi	a4,sp,384
  5e:	0000                	unimp
  60:	0328                	addi	a0,sp,392
  62:	0000                	unimp
  64:	03a8                	addi	a0,sp,456
  66:	0000                	unimp
  68:	03ac                	addi	a1,sp,456
  6a:	0000                	unimp
  6c:	03b0                	addi	a2,sp,456
  6e:	0000                	unimp
  70:	03c4                	addi	s1,sp,452
  72:	0000                	unimp
  74:	03c8                	addi	a0,sp,452
	...
  7e:	0000                	unimp
  80:	03a8                	addi	a0,sp,456
  82:	0000                	unimp
  84:	03ac                	addi	a1,sp,456
  86:	0000                	unimp
  88:	03b0                	addi	a2,sp,456
  8a:	0000                	unimp
  8c:	03c4                	addi	s1,sp,452
  8e:	0000                	unimp
  90:	03c8                	addi	a0,sp,452
  92:	0000                	unimp
  94:	03f4                	addi	a3,sp,460
  96:	0000                	unimp
  98:	03fc                	addi	a5,sp,460
  9a:	0000                	unimp
  9c:	0410                	addi	a2,sp,512
  9e:	0000                	unimp
  a0:	0414                	addi	a3,sp,512
  a2:	0000                	unimp
  a4:	0418                	addi	a4,sp,512
	...
  ae:	0000                	unimp
  b0:	0118                	addi	a4,sp,128
  b2:	0000                	unimp
  b4:	0144                	addi	s1,sp,132
  b6:	0000                	unimp
  b8:	01dc                	addi	a5,sp,196
  ba:	0000                	unimp
  bc:	01f0                	addi	a2,sp,204
	...
  c6:	0000                	unimp
  c8:	0204                	addi	s1,sp,256
  ca:	0000                	unimp
  cc:	0208                	addi	a0,sp,256
  ce:	0000                	unimp
  d0:	020c                	addi	a1,sp,256
  d2:	0000                	unimp
  d4:	029c                	addi	a5,sp,320
	...
  de:	0000                	unimp
  e0:	02a0                	addi	s0,sp,328
  e2:	0000                	unimp
  e4:	02d4                	addi	a3,sp,324
  e6:	0000                	unimp
  e8:	02ec                	addi	a1,sp,332
  ea:	0000                	unimp
  ec:	0300                	addi	s0,sp,384
	...

./gputest.elf:     file format elf32-littleriscv
./gputest.elf
architecture: riscv:rv32, flags 0x00000112:
EXEC_P, HAS_SYMS, D_PAGED
start address 0x0001044c

Program Header:
    LOAD off    0x00000000 vaddr 0x00010000 paddr 0x00010000 align 2**12
         filesz 0x000054e8 memsz 0x000054e8 flags r-x
    LOAD off    0x00006000 vaddr 0x00016000 paddr 0x00016000 align 2**12
         filesz 0x00000878 memsz 0x00000ba8 flags rw-

Sections:
Idx Name          Size      VMA       LMA       File off  Algn
  0 .text         0000371c  00010074  00010074  00000074  2**2
                  CONTENTS, ALLOC, LOAD, READONLY, CODE
  1 .rodata       00001d58  00013790  00013790  00003790  2**2
                  CONTENTS, ALLOC, LOAD, READONLY, DATA
  2 .eh_frame     0000037c  00016000  00016000  00006000  2**2
                  CONTENTS, ALLOC, LOAD, DATA
  3 .init_array   0000000c  0001637c  0001637c  0000637c  2**2
                  CONTENTS, ALLOC, LOAD, DATA
  4 .fini_array   00000004  00016388  00016388  00006388  2**2
                  CONTENTS, ALLOC, LOAD, DATA
  5 .data         00000438  00016390  00016390  00006390  2**3
                  CONTENTS, ALLOC, LOAD, DATA
  6 .got          00000020  000167c8  000167c8  000067c8  2**2
                  CONTENTS, ALLOC, LOAD, DATA
  7 .sdata        00000090  000167e8  000167e8  000067e8  2**2
                  CONTENTS, ALLOC, LOAD, DATA
  8 .bss          00000330  00016878  00016878  00006878  2**2
                  ALLOC
  9 .comment      00000012  00000000  00000000  00006878  2**0
                  CONTENTS, READONLY
 10 .riscv.attributes 0000002a  00000000  00000000  0000688a  2**0
                  CONTENTS, READONLY
 11 .debug_aranges 00000038  00000000  00000000  000068b4  2**0
                  CONTENTS, READONLY, DEBUGGING, OCTETS
 12 .debug_info   00000889  00000000  00000000  000068ec  2**0
                  CONTENTS, READONLY, DEBUGGING, OCTETS
 13 .debug_abbrev 0000020d  00000000  00000000  00007175  2**0
                  CONTENTS, READONLY, DEBUGGING, OCTETS
 14 .debug_line   000007a8  00000000  00000000  00007382  2**0
                  CONTENTS, READONLY, DEBUGGING, OCTETS
 15 .debug_str    0000033f  00000000  00000000  00007b2a  2**0
                  CONTENTS, READONLY, DEBUGGING, OCTETS
 16 .debug_loc    00000bcd  00000000  00000000  00007e69  2**0
                  CONTENTS, READONLY, DEBUGGING, OCTETS
 17 .debug_ranges 000000f8  00000000  00000000  00008a36  2**0
                  CONTENTS, READONLY, DEBUGGING, OCTETS
SYMBOL TABLE:
00010074 l    d  .text	00000000 .text
00013790 l    d  .rodata	00000000 .rodata
00016000 l    d  .eh_frame	00000000 .eh_frame
0001637c l    d  .init_array	00000000 .init_array
00016388 l    d  .fini_array	00000000 .fini_array
00016390 l    d  .data	00000000 .data
000167c8 l    d  .got	00000000 .got
000167e8 l    d  .sdata	00000000 .sdata
00016878 l    d  .bss	00000000 .bss
00000000 l    d  .comment	00000000 .comment
00000000 l    d  .riscv.attributes	00000000 .riscv.attributes
00000000 l    d  .debug_aranges	00000000 .debug_aranges
00000000 l    d  .debug_info	00000000 .debug_info
00000000 l    d  .debug_abbrev	00000000 .debug_abbrev
00000000 l    d  .debug_line	00000000 .debug_line
00000000 l    d  .debug_str	00000000 .debug_str
00000000 l    d  .debug_loc	00000000 .debug_loc
00000000 l    d  .debug_ranges	00000000 .debug_ranges
00000000 l    df *ABS*	00000000 gputest.cpp
00016894 l     O .bss	00000004 _ZZ13drawparticlesPsE12spawnerindex
00016898 l     O .bss	00000004 _ZZ13drawparticlesPsE5proll
00000000 l    df *ABS*	00000000 gpu.cpp
00010418 l     F .text	0000001c _GLOBAL__sub_I_gpu.cpp
00000000 l    df *ABS*	00000000 __call_atexit.c
00010434 l     F .text	00000018 register_fini
00000000 l    df *ABS*	00000000 crtstuff.c
00016000 l     O .eh_frame	00000000 __EH_FRAME_BEGIN__
00010498 l     F .text	00000000 __do_global_dtors_aux
00016878 l     O .bss	00000001 completed.1
00016388 l     O .fini_array	00000000 __do_global_dtors_aux_fini_array_entry
000104e4 l     F .text	00000000 frame_dummy
0001687c l     O .bss	00000018 object.0
00016380 l     O .init_array	00000000 __frame_dummy_init_array_entry
00000000 l    df *ABS*	00000000 core.cpp
00000000 l    df *ABS*	00000000 console.cpp
0001689c l     O .bss	00000300 _ZL11consoleText
00016b9c l     O .bss	00000004 _ZL7cursorx
00016ba0 l     O .bss	00000004 _ZL7cursory
00000000 l    df *ABS*	00000000 sf_cos.c
00000000 l    df *ABS*	00000000 sf_sin.c
00000000 l    df *ABS*	00000000 ef_rem_pio2.c
00015018 l     O .rodata	00000080 npio2_hw
00015098 l     O .rodata	00000318 two_over_pi
00000000 l    df *ABS*	00000000 kf_cos.c
00000000 l    df *ABS*	00000000 kf_rem_pio2.c
000153b0 l     O .rodata	0000000c init_jk
000153bc l     O .rodata	0000002c PIo2
00000000 l    df *ABS*	00000000 kf_sin.c
00000000 l    df *ABS*	00000000 sf_fabs.c
00000000 l    df *ABS*	00000000 sf_floor.c
00000000 l    df *ABS*	00000000 sf_scalbn.c
00000000 l    df *ABS*	00000000 libgcc2.c
00000000 l    df *ABS*	00000000 errno.c
00000000 l    df *ABS*	00000000 exit.c
00000000 l    df *ABS*	00000000 init.c
00000000 l    df *ABS*	00000000 memcpy.c
00000000 l    df *ABS*	00000000 fini.c
00000000 l    df *ABS*	00000000 atexit.c
00000000 l    df *ABS*	00000000 __atexit.c
00000000 l    df *ABS*	00000000 sys_exit.c
00000000 l    df *ABS*	00000000 libgcc2.c
00000000 l    df *ABS*	00000000 debugger.cpp
00000000 l    df *ABS*	00000000 sdcard.cpp
00000000 l    df *ABS*	00000000 uart.cpp
00000000 l    df *ABS*	00000000 ff.c
00000000 l    df *ABS*	00000000 ffunicode.c
00000000 l    df *ABS*	00000000 diskio.c
00000000 l    df *ABS*	00000000 memtest.c
00000000 l    df *ABS*	00000000 nanojpeg.c
00000000 l    df *ABS*	00000000 micromod.c
00000000 l    df *ABS*	00000000 crtstuff.c
00016378 l     O .eh_frame	00000000 __FRAME_END__
00000000 l    df *ABS*	00000000 impure.c
000163a0 l     O .data	00000428 impure_data
00000000 l    df *ABS*	00000000 
0001638c l       .fini_array	00000000 __fini_array_end
00016388 l       .fini_array	00000000 __fini_array_start
00016388 l       .init_array	00000000 __init_array_end
0001637c l       .init_array	00000000 __preinit_array_end
000167d0 l     O .got	00000000 _GLOBAL_OFFSET_TABLE_
0001637c l       .init_array	00000000 __init_array_start
0001637c l       .init_array	00000000 __preinit_array_start
00010504 g     F .text	000001d4 _Z8drawrectfff
00016b90 g       *ABS*	00000000 __global_pointer$
0001639c g     O .data	00000004 IO_GPUCommandFIFO
00016394 g     O .data	00000004 GraphicsFontStart
00013260 g     F .text	00000008 __errno
00011f38 g     F .text	000002d0 __ieee754_rem_pio2f
00011240 g     F .text	00000344 _Z8PrintDMAiiPKcb
000167e8 g       .sdata	00000000 __SDATA_BEGIN__
00016ba4 g     O .bss	00000004 font
00013334 g     F .text	00000128 memcpy
00010c44 g     F .text	0000003c _Z16SetConsoleCursorii
00010b68 g     F .text	0000002c _Z6Randomv
00016398 g     O .data	00000004 GraphicsRAMStart
000111b0 g     F .text	0000005c _Z11DrawConsolev
00010c28 g     F .text	0000001c _Z15ClearConsoleRowv
00012c4c g     F .text	00000008 fabsf
00016870 g     O .sdata	00000004 _global_impure_ptr
00013298 g     F .text	0000009c __libc_init_array
00012bc0 g     F .text	0000008c __kernel_sinf
00010b94 g     F .text	00000014 _Z9ReadClockv
00010ba8 g     F .text	00000024 _Z9ClockToMsy
00012e2c g     F .text	00000434 .hidden __udivdi3
00011df4 g     F .text	000000a0 cosf
00010c10 g     F .text	00000018 _Z12ClearConsolev
00013658 g     F .text	0000005c __libc_fini_array
00012208 g     F .text	00000100 __kernel_cosf
00013538 g     F .text	00000120 __call_exitprocs
0001044c g     F .text	0000004c _start
00010bcc g     F .text	00000044 _Z12ClockMsToHMSmRmS_S_
000136c8 g     F .text	00000098 __register_exitproc
00010c80 g     F .text	00000070 _Z13ScrollConsolev
00016390 g     O .data	00000004 seed
00016ba8 g       .bss	00000000 __BSS_END__
00012d0c g     F .text	00000120 scalbnf
00016878 g       .bss	00000000 __bss_start
00010dec g     F .text	000003c4 _Z11EchoConsolel
0001120c g     F .text	00000034 _Z8InitFontv
0001345c g     F .text	000000dc memset
00010074 g     F .text	000003a4 main
000106d8 g     F .text	0000008c _Z14resetparticlesPs
000153e8 g     O .rodata	00000100 .hidden __clz_tab
000136b4 g     F .text	00000014 atexit
00016874 g     O .sdata	00000004 _impure_ptr
00011920 g     F .text	000000f8 _Z11PrintDMAHexiim
00011e94 g     F .text	000000a4 sinf
00016390 g       .data	00000000 __DATA_BEGIN__
00011584 g     F .text	0000039c _Z8PrintDMAiiiPKcb
00016878 g       .sdata	00000000 _edata
00016ba8 g       .bss	00000000 _end
00013268 g     F .text	00000030 exit
00010764 g     F .text	00000404 _Z13drawparticlesPs
00013760 g     F .text	00000030 _exit
00012308 g     F .text	000008b8 __kernel_rem_pio2f
00012c54 g     F .text	000000b8 floorf
00011a18 g     F .text	000003dc _Z15PrintDMADecimaliiib
00010cf0 g     F .text	000000fc _Z11EchoConsolePKc



Disassembly of section .text:

00010074 <main>:
   10074:	f7010113          	addi	sp,sp,-144
   10078:	ffffe337          	lui	t1,0xffffe
   1007c:	08112623          	sw	ra,140(sp)
   10080:	08812423          	sw	s0,136(sp)
   10084:	08912223          	sw	s1,132(sp)
   10088:	09212023          	sw	s2,128(sp)
   1008c:	07312e23          	sw	s3,124(sp)
   10090:	07412c23          	sw	s4,120(sp)
   10094:	07512a23          	sw	s5,116(sp)
   10098:	07612823          	sw	s6,112(sp)
   1009c:	07712623          	sw	s7,108(sp)
   100a0:	07812423          	sw	s8,104(sp)
   100a4:	07912223          	sw	s9,100(sp)
   100a8:	07a12023          	sw	s10,96(sp)
   100ac:	05b12e23          	sw	s11,92(sp)
   100b0:	04812627          	fsw	fs0,76(sp)
   100b4:	04912427          	fsw	fs1,72(sp)
   100b8:	05212227          	fsw	fs2,68(sp)
   100bc:	05312027          	fsw	fs3,64(sp)
   100c0:	03412e27          	fsw	fs4,60(sp)
   100c4:	03512c27          	fsw	fs5,56(sp)
   100c8:	03612a27          	fsw	fs6,52(sp)
   100cc:	00610133          	add	sp,sp,t1
   100d0:	13c010ef          	jal	ra,1120c <_Z8InitFontv>
   100d4:	00006917          	auipc	s2,0x6
   100d8:	70092903          	lw	s2,1792(s2) # 167d4 <_GLOBAL_OFFSET_TABLE_+0x4>
   100dc:	335000ef          	jal	ra,10c10 <_Z12ClearConsolev>
   100e0:	00092783          	lw	a5,0(s2)
   100e4:	00006717          	auipc	a4,0x6
   100e8:	6fc72703          	lw	a4,1788(a4) # 167e0 <_GLOBAL_OFFSET_TABLE_+0x10>
   100ec:	00072d83          	lw	s11,0(a4)
   100f0:	38100713          	li	a4,897
   100f4:	00e7a023          	sw	a4,0(a5)
   100f8:	3f100713          	li	a4,1009
   100fc:	00e7a023          	sw	a4,0(a5)
   10100:	000da023          	sw	zero,0(s11)
   10104:	30100713          	li	a4,769
   10108:	00e7a023          	sw	a4,0(a5)
   1010c:	36100713          	li	a4,865
   10110:	00e7a023          	sw	a4,0(a5)
   10114:	06700713          	li	a4,103
   10118:	00e7a023          	sw	a4,0(a5)
   1011c:	00002a37          	lui	s4,0x2
   10120:	c8100713          	li	a4,-895
   10124:	00e7a023          	sw	a4,0(a5)
   10128:	02010613          	addi	a2,sp,32
   1012c:	00001737          	lui	a4,0x1
   10130:	010a0693          	addi	a3,s4,16 # 2010 <main-0xe064>
   10134:	ffffeb37          	lui	s6,0xffffe
   10138:	c9170713          	addi	a4,a4,-879 # c91 <main-0xf3e3>
   1013c:	00c686b3          	add	a3,a3,a2
   10140:	00040c37          	lui	s8,0x40
   10144:	00e7a023          	sw	a4,0(a5)
   10148:	01668433          	add	s0,a3,s6
   1014c:	c12c0713          	addi	a4,s8,-1006 # 3fc12 <__BSS_END__+0x2906a>
   10150:	00e7a023          	sw	a4,0(a5)
   10154:	00040513          	mv	a0,s0
   10158:	00e12a23          	sw	a4,20(sp)
   1015c:	57c000ef          	jal	ra,106d8 <_Z14resetparticlesPs>
   10160:	016ddb93          	srli	s7,s11,0x16
   10164:	00ad9793          	slli	a5,s11,0xa
   10168:	00ab9b93          	slli	s7,s7,0xa
   1016c:	0817e793          	ori	a5,a5,129
   10170:	00f12623          	sw	a5,12(sp)
   10174:	091be793          	ori	a5,s7,145
   10178:	00f12823          	sw	a5,16(sp)
   1017c:	00003797          	auipc	a5,0x3
   10180:	64c7a987          	flw	fs3,1612(a5) # 137c8 <_exit+0x68>
   10184:	00003797          	auipc	a5,0x3
   10188:	6487a907          	flw	fs2,1608(a5) # 137cc <_exit+0x6c>
   1018c:	00003797          	auipc	a5,0x3
   10190:	6447a487          	flw	fs1,1604(a5) # 137d0 <_exit+0x70>
   10194:	00003797          	auipc	a5,0x3
   10198:	6407a407          	flw	fs0,1600(a5) # 137d4 <_exit+0x74>
   1019c:	00003797          	auipc	a5,0x3
   101a0:	63c7ab07          	flw	fs6,1596(a5) # 137d8 <_exit+0x78>
   101a4:	00003797          	auipc	a5,0x3
   101a8:	6387aa87          	flw	fs5,1592(a5) # 137dc <_exit+0x7c>
   101ac:	00003797          	auipc	a5,0x3
   101b0:	6347aa07          	flw	fs4,1588(a5) # 137e0 <_exit+0x80>
   101b4:	02010713          	addi	a4,sp,32
   101b8:	010a0793          	addi	a5,s4,16
   101bc:	ffcb0d13          	addi	s10,s6,-4 # ffffdffc <__BSS_END__+0xfffe7454>
   101c0:	00e787b3          	add	a5,a5,a4
   101c4:	01a78d33          	add	s10,a5,s10
   101c8:	010a0793          	addi	a5,s4,16
   101cc:	ff8b0c93          	addi	s9,s6,-8
   101d0:	00e787b3          	add	a5,a5,a4
   101d4:	01978cb3          	add	s9,a5,s9
   101d8:	010a0793          	addi	a5,s4,16
   101dc:	00e787b3          	add	a5,a5,a4
   101e0:	ff4b0b13          	addi	s6,s6,-12
   101e4:	01678b33          	add	s6,a5,s6
   101e8:	000107b7          	lui	a5,0x10
   101ec:	fff78793          	addi	a5,a5,-1 # ffff <main-0x75>
   101f0:	00f12c23          	sw	a5,24(sp)
   101f4:	001007b7          	lui	a5,0x100
   101f8:	d2178793          	addi	a5,a5,-735 # ffd21 <__BSS_END__+0xe9179>
   101fc:	00000a93          	li	s5,0
   10200:	00000993          	li	s3,0
   10204:	00000b93          	li	s7,0
   10208:	00000493          	li	s1,0
   1020c:	00f12e23          	sw	a5,28(sp)
   10210:	000da783          	lw	a5,0(s11)
   10214:	ff779ee3          	bne	a5,s7,10210 <main+0x19c>
   10218:	151000ef          	jal	ra,10b68 <_Z6Randomv>
   1021c:	0ff00c13          	li	s8,255
   10220:	00050a13          	mv	s4,a0
   10224:	145000ef          	jal	ra,10b68 <_Z6Randomv>
   10228:	03857533          	remu	a0,a0,s8
   1022c:	001b8b93          	addi	s7,s7,1
   10230:	038a7a33          	remu	s4,s4,s8
   10234:	00851513          	slli	a0,a0,0x8
   10238:	010a1a13          	slli	s4,s4,0x10
   1023c:	00aa6a33          	or	s4,s4,a0
   10240:	129000ef          	jal	ra,10b68 <_Z6Randomv>
   10244:	03857533          	remu	a0,a0,s8
   10248:	00092783          	lw	a5,0(s2)
   1024c:	01412703          	lw	a4,20(sp)
   10250:	a08b16d3          	flt.s	a3,fs6,fs0
   10254:	01456533          	or	a0,a0,s4
   10258:	00a51613          	slli	a2,a0,0xa
   1025c:	01655513          	srli	a0,a0,0x16
   10260:	08166613          	ori	a2,a2,129
   10264:	00a51513          	slli	a0,a0,0xa
   10268:	00c7a023          	sw	a2,0(a5)
   1026c:	09156513          	ori	a0,a0,145
   10270:	00a7a023          	sw	a0,0(a5)
   10274:	00e7a023          	sw	a4,0(a5)
   10278:	18069263          	bnez	a3,103fc <main+0x388>
   1027c:	f00007d3          	fmv.w.x	fa5,zero
   10280:	a0f416d3          	flt.s	a3,fs0,fa5
   10284:	16069c63          	bnez	a3,103fc <main+0x388>
   10288:	a09a96d3          	flt.s	a3,fs5,fs1
   1028c:	16069e63          	bnez	a3,10408 <main+0x394>
   10290:	f00007d3          	fmv.w.x	fa5,zero
   10294:	a0f496d3          	flt.s	a3,fs1,fa5
   10298:	16069863          	bnez	a3,10408 <main+0x394>
   1029c:	07300693          	li	a3,115
   102a0:	00d7a023          	sw	a3,0(a5)
   102a4:	00040513          	mv	a0,s0
   102a8:	4bc000ef          	jal	ra,10764 <_Z13drawparticlesPs>
   102ac:	0e9000ef          	jal	ra,10b94 <_Z9ReadClockv>
   102b0:	0f9000ef          	jal	ra,10ba8 <_Z9ClockToMsy>
   102b4:	000d0693          	mv	a3,s10
   102b8:	000c8613          	mv	a2,s9
   102bc:	000b0593          	mv	a1,s6
   102c0:	00050a13          	mv	s4,a0
   102c4:	109000ef          	jal	ra,10bcc <_Z12ClockMsToHMSmRmS_S_>
   102c8:	01812783          	lw	a5,24(sp)
   102cc:	01247453          	fadd.s	fs0,fs0,fs2
   102d0:	0134f4d3          	fadd.s	fs1,fs1,fs3
   102d4:	02fa7533          	remu	a0,s4,a5
   102d8:	00448a13          	addi	s4,s1,4
   102dc:	20840553          	fmv.s	fa0,fs0
   102e0:	209485d3          	fmv.s	fa1,fs1
   102e4:	d0057653          	fcvt.s.w	fa2,a0
   102e8:	11467653          	fmul.s	fa2,fa2,fs4
   102ec:	218000ef          	jal	ra,10504 <_Z8drawrectfff>
   102f0:	03c00513          	li	a0,60
   102f4:	02a4e533          	rem	a0,s1,a0
   102f8:	00092783          	lw	a5,0(s2)
   102fc:	01c12703          	lw	a4,28(sp)
   10300:	d0100693          	li	a3,-767
   10304:	00d7a023          	sw	a3,0(a5)
   10308:	030306b7          	lui	a3,0x3030
   1030c:	00e7a023          	sw	a4,0(a5)
   10310:	18168693          	addi	a3,a3,385 # 3030181 <__BSS_END__+0x30195d9>
   10314:	00d7a023          	sw	a3,0(a5)
   10318:	000c16b7          	lui	a3,0xc1
   1031c:	db168693          	addi	a3,a3,-591 # c0db1 <__BSS_END__+0xaa209>
   10320:	00d7a023          	sw	a3,0(a5)
   10324:	00003617          	auipc	a2,0x3
   10328:	46c60613          	addi	a2,a2,1132 # 13790 <_exit+0x30>
   1032c:	00000693          	li	a3,0
   10330:	04000593          	li	a1,64
   10334:	70d000ef          	jal	ra,11240 <_Z8PrintDMAiiPKcb>
   10338:	ffc42c03          	lw	s8,-4(s0)
   1033c:	0d5c0a63          	beq	s8,s5,10410 <main+0x39c>
   10340:	00000593          	li	a1,0
   10344:	00000513          	li	a0,0
   10348:	0fd000ef          	jal	ra,10c44 <_Z16SetConsoleCursorii>
   1034c:	0dd000ef          	jal	ra,10c28 <_Z15ClearConsoleRowv>
   10350:	00003517          	auipc	a0,0x3
   10354:	45450513          	addi	a0,a0,1108 # 137a4 <_exit+0x44>
   10358:	199000ef          	jal	ra,10cf0 <_Z11EchoConsolePKc>
   1035c:	ff442503          	lw	a0,-12(s0)
   10360:	0019c993          	xori	s3,s3,1
   10364:	000c0a93          	mv	s5,s8
   10368:	285000ef          	jal	ra,10dec <_Z11EchoConsolel>
   1036c:	00003517          	auipc	a0,0x3
   10370:	44050513          	addi	a0,a0,1088 # 137ac <_exit+0x4c>
   10374:	17d000ef          	jal	ra,10cf0 <_Z11EchoConsolePKc>
   10378:	ff842503          	lw	a0,-8(s0)
   1037c:	000a0493          	mv	s1,s4
   10380:	26d000ef          	jal	ra,10dec <_Z11EchoConsolel>
   10384:	00003517          	auipc	a0,0x3
   10388:	42850513          	addi	a0,a0,1064 # 137ac <_exit+0x4c>
   1038c:	165000ef          	jal	ra,10cf0 <_Z11EchoConsolePKc>
   10390:	ffc42503          	lw	a0,-4(s0)
   10394:	259000ef          	jal	ra,10dec <_Z11EchoConsolel>
   10398:	619000ef          	jal	ra,111b0 <_Z11DrawConsolev>
   1039c:	00092783          	lw	a5,0(s2)
   103a0:	00a99693          	slli	a3,s3,0xa
   103a4:	0816e693          	ori	a3,a3,129
   103a8:	0007a023          	sw	zero,0(a5)
   103ac:	00d7a023          	sw	a3,0(a5)
   103b0:	00c12703          	lw	a4,12(sp)
   103b4:	09100693          	li	a3,145
   103b8:	00d7a023          	sw	a3,0(a5)
   103bc:	01700693          	li	a3,23
   103c0:	00d7a023          	sw	a3,0(a5)
   103c4:	00e7a023          	sw	a4,0(a5)
   103c8:	01012703          	lw	a4,16(sp)
   103cc:	00ab9613          	slli	a2,s7,0xa
   103d0:	016bd693          	srli	a3,s7,0x16
   103d4:	00e7a023          	sw	a4,0(a5)
   103d8:	10166613          	ori	a2,a2,257
   103dc:	00a69693          	slli	a3,a3,0xa
   103e0:	00c7a023          	sw	a2,0(a5)
   103e4:	1216e693          	ori	a3,a3,289
   103e8:	00d7a023          	sw	a3,0(a5)
   103ec:	0a600693          	li	a3,166
   103f0:	00d7a023          	sw	a3,0(a5)
   103f4:	000da023          	sw	zero,0(s11)
   103f8:	e19ff06f          	j	10210 <main+0x19c>
   103fc:	a09a96d3          	flt.s	a3,fs5,fs1
   10400:	21291953          	fneg.s	fs2,fs2
   10404:	e80686e3          	beqz	a3,10290 <main+0x21c>
   10408:	213999d3          	fneg.s	fs3,fs3
   1040c:	e91ff06f          	j	1029c <main+0x228>
   10410:	00048a13          	mv	s4,s1
   10414:	f2dff06f          	j	10340 <main+0x2cc>

00010418 <_GLOBAL__sub_I_gpu.cpp>:
   10418:	00006797          	auipc	a5,0x6
   1041c:	3c07a783          	lw	a5,960(a5) # 167d8 <_GLOBAL_OFFSET_TABLE_+0x8>
   10420:	0007a703          	lw	a4,0(a5)
   10424:	00006797          	auipc	a5,0x6
   10428:	3b87a783          	lw	a5,952(a5) # 167dc <_GLOBAL_OFFSET_TABLE_+0xc>
   1042c:	00e7a023          	sw	a4,0(a5)
   10430:	00008067          	ret

00010434 <register_fini>:
   10434:	00000793          	li	a5,0
   10438:	00078863          	beqz	a5,10448 <register_fini+0x14>
   1043c:	00013537          	lui	a0,0x13
   10440:	65850513          	addi	a0,a0,1624 # 13658 <__libc_fini_array>
   10444:	2700306f          	j	136b4 <atexit>
   10448:	00008067          	ret

0001044c <_start>:
   1044c:	00006197          	auipc	gp,0x6
   10450:	74418193          	addi	gp,gp,1860 # 16b90 <__global_pointer$>
   10454:	ce818513          	addi	a0,gp,-792 # 16878 <completed.1>
   10458:	01818613          	addi	a2,gp,24 # 16ba8 <__BSS_END__>
   1045c:	40a60633          	sub	a2,a2,a0
   10460:	00000593          	li	a1,0
   10464:	7f9020ef          	jal	ra,1345c <memset>
   10468:	00003517          	auipc	a0,0x3
   1046c:	24c50513          	addi	a0,a0,588 # 136b4 <atexit>
   10470:	00050863          	beqz	a0,10480 <_start+0x34>
   10474:	00003517          	auipc	a0,0x3
   10478:	1e450513          	addi	a0,a0,484 # 13658 <__libc_fini_array>
   1047c:	238030ef          	jal	ra,136b4 <atexit>
   10480:	619020ef          	jal	ra,13298 <__libc_init_array>
   10484:	00012503          	lw	a0,0(sp)
   10488:	00410593          	addi	a1,sp,4
   1048c:	00000613          	li	a2,0
   10490:	be5ff0ef          	jal	ra,10074 <main>
   10494:	5d50206f          	j	13268 <exit>

00010498 <__do_global_dtors_aux>:
   10498:	ce81c703          	lbu	a4,-792(gp) # 16878 <completed.1>
   1049c:	04071263          	bnez	a4,104e0 <__do_global_dtors_aux+0x48>
   104a0:	ff010113          	addi	sp,sp,-16
   104a4:	00812423          	sw	s0,8(sp)
   104a8:	00078413          	mv	s0,a5
   104ac:	00112623          	sw	ra,12(sp)
   104b0:	00000793          	li	a5,0
   104b4:	00078a63          	beqz	a5,104c8 <__do_global_dtors_aux+0x30>
   104b8:	00016537          	lui	a0,0x16
   104bc:	00050513          	mv	a0,a0
   104c0:	00000097          	auipc	ra,0x0
   104c4:	000000e7          	jalr	zero # 0 <main-0x10074>
   104c8:	00100793          	li	a5,1
   104cc:	00c12083          	lw	ra,12(sp)
   104d0:	cef18423          	sb	a5,-792(gp) # 16878 <completed.1>
   104d4:	00812403          	lw	s0,8(sp)
   104d8:	01010113          	addi	sp,sp,16
   104dc:	00008067          	ret
   104e0:	00008067          	ret

000104e4 <frame_dummy>:
   104e4:	00000793          	li	a5,0
   104e8:	00078c63          	beqz	a5,10500 <frame_dummy+0x1c>
   104ec:	00016537          	lui	a0,0x16
   104f0:	cec18593          	addi	a1,gp,-788 # 1687c <object.0>
   104f4:	00050513          	mv	a0,a0
   104f8:	00000317          	auipc	t1,0x0
   104fc:	00000067          	jr	zero # 0 <main-0x10074>
   10500:	00008067          	ret

00010504 <_Z8drawrectfff>:
   10504:	fd010113          	addi	sp,sp,-48
   10508:	01512427          	fsw	fs5,8(sp)
   1050c:	20a50ad3          	fmv.s	fs5,fa0
   10510:	20c60553          	fmv.s	fa0,fa2
   10514:	01212a27          	fsw	fs2,20(sp)
   10518:	20c60953          	fmv.s	fs2,fa2
   1051c:	02112623          	sw	ra,44(sp)
   10520:	00812e27          	fsw	fs0,28(sp)
   10524:	00912c27          	fsw	fs1,24(sp)
   10528:	01312827          	fsw	fs3,16(sp)
   1052c:	01412627          	fsw	fs4,12(sp)
   10530:	20b58a53          	fmv.s	fs4,fa1
   10534:	0c1010ef          	jal	ra,11df4 <cosf>
   10538:	20a504d3          	fmv.s	fs1,fa0
   1053c:	21290553          	fmv.s	fa0,fs2
   10540:	155010ef          	jal	ra,11e94 <sinf>
   10544:	00003797          	auipc	a5,0x3
   10548:	26c7a987          	flw	fs3,620(a5) # 137b0 <_exit+0x50>
   1054c:	013979d3          	fadd.s	fs3,fs2,fs3
   10550:	20a50453          	fmv.s	fs0,fa0
   10554:	21398553          	fmv.s	fa0,fs3
   10558:	09d010ef          	jal	ra,11df4 <cosf>
   1055c:	20a50953          	fmv.s	fs2,fa0
   10560:	21398553          	fmv.s	fa0,fs3
   10564:	131010ef          	jal	ra,11e94 <sinf>
   10568:	00003797          	auipc	a5,0x3
   1056c:	24c7a587          	flw	fa1,588(a5) # 137b4 <_exit+0x54>
   10570:	a8b4f6cb          	fnmsub.s	fa3,fs1,fa1,fs5
   10574:	a0b4774b          	fnmsub.s	fa4,fs0,fa1,fs4
   10578:	a8b4f4c3          	fmadd.s	fs1,fs1,fa1,fs5
   1057c:	00003797          	auipc	a5,0x3
   10580:	23c7a787          	flw	fa5,572(a5) # 137b8 <_exit+0x58>
   10584:	a0b47443          	fmadd.s	fs0,fs0,fa1,fs4
   10588:	68f970cb          	fnmsub.s	ft1,fs2,fa5,fa3
   1058c:	70f5704b          	fnmsub.s	ft0,fa0,fa5,fa4
   10590:	48f975cb          	fnmsub.s	fa1,fs2,fa5,fs1
   10594:	48f974c3          	fmadd.s	fs1,fs2,fa5,fs1
   10598:	40f5764b          	fnmsub.s	fa2,fa0,fa5,fs0
   1059c:	c0009753          	fcvt.w.s	a4,ft1,rtz
   105a0:	40f57443          	fmadd.s	fs0,fa0,fa5,fs0
   105a4:	68f97943          	fmadd.s	fs2,fs2,fa5,fa3
   105a8:	c0001653          	fcvt.w.s	a2,ft0,rtz
   105ac:	c00597d3          	fcvt.w.s	a5,fa1,rtz
   105b0:	00010537          	lui	a0,0x10
   105b4:	01071713          	slli	a4,a4,0x10
   105b8:	fff50513          	addi	a0,a0,-1 # ffff <main-0x75>
   105bc:	70f57543          	fmadd.s	fa0,fa0,fa5,fa4
   105c0:	41075713          	srai	a4,a4,0x10
   105c4:	00a77733          	and	a4,a4,a0
   105c8:	c00498d3          	fcvt.w.s	a7,fs1,rtz
   105cc:	c00616d3          	fcvt.w.s	a3,fa2,rtz
   105d0:	01061613          	slli	a2,a2,0x10
   105d4:	00006597          	auipc	a1,0x6
   105d8:	2005a583          	lw	a1,512(a1) # 167d4 <_GLOBAL_OFFSET_TABLE_+0x4>
   105dc:	0005a583          	lw	a1,0(a1)
   105e0:	00e66633          	or	a2,a2,a4
   105e4:	01079793          	slli	a5,a5,0x10
   105e8:	c0091853          	fcvt.w.s	a6,fs2,rtz
   105ec:	c0041753          	fcvt.w.s	a4,fs0,rtz
   105f0:	00a61313          	slli	t1,a2,0xa
   105f4:	4107d793          	srai	a5,a5,0x10
   105f8:	01665613          	srli	a2,a2,0x16
   105fc:	00a7f7b3          	and	a5,a5,a0
   10600:	08136313          	ori	t1,t1,129
   10604:	01069693          	slli	a3,a3,0x10
   10608:	01089893          	slli	a7,a7,0x10
   1060c:	00a61613          	slli	a2,a2,0xa
   10610:	0065a023          	sw	t1,0(a1)
   10614:	00f6e6b3          	or	a3,a3,a5
   10618:	09166613          	ori	a2,a2,145
   1061c:	c00517d3          	fcvt.w.s	a5,fa0,rtz
   10620:	4108d893          	srai	a7,a7,0x10
   10624:	00c5a023          	sw	a2,0(a1)
   10628:	00a8f8b3          	and	a7,a7,a0
   1062c:	00a69313          	slli	t1,a3,0xa
   10630:	01081613          	slli	a2,a6,0x10
   10634:	01071713          	slli	a4,a4,0x10
   10638:	0166d693          	srli	a3,a3,0x16
   1063c:	01176733          	or	a4,a4,a7
   10640:	41065613          	srai	a2,a2,0x10
   10644:	10136813          	ori	a6,t1,257
   10648:	00a69693          	slli	a3,a3,0xa
   1064c:	0105a023          	sw	a6,0(a1)
   10650:	00a67533          	and	a0,a2,a0
   10654:	1216e693          	ori	a3,a3,289
   10658:	00a71613          	slli	a2,a4,0xa
   1065c:	01079793          	slli	a5,a5,0x10
   10660:	01675713          	srli	a4,a4,0x16
   10664:	00d5a023          	sw	a3,0(a1)
   10668:	00a7e7b3          	or	a5,a5,a0
   1066c:	18166693          	ori	a3,a2,385
   10670:	00a71713          	slli	a4,a4,0xa
   10674:	00d5a023          	sw	a3,0(a1)
   10678:	1b176713          	ori	a4,a4,433
   1067c:	00a79693          	slli	a3,a5,0xa
   10680:	0167d793          	srli	a5,a5,0x16
   10684:	00e5a023          	sw	a4,0(a1)
   10688:	00a79793          	slli	a5,a5,0xa
   1068c:	2016e713          	ori	a4,a3,513
   10690:	00e5a023          	sw	a4,0(a1)
   10694:	2417e793          	ori	a5,a5,577
   10698:	00f5a023          	sw	a5,0(a1)
   1069c:	000f97b7          	lui	a5,0xf9
   106a0:	d1578793          	addi	a5,a5,-747 # f8d15 <__BSS_END__+0xe216d>
   106a4:	00f5a023          	sw	a5,0(a1)
   106a8:	02c12083          	lw	ra,44(sp)
   106ac:	001067b7          	lui	a5,0x106
   106b0:	63578793          	addi	a5,a5,1589 # 106635 <__BSS_END__+0xefa8d>
   106b4:	00f5a023          	sw	a5,0(a1)
   106b8:	01c12407          	flw	fs0,28(sp)
   106bc:	01812487          	flw	fs1,24(sp)
   106c0:	01412907          	flw	fs2,20(sp)
   106c4:	01012987          	flw	fs3,16(sp)
   106c8:	00c12a07          	flw	fs4,12(sp)
   106cc:	00812a87          	flw	fs5,8(sp)
   106d0:	03010113          	addi	sp,sp,48
   106d4:	00008067          	ret

000106d8 <_Z14resetparticlesPs>:
   106d8:	fe010113          	addi	sp,sp,-32
   106dc:	00912a23          	sw	s1,20(sp)
   106e0:	000024b7          	lui	s1,0x2
   106e4:	00812c23          	sw	s0,24(sp)
   106e8:	01212823          	sw	s2,16(sp)
   106ec:	01312623          	sw	s3,12(sp)
   106f0:	01412423          	sw	s4,8(sp)
   106f4:	00112e23          	sw	ra,28(sp)
   106f8:	00050413          	mv	s0,a0
   106fc:	009504b3          	add	s1,a0,s1
   10700:	14000a13          	li	s4,320
   10704:	fe000993          	li	s3,-32
   10708:	00700913          	li	s2,7
   1070c:	45c000ef          	jal	ra,10b68 <_Z6Randomv>
   10710:	03457533          	remu	a0,a0,s4
   10714:	01341123          	sh	s3,2(s0)
   10718:	00840413          	addi	s0,s0,8
   1071c:	fea41c23          	sh	a0,-8(s0)
   10720:	448000ef          	jal	ra,10b68 <_Z6Randomv>
   10724:	03257533          	remu	a0,a0,s2
   10728:	00350513          	addi	a0,a0,3
   1072c:	fea41e23          	sh	a0,-4(s0)
   10730:	438000ef          	jal	ra,10b68 <_Z6Randomv>
   10734:	01f57513          	andi	a0,a0,31
   10738:	0c050513          	addi	a0,a0,192
   1073c:	fea41f23          	sh	a0,-2(s0)
   10740:	fc9416e3          	bne	s0,s1,1070c <_Z14resetparticlesPs+0x34>
   10744:	01c12083          	lw	ra,28(sp)
   10748:	01812403          	lw	s0,24(sp)
   1074c:	01412483          	lw	s1,20(sp)
   10750:	01012903          	lw	s2,16(sp)
   10754:	00c12983          	lw	s3,12(sp)
   10758:	00812a03          	lw	s4,8(sp)
   1075c:	02010113          	addi	sp,sp,32
   10760:	00008067          	ret

00010764 <_Z13drawparticlesPs>:
   10764:	fa010113          	addi	sp,sp,-96
   10768:	05312623          	sw	s3,76(sp)
   1076c:	000029b7          	lui	s3,0x2
   10770:	00298993          	addi	s3,s3,2 # 2002 <main-0xe072>
   10774:	04812c23          	sw	s0,88(sp)
   10778:	04912a23          	sw	s1,84(sp)
   1077c:	05212823          	sw	s2,80(sp)
   10780:	05612023          	sw	s6,64(sp)
   10784:	04112e23          	sw	ra,92(sp)
   10788:	05412423          	sw	s4,72(sp)
   1078c:	05512223          	sw	s5,68(sp)
   10790:	03712e23          	sw	s7,60(sp)
   10794:	03812c23          	sw	s8,56(sp)
   10798:	03912a23          	sw	s9,52(sp)
   1079c:	03a12823          	sw	s10,48(sp)
   107a0:	03b12623          	sw	s11,44(sp)
   107a4:	00812e27          	fsw	fs0,28(sp)
   107a8:	00912c27          	fsw	fs1,24(sp)
   107ac:	01212a27          	fsw	fs2,20(sp)
   107b0:	01312827          	fsw	fs3,16(sp)
   107b4:	01412627          	fsw	fs4,12(sp)
   107b8:	01512427          	fsw	fs5,8(sp)
   107bc:	01612227          	fsw	fs6,4(sp)
   107c0:	00050913          	mv	s2,a0
   107c4:	00250413          	addi	s0,a0,2
   107c8:	00050b13          	mv	s6,a0
   107cc:	013509b3          	add	s3,a0,s3
   107d0:	01800493          	li	s1,24
   107d4:	00c0006f          	j	107e0 <_Z13drawparticlesPs+0x7c>
   107d8:	00840413          	addi	s0,s0,8
   107dc:	02898e63          	beq	s3,s0,10818 <_Z13drawparticlesPs+0xb4>
   107e0:	00045783          	lhu	a5,0(s0)
   107e4:	00245683          	lhu	a3,2(s0)
   107e8:	00441703          	lh	a4,4(s0)
   107ec:	00d787b3          	add	a5,a5,a3
   107f0:	01079793          	slli	a5,a5,0x10
   107f4:	4107d793          	srai	a5,a5,0x10
   107f8:	00f41023          	sh	a5,0(s0)
   107fc:	fcf75ee3          	bge	a4,a5,107d8 <_Z13drawparticlesPs+0x74>
   10800:	368000ef          	jal	ra,10b68 <_Z6Randomv>
   10804:	029577b3          	remu	a5,a0,s1
   10808:	00840413          	addi	s0,s0,8
   1080c:	fe878793          	addi	a5,a5,-24
   10810:	fef41c23          	sh	a5,-8(s0)
   10814:	fc8996e3          	bne	s3,s0,107e0 <_Z13drawparticlesPs+0x7c>
   10818:	d0418413          	addi	s0,gp,-764 # 16894 <_ZZ13drawparticlesPsE12spawnerindex>
   1081c:	00042783          	lw	a5,0(s0)
   10820:	fe000693          	li	a3,-32
   10824:	00178793          	addi	a5,a5,1
   10828:	41f7d713          	srai	a4,a5,0x1f
   1082c:	01675713          	srli	a4,a4,0x16
   10830:	00e787b3          	add	a5,a5,a4
   10834:	3ff7f793          	andi	a5,a5,1023
   10838:	40e787b3          	sub	a5,a5,a4
   1083c:	00379713          	slli	a4,a5,0x3
   10840:	00e90733          	add	a4,s2,a4
   10844:	00271703          	lh	a4,2(a4)
   10848:	00f42023          	sw	a5,0(s0)
   1084c:	2cd74063          	blt	a4,a3,10b0c <_Z13drawparticlesPs+0x3a8>
   10850:	d0818993          	addi	s3,gp,-760 # 16898 <_ZZ13drawparticlesPsE5proll>
   10854:	0009a407          	flw	fs0,0(s3)
   10858:	00010d37          	lui	s10,0x10
   1085c:	00001db7          	lui	s11,0x1
   10860:	20840553          	fmv.s	fa0,fs0
   10864:	00000a13          	li	s4,0
   10868:	fff00913          	li	s2,-1
   1086c:	588010ef          	jal	ra,11df4 <cosf>
   10870:	20a507d3          	fmv.s	fa5,fa0
   10874:	00003797          	auipc	a5,0x3
   10878:	f487a907          	flw	fs2,-184(a5) # 137bc <_exit+0x5c>
   1087c:	20840553          	fmv.s	fa0,fs0
   10880:	1127f7d3          	fmul.s	fa5,fa5,fs2
   10884:	001fe4b7          	lui	s1,0x1fe
   10888:	40000413          	li	s0,1024
   1088c:	fffd0d13          	addi	s10,s10,-1 # ffff <main-0x75>
   10890:	d15d8d93          	addi	s11,s11,-747 # d15 <main-0xf35f>
   10894:	c0079cd3          	fcvt.w.s	s9,fa5,rtz
   10898:	5fc010ef          	jal	ra,11e94 <sinf>
   1089c:	00003797          	auipc	a5,0x3
   108a0:	f147aa87          	flw	fs5,-236(a5) # 137b0 <_exit+0x50>
   108a4:	015474d3          	fadd.s	fs1,fs0,fs5
   108a8:	112577d3          	fmul.s	fa5,fa0,fs2
   108ac:	010c9c93          	slli	s9,s9,0x10
   108b0:	410cdc93          	srai	s9,s9,0x10
   108b4:	20948553          	fmv.s	fa0,fs1
   108b8:	c0079c53          	fcvt.w.s	s8,fa5,rtz
   108bc:	538010ef          	jal	ra,11df4 <cosf>
   108c0:	20a507d3          	fmv.s	fa5,fa0
   108c4:	20948553          	fmv.s	fa0,fs1
   108c8:	010c1c13          	slli	s8,s8,0x10
   108cc:	1127f7d3          	fmul.s	fa5,fa5,fs2
   108d0:	410c5c13          	srai	s8,s8,0x10
   108d4:	c0079bd3          	fcvt.w.s	s7,fa5,rtz
   108d8:	5bc010ef          	jal	ra,11e94 <sinf>
   108dc:	11257553          	fmul.s	fa0,fa0,fs2
   108e0:	00006797          	auipc	a5,0x6
   108e4:	ef47a783          	lw	a5,-268(a5) # 167d4 <_GLOBAL_OFFSET_TABLE_+0x4>
   108e8:	010b9b93          	slli	s7,s7,0x10
   108ec:	0007aa83          	lw	s5,0(a5)
   108f0:	410bdb93          	srai	s7,s7,0x10
   108f4:	c00516d3          	fcvt.w.s	a3,fa0,rtz
   108f8:	00003797          	auipc	a5,0x3
   108fc:	ec87ab07          	flw	fs6,-312(a5) # 137c0 <_exit+0x60>
   10900:	00003797          	auipc	a5,0x3
   10904:	ec47aa07          	flw	fs4,-316(a5) # 137c4 <_exit+0x64>
   10908:	01069693          	slli	a3,a3,0x10
   1090c:	4106d693          	srai	a3,a3,0x10
   10910:	03fa7793          	andi	a5,s4,63
   10914:	015479d3          	fadd.s	fs3,fs0,fs5
   10918:	096474d3          	fsub.s	fs1,fs0,fs6
   1091c:	20840553          	fmv.s	fa0,fs0
   10920:	06079c63          	bnez	a5,10998 <_Z13drawparticlesPs+0x234>
   10924:	4d0010ef          	jal	ra,11df4 <cosf>
   10928:	20a507d3          	fmv.s	fa5,fa0
   1092c:	20840553          	fmv.s	fa0,fs0
   10930:	1127f7d3          	fmul.s	fa5,fa5,fs2
   10934:	c0079cd3          	fcvt.w.s	s9,fa5,rtz
   10938:	55c010ef          	jal	ra,11e94 <sinf>
   1093c:	20a507d3          	fmv.s	fa5,fa0
   10940:	21398553          	fmv.s	fa0,fs3
   10944:	010c9c93          	slli	s9,s9,0x10
   10948:	1127f7d3          	fmul.s	fa5,fa5,fs2
   1094c:	410cdc93          	srai	s9,s9,0x10
   10950:	c0079c53          	fcvt.w.s	s8,fa5,rtz
   10954:	4a0010ef          	jal	ra,11df4 <cosf>
   10958:	20a507d3          	fmv.s	fa5,fa0
   1095c:	21398553          	fmv.s	fa0,fs3
   10960:	010c1c13          	slli	s8,s8,0x10
   10964:	1127f7d3          	fmul.s	fa5,fa5,fs2
   10968:	410c5c13          	srai	s8,s8,0x10
   1096c:	c0079bd3          	fcvt.w.s	s7,fa5,rtz
   10970:	524010ef          	jal	ra,11e94 <sinf>
   10974:	11257553          	fmul.s	fa0,fa0,fs2
   10978:	094477d3          	fsub.s	fa5,fs0,fs4
   1097c:	20948453          	fmv.s	fs0,fs1
   10980:	010b9b93          	slli	s7,s7,0x10
   10984:	410bdb93          	srai	s7,s7,0x10
   10988:	c00516d3          	fcvt.w.s	a3,fa0,rtz
   1098c:	20f784d3          	fmv.s	fs1,fa5
   10990:	01069693          	slli	a3,a3,0x10
   10994:	4106d693          	srai	a3,a3,0x10
   10998:	002b1e83          	lh	t4,2(s6)
   1099c:	010c1513          	slli	a0,s8,0x10
   109a0:	01069313          	slli	t1,a3,0x10
   109a4:	01055513          	srli	a0,a0,0x10
   109a8:	01035313          	srli	t1,t1,0x10
   109ac:	00650733          	add	a4,a0,t1
   109b0:	010c9793          	slli	a5,s9,0x10
   109b4:	010b9e13          	slli	t3,s7,0x10
   109b8:	010e9813          	slli	a6,t4,0x10
   109bc:	01085813          	srli	a6,a6,0x10
   109c0:	0107d793          	srli	a5,a5,0x10
   109c4:	010e5e13          	srli	t3,t3,0x10
   109c8:	01071713          	slli	a4,a4,0x10
   109cc:	01075713          	srli	a4,a4,0x10
   109d0:	00da1593          	slli	a1,s4,0xd
   109d4:	01050533          	add	a0,a0,a6
   109d8:	01c78633          	add	a2,a5,t3
   109dc:	40e808b3          	sub	a7,a6,a4
   109e0:	01061613          	slli	a2,a2,0x10
   109e4:	0095f5b3          	and	a1,a1,s1
   109e8:	40650333          	sub	t1,a0,t1
   109ec:	00e80733          	add	a4,a6,a4
   109f0:	01065613          	srli	a2,a2,0x10
   109f4:	01089893          	slli	a7,a7,0x10
   109f8:	01031313          	slli	t1,t1,0x10
   109fc:	01071813          	slli	a6,a4,0x10
   10a00:	001a0a13          	addi	s4,s4,1
   10a04:	01b5e5b3          	or	a1,a1,s11
   10a08:	0b2e8063          	beq	t4,s2,10aa8 <_Z13drawparticlesPs+0x344>
   10a0c:	000b5503          	lhu	a0,0(s6)
   10a10:	40c50733          	sub	a4,a0,a2
   10a14:	00a787b3          	add	a5,a5,a0
   10a18:	01071713          	slli	a4,a4,0x10
   10a1c:	41075713          	srai	a4,a4,0x10
   10a20:	41c787b3          	sub	a5,a5,t3
   10a24:	01a77733          	and	a4,a4,s10
   10a28:	01079793          	slli	a5,a5,0x10
   10a2c:	00e8e733          	or	a4,a7,a4
   10a30:	00c50633          	add	a2,a0,a2
   10a34:	4107d793          	srai	a5,a5,0x10
   10a38:	00a71893          	slli	a7,a4,0xa
   10a3c:	01675513          	srli	a0,a4,0x16
   10a40:	01a7f7b3          	and	a5,a5,s10
   10a44:	01061613          	slli	a2,a2,0x10
   10a48:	0818e713          	ori	a4,a7,129
   10a4c:	00f367b3          	or	a5,t1,a5
   10a50:	41065613          	srai	a2,a2,0x10
   10a54:	00a51513          	slli	a0,a0,0xa
   10a58:	00eaa023          	sw	a4,0(s5)
   10a5c:	01a67633          	and	a2,a2,s10
   10a60:	00a79893          	slli	a7,a5,0xa
   10a64:	09156513          	ori	a0,a0,145
   10a68:	0167d793          	srli	a5,a5,0x16
   10a6c:	00aaa023          	sw	a0,0(s5)
   10a70:	00c86733          	or	a4,a6,a2
   10a74:	00a79793          	slli	a5,a5,0xa
   10a78:	1018e613          	ori	a2,a7,257
   10a7c:	00caa023          	sw	a2,0(s5)
   10a80:	1217e793          	ori	a5,a5,289
   10a84:	00a71613          	slli	a2,a4,0xa
   10a88:	01675713          	srli	a4,a4,0x16
   10a8c:	00faa023          	sw	a5,0(s5)
   10a90:	00a71713          	slli	a4,a4,0xa
   10a94:	18166793          	ori	a5,a2,385
   10a98:	00faa023          	sw	a5,0(s5)
   10a9c:	1b176713          	ori	a4,a4,433
   10aa0:	00eaa023          	sw	a4,0(s5)
   10aa4:	00baa023          	sw	a1,0(s5)
   10aa8:	008b0b13          	addi	s6,s6,8
   10aac:	e68a12e3          	bne	s4,s0,10910 <_Z13drawparticlesPs+0x1ac>
   10ab0:	05c12083          	lw	ra,92(sp)
   10ab4:	05812403          	lw	s0,88(sp)
   10ab8:	0099a027          	fsw	fs1,0(s3)
   10abc:	05412483          	lw	s1,84(sp)
   10ac0:	05012903          	lw	s2,80(sp)
   10ac4:	04c12983          	lw	s3,76(sp)
   10ac8:	04812a03          	lw	s4,72(sp)
   10acc:	04412a83          	lw	s5,68(sp)
   10ad0:	04012b03          	lw	s6,64(sp)
   10ad4:	03c12b83          	lw	s7,60(sp)
   10ad8:	03812c03          	lw	s8,56(sp)
   10adc:	03412c83          	lw	s9,52(sp)
   10ae0:	03012d03          	lw	s10,48(sp)
   10ae4:	02c12d83          	lw	s11,44(sp)
   10ae8:	01c12407          	flw	fs0,28(sp)
   10aec:	01812487          	flw	fs1,24(sp)
   10af0:	01412907          	flw	fs2,20(sp)
   10af4:	01012987          	flw	fs3,16(sp)
   10af8:	00c12a07          	flw	fs4,12(sp)
   10afc:	00812a87          	flw	fs5,8(sp)
   10b00:	00412b07          	flw	fs6,4(sp)
   10b04:	06010113          	addi	sp,sp,96
   10b08:	00008067          	ret
   10b0c:	05c000ef          	jal	ra,10b68 <_Z6Randomv>
   10b10:	14000713          	li	a4,320
   10b14:	02e57733          	remu	a4,a0,a4
   10b18:	00042783          	lw	a5,0(s0)
   10b1c:	00379793          	slli	a5,a5,0x3
   10b20:	00f907b3          	add	a5,s2,a5
   10b24:	00e79023          	sh	a4,0(a5)
   10b28:	040000ef          	jal	ra,10b68 <_Z6Randomv>
   10b2c:	00700713          	li	a4,7
   10b30:	02e57733          	remu	a4,a0,a4
   10b34:	00042783          	lw	a5,0(s0)
   10b38:	00379793          	slli	a5,a5,0x3
   10b3c:	00f907b3          	add	a5,s2,a5
   10b40:	00370713          	addi	a4,a4,3
   10b44:	00e79223          	sh	a4,4(a5)
   10b48:	020000ef          	jal	ra,10b68 <_Z6Randomv>
   10b4c:	00042703          	lw	a4,0(s0)
   10b50:	01f57793          	andi	a5,a0,31
   10b54:	0c078793          	addi	a5,a5,192
   10b58:	00371713          	slli	a4,a4,0x3
   10b5c:	00e90933          	add	s2,s2,a4
   10b60:	00f91323          	sh	a5,6(s2)
   10b64:	cedff06f          	j	10850 <_Z13drawparticlesPs+0xec>

00010b68 <_Z6Randomv>:
   10b68:	00006717          	auipc	a4,0x6
   10b6c:	c7c72703          	lw	a4,-900(a4) # 167e4 <_GLOBAL_OFFSET_TABLE_+0x14>
   10b70:	00072503          	lw	a0,0(a4)
   10b74:	00951793          	slli	a5,a0,0x9
   10b78:	00a7c7b3          	xor	a5,a5,a0
   10b7c:	00d7d513          	srli	a0,a5,0xd
   10b80:	00f547b3          	xor	a5,a0,a5
   10b84:	00179513          	slli	a0,a5,0x1
   10b88:	00f54533          	xor	a0,a0,a5
   10b8c:	00a72023          	sw	a0,0(a4)
   10b90:	00008067          	ret

00010b94 <_Z9ReadClockv>:
   10b94:	c81025f3          	rdtimeh	a1
   10b98:	c0102573          	rdtime	a0
   10b9c:	c81027f3          	rdtimeh	a5
   10ba0:	fef59ae3          	bne	a1,a5,10b94 <_Z9ReadClockv>
   10ba4:	00008067          	ret

00010ba8 <_Z9ClockToMsy>:
   10ba8:	00002637          	lui	a2,0x2
   10bac:	ff010113          	addi	sp,sp,-16
   10bb0:	71060613          	addi	a2,a2,1808 # 2710 <main-0xd964>
   10bb4:	00000693          	li	a3,0
   10bb8:	00112623          	sw	ra,12(sp)
   10bbc:	270020ef          	jal	ra,12e2c <__udivdi3>
   10bc0:	00c12083          	lw	ra,12(sp)
   10bc4:	01010113          	addi	sp,sp,16
   10bc8:	00008067          	ret

00010bcc <_Z12ClockMsToHMSmRmS_S_>:
   10bcc:	000587b7          	lui	a5,0x58
   10bd0:	e4078793          	addi	a5,a5,-448 # 57e40 <__BSS_END__+0x41298>
   10bd4:	02f577b3          	remu	a5,a0,a5
   10bd8:	0036f837          	lui	a6,0x36f
   10bdc:	e8080813          	addi	a6,a6,-384 # 36ee80 <__BSS_END__+0x3582d8>
   10be0:	0000f737          	lui	a4,0xf
   10be4:	a6070713          	addi	a4,a4,-1440 # ea60 <main-0x1614>
   10be8:	030578b3          	remu	a7,a0,a6
   10bec:	03055533          	divu	a0,a0,a6
   10bf0:	02e7f7b3          	remu	a5,a5,a4
   10bf4:	00a5a023          	sw	a0,0(a1)
   10bf8:	3e800593          	li	a1,1000
   10bfc:	02e8d733          	divu	a4,a7,a4
   10c00:	02b7d7b3          	divu	a5,a5,a1
   10c04:	00e62023          	sw	a4,0(a2)
   10c08:	00f6a023          	sw	a5,0(a3)
   10c0c:	00008067          	ret

00010c10 <_Z12ClearConsolev>:
   10c10:	30000613          	li	a2,768
   10c14:	02000593          	li	a1,32
   10c18:	d0c18513          	addi	a0,gp,-756 # 1689c <_ZL11consoleText>
   10c1c:	0001a623          	sw	zero,12(gp) # 16b9c <_ZL7cursorx>
   10c20:	0001a823          	sw	zero,16(gp) # 16ba0 <_ZL7cursory>
   10c24:	0390206f          	j	1345c <memset>

00010c28 <_Z15ClearConsoleRowv>:
   10c28:	0101a783          	lw	a5,16(gp) # 16ba0 <_ZL7cursory>
   10c2c:	00579793          	slli	a5,a5,0x5
   10c30:	d0c18513          	addi	a0,gp,-756 # 1689c <_ZL11consoleText>
   10c34:	02000613          	li	a2,32
   10c38:	02000593          	li	a1,32
   10c3c:	00f50533          	add	a0,a0,a5
   10c40:	01d0206f          	j	1345c <memset>

00010c44 <_Z16SetConsoleCursorii>:
   10c44:	fff54793          	not	a5,a0
   10c48:	41f7d793          	srai	a5,a5,0x1f
   10c4c:	00f57533          	and	a0,a0,a5
   10c50:	01f00793          	li	a5,31
   10c54:	00a7d463          	bge	a5,a0,10c5c <_Z16SetConsoleCursorii+0x18>
   10c58:	01f00513          	li	a0,31
   10c5c:	fff5c793          	not	a5,a1
   10c60:	41f7d793          	srai	a5,a5,0x1f
   10c64:	00f5f5b3          	and	a1,a1,a5
   10c68:	00a1a623          	sw	a0,12(gp) # 16b9c <_ZL7cursorx>
   10c6c:	01700793          	li	a5,23
   10c70:	00b7d463          	bge	a5,a1,10c78 <_Z16SetConsoleCursorii+0x34>
   10c74:	01700593          	li	a1,23
   10c78:	00b1a823          	sw	a1,16(gp) # 16ba0 <_ZL7cursory>
   10c7c:	00008067          	ret

00010c80 <_Z13ScrollConsolev>:
   10c80:	ff010113          	addi	sp,sp,-16
   10c84:	00112623          	sw	ra,12(sp)
   10c88:	d0c18793          	addi	a5,gp,-756 # 1689c <_ZL11consoleText>
   10c8c:	fec18e13          	addi	t3,gp,-20 # 16b7c <_ZL11consoleText+0x2e0>
   10c90:	0207a303          	lw	t1,32(a5)
   10c94:	0247a883          	lw	a7,36(a5)
   10c98:	0287a803          	lw	a6,40(a5)
   10c9c:	02c7a503          	lw	a0,44(a5)
   10ca0:	0307a583          	lw	a1,48(a5)
   10ca4:	0347a603          	lw	a2,52(a5)
   10ca8:	0387a683          	lw	a3,56(a5)
   10cac:	03c7a703          	lw	a4,60(a5)
   10cb0:	0067a023          	sw	t1,0(a5)
   10cb4:	0117a223          	sw	a7,4(a5)
   10cb8:	0107a423          	sw	a6,8(a5)
   10cbc:	00a7a623          	sw	a0,12(a5)
   10cc0:	00b7a823          	sw	a1,16(a5)
   10cc4:	00c7aa23          	sw	a2,20(a5)
   10cc8:	00d7ac23          	sw	a3,24(a5)
   10ccc:	00e7ae23          	sw	a4,28(a5)
   10cd0:	02078793          	addi	a5,a5,32
   10cd4:	fafe1ee3          	bne	t3,a5,10c90 <_Z13ScrollConsolev+0x10>
   10cd8:	01700593          	li	a1,23
   10cdc:	00c1a503          	lw	a0,12(gp) # 16b9c <_ZL7cursorx>
   10ce0:	f65ff0ef          	jal	ra,10c44 <_Z16SetConsoleCursorii>
   10ce4:	00c12083          	lw	ra,12(sp)
   10ce8:	01010113          	addi	sp,sp,16
   10cec:	f3dff06f          	j	10c28 <_Z15ClearConsoleRowv>

00010cf0 <_Z11EchoConsolePKc>:
   10cf0:	00054703          	lbu	a4,0(a0)
   10cf4:	0e070a63          	beqz	a4,10de8 <_Z11EchoConsolePKc+0xf8>
   10cf8:	fd010113          	addi	sp,sp,-48
   10cfc:	02812423          	sw	s0,40(sp)
   10d00:	02912223          	sw	s1,36(sp)
   10d04:	03212023          	sw	s2,32(sp)
   10d08:	01312e23          	sw	s3,28(sp)
   10d0c:	01412c23          	sw	s4,24(sp)
   10d10:	01512a23          	sw	s5,20(sp)
   10d14:	01612823          	sw	s6,16(sp)
   10d18:	01712623          	sw	s7,12(sp)
   10d1c:	02112623          	sw	ra,44(sp)
   10d20:	00050413          	mv	s0,a0
   10d24:	01018493          	addi	s1,gp,16 # 16ba0 <_ZL7cursory>
   10d28:	00d00a13          	li	s4,13
   10d2c:	00c18993          	addi	s3,gp,12 # 16b9c <_ZL7cursorx>
   10d30:	00a00b93          	li	s7,10
   10d34:	01f00b13          	li	s6,31
   10d38:	d0c18a93          	addi	s5,gp,-756 # 1689c <_ZL11consoleText>
   10d3c:	01700913          	li	s2,23
   10d40:	0004a783          	lw	a5,0(s1) # 1fe000 <__BSS_END__+0x1e7458>
   10d44:	09470863          	beq	a4,s4,10dd4 <_Z11EchoConsolePKc+0xe4>
   10d48:	0009a683          	lw	a3,0(s3)
   10d4c:	09770863          	beq	a4,s7,10ddc <_Z11EchoConsolePKc+0xec>
   10d50:	00579613          	slli	a2,a5,0x5
   10d54:	00ca8633          	add	a2,s5,a2
   10d58:	00d60633          	add	a2,a2,a3
   10d5c:	00168693          	addi	a3,a3,1
   10d60:	00e60023          	sb	a4,0(a2)
   10d64:	00d9a023          	sw	a3,0(s3)
   10d68:	00db5863          	bge	s6,a3,10d78 <_Z11EchoConsolePKc+0x88>
   10d6c:	00178793          	addi	a5,a5,1
   10d70:	0001a623          	sw	zero,12(gp) # 16b9c <_ZL7cursorx>
   10d74:	00f4a023          	sw	a5,0(s1)
   10d78:	02f94e63          	blt	s2,a5,10db4 <_Z11EchoConsolePKc+0xc4>
   10d7c:	00144703          	lbu	a4,1(s0)
   10d80:	00140413          	addi	s0,s0,1
   10d84:	fa071ee3          	bnez	a4,10d40 <_Z11EchoConsolePKc+0x50>
   10d88:	02c12083          	lw	ra,44(sp)
   10d8c:	02812403          	lw	s0,40(sp)
   10d90:	02412483          	lw	s1,36(sp)
   10d94:	02012903          	lw	s2,32(sp)
   10d98:	01c12983          	lw	s3,28(sp)
   10d9c:	01812a03          	lw	s4,24(sp)
   10da0:	01412a83          	lw	s5,20(sp)
   10da4:	01012b03          	lw	s6,16(sp)
   10da8:	00c12b83          	lw	s7,12(sp)
   10dac:	03010113          	addi	sp,sp,48
   10db0:	00008067          	ret
   10db4:	00140413          	addi	s0,s0,1
   10db8:	0124a023          	sw	s2,0(s1)
   10dbc:	0001a623          	sw	zero,12(gp) # 16b9c <_ZL7cursorx>
   10dc0:	ec1ff0ef          	jal	ra,10c80 <_Z13ScrollConsolev>
   10dc4:	00044703          	lbu	a4,0(s0)
   10dc8:	fc0700e3          	beqz	a4,10d88 <_Z11EchoConsolePKc+0x98>
   10dcc:	0004a783          	lw	a5,0(s1)
   10dd0:	f7471ce3          	bne	a4,s4,10d48 <_Z11EchoConsolePKc+0x58>
   10dd4:	0001a623          	sw	zero,12(gp) # 16b9c <_ZL7cursorx>
   10dd8:	fa1ff06f          	j	10d78 <_Z11EchoConsolePKc+0x88>
   10ddc:	00178793          	addi	a5,a5,1
   10de0:	00f4a023          	sw	a5,0(s1)
   10de4:	f85ff06f          	j	10d68 <_Z11EchoConsolePKc+0x78>
   10de8:	00008067          	ret

00010dec <_Z11EchoConsolel>:
   10dec:	00003797          	auipc	a5,0x3
   10df0:	9f878793          	addi	a5,a5,-1544 # 137e4 <_exit+0x84>
   10df4:	00003717          	auipc	a4,0x3
   10df8:	a0470713          	addi	a4,a4,-1532 # 137f8 <_exit+0x98>
   10dfc:	0047a603          	lw	a2,4(a5)
   10e00:	00072e03          	lw	t3,0(a4)
   10e04:	00472303          	lw	t1,4(a4)
   10e08:	00875883          	lhu	a7,8(a4)
   10e0c:	00a74803          	lbu	a6,10(a4)
   10e10:	0007a583          	lw	a1,0(a5)
   10e14:	0087a683          	lw	a3,8(a5)
   10e18:	00c7a703          	lw	a4,12(a5)
   10e1c:	0107a783          	lw	a5,16(a5)
   10e20:	fd010113          	addi	sp,sp,-48
   10e24:	00c12823          	sw	a2,16(sp)
   10e28:	00f12e23          	sw	a5,28(sp)
   10e2c:	02112623          	sw	ra,44(sp)
   10e30:	01c12023          	sw	t3,0(sp)
   10e34:	00612223          	sw	t1,4(sp)
   10e38:	01111423          	sh	a7,8(sp)
   10e3c:	01010523          	sb	a6,10(sp)
   10e40:	00b12623          	sw	a1,12(sp)
   10e44:	00d12a23          	sw	a3,20(sp)
   10e48:	00e12c23          	sw	a4,24(sp)
   10e4c:	02d00613          	li	a2,45
   10e50:	00100793          	li	a5,1
   10e54:	00054663          	bltz	a0,10e60 <_Z11EchoConsolel+0x74>
   10e58:	02000613          	li	a2,32
   10e5c:	00000793          	li	a5,0
   10e60:	3b9ad737          	lui	a4,0x3b9ad
   10e64:	a0070693          	addi	a3,a4,-1536 # 3b9aca00 <__BSS_END__+0x3b995e58>
   10e68:	02d546b3          	div	a3,a0,a3
   10e6c:	9ff70713          	addi	a4,a4,-1537
   10e70:	00c10623          	sb	a2,12(sp)
   10e74:	77359637          	lui	a2,0x77359
   10e78:	00e50733          	add	a4,a0,a4
   10e7c:	3fe60613          	addi	a2,a2,1022 # 773593fe <__BSS_END__+0x77342856>
   10e80:	41f6d593          	srai	a1,a3,0x1f
   10e84:	00d5c6b3          	xor	a3,a1,a3
   10e88:	40b686b3          	sub	a3,a3,a1
   10e8c:	12e66c63          	bltu	a2,a4,10fc4 <_Z11EchoConsolel+0x1d8>
   10e90:	05f5e737          	lui	a4,0x5f5e
   10e94:	10070713          	addi	a4,a4,256 # 5f5e100 <__BSS_END__+0x5f47558>
   10e98:	02e54733          	div	a4,a0,a4
   10e9c:	00a00613          	li	a2,10
   10ea0:	41f75593          	srai	a1,a4,0x1f
   10ea4:	00e5c6b3          	xor	a3,a1,a4
   10ea8:	40b686b3          	sub	a3,a3,a1
   10eac:	02c6e6b3          	rem	a3,a3,a2
   10eb0:	14069863          	bnez	a3,11000 <_Z11EchoConsolel+0x214>
   10eb4:	00989737          	lui	a4,0x989
   10eb8:	68070713          	addi	a4,a4,1664 # 989680 <__BSS_END__+0x972ad8>
   10ebc:	02e54733          	div	a4,a0,a4
   10ec0:	41f75593          	srai	a1,a4,0x1f
   10ec4:	00e5c6b3          	xor	a3,a1,a4
   10ec8:	40b686b3          	sub	a3,a3,a1
   10ecc:	02c6e6b3          	rem	a3,a3,a2
   10ed0:	16069663          	bnez	a3,1103c <_Z11EchoConsolel+0x250>
   10ed4:	000f4737          	lui	a4,0xf4
   10ed8:	24070713          	addi	a4,a4,576 # f4240 <__BSS_END__+0xdd698>
   10edc:	02e54733          	div	a4,a0,a4
   10ee0:	41f75593          	srai	a1,a4,0x1f
   10ee4:	00e5c6b3          	xor	a3,a1,a4
   10ee8:	40b686b3          	sub	a3,a3,a1
   10eec:	02c6e6b3          	rem	a3,a3,a2
   10ef0:	18069463          	bnez	a3,11078 <_Z11EchoConsolel+0x28c>
   10ef4:	00018737          	lui	a4,0x18
   10ef8:	6a070713          	addi	a4,a4,1696 # 186a0 <__BSS_END__+0x1af8>
   10efc:	02e54733          	div	a4,a0,a4
   10f00:	41f75593          	srai	a1,a4,0x1f
   10f04:	00e5c6b3          	xor	a3,a1,a4
   10f08:	40b686b3          	sub	a3,a3,a1
   10f0c:	02c6e6b3          	rem	a3,a3,a2
   10f10:	1a069263          	bnez	a3,110b4 <_Z11EchoConsolel+0x2c8>
   10f14:	00002737          	lui	a4,0x2
   10f18:	71070713          	addi	a4,a4,1808 # 2710 <main-0xd964>
   10f1c:	02e54733          	div	a4,a0,a4
   10f20:	41f75693          	srai	a3,a4,0x1f
   10f24:	00e6c733          	xor	a4,a3,a4
   10f28:	40d70733          	sub	a4,a4,a3
   10f2c:	02c76733          	rem	a4,a4,a2
   10f30:	1c071063          	bnez	a4,110f0 <_Z11EchoConsolel+0x304>
   10f34:	3e800713          	li	a4,1000
   10f38:	02e54733          	div	a4,a0,a4
   10f3c:	41f75593          	srai	a1,a4,0x1f
   10f40:	00e5c6b3          	xor	a3,a1,a4
   10f44:	40b686b3          	sub	a3,a3,a1
   10f48:	02c6e6b3          	rem	a3,a3,a2
   10f4c:	1c069e63          	bnez	a3,11128 <_Z11EchoConsolel+0x33c>
   10f50:	06400713          	li	a4,100
   10f54:	02e54733          	div	a4,a0,a4
   10f58:	41f75693          	srai	a3,a4,0x1f
   10f5c:	00e6c733          	xor	a4,a3,a4
   10f60:	40d70733          	sub	a4,a4,a3
   10f64:	02c76733          	rem	a4,a4,a2
   10f68:	1e071c63          	bnez	a4,11160 <_Z11EchoConsolel+0x374>
   10f6c:	02c54733          	div	a4,a0,a2
   10f70:	41f75693          	srai	a3,a4,0x1f
   10f74:	00e6c733          	xor	a4,a3,a4
   10f78:	40d70733          	sub	a4,a4,a3
   10f7c:	02c76633          	rem	a2,a4,a2
   10f80:	20061a63          	bnez	a2,11194 <_Z11EchoConsolel+0x3a8>
   10f84:	41f55693          	srai	a3,a0,0x1f
   10f88:	00a6c733          	xor	a4,a3,a0
   10f8c:	40d70733          	sub	a4,a4,a3
   10f90:	00a00513          	li	a0,10
   10f94:	02a76733          	rem	a4,a4,a0
   10f98:	02010693          	addi	a3,sp,32
   10f9c:	00f687b3          	add	a5,a3,a5
   10fa0:	00c10513          	addi	a0,sp,12
   10fa4:	fe0786a3          	sb	zero,-19(a5)
   10fa8:	00e68733          	add	a4,a3,a4
   10fac:	fe074703          	lbu	a4,-32(a4)
   10fb0:	fee78623          	sb	a4,-20(a5)
   10fb4:	d3dff0ef          	jal	ra,10cf0 <_Z11EchoConsolePKc>
   10fb8:	02c12083          	lw	ra,44(sp)
   10fbc:	03010113          	addi	sp,sp,48
   10fc0:	00008067          	ret
   10fc4:	05f5e737          	lui	a4,0x5f5e
   10fc8:	10070713          	addi	a4,a4,256 # 5f5e100 <__BSS_END__+0x5f47558>
   10fcc:	02e54733          	div	a4,a0,a4
   10fd0:	02010613          	addi	a2,sp,32
   10fd4:	00d606b3          	add	a3,a2,a3
   10fd8:	fe06c603          	lbu	a2,-32(a3)
   10fdc:	02010693          	addi	a3,sp,32
   10fe0:	00f686b3          	add	a3,a3,a5
   10fe4:	fec68623          	sb	a2,-20(a3)
   10fe8:	00178793          	addi	a5,a5,1
   10fec:	41f75613          	srai	a2,a4,0x1f
   10ff0:	00e646b3          	xor	a3,a2,a4
   10ff4:	40c686b3          	sub	a3,a3,a2
   10ff8:	00a00713          	li	a4,10
   10ffc:	02e6e6b3          	rem	a3,a3,a4
   11000:	00989737          	lui	a4,0x989
   11004:	68070713          	addi	a4,a4,1664 # 989680 <__BSS_END__+0x972ad8>
   11008:	02010613          	addi	a2,sp,32
   1100c:	00d606b3          	add	a3,a2,a3
   11010:	fe06c603          	lbu	a2,-32(a3)
   11014:	02010693          	addi	a3,sp,32
   11018:	00f686b3          	add	a3,a3,a5
   1101c:	fec68623          	sb	a2,-20(a3)
   11020:	00178793          	addi	a5,a5,1
   11024:	02e54733          	div	a4,a0,a4
   11028:	41f75613          	srai	a2,a4,0x1f
   1102c:	00e646b3          	xor	a3,a2,a4
   11030:	40c686b3          	sub	a3,a3,a2
   11034:	00a00713          	li	a4,10
   11038:	02e6e6b3          	rem	a3,a3,a4
   1103c:	000f4737          	lui	a4,0xf4
   11040:	24070713          	addi	a4,a4,576 # f4240 <__BSS_END__+0xdd698>
   11044:	02010613          	addi	a2,sp,32
   11048:	00d606b3          	add	a3,a2,a3
   1104c:	fe06c603          	lbu	a2,-32(a3)
   11050:	02010693          	addi	a3,sp,32
   11054:	00f686b3          	add	a3,a3,a5
   11058:	fec68623          	sb	a2,-20(a3)
   1105c:	00178793          	addi	a5,a5,1
   11060:	02e54733          	div	a4,a0,a4
   11064:	41f75613          	srai	a2,a4,0x1f
   11068:	00e646b3          	xor	a3,a2,a4
   1106c:	40c686b3          	sub	a3,a3,a2
   11070:	00a00713          	li	a4,10
   11074:	02e6e6b3          	rem	a3,a3,a4
   11078:	00018737          	lui	a4,0x18
   1107c:	6a070713          	addi	a4,a4,1696 # 186a0 <__BSS_END__+0x1af8>
   11080:	02010613          	addi	a2,sp,32
   11084:	00d606b3          	add	a3,a2,a3
   11088:	fe06c603          	lbu	a2,-32(a3)
   1108c:	02010693          	addi	a3,sp,32
   11090:	00f686b3          	add	a3,a3,a5
   11094:	fec68623          	sb	a2,-20(a3)
   11098:	00178793          	addi	a5,a5,1
   1109c:	02e54733          	div	a4,a0,a4
   110a0:	41f75613          	srai	a2,a4,0x1f
   110a4:	00e646b3          	xor	a3,a2,a4
   110a8:	40c686b3          	sub	a3,a3,a2
   110ac:	00a00713          	li	a4,10
   110b0:	02e6e6b3          	rem	a3,a3,a4
   110b4:	00002737          	lui	a4,0x2
   110b8:	71070713          	addi	a4,a4,1808 # 2710 <main-0xd964>
   110bc:	02010613          	addi	a2,sp,32
   110c0:	00d606b3          	add	a3,a2,a3
   110c4:	fe06c603          	lbu	a2,-32(a3)
   110c8:	02010693          	addi	a3,sp,32
   110cc:	00f686b3          	add	a3,a3,a5
   110d0:	fec68623          	sb	a2,-20(a3)
   110d4:	00178793          	addi	a5,a5,1
   110d8:	02e54733          	div	a4,a0,a4
   110dc:	41f75693          	srai	a3,a4,0x1f
   110e0:	00e6c733          	xor	a4,a3,a4
   110e4:	40d70733          	sub	a4,a4,a3
   110e8:	00a00693          	li	a3,10
   110ec:	02d76733          	rem	a4,a4,a3
   110f0:	3e800693          	li	a3,1000
   110f4:	02010613          	addi	a2,sp,32
   110f8:	00e60733          	add	a4,a2,a4
   110fc:	fe074603          	lbu	a2,-32(a4)
   11100:	02010713          	addi	a4,sp,32
   11104:	00f70733          	add	a4,a4,a5
   11108:	fec70623          	sb	a2,-20(a4)
   1110c:	00178793          	addi	a5,a5,1
   11110:	02d546b3          	div	a3,a0,a3
   11114:	41f6d713          	srai	a4,a3,0x1f
   11118:	00d746b3          	xor	a3,a4,a3
   1111c:	40e686b3          	sub	a3,a3,a4
   11120:	00a00713          	li	a4,10
   11124:	02e6e6b3          	rem	a3,a3,a4
   11128:	06400713          	li	a4,100
   1112c:	02010613          	addi	a2,sp,32
   11130:	00d606b3          	add	a3,a2,a3
   11134:	fe06c603          	lbu	a2,-32(a3)
   11138:	02010693          	addi	a3,sp,32
   1113c:	00f686b3          	add	a3,a3,a5
   11140:	fec68623          	sb	a2,-20(a3)
   11144:	00178793          	addi	a5,a5,1
   11148:	02e54733          	div	a4,a0,a4
   1114c:	41f75693          	srai	a3,a4,0x1f
   11150:	00e6c733          	xor	a4,a3,a4
   11154:	40d70733          	sub	a4,a4,a3
   11158:	00a00693          	li	a3,10
   1115c:	02d76733          	rem	a4,a4,a3
   11160:	00a00593          	li	a1,10
   11164:	02010613          	addi	a2,sp,32
   11168:	00e60733          	add	a4,a2,a4
   1116c:	fe074603          	lbu	a2,-32(a4)
   11170:	02010713          	addi	a4,sp,32
   11174:	00f70733          	add	a4,a4,a5
   11178:	fec70623          	sb	a2,-20(a4)
   1117c:	00178793          	addi	a5,a5,1
   11180:	02b546b3          	div	a3,a0,a1
   11184:	41f6d713          	srai	a4,a3,0x1f
   11188:	00d74633          	xor	a2,a4,a3
   1118c:	40e60633          	sub	a2,a2,a4
   11190:	02b66633          	rem	a2,a2,a1
   11194:	02010713          	addi	a4,sp,32
   11198:	00c70633          	add	a2,a4,a2
   1119c:	fe064683          	lbu	a3,-32(a2)
   111a0:	00f70733          	add	a4,a4,a5
   111a4:	00178793          	addi	a5,a5,1
   111a8:	fed70623          	sb	a3,-20(a4)
   111ac:	dd9ff06f          	j	10f84 <_Z11EchoConsolel+0x198>

000111b0 <_Z11DrawConsolev>:
   111b0:	ff010113          	addi	sp,sp,-16
   111b4:	00812423          	sw	s0,8(sp)
   111b8:	00912223          	sw	s1,4(sp)
   111bc:	01212023          	sw	s2,0(sp)
   111c0:	00112623          	sw	ra,12(sp)
   111c4:	d0c18413          	addi	s0,gp,-756 # 1689c <_ZL11consoleText>
   111c8:	00c18913          	addi	s2,gp,12 # 16b9c <_ZL7cursorx>
   111cc:	00000493          	li	s1,0
   111d0:	00040693          	mv	a3,s0
   111d4:	00048593          	mv	a1,s1
   111d8:	00100713          	li	a4,1
   111dc:	02000613          	li	a2,32
   111e0:	00000513          	li	a0,0
   111e4:	02040413          	addi	s0,s0,32
   111e8:	39c000ef          	jal	ra,11584 <_Z8PrintDMAiiiPKcb>
   111ec:	00848493          	addi	s1,s1,8
   111f0:	ff2410e3          	bne	s0,s2,111d0 <_Z11DrawConsolev+0x20>
   111f4:	00c12083          	lw	ra,12(sp)
   111f8:	00812403          	lw	s0,8(sp)
   111fc:	00412483          	lw	s1,4(sp)
   11200:	00012903          	lw	s2,0(sp)
   11204:	01010113          	addi	sp,sp,16
   11208:	00008067          	ret

0001120c <_Z8InitFontv>:
   1120c:	00005797          	auipc	a5,0x5
   11210:	5d07a783          	lw	a5,1488(a5) # 167dc <_GLOBAL_OFFSET_TABLE_+0xc>
   11214:	0007a503          	lw	a0,0(a5)
   11218:	00002637          	lui	a2,0x2
   1121c:	ff010113          	addi	sp,sp,-16
   11220:	80060613          	addi	a2,a2,-2048 # 1800 <main-0xe874>
   11224:	00002597          	auipc	a1,0x2
   11228:	5f458593          	addi	a1,a1,1524 # 13818 <_exit+0xb8>
   1122c:	00112623          	sw	ra,12(sp)
   11230:	104020ef          	jal	ra,13334 <memcpy>
   11234:	00c12083          	lw	ra,12(sp)
   11238:	01010113          	addi	sp,sp,16
   1123c:	00008067          	ret

00011240 <_Z8PrintDMAiiPKcb>:
   11240:	00064703          	lbu	a4,0(a2)
   11244:	32070e63          	beqz	a4,11580 <_Z8PrintDMAiiPKcb+0x340>
   11248:	00005797          	auipc	a5,0x5
   1124c:	5947a783          	lw	a5,1428(a5) # 167dc <_GLOBAL_OFFSET_TABLE_+0xc>
   11250:	0007a303          	lw	t1,0(a5)
   11254:	00005797          	auipc	a5,0x5
   11258:	5807a783          	lw	a5,1408(a5) # 167d4 <_GLOBAL_OFFSET_TABLE_+0x4>
   1125c:	00001fb7          	lui	t6,0x1
   11260:	00d03833          	snez	a6,a3
   11264:	0007a783          	lw	a5,0(a5)
   11268:	ac4f8893          	addi	a7,t6,-1340 # ac4 <main-0xf5b0>
   1126c:	01981813          	slli	a6,a6,0x19
   11270:	00959593          	slli	a1,a1,0x9
   11274:	01186833          	or	a6,a6,a7
   11278:	00a585b3          	add	a1,a1,a0
   1127c:	00160893          	addi	a7,a2,1
   11280:	800f8f13          	addi	t5,t6,-2048
   11284:	a00f8e93          	addi	t4,t6,-1536
   11288:	c00f8e13          	addi	t3,t6,-1024
   1128c:	e00f8513          	addi	a0,t6,-512
   11290:	fe070713          	addi	a4,a4,-32
   11294:	00068463          	beqz	a3,1129c <_Z8PrintDMAiiPKcb+0x5c>
   11298:	2c070c63          	beqz	a4,11570 <_Z8PrintDMAiiPKcb+0x330>
   1129c:	2c074a63          	bltz	a4,11570 <_Z8PrintDMAiiPKcb+0x330>
   112a0:	ff010113          	addi	sp,sp,-16
   112a4:	00812623          	sw	s0,12(sp)
   112a8:	40575393          	srai	t2,a4,0x5
   112ac:	01f77713          	andi	a4,a4,31
   112b0:	00371613          	slli	a2,a4,0x3
   112b4:	00b39f93          	slli	t6,t2,0xb
   112b8:	00cf8fb3          	add	t6,t6,a2
   112bc:	01f30fb3          	add	t6,t1,t6
   112c0:	00af9413          	slli	s0,t6,0xa
   112c4:	016fdf93          	srli	t6,t6,0x16
   112c8:	4025d293          	srai	t0,a1,0x2
   112cc:	20146413          	ori	s0,s0,513
   112d0:	00b39713          	slli	a4,t2,0xb
   112d4:	00af9f93          	slli	t6,t6,0xa
   112d8:	0087a023          	sw	s0,0(a5)
   112dc:	10070713          	addi	a4,a4,256
   112e0:	241fef93          	ori	t6,t6,577
   112e4:	00a29393          	slli	t2,t0,0xa
   112e8:	0162d293          	srli	t0,t0,0x16
   112ec:	01f7a023          	sw	t6,0(a5)
   112f0:	2813e393          	ori	t2,t2,641
   112f4:	00e60fb3          	add	t6,a2,a4
   112f8:	00a29293          	slli	t0,t0,0xa
   112fc:	0077a023          	sw	t2,0(a5)
   11300:	01f30fb3          	add	t6,t1,t6
   11304:	2d12e293          	ori	t0,t0,721
   11308:	0057a023          	sw	t0,0(a5)
   1130c:	016fd393          	srli	t2,t6,0x16
   11310:	00af9293          	slli	t0,t6,0xa
   11314:	20058f93          	addi	t6,a1,512
   11318:	0107a023          	sw	a6,0(a5)
   1131c:	402fdf93          	srai	t6,t6,0x2
   11320:	2012e293          	ori	t0,t0,513
   11324:	00a39393          	slli	t2,t2,0xa
   11328:	0057a023          	sw	t0,0(a5)
   1132c:	00af9413          	slli	s0,t6,0xa
   11330:	2413e393          	ori	t2,t2,577
   11334:	016fd293          	srli	t0,t6,0x16
   11338:	10070f93          	addi	t6,a4,256
   1133c:	0077a023          	sw	t2,0(a5)
   11340:	00cf8fb3          	add	t6,t6,a2
   11344:	28146393          	ori	t2,s0,641
   11348:	00a29293          	slli	t0,t0,0xa
   1134c:	0077a023          	sw	t2,0(a5)
   11350:	01f30fb3          	add	t6,t1,t6
   11354:	2d12e293          	ori	t0,t0,721
   11358:	0057a023          	sw	t0,0(a5)
   1135c:	016fd393          	srli	t2,t6,0x16
   11360:	00af9293          	slli	t0,t6,0xa
   11364:	40058f93          	addi	t6,a1,1024
   11368:	0107a023          	sw	a6,0(a5)
   1136c:	402fdf93          	srai	t6,t6,0x2
   11370:	2012e293          	ori	t0,t0,513
   11374:	00a39393          	slli	t2,t2,0xa
   11378:	0057a023          	sw	t0,0(a5)
   1137c:	00af9413          	slli	s0,t6,0xa
   11380:	2413e393          	ori	t2,t2,577
   11384:	016fd293          	srli	t0,t6,0x16
   11388:	20070f93          	addi	t6,a4,512
   1138c:	0077a023          	sw	t2,0(a5)
   11390:	00cf8fb3          	add	t6,t6,a2
   11394:	28146393          	ori	t2,s0,641
   11398:	00a29293          	slli	t0,t0,0xa
   1139c:	0077a023          	sw	t2,0(a5)
   113a0:	01f30fb3          	add	t6,t1,t6
   113a4:	2d12e293          	ori	t0,t0,721
   113a8:	0057a023          	sw	t0,0(a5)
   113ac:	016fd393          	srli	t2,t6,0x16
   113b0:	00af9293          	slli	t0,t6,0xa
   113b4:	60058f93          	addi	t6,a1,1536
   113b8:	0107a023          	sw	a6,0(a5)
   113bc:	402fdf93          	srai	t6,t6,0x2
   113c0:	2012e293          	ori	t0,t0,513
   113c4:	00a39393          	slli	t2,t2,0xa
   113c8:	0057a023          	sw	t0,0(a5)
   113cc:	00af9413          	slli	s0,t6,0xa
   113d0:	2413e393          	ori	t2,t2,577
   113d4:	016fd293          	srli	t0,t6,0x16
   113d8:	30070f93          	addi	t6,a4,768
   113dc:	0077a023          	sw	t2,0(a5)
   113e0:	00cf8fb3          	add	t6,t6,a2
   113e4:	28146393          	ori	t2,s0,641
   113e8:	00a29293          	slli	t0,t0,0xa
   113ec:	0077a023          	sw	t2,0(a5)
   113f0:	01f30fb3          	add	t6,t1,t6
   113f4:	2d12e293          	ori	t0,t0,721
   113f8:	0057a023          	sw	t0,0(a5)
   113fc:	016fd393          	srli	t2,t6,0x16
   11400:	00af9293          	slli	t0,t6,0xa
   11404:	01e58fb3          	add	t6,a1,t5
   11408:	0107a023          	sw	a6,0(a5)
   1140c:	402fdf93          	srai	t6,t6,0x2
   11410:	2012e293          	ori	t0,t0,513
   11414:	00a39393          	slli	t2,t2,0xa
   11418:	0057a023          	sw	t0,0(a5)
   1141c:	00af9413          	slli	s0,t6,0xa
   11420:	2413e393          	ori	t2,t2,577
   11424:	016fd293          	srli	t0,t6,0x16
   11428:	40070f93          	addi	t6,a4,1024
   1142c:	0077a023          	sw	t2,0(a5)
   11430:	00cf8fb3          	add	t6,t6,a2
   11434:	28146393          	ori	t2,s0,641
   11438:	00a29293          	slli	t0,t0,0xa
   1143c:	0077a023          	sw	t2,0(a5)
   11440:	01f30fb3          	add	t6,t1,t6
   11444:	2d12e293          	ori	t0,t0,721
   11448:	0057a023          	sw	t0,0(a5)
   1144c:	016fd393          	srli	t2,t6,0x16
   11450:	00af9293          	slli	t0,t6,0xa
   11454:	01d58fb3          	add	t6,a1,t4
   11458:	0107a023          	sw	a6,0(a5)
   1145c:	402fdf93          	srai	t6,t6,0x2
   11460:	2012e293          	ori	t0,t0,513
   11464:	00a39393          	slli	t2,t2,0xa
   11468:	0057a023          	sw	t0,0(a5)
   1146c:	00af9413          	slli	s0,t6,0xa
   11470:	2413e393          	ori	t2,t2,577
   11474:	016fd293          	srli	t0,t6,0x16
   11478:	50070f93          	addi	t6,a4,1280
   1147c:	0077a023          	sw	t2,0(a5)
   11480:	00cf8fb3          	add	t6,t6,a2
   11484:	28146393          	ori	t2,s0,641
   11488:	00a29293          	slli	t0,t0,0xa
   1148c:	0077a023          	sw	t2,0(a5)
   11490:	01f30fb3          	add	t6,t1,t6
   11494:	2d12e293          	ori	t0,t0,721
   11498:	01c583b3          	add	t2,a1,t3
   1149c:	0057a023          	sw	t0,0(a5)
   114a0:	00af9413          	slli	s0,t6,0xa
   114a4:	4023d293          	srai	t0,t2,0x2
   114a8:	016fdf93          	srli	t6,t6,0x16
   114ac:	0107a023          	sw	a6,0(a5)
   114b0:	0162d393          	srli	t2,t0,0x16
   114b4:	20146413          	ori	s0,s0,513
   114b8:	00af9f93          	slli	t6,t6,0xa
   114bc:	60070713          	addi	a4,a4,1536
   114c0:	0087a023          	sw	s0,0(a5)
   114c4:	241fef93          	ori	t6,t6,577
   114c8:	00c70733          	add	a4,a4,a2
   114cc:	00a29293          	slli	t0,t0,0xa
   114d0:	00a39393          	slli	t2,t2,0xa
   114d4:	00e30733          	add	a4,t1,a4
   114d8:	01f7a023          	sw	t6,0(a5)
   114dc:	2d13e613          	ori	a2,t2,721
   114e0:	2812e293          	ori	t0,t0,641
   114e4:	0057a023          	sw	t0,0(a5)
   114e8:	00a71f93          	slli	t6,a4,0xa
   114ec:	00c7a023          	sw	a2,0(a5)
   114f0:	01675713          	srli	a4,a4,0x16
   114f4:	00a58633          	add	a2,a1,a0
   114f8:	0107a023          	sw	a6,0(a5)
   114fc:	40265613          	srai	a2,a2,0x2
   11500:	201fef93          	ori	t6,t6,513
   11504:	00a71713          	slli	a4,a4,0xa
   11508:	01f7a023          	sw	t6,0(a5)
   1150c:	24176713          	ori	a4,a4,577
   11510:	00a61f93          	slli	t6,a2,0xa
   11514:	01665613          	srli	a2,a2,0x16
   11518:	00e7a023          	sw	a4,0(a5)
   1151c:	00a61613          	slli	a2,a2,0xa
   11520:	281fe713          	ori	a4,t6,641
   11524:	00e7a023          	sw	a4,0(a5)
   11528:	2d166613          	ori	a2,a2,721
   1152c:	00c7a023          	sw	a2,0(a5)
   11530:	0107a023          	sw	a6,0(a5)
   11534:	0008c703          	lbu	a4,0(a7)
   11538:	00858593          	addi	a1,a1,8
   1153c:	00188893          	addi	a7,a7,1
   11540:	02070263          	beqz	a4,11564 <_Z8PrintDMAiiPKcb+0x324>
   11544:	fe070713          	addi	a4,a4,-32
   11548:	00068463          	beqz	a3,11550 <_Z8PrintDMAiiPKcb+0x310>
   1154c:	fe0704e3          	beqz	a4,11534 <_Z8PrintDMAiiPKcb+0x2f4>
   11550:	d4075ce3          	bgez	a4,112a8 <_Z8PrintDMAiiPKcb+0x68>
   11554:	0008c703          	lbu	a4,0(a7)
   11558:	00858593          	addi	a1,a1,8
   1155c:	00188893          	addi	a7,a7,1
   11560:	fe0712e3          	bnez	a4,11544 <_Z8PrintDMAiiPKcb+0x304>
   11564:	00c12403          	lw	s0,12(sp)
   11568:	01010113          	addi	sp,sp,16
   1156c:	00008067          	ret
   11570:	0008c703          	lbu	a4,0(a7)
   11574:	00858593          	addi	a1,a1,8
   11578:	00188893          	addi	a7,a7,1
   1157c:	d0071ae3          	bnez	a4,11290 <_Z8PrintDMAiiPKcb+0x50>
   11580:	00008067          	ret

00011584 <_Z8PrintDMAiiiPKcb>:
   11584:	38c05c63          	blez	a2,1191c <_Z8PrintDMAiiiPKcb+0x398>
   11588:	000012b7          	lui	t0,0x1
   1158c:	00005797          	auipc	a5,0x5
   11590:	2507a783          	lw	a5,592(a5) # 167dc <_GLOBAL_OFFSET_TABLE_+0xc>
   11594:	00e03833          	snez	a6,a4
   11598:	ac428e13          	addi	t3,t0,-1340 # ac4 <main-0xf5b0>
   1159c:	0007a883          	lw	a7,0(a5)
   115a0:	01981813          	slli	a6,a6,0x19
   115a4:	00959593          	slli	a1,a1,0x9
   115a8:	00005797          	auipc	a5,0x5
   115ac:	22c7a783          	lw	a5,556(a5) # 167d4 <_GLOBAL_OFFSET_TABLE_+0x4>
   115b0:	01c86833          	or	a6,a6,t3
   115b4:	00a585b3          	add	a1,a1,a0
   115b8:	0007a783          	lw	a5,0(a5)
   115bc:	00068313          	mv	t1,a3
   115c0:	00c68633          	add	a2,a3,a2
   115c4:	07f00f93          	li	t6,127
   115c8:	80028f13          	addi	t5,t0,-2048
   115cc:	a0028e93          	addi	t4,t0,-1536
   115d0:	c0028e13          	addi	t3,t0,-1024
   115d4:	e0028513          	addi	a0,t0,-512
   115d8:	0100006f          	j	115e8 <_Z8PrintDMAiiiPKcb+0x64>
   115dc:	00130313          	addi	t1,t1,1 # 104f9 <frame_dummy+0x15>
   115e0:	00858593          	addi	a1,a1,8
   115e4:	32c30c63          	beq	t1,a2,1191c <_Z8PrintDMAiiiPKcb+0x398>
   115e8:	00034683          	lbu	a3,0(t1)
   115ec:	32068863          	beqz	a3,1191c <_Z8PrintDMAiiiPKcb+0x398>
   115f0:	fe068693          	addi	a3,a3,-32
   115f4:	00070463          	beqz	a4,115fc <_Z8PrintDMAiiiPKcb+0x78>
   115f8:	fe0682e3          	beqz	a3,115dc <_Z8PrintDMAiiiPKcb+0x58>
   115fc:	fe010113          	addi	sp,sp,-32
   11600:	00812e23          	sw	s0,28(sp)
   11604:	00912c23          	sw	s1,24(sp)
   11608:	01212a23          	sw	s2,20(sp)
   1160c:	01312823          	sw	s3,16(sp)
   11610:	01412623          	sw	s4,12(sp)
   11614:	01512423          	sw	s5,8(sp)
   11618:	01612223          	sw	s6,4(sp)
   1161c:	2cdfee63          	bltu	t6,a3,118f8 <_Z8PrintDMAiiiPKcb+0x374>
   11620:	4056d393          	srai	t2,a3,0x5
   11624:	01f6f693          	andi	a3,a3,31
   11628:	00b39a13          	slli	s4,t2,0xb
   1162c:	00369293          	slli	t0,a3,0x3
   11630:	005a06b3          	add	a3,s4,t0
   11634:	200a0993          	addi	s3,s4,512
   11638:	300a0913          	addi	s2,s4,768
   1163c:	400a0493          	addi	s1,s4,1024
   11640:	500a0413          	addi	s0,s4,1280
   11644:	600a0393          	addi	t2,s4,1536
   11648:	700a0a93          	addi	s5,s4,1792
   1164c:	100a0a13          	addi	s4,s4,256
   11650:	01428a33          	add	s4,t0,s4
   11654:	005989b3          	add	s3,s3,t0
   11658:	00590933          	add	s2,s2,t0
   1165c:	005484b3          	add	s1,s1,t0
   11660:	00540433          	add	s0,s0,t0
   11664:	005383b3          	add	t2,t2,t0
   11668:	00d886b3          	add	a3,a7,a3
   1166c:	005a82b3          	add	t0,s5,t0
   11670:	00a69b13          	slli	s6,a3,0xa
   11674:	0166da93          	srli	s5,a3,0x16
   11678:	201b6b13          	ori	s6,s6,513
   1167c:	4025d693          	srai	a3,a1,0x2
   11680:	00aa9a93          	slli	s5,s5,0xa
   11684:	0167a023          	sw	s6,0(a5)
   11688:	241aea93          	ori	s5,s5,577
   1168c:	00a69b13          	slli	s6,a3,0xa
   11690:	0166d693          	srli	a3,a3,0x16
   11694:	0157a023          	sw	s5,0(a5)
   11698:	00a69693          	slli	a3,a3,0xa
   1169c:	281b6a93          	ori	s5,s6,641
   116a0:	0157a023          	sw	s5,0(a5)
   116a4:	01488a33          	add	s4,a7,s4
   116a8:	2d16e693          	ori	a3,a3,721
   116ac:	00d7a023          	sw	a3,0(a5)
   116b0:	00aa1a93          	slli	s5,s4,0xa
   116b4:	20058693          	addi	a3,a1,512
   116b8:	016a5a13          	srli	s4,s4,0x16
   116bc:	0107a023          	sw	a6,0(a5)
   116c0:	4026d693          	srai	a3,a3,0x2
   116c4:	201aea93          	ori	s5,s5,513
   116c8:	00aa1a13          	slli	s4,s4,0xa
   116cc:	0157a023          	sw	s5,0(a5)
   116d0:	241a6a13          	ori	s4,s4,577
   116d4:	00a69a93          	slli	s5,a3,0xa
   116d8:	0166d693          	srli	a3,a3,0x16
   116dc:	0147a023          	sw	s4,0(a5)
   116e0:	00a69693          	slli	a3,a3,0xa
   116e4:	281aea13          	ori	s4,s5,641
   116e8:	0147a023          	sw	s4,0(a5)
   116ec:	013889b3          	add	s3,a7,s3
   116f0:	2d16e693          	ori	a3,a3,721
   116f4:	00d7a023          	sw	a3,0(a5)
   116f8:	00a99a13          	slli	s4,s3,0xa
   116fc:	40058693          	addi	a3,a1,1024
   11700:	0169d993          	srli	s3,s3,0x16
   11704:	0107a023          	sw	a6,0(a5)
   11708:	4026d693          	srai	a3,a3,0x2
   1170c:	201a6a13          	ori	s4,s4,513
   11710:	00a99993          	slli	s3,s3,0xa
   11714:	0147a023          	sw	s4,0(a5)
   11718:	2419e993          	ori	s3,s3,577
   1171c:	00a69a13          	slli	s4,a3,0xa
   11720:	0166d693          	srli	a3,a3,0x16
   11724:	0137a023          	sw	s3,0(a5)
   11728:	00a69693          	slli	a3,a3,0xa
   1172c:	281a6993          	ori	s3,s4,641
   11730:	0137a023          	sw	s3,0(a5)
   11734:	01288933          	add	s2,a7,s2
   11738:	2d16e693          	ori	a3,a3,721
   1173c:	00d7a023          	sw	a3,0(a5)
   11740:	00a91993          	slli	s3,s2,0xa
   11744:	60058693          	addi	a3,a1,1536
   11748:	01695913          	srli	s2,s2,0x16
   1174c:	0107a023          	sw	a6,0(a5)
   11750:	4026d693          	srai	a3,a3,0x2
   11754:	2019e993          	ori	s3,s3,513
   11758:	00a91913          	slli	s2,s2,0xa
   1175c:	0137a023          	sw	s3,0(a5)
   11760:	24196913          	ori	s2,s2,577
   11764:	00a69993          	slli	s3,a3,0xa
   11768:	0166d693          	srli	a3,a3,0x16
   1176c:	0127a023          	sw	s2,0(a5)
   11770:	00a69693          	slli	a3,a3,0xa
   11774:	2819e913          	ori	s2,s3,641
   11778:	0127a023          	sw	s2,0(a5)
   1177c:	009884b3          	add	s1,a7,s1
   11780:	2d16e693          	ori	a3,a3,721
   11784:	00d7a023          	sw	a3,0(a5)
   11788:	00a49913          	slli	s2,s1,0xa
   1178c:	01e586b3          	add	a3,a1,t5
   11790:	0164d493          	srli	s1,s1,0x16
   11794:	0107a023          	sw	a6,0(a5)
   11798:	4026d693          	srai	a3,a3,0x2
   1179c:	20196913          	ori	s2,s2,513
   117a0:	00a49493          	slli	s1,s1,0xa
   117a4:	0127a023          	sw	s2,0(a5)
   117a8:	2414e493          	ori	s1,s1,577
   117ac:	00a69913          	slli	s2,a3,0xa
   117b0:	0166d693          	srli	a3,a3,0x16
   117b4:	0097a023          	sw	s1,0(a5)
   117b8:	00a69693          	slli	a3,a3,0xa
   117bc:	28196493          	ori	s1,s2,641
   117c0:	0097a023          	sw	s1,0(a5)
   117c4:	00888433          	add	s0,a7,s0
   117c8:	2d16e693          	ori	a3,a3,721
   117cc:	00d7a023          	sw	a3,0(a5)
   117d0:	00a41493          	slli	s1,s0,0xa
   117d4:	01d586b3          	add	a3,a1,t4
   117d8:	01645413          	srli	s0,s0,0x16
   117dc:	0107a023          	sw	a6,0(a5)
   117e0:	4026d693          	srai	a3,a3,0x2
   117e4:	2014e493          	ori	s1,s1,513
   117e8:	00a41413          	slli	s0,s0,0xa
   117ec:	0097a023          	sw	s1,0(a5)
   117f0:	24146413          	ori	s0,s0,577
   117f4:	00a69493          	slli	s1,a3,0xa
   117f8:	0166d693          	srli	a3,a3,0x16
   117fc:	0087a023          	sw	s0,0(a5)
   11800:	00a69693          	slli	a3,a3,0xa
   11804:	2814e413          	ori	s0,s1,641
   11808:	0087a023          	sw	s0,0(a5)
   1180c:	007883b3          	add	t2,a7,t2
   11810:	01c58433          	add	s0,a1,t3
   11814:	2d16e693          	ori	a3,a3,721
   11818:	00d7a023          	sw	a3,0(a5)
   1181c:	00a39493          	slli	s1,t2,0xa
   11820:	40245693          	srai	a3,s0,0x2
   11824:	0163d393          	srli	t2,t2,0x16
   11828:	0107a023          	sw	a6,0(a5)
   1182c:	0166d413          	srli	s0,a3,0x16
   11830:	2014e493          	ori	s1,s1,513
   11834:	00a39393          	slli	t2,t2,0xa
   11838:	0097a023          	sw	s1,0(a5)
   1183c:	2413e393          	ori	t2,t2,577
   11840:	00a41413          	slli	s0,s0,0xa
   11844:	00a69693          	slli	a3,a3,0xa
   11848:	005882b3          	add	t0,a7,t0
   1184c:	0077a023          	sw	t2,0(a5)
   11850:	2816e693          	ori	a3,a3,641
   11854:	2d146393          	ori	t2,s0,721
   11858:	00d7a023          	sw	a3,0(a5)
   1185c:	00a29413          	slli	s0,t0,0xa
   11860:	0077a023          	sw	t2,0(a5)
   11864:	00a586b3          	add	a3,a1,a0
   11868:	0162d293          	srli	t0,t0,0x16
   1186c:	0107a023          	sw	a6,0(a5)
   11870:	4026d693          	srai	a3,a3,0x2
   11874:	20146393          	ori	t2,s0,513
   11878:	00a29293          	slli	t0,t0,0xa
   1187c:	0077a023          	sw	t2,0(a5)
   11880:	2412e293          	ori	t0,t0,577
   11884:	00a69393          	slli	t2,a3,0xa
   11888:	0166d693          	srli	a3,a3,0x16
   1188c:	0057a023          	sw	t0,0(a5)
   11890:	00a69693          	slli	a3,a3,0xa
   11894:	2813e293          	ori	t0,t2,641
   11898:	0057a023          	sw	t0,0(a5)
   1189c:	2d16e693          	ori	a3,a3,721
   118a0:	00d7a023          	sw	a3,0(a5)
   118a4:	0107a023          	sw	a6,0(a5)
   118a8:	00130313          	addi	t1,t1,1
   118ac:	00858593          	addi	a1,a1,8
   118b0:	02c30263          	beq	t1,a2,118d4 <_Z8PrintDMAiiiPKcb+0x350>
   118b4:	00034683          	lbu	a3,0(t1)
   118b8:	00068e63          	beqz	a3,118d4 <_Z8PrintDMAiiiPKcb+0x350>
   118bc:	fe068693          	addi	a3,a3,-32
   118c0:	d4070ee3          	beqz	a4,1161c <_Z8PrintDMAiiiPKcb+0x98>
   118c4:	d4069ce3          	bnez	a3,1161c <_Z8PrintDMAiiiPKcb+0x98>
   118c8:	00130313          	addi	t1,t1,1
   118cc:	00858593          	addi	a1,a1,8
   118d0:	fec312e3          	bne	t1,a2,118b4 <_Z8PrintDMAiiiPKcb+0x330>
   118d4:	01c12403          	lw	s0,28(sp)
   118d8:	01812483          	lw	s1,24(sp)
   118dc:	01412903          	lw	s2,20(sp)
   118e0:	01012983          	lw	s3,16(sp)
   118e4:	00c12a03          	lw	s4,12(sp)
   118e8:	00812a83          	lw	s5,8(sp)
   118ec:	00412b03          	lw	s6,4(sp)
   118f0:	02010113          	addi	sp,sp,32
   118f4:	00008067          	ret
   118f8:	00088693          	mv	a3,a7
   118fc:	70000293          	li	t0,1792
   11900:	60000393          	li	t2,1536
   11904:	50000413          	li	s0,1280
   11908:	40000493          	li	s1,1024
   1190c:	30000913          	li	s2,768
   11910:	20000993          	li	s3,512
   11914:	10000a13          	li	s4,256
   11918:	d59ff06f          	j	11670 <_Z8PrintDMAiiiPKcb+0xec>
   1191c:	00008067          	ret

00011920 <_Z11PrintDMAHexiim>:
   11920:	00002e17          	auipc	t3,0x2
   11924:	ee4e0e13          	addi	t3,t3,-284 # 13804 <_exit+0xa4>
   11928:	00ce2f03          	lw	t5,12(t3)
   1192c:	008e2f83          	lw	t6,8(t3)
   11930:	000e2383          	lw	t2,0(t3)
   11934:	004e2283          	lw	t0,4(t3)
   11938:	fd010113          	addi	sp,sp,-48
   1193c:	01865313          	srli	t1,a2,0x18
   11940:	01465893          	srli	a7,a2,0x14
   11944:	01065813          	srli	a6,a2,0x10
   11948:	00c65693          	srli	a3,a2,0xc
   1194c:	00865713          	srli	a4,a2,0x8
   11950:	00465793          	srli	a5,a2,0x4
   11954:	01e12c23          	sw	t5,24(sp)
   11958:	01c65e93          	srli	t4,a2,0x1c
   1195c:	02010f13          	addi	t5,sp,32
   11960:	00f37313          	andi	t1,t1,15
   11964:	00f8f893          	andi	a7,a7,15
   11968:	00f87813          	andi	a6,a6,15
   1196c:	00f6f693          	andi	a3,a3,15
   11970:	00f77713          	andi	a4,a4,15
   11974:	00f7f793          	andi	a5,a5,15
   11978:	00f67613          	andi	a2,a2,15
   1197c:	02112623          	sw	ra,44(sp)
   11980:	01f12a23          	sw	t6,20(sp)
   11984:	00712623          	sw	t2,12(sp)
   11988:	00512823          	sw	t0,16(sp)
   1198c:	006f0333          	add	t1,t5,t1
   11990:	011f08b3          	add	a7,t5,a7
   11994:	010f0833          	add	a6,t5,a6
   11998:	00df06b3          	add	a3,t5,a3
   1199c:	00ef0733          	add	a4,t5,a4
   119a0:	00ff07b3          	add	a5,t5,a5
   119a4:	00cf0633          	add	a2,t5,a2
   119a8:	01df0eb3          	add	t4,t5,t4
   119ac:	010e4f83          	lbu	t6,16(t3)
   119b0:	fececf03          	lbu	t5,-20(t4)
   119b4:	fec8ce03          	lbu	t3,-20(a7)
   119b8:	fec34e83          	lbu	t4,-20(t1)
   119bc:	fec6c883          	lbu	a7,-20(a3)
   119c0:	fec84303          	lbu	t1,-20(a6)
   119c4:	fec74803          	lbu	a6,-20(a4)
   119c8:	fec7c703          	lbu	a4,-20(a5)
   119cc:	fec64783          	lbu	a5,-20(a2)
   119d0:	02e00693          	li	a3,46
   119d4:	00d11423          	sh	a3,8(sp)
   119d8:	00010613          	mv	a2,sp
   119dc:	00100693          	li	a3,1
   119e0:	01f10e23          	sb	t6,28(sp)
   119e4:	01e10023          	sb	t5,0(sp)
   119e8:	01d100a3          	sb	t4,1(sp)
   119ec:	01c10123          	sb	t3,2(sp)
   119f0:	006101a3          	sb	t1,3(sp)
   119f4:	01110223          	sb	a7,4(sp)
   119f8:	010102a3          	sb	a6,5(sp)
   119fc:	00e10323          	sb	a4,6(sp)
   11a00:	00f103a3          	sb	a5,7(sp)
   11a04:	00010423          	sb	zero,8(sp)
   11a08:	839ff0ef          	jal	ra,11240 <_Z8PrintDMAiiPKcb>
   11a0c:	02c12083          	lw	ra,44(sp)
   11a10:	03010113          	addi	sp,sp,48
   11a14:	00008067          	ret

00011a18 <_Z15PrintDMADecimaliiib>:
   11a18:	00002797          	auipc	a5,0x2
   11a1c:	dcc78793          	addi	a5,a5,-564 # 137e4 <_exit+0x84>
   11a20:	00002717          	auipc	a4,0x2
   11a24:	dd870713          	addi	a4,a4,-552 # 137f8 <_exit+0x98>
   11a28:	0047a883          	lw	a7,4(a5)
   11a2c:	00072f83          	lw	t6,0(a4)
   11a30:	00472f03          	lw	t5,4(a4)
   11a34:	00875e83          	lhu	t4,8(a4)
   11a38:	00a74e03          	lbu	t3,10(a4)
   11a3c:	0007a303          	lw	t1,0(a5)
   11a40:	0087a803          	lw	a6,8(a5)
   11a44:	00c7a703          	lw	a4,12(a5)
   11a48:	0107a783          	lw	a5,16(a5)
   11a4c:	fd010113          	addi	sp,sp,-48
   11a50:	01112823          	sw	a7,16(sp)
   11a54:	00f12e23          	sw	a5,28(sp)
   11a58:	02112623          	sw	ra,44(sp)
   11a5c:	02812423          	sw	s0,40(sp)
   11a60:	01f12023          	sw	t6,0(sp)
   11a64:	01e12223          	sw	t5,4(sp)
   11a68:	01d11423          	sh	t4,8(sp)
   11a6c:	01c10523          	sb	t3,10(sp)
   11a70:	00612623          	sw	t1,12(sp)
   11a74:	01012a23          	sw	a6,20(sp)
   11a78:	00e12c23          	sw	a4,24(sp)
   11a7c:	02d00893          	li	a7,45
   11a80:	00100793          	li	a5,1
   11a84:	00064663          	bltz	a2,11a90 <_Z15PrintDMADecimaliiib+0x78>
   11a88:	02000893          	li	a7,32
   11a8c:	00000793          	li	a5,0
   11a90:	3b9ad737          	lui	a4,0x3b9ad
   11a94:	a0070813          	addi	a6,a4,-1536 # 3b9aca00 <__BSS_END__+0x3b995e58>
   11a98:	03064833          	div	a6,a2,a6
   11a9c:	9ff70713          	addi	a4,a4,-1537
   11aa0:	01110623          	sb	a7,12(sp)
   11aa4:	773598b7          	lui	a7,0x77359
   11aa8:	00e60733          	add	a4,a2,a4
   11aac:	3fe88893          	addi	a7,a7,1022 # 773593fe <__BSS_END__+0x77342856>
   11ab0:	41f85313          	srai	t1,a6,0x1f
   11ab4:	01034833          	xor	a6,t1,a6
   11ab8:	40680833          	sub	a6,a6,t1
   11abc:	14e8e663          	bltu	a7,a4,11c08 <_Z15PrintDMADecimaliiib+0x1f0>
   11ac0:	05f5e737          	lui	a4,0x5f5e
   11ac4:	10070713          	addi	a4,a4,256 # 5f5e100 <__BSS_END__+0x5f47558>
   11ac8:	02e64733          	div	a4,a2,a4
   11acc:	00a00893          	li	a7,10
   11ad0:	41f75313          	srai	t1,a4,0x1f
   11ad4:	00e34833          	xor	a6,t1,a4
   11ad8:	40680833          	sub	a6,a6,t1
   11adc:	03186833          	rem	a6,a6,a7
   11ae0:	16081263          	bnez	a6,11c44 <_Z15PrintDMADecimaliiib+0x22c>
   11ae4:	00989737          	lui	a4,0x989
   11ae8:	68070713          	addi	a4,a4,1664 # 989680 <__BSS_END__+0x972ad8>
   11aec:	02e64733          	div	a4,a2,a4
   11af0:	41f75313          	srai	t1,a4,0x1f
   11af4:	00e34833          	xor	a6,t1,a4
   11af8:	40680833          	sub	a6,a6,t1
   11afc:	03186833          	rem	a6,a6,a7
   11b00:	18081063          	bnez	a6,11c80 <_Z15PrintDMADecimaliiib+0x268>
   11b04:	000f4737          	lui	a4,0xf4
   11b08:	24070713          	addi	a4,a4,576 # f4240 <__BSS_END__+0xdd698>
   11b0c:	02e64733          	div	a4,a2,a4
   11b10:	41f75313          	srai	t1,a4,0x1f
   11b14:	00e34833          	xor	a6,t1,a4
   11b18:	40680833          	sub	a6,a6,t1
   11b1c:	03186833          	rem	a6,a6,a7
   11b20:	18081e63          	bnez	a6,11cbc <_Z15PrintDMADecimaliiib+0x2a4>
   11b24:	00018737          	lui	a4,0x18
   11b28:	6a070713          	addi	a4,a4,1696 # 186a0 <__BSS_END__+0x1af8>
   11b2c:	02e64733          	div	a4,a2,a4
   11b30:	41f75313          	srai	t1,a4,0x1f
   11b34:	00e34833          	xor	a6,t1,a4
   11b38:	40680833          	sub	a6,a6,t1
   11b3c:	03186833          	rem	a6,a6,a7
   11b40:	1a081c63          	bnez	a6,11cf8 <_Z15PrintDMADecimaliiib+0x2e0>
   11b44:	00002737          	lui	a4,0x2
   11b48:	71070713          	addi	a4,a4,1808 # 2710 <main-0xd964>
   11b4c:	02e64733          	div	a4,a2,a4
   11b50:	41f75813          	srai	a6,a4,0x1f
   11b54:	00e84733          	xor	a4,a6,a4
   11b58:	41070733          	sub	a4,a4,a6
   11b5c:	03176733          	rem	a4,a4,a7
   11b60:	1c071a63          	bnez	a4,11d34 <_Z15PrintDMADecimaliiib+0x31c>
   11b64:	3e800713          	li	a4,1000
   11b68:	02e64733          	div	a4,a2,a4
   11b6c:	41f75313          	srai	t1,a4,0x1f
   11b70:	00e34833          	xor	a6,t1,a4
   11b74:	40680833          	sub	a6,a6,t1
   11b78:	03186833          	rem	a6,a6,a7
   11b7c:	1e081863          	bnez	a6,11d6c <_Z15PrintDMADecimaliiib+0x354>
   11b80:	06400713          	li	a4,100
   11b84:	02e64733          	div	a4,a2,a4
   11b88:	41f75813          	srai	a6,a4,0x1f
   11b8c:	00e84733          	xor	a4,a6,a4
   11b90:	41070733          	sub	a4,a4,a6
   11b94:	03176733          	rem	a4,a4,a7
   11b98:	20071663          	bnez	a4,11da4 <_Z15PrintDMADecimaliiib+0x38c>
   11b9c:	03164733          	div	a4,a2,a7
   11ba0:	41f75813          	srai	a6,a4,0x1f
   11ba4:	00e84733          	xor	a4,a6,a4
   11ba8:	41070733          	sub	a4,a4,a6
   11bac:	031768b3          	rem	a7,a4,a7
   11bb0:	22089463          	bnez	a7,11dd8 <_Z15PrintDMADecimaliiib+0x3c0>
   11bb4:	41f65813          	srai	a6,a2,0x1f
   11bb8:	00c84733          	xor	a4,a6,a2
   11bbc:	41070733          	sub	a4,a4,a6
   11bc0:	00a00613          	li	a2,10
   11bc4:	02c76733          	rem	a4,a4,a2
   11bc8:	02010893          	addi	a7,sp,32
   11bcc:	02010613          	addi	a2,sp,32
   11bd0:	00178413          	addi	s0,a5,1
   11bd4:	00f607b3          	add	a5,a2,a5
   11bd8:	00860833          	add	a6,a2,s0
   11bdc:	00c10613          	addi	a2,sp,12
   11be0:	00e88733          	add	a4,a7,a4
   11be4:	fe074703          	lbu	a4,-32(a4)
   11be8:	fee78623          	sb	a4,-20(a5)
   11bec:	fe080623          	sb	zero,-20(a6)
   11bf0:	e50ff0ef          	jal	ra,11240 <_Z8PrintDMAiiPKcb>
   11bf4:	02c12083          	lw	ra,44(sp)
   11bf8:	00040513          	mv	a0,s0
   11bfc:	02812403          	lw	s0,40(sp)
   11c00:	03010113          	addi	sp,sp,48
   11c04:	00008067          	ret
   11c08:	05f5e737          	lui	a4,0x5f5e
   11c0c:	10070713          	addi	a4,a4,256 # 5f5e100 <__BSS_END__+0x5f47558>
   11c10:	02e64733          	div	a4,a2,a4
   11c14:	02010893          	addi	a7,sp,32
   11c18:	01088833          	add	a6,a7,a6
   11c1c:	fe084883          	lbu	a7,-32(a6)
   11c20:	02010813          	addi	a6,sp,32
   11c24:	00f80833          	add	a6,a6,a5
   11c28:	ff180623          	sb	a7,-20(a6)
   11c2c:	00178793          	addi	a5,a5,1
   11c30:	41f75893          	srai	a7,a4,0x1f
   11c34:	00e8c833          	xor	a6,a7,a4
   11c38:	41180833          	sub	a6,a6,a7
   11c3c:	00a00713          	li	a4,10
   11c40:	02e86833          	rem	a6,a6,a4
   11c44:	00989737          	lui	a4,0x989
   11c48:	68070713          	addi	a4,a4,1664 # 989680 <__BSS_END__+0x972ad8>
   11c4c:	02010893          	addi	a7,sp,32
   11c50:	01088833          	add	a6,a7,a6
   11c54:	fe084883          	lbu	a7,-32(a6)
   11c58:	02010813          	addi	a6,sp,32
   11c5c:	00f80833          	add	a6,a6,a5
   11c60:	ff180623          	sb	a7,-20(a6)
   11c64:	00178793          	addi	a5,a5,1
   11c68:	02e64733          	div	a4,a2,a4
   11c6c:	41f75893          	srai	a7,a4,0x1f
   11c70:	00e8c833          	xor	a6,a7,a4
   11c74:	41180833          	sub	a6,a6,a7
   11c78:	00a00713          	li	a4,10
   11c7c:	02e86833          	rem	a6,a6,a4
   11c80:	000f4737          	lui	a4,0xf4
   11c84:	24070713          	addi	a4,a4,576 # f4240 <__BSS_END__+0xdd698>
   11c88:	02010893          	addi	a7,sp,32
   11c8c:	01088833          	add	a6,a7,a6
   11c90:	fe084883          	lbu	a7,-32(a6)
   11c94:	02010813          	addi	a6,sp,32
   11c98:	00f80833          	add	a6,a6,a5
   11c9c:	ff180623          	sb	a7,-20(a6)
   11ca0:	00178793          	addi	a5,a5,1
   11ca4:	02e64733          	div	a4,a2,a4
   11ca8:	41f75893          	srai	a7,a4,0x1f
   11cac:	00e8c833          	xor	a6,a7,a4
   11cb0:	41180833          	sub	a6,a6,a7
   11cb4:	00a00713          	li	a4,10
   11cb8:	02e86833          	rem	a6,a6,a4
   11cbc:	00018737          	lui	a4,0x18
   11cc0:	6a070713          	addi	a4,a4,1696 # 186a0 <__BSS_END__+0x1af8>
   11cc4:	02010893          	addi	a7,sp,32
   11cc8:	01088833          	add	a6,a7,a6
   11ccc:	fe084883          	lbu	a7,-32(a6)
   11cd0:	02010813          	addi	a6,sp,32
   11cd4:	00f80833          	add	a6,a6,a5
   11cd8:	ff180623          	sb	a7,-20(a6)
   11cdc:	00178793          	addi	a5,a5,1
   11ce0:	02e64733          	div	a4,a2,a4
   11ce4:	41f75893          	srai	a7,a4,0x1f
   11ce8:	00e8c833          	xor	a6,a7,a4
   11cec:	41180833          	sub	a6,a6,a7
   11cf0:	00a00713          	li	a4,10
   11cf4:	02e86833          	rem	a6,a6,a4
   11cf8:	00002737          	lui	a4,0x2
   11cfc:	71070713          	addi	a4,a4,1808 # 2710 <main-0xd964>
   11d00:	02010893          	addi	a7,sp,32
   11d04:	01088833          	add	a6,a7,a6
   11d08:	fe084883          	lbu	a7,-32(a6)
   11d0c:	02010813          	addi	a6,sp,32
   11d10:	00f80833          	add	a6,a6,a5
   11d14:	ff180623          	sb	a7,-20(a6)
   11d18:	00178793          	addi	a5,a5,1
   11d1c:	02e64733          	div	a4,a2,a4
   11d20:	41f75813          	srai	a6,a4,0x1f
   11d24:	00e84733          	xor	a4,a6,a4
   11d28:	41070733          	sub	a4,a4,a6
   11d2c:	00a00813          	li	a6,10
   11d30:	03076733          	rem	a4,a4,a6
   11d34:	3e800813          	li	a6,1000
   11d38:	02010893          	addi	a7,sp,32
   11d3c:	00e88733          	add	a4,a7,a4
   11d40:	fe074883          	lbu	a7,-32(a4)
   11d44:	02010713          	addi	a4,sp,32
   11d48:	00f70733          	add	a4,a4,a5
   11d4c:	ff170623          	sb	a7,-20(a4)
   11d50:	00178793          	addi	a5,a5,1
   11d54:	03064833          	div	a6,a2,a6
   11d58:	41f85713          	srai	a4,a6,0x1f
   11d5c:	01074833          	xor	a6,a4,a6
   11d60:	40e80833          	sub	a6,a6,a4
   11d64:	00a00713          	li	a4,10
   11d68:	02e86833          	rem	a6,a6,a4
   11d6c:	06400713          	li	a4,100
   11d70:	02010893          	addi	a7,sp,32
   11d74:	01088833          	add	a6,a7,a6
   11d78:	fe084883          	lbu	a7,-32(a6)
   11d7c:	02010813          	addi	a6,sp,32
   11d80:	00f80833          	add	a6,a6,a5
   11d84:	ff180623          	sb	a7,-20(a6)
   11d88:	00178793          	addi	a5,a5,1
   11d8c:	02e64733          	div	a4,a2,a4
   11d90:	41f75813          	srai	a6,a4,0x1f
   11d94:	00e84733          	xor	a4,a6,a4
   11d98:	41070733          	sub	a4,a4,a6
   11d9c:	00a00813          	li	a6,10
   11da0:	03076733          	rem	a4,a4,a6
   11da4:	00a00313          	li	t1,10
   11da8:	02010893          	addi	a7,sp,32
   11dac:	00e88733          	add	a4,a7,a4
   11db0:	fe074883          	lbu	a7,-32(a4)
   11db4:	02010713          	addi	a4,sp,32
   11db8:	00f70733          	add	a4,a4,a5
   11dbc:	ff170623          	sb	a7,-20(a4)
   11dc0:	00178793          	addi	a5,a5,1
   11dc4:	02664833          	div	a6,a2,t1
   11dc8:	41f85713          	srai	a4,a6,0x1f
   11dcc:	010748b3          	xor	a7,a4,a6
   11dd0:	40e888b3          	sub	a7,a7,a4
   11dd4:	0268e8b3          	rem	a7,a7,t1
   11dd8:	02010713          	addi	a4,sp,32
   11ddc:	011708b3          	add	a7,a4,a7
   11de0:	fe08c803          	lbu	a6,-32(a7)
   11de4:	00f70733          	add	a4,a4,a5
   11de8:	00178793          	addi	a5,a5,1
   11dec:	ff070623          	sb	a6,-20(a4)
   11df0:	dc5ff06f          	j	11bb4 <_Z15PrintDMADecimaliiib+0x19c>

00011df4 <cosf>:
   11df4:	e00507d3          	fmv.x.w	a5,fa0
   11df8:	3f4916b7          	lui	a3,0x3f491
   11dfc:	fd868693          	addi	a3,a3,-40 # 3f490fd8 <__BSS_END__+0x3f47a430>
   11e00:	00179713          	slli	a4,a5,0x1
   11e04:	00175713          	srli	a4,a4,0x1
   11e08:	04e6dc63          	bge	a3,a4,11e60 <cosf+0x6c>
   11e0c:	7f8006b7          	lui	a3,0x7f800
   11e10:	00d74663          	blt	a4,a3,11e1c <cosf+0x28>
   11e14:	08a57553          	fsub.s	fa0,fa0,fa0
   11e18:	00008067          	ret
   11e1c:	fe010113          	addi	sp,sp,-32
   11e20:	00810513          	addi	a0,sp,8
   11e24:	00112e23          	sw	ra,28(sp)
   11e28:	110000ef          	jal	ra,11f38 <__ieee754_rem_pio2f>
   11e2c:	00357513          	andi	a0,a0,3
   11e30:	00100793          	li	a5,1
   11e34:	02f50a63          	beq	a0,a5,11e68 <cosf+0x74>
   11e38:	00200793          	li	a5,2
   11e3c:	00c12587          	flw	fa1,12(sp)
   11e40:	00812507          	flw	fa0,8(sp)
   11e44:	04f50263          	beq	a0,a5,11e88 <cosf+0x94>
   11e48:	02050c63          	beqz	a0,11e80 <cosf+0x8c>
   11e4c:	00100513          	li	a0,1
   11e50:	571000ef          	jal	ra,12bc0 <__kernel_sinf>
   11e54:	01c12083          	lw	ra,28(sp)
   11e58:	02010113          	addi	sp,sp,32
   11e5c:	00008067          	ret
   11e60:	f00005d3          	fmv.w.x	fa1,zero
   11e64:	3a40006f          	j	12208 <__kernel_cosf>
   11e68:	00c12587          	flw	fa1,12(sp)
   11e6c:	00812507          	flw	fa0,8(sp)
   11e70:	00100513          	li	a0,1
   11e74:	54d000ef          	jal	ra,12bc0 <__kernel_sinf>
   11e78:	20a51553          	fneg.s	fa0,fa0
   11e7c:	fd9ff06f          	j	11e54 <cosf+0x60>
   11e80:	388000ef          	jal	ra,12208 <__kernel_cosf>
   11e84:	fd1ff06f          	j	11e54 <cosf+0x60>
   11e88:	380000ef          	jal	ra,12208 <__kernel_cosf>
   11e8c:	20a51553          	fneg.s	fa0,fa0
   11e90:	fc5ff06f          	j	11e54 <cosf+0x60>

00011e94 <sinf>:
   11e94:	e00507d3          	fmv.x.w	a5,fa0
   11e98:	3f4916b7          	lui	a3,0x3f491
   11e9c:	fd868693          	addi	a3,a3,-40 # 3f490fd8 <__BSS_END__+0x3f47a430>
   11ea0:	00179713          	slli	a4,a5,0x1
   11ea4:	00175713          	srli	a4,a4,0x1
   11ea8:	04e6dc63          	bge	a3,a4,11f00 <sinf+0x6c>
   11eac:	7f8006b7          	lui	a3,0x7f800
   11eb0:	00d74663          	blt	a4,a3,11ebc <sinf+0x28>
   11eb4:	08a57553          	fsub.s	fa0,fa0,fa0
   11eb8:	00008067          	ret
   11ebc:	fe010113          	addi	sp,sp,-32
   11ec0:	00810513          	addi	a0,sp,8
   11ec4:	00112e23          	sw	ra,28(sp)
   11ec8:	070000ef          	jal	ra,11f38 <__ieee754_rem_pio2f>
   11ecc:	00357513          	andi	a0,a0,3
   11ed0:	00100793          	li	a5,1
   11ed4:	02f50c63          	beq	a0,a5,11f0c <sinf+0x78>
   11ed8:	00200793          	li	a5,2
   11edc:	00c12587          	flw	fa1,12(sp)
   11ee0:	00812507          	flw	fa0,8(sp)
   11ee4:	04f50263          	beq	a0,a5,11f28 <sinf+0x94>
   11ee8:	02050a63          	beqz	a0,11f1c <sinf+0x88>
   11eec:	31c000ef          	jal	ra,12208 <__kernel_cosf>
   11ef0:	20a51553          	fneg.s	fa0,fa0
   11ef4:	01c12083          	lw	ra,28(sp)
   11ef8:	02010113          	addi	sp,sp,32
   11efc:	00008067          	ret
   11f00:	f00005d3          	fmv.w.x	fa1,zero
   11f04:	00000513          	li	a0,0
   11f08:	4b90006f          	j	12bc0 <__kernel_sinf>
   11f0c:	00c12587          	flw	fa1,12(sp)
   11f10:	00812507          	flw	fa0,8(sp)
   11f14:	2f4000ef          	jal	ra,12208 <__kernel_cosf>
   11f18:	fddff06f          	j	11ef4 <sinf+0x60>
   11f1c:	00100513          	li	a0,1
   11f20:	4a1000ef          	jal	ra,12bc0 <__kernel_sinf>
   11f24:	fd1ff06f          	j	11ef4 <sinf+0x60>
   11f28:	00100513          	li	a0,1
   11f2c:	495000ef          	jal	ra,12bc0 <__kernel_sinf>
   11f30:	20a51553          	fneg.s	fa0,fa0
   11f34:	fc1ff06f          	j	11ef4 <sinf+0x60>

00011f38 <__ieee754_rem_pio2f>:
   11f38:	e00507d3          	fmv.x.w	a5,fa0
   11f3c:	fe010113          	addi	sp,sp,-32
   11f40:	00812c23          	sw	s0,24(sp)
   11f44:	3f491737          	lui	a4,0x3f491
   11f48:	00179413          	slli	s0,a5,0x1
   11f4c:	00912a23          	sw	s1,20(sp)
   11f50:	00112e23          	sw	ra,28(sp)
   11f54:	01212823          	sw	s2,16(sp)
   11f58:	fd870713          	addi	a4,a4,-40 # 3f490fd8 <__BSS_END__+0x3f47a430>
   11f5c:	00145413          	srli	s0,s0,0x1
   11f60:	00050493          	mv	s1,a0
   11f64:	10875c63          	bge	a4,s0,1207c <__ieee754_rem_pio2f+0x144>
   11f68:	4016d737          	lui	a4,0x4016d
   11f6c:	be370713          	addi	a4,a4,-1053 # 4016cbe3 <__BSS_END__+0x4015603b>
   11f70:	00078913          	mv	s2,a5
   11f74:	04874a63          	blt	a4,s0,11fc8 <__ieee754_rem_pio2f+0x90>
   11f78:	3fc91737          	lui	a4,0x3fc91
   11f7c:	c581a787          	flw	fa5,-936(gp) # 167e8 <__SDATA_BEGIN__>
   11f80:	ff047413          	andi	s0,s0,-16
   11f84:	fd070713          	addi	a4,a4,-48 # 3fc90fd0 <__BSS_END__+0x3fc7a428>
   11f88:	24f05463          	blez	a5,121d0 <__ieee754_rem_pio2f+0x298>
   11f8c:	08f577d3          	fsub.s	fa5,fa0,fa5
   11f90:	12e40263          	beq	s0,a4,120b4 <__ieee754_rem_pio2f+0x17c>
   11f94:	c5c1a707          	flw	fa4,-932(gp) # 167ec <__SDATA_BEGIN__+0x4>
   11f98:	08e7f6d3          	fsub.s	fa3,fa5,fa4
   11f9c:	00100513          	li	a0,1
   11fa0:	08d7f7d3          	fsub.s	fa5,fa5,fa3
   11fa4:	00d4a027          	fsw	fa3,0(s1)
   11fa8:	08e7f7d3          	fsub.s	fa5,fa5,fa4
   11fac:	00f4a227          	fsw	fa5,4(s1)
   11fb0:	01c12083          	lw	ra,28(sp)
   11fb4:	01812403          	lw	s0,24(sp)
   11fb8:	01412483          	lw	s1,20(sp)
   11fbc:	01012903          	lw	s2,16(sp)
   11fc0:	02010113          	addi	sp,sp,32
   11fc4:	00008067          	ret
   11fc8:	43491737          	lui	a4,0x43491
   11fcc:	f8070713          	addi	a4,a4,-128 # 43490f80 <__BSS_END__+0x4347a3d8>
   11fd0:	0e875a63          	bge	a4,s0,120c4 <__ieee754_rem_pio2f+0x18c>
   11fd4:	7f800737          	lui	a4,0x7f800
   11fd8:	0ce45463          	bge	s0,a4,120a0 <__ieee754_rem_pio2f+0x168>
   11fdc:	41745613          	srai	a2,s0,0x17
   11fe0:	f7a60613          	addi	a2,a2,-134
   11fe4:	01761793          	slli	a5,a2,0x17
   11fe8:	40f40433          	sub	s0,s0,a5
   11fec:	f00407d3          	fmv.w.x	fa5,s0
   11ff0:	f0040753          	fmv.w.x	fa4,s0
   11ff4:	c00797d3          	fcvt.w.s	a5,fa5,rtz
   11ff8:	c781a687          	flw	fa3,-904(gp) # 16808 <__SDATA_BEGIN__+0x20>
   11ffc:	f0000653          	fmv.w.x	fa2,zero
   12000:	d007f7d3          	fcvt.s.w	fa5,a5
   12004:	00300693          	li	a3,3
   12008:	08f77753          	fsub.s	fa4,fa4,fa5
   1200c:	00f12227          	fsw	fa5,4(sp)
   12010:	10d777d3          	fmul.s	fa5,fa4,fa3
   12014:	c00797d3          	fcvt.w.s	a5,fa5,rtz
   12018:	d007f753          	fcvt.s.w	fa4,a5
   1201c:	08e7f7d3          	fsub.s	fa5,fa5,fa4
   12020:	00e12427          	fsw	fa4,8(sp)
   12024:	10d7f7d3          	fmul.s	fa5,fa5,fa3
   12028:	a0c7a7d3          	feq.s	a5,fa5,fa2
   1202c:	00f12627          	fsw	fa5,12(sp)
   12030:	00078863          	beqz	a5,12040 <__ieee754_rem_pio2f+0x108>
   12034:	a0c726d3          	feq.s	a3,fa4,fa2
   12038:	0016b693          	seqz	a3,a3
   1203c:	00168693          	addi	a3,a3,1 # 7f800001 <__BSS_END__+0x7f7e9459>
   12040:	000157b7          	lui	a5,0x15
   12044:	09878793          	addi	a5,a5,152 # 15098 <two_over_pi>
   12048:	00200713          	li	a4,2
   1204c:	00048593          	mv	a1,s1
   12050:	00410513          	addi	a0,sp,4
   12054:	2b4000ef          	jal	ra,12308 <__kernel_rem_pio2f>
   12058:	f4095ce3          	bgez	s2,11fb0 <__ieee754_rem_pio2f+0x78>
   1205c:	0004a707          	flw	fa4,0(s1)
   12060:	0044a787          	flw	fa5,4(s1)
   12064:	40a00533          	neg	a0,a0
   12068:	20e71753          	fneg.s	fa4,fa4
   1206c:	20f797d3          	fneg.s	fa5,fa5
   12070:	00e4a027          	fsw	fa4,0(s1)
   12074:	00f4a227          	fsw	fa5,4(s1)
   12078:	f39ff06f          	j	11fb0 <__ieee754_rem_pio2f+0x78>
   1207c:	01c12083          	lw	ra,28(sp)
   12080:	01812403          	lw	s0,24(sp)
   12084:	00a4a027          	fsw	fa0,0(s1)
   12088:	00052223          	sw	zero,4(a0)
   1208c:	01412483          	lw	s1,20(sp)
   12090:	01012903          	lw	s2,16(sp)
   12094:	00000513          	li	a0,0
   12098:	02010113          	addi	sp,sp,32
   1209c:	00008067          	ret
   120a0:	08a577d3          	fsub.s	fa5,fa0,fa0
   120a4:	00000513          	li	a0,0
   120a8:	00f4a227          	fsw	fa5,4(s1)
   120ac:	00f4a027          	fsw	fa5,0(s1)
   120b0:	f01ff06f          	j	11fb0 <__ieee754_rem_pio2f+0x78>
   120b4:	c641a707          	flw	fa4,-924(gp) # 167f4 <__SDATA_BEGIN__+0xc>
   120b8:	c601a687          	flw	fa3,-928(gp) # 167f0 <__SDATA_BEGIN__+0x8>
   120bc:	08d7f7d3          	fsub.s	fa5,fa5,fa3
   120c0:	ed9ff06f          	j	11f98 <__ieee754_rem_pio2f+0x60>
   120c4:	389000ef          	jal	ra,12c4c <fabsf>
   120c8:	c681a787          	flw	fa5,-920(gp) # 167f8 <__SDATA_BEGIN__+0x10>
   120cc:	c6c1a707          	flw	fa4,-916(gp) # 167fc <__SDATA_BEGIN__+0x14>
   120d0:	01f00793          	li	a5,31
   120d4:	70f577c3          	fmadd.s	fa5,fa0,fa5,fa4
   120d8:	c0079553          	fcvt.w.s	a0,fa5,rtz
   120dc:	c581a787          	flw	fa5,-936(gp) # 167e8 <__SDATA_BEGIN__>
   120e0:	d0057753          	fcvt.s.w	fa4,a0
   120e4:	50f7754b          	fnmsub.s	fa0,fa4,fa5,fa0
   120e8:	c5c1a787          	flw	fa5,-932(gp) # 167ec <__SDATA_BEGIN__+0x4>
   120ec:	10f777d3          	fmul.s	fa5,fa4,fa5
   120f0:	04a7ce63          	blt	a5,a0,1214c <__ieee754_rem_pio2f+0x214>
   120f4:	fff50793          	addi	a5,a0,-1
   120f8:	00279713          	slli	a4,a5,0x2
   120fc:	000157b7          	lui	a5,0x15
   12100:	08f576d3          	fsub.s	fa3,fa0,fa5
   12104:	01878793          	addi	a5,a5,24 # 15018 <npio2_hw>
   12108:	00e787b3          	add	a5,a5,a4
   1210c:	0007a683          	lw	a3,0(a5)
   12110:	f0047713          	andi	a4,s0,-256
   12114:	e00687d3          	fmv.x.w	a5,fa3
   12118:	02d70e63          	beq	a4,a3,12154 <__ieee754_rem_pio2f+0x21c>
   1211c:	00f4a023          	sw	a5,0(s1)
   12120:	f0078753          	fmv.w.x	fa4,a5
   12124:	08e57553          	fsub.s	fa0,fa0,fa4
   12128:	08f57553          	fsub.s	fa0,fa0,fa5
   1212c:	00a4a227          	fsw	fa0,4(s1)
   12130:	e80950e3          	bgez	s2,11fb0 <__ieee754_rem_pio2f+0x78>
   12134:	20e717d3          	fneg.s	fa5,fa4
   12138:	20a51553          	fneg.s	fa0,fa0
   1213c:	40a00533          	neg	a0,a0
   12140:	00f4a027          	fsw	fa5,0(s1)
   12144:	00a4a227          	fsw	fa0,4(s1)
   12148:	e69ff06f          	j	11fb0 <__ieee754_rem_pio2f+0x78>
   1214c:	08f576d3          	fsub.s	fa3,fa0,fa5
   12150:	e00687d3          	fmv.x.w	a5,fa3
   12154:	0177d713          	srli	a4,a5,0x17
   12158:	41745413          	srai	s0,s0,0x17
   1215c:	0ff77713          	andi	a4,a4,255
   12160:	40e40733          	sub	a4,s0,a4
   12164:	00800693          	li	a3,8
   12168:	fae6dae3          	bge	a3,a4,1211c <__ieee754_rem_pio2f+0x1e4>
   1216c:	c601a787          	flw	fa5,-928(gp) # 167f0 <__SDATA_BEGIN__+0x8>
   12170:	01900693          	li	a3,25
   12174:	50f776cb          	fnmsub.s	fa3,fa4,fa5,fa0
   12178:	08d57553          	fsub.s	fa0,fa0,fa3
   1217c:	50f7754b          	fnmsub.s	fa0,fa4,fa5,fa0
   12180:	c641a787          	flw	fa5,-924(gp) # 167f4 <__SDATA_BEGIN__+0xc>
   12184:	50f777c7          	fmsub.s	fa5,fa4,fa5,fa0
   12188:	08f6f653          	fsub.s	fa2,fa3,fa5
   1218c:	e00607d3          	fmv.x.w	a5,fa2
   12190:	0177d713          	srli	a4,a5,0x17
   12194:	0ff77713          	andi	a4,a4,255
   12198:	40e40433          	sub	s0,s0,a4
   1219c:	0086c863          	blt	a3,s0,121ac <__ieee754_rem_pio2f+0x274>
   121a0:	20d68553          	fmv.s	fa0,fa3
   121a4:	00c4a027          	fsw	fa2,0(s1)
   121a8:	f79ff06f          	j	12120 <__ieee754_rem_pio2f+0x1e8>
   121ac:	c701a787          	flw	fa5,-912(gp) # 16800 <__SDATA_BEGIN__+0x18>
   121b0:	68f7754b          	fnmsub.s	fa0,fa4,fa5,fa3
   121b4:	08a6f6d3          	fsub.s	fa3,fa3,fa0
   121b8:	68f776cb          	fnmsub.s	fa3,fa4,fa5,fa3
   121bc:	c741a787          	flw	fa5,-908(gp) # 16804 <__SDATA_BEGIN__+0x1c>
   121c0:	68f777c7          	fmsub.s	fa5,fa4,fa5,fa3
   121c4:	08f57753          	fsub.s	fa4,fa0,fa5
   121c8:	e00707d3          	fmv.x.w	a5,fa4
   121cc:	f51ff06f          	j	1211c <__ieee754_rem_pio2f+0x1e4>
   121d0:	00f577d3          	fadd.s	fa5,fa0,fa5
   121d4:	02e40263          	beq	s0,a4,121f8 <__ieee754_rem_pio2f+0x2c0>
   121d8:	c5c1a707          	flw	fa4,-932(gp) # 167ec <__SDATA_BEGIN__+0x4>
   121dc:	00e7f6d3          	fadd.s	fa3,fa5,fa4
   121e0:	fff00513          	li	a0,-1
   121e4:	08d7f7d3          	fsub.s	fa5,fa5,fa3
   121e8:	00d4a027          	fsw	fa3,0(s1)
   121ec:	00e7f7d3          	fadd.s	fa5,fa5,fa4
   121f0:	00f4a227          	fsw	fa5,4(s1)
   121f4:	dbdff06f          	j	11fb0 <__ieee754_rem_pio2f+0x78>
   121f8:	c641a707          	flw	fa4,-924(gp) # 167f4 <__SDATA_BEGIN__+0xc>
   121fc:	c601a687          	flw	fa3,-928(gp) # 167f0 <__SDATA_BEGIN__+0x8>
   12200:	00d7f7d3          	fadd.s	fa5,fa5,fa3
   12204:	fd9ff06f          	j	121dc <__ieee754_rem_pio2f+0x2a4>

00012208 <__kernel_cosf>:
   12208:	e00507d3          	fmv.x.w	a5,fa0
   1220c:	320006b7          	lui	a3,0x32000
   12210:	00179713          	slli	a4,a5,0x1
   12214:	00175713          	srli	a4,a4,0x1
   12218:	06d75063          	bge	a4,a3,12278 <__kernel_cosf+0x70>
   1221c:	c0051753          	fcvt.w.s	a4,fa0,rtz
   12220:	0e070063          	beqz	a4,12300 <__kernel_cosf+0xf8>
   12224:	10a576d3          	fmul.s	fa3,fa0,fa0
   12228:	c881a707          	flw	fa4,-888(gp) # 16818 <__SDATA_BEGIN__+0x30>
   1222c:	c8c1a787          	flw	fa5,-884(gp) # 1681c <__SDATA_BEGIN__+0x34>
   12230:	78e6f743          	fmadd.s	fa4,fa3,fa4,fa5
   12234:	c901a787          	flw	fa5,-880(gp) # 16820 <__SDATA_BEGIN__+0x38>
   12238:	78e6f743          	fmadd.s	fa4,fa3,fa4,fa5
   1223c:	c941a787          	flw	fa5,-876(gp) # 16824 <__SDATA_BEGIN__+0x3c>
   12240:	78e6f743          	fmadd.s	fa4,fa3,fa4,fa5
   12244:	c981a787          	flw	fa5,-872(gp) # 16828 <__SDATA_BEGIN__+0x40>
   12248:	78e6f743          	fmadd.s	fa4,fa3,fa4,fa5
   1224c:	c9c1a787          	flw	fa5,-868(gp) # 1682c <__SDATA_BEGIN__+0x44>
   12250:	78e6f7c3          	fmadd.s	fa5,fa3,fa4,fa5
   12254:	10f6f7d3          	fmul.s	fa5,fa3,fa5
   12258:	f0078753          	fmv.w.x	fa4,a5
   1225c:	c6c1a507          	flw	fa0,-916(gp) # 167fc <__SDATA_BEGIN__+0x14>
   12260:	10b775d3          	fmul.s	fa1,fa4,fa1
   12264:	58f6f7c7          	fmsub.s	fa5,fa3,fa5,fa1
   12268:	78a6f7c7          	fmsub.s	fa5,fa3,fa0,fa5
   1226c:	c841a507          	flw	fa0,-892(gp) # 16814 <__SDATA_BEGIN__+0x2c>
   12270:	08f57553          	fsub.s	fa0,fa0,fa5
   12274:	00008067          	ret
   12278:	10a576d3          	fmul.s	fa3,fa0,fa0
   1227c:	c881a787          	flw	fa5,-888(gp) # 16818 <__SDATA_BEGIN__+0x30>
   12280:	c8c1a707          	flw	fa4,-884(gp) # 1681c <__SDATA_BEGIN__+0x34>
   12284:	70f6f7c3          	fmadd.s	fa5,fa3,fa5,fa4
   12288:	c901a707          	flw	fa4,-880(gp) # 16820 <__SDATA_BEGIN__+0x38>
   1228c:	3e99a6b7          	lui	a3,0x3e99a
   12290:	99968693          	addi	a3,a3,-1639 # 3e999999 <__BSS_END__+0x3e982df1>
   12294:	70d7f7c3          	fmadd.s	fa5,fa5,fa3,fa4
   12298:	c941a707          	flw	fa4,-876(gp) # 16824 <__SDATA_BEGIN__+0x3c>
   1229c:	70d7f7c3          	fmadd.s	fa5,fa5,fa3,fa4
   122a0:	c981a707          	flw	fa4,-872(gp) # 16828 <__SDATA_BEGIN__+0x40>
   122a4:	70d7f7c3          	fmadd.s	fa5,fa5,fa3,fa4
   122a8:	c9c1a707          	flw	fa4,-868(gp) # 1682c <__SDATA_BEGIN__+0x44>
   122ac:	70d7f7c3          	fmadd.s	fa5,fa5,fa3,fa4
   122b0:	10d7f7d3          	fmul.s	fa5,fa5,fa3
   122b4:	fae6d2e3          	bge	a3,a4,12258 <__kernel_cosf+0x50>
   122b8:	3f4806b7          	lui	a3,0x3f480
   122bc:	02e6cc63          	blt	a3,a4,122f4 <__kernel_cosf+0xec>
   122c0:	ff0006b7          	lui	a3,0xff000
   122c4:	00d70733          	add	a4,a4,a3
   122c8:	c841a507          	flw	fa0,-892(gp) # 16814 <__SDATA_BEGIN__+0x2c>
   122cc:	f0070753          	fmv.w.x	fa4,a4
   122d0:	08e57553          	fsub.s	fa0,fa0,fa4
   122d4:	f0078653          	fmv.w.x	fa2,a5
   122d8:	10b675d3          	fmul.s	fa1,fa2,fa1
   122dc:	c6c1a607          	flw	fa2,-916(gp) # 167fc <__SDATA_BEGIN__+0x14>
   122e0:	58f6f7c7          	fmsub.s	fa5,fa3,fa5,fa1
   122e4:	70c6f6c7          	fmsub.s	fa3,fa3,fa2,fa4
   122e8:	08f6f7d3          	fsub.s	fa5,fa3,fa5
   122ec:	08f57553          	fsub.s	fa0,fa0,fa5
   122f0:	00008067          	ret
   122f4:	c7c1a507          	flw	fa0,-900(gp) # 1680c <__SDATA_BEGIN__+0x24>
   122f8:	c801a707          	flw	fa4,-896(gp) # 16810 <__SDATA_BEGIN__+0x28>
   122fc:	fd9ff06f          	j	122d4 <__kernel_cosf+0xcc>
   12300:	c841a507          	flw	fa0,-892(gp) # 16814 <__SDATA_BEGIN__+0x2c>
   12304:	00008067          	ret

00012308 <__kernel_rem_pio2f>:
   12308:	e4010113          	addi	sp,sp,-448
   1230c:	1a912a23          	sw	s1,436(sp)
   12310:	000154b7          	lui	s1,0x15
   12314:	3b048893          	addi	a7,s1,944 # 153b0 <init_jk>
   12318:	00e12a23          	sw	a4,20(sp)
   1231c:	00271713          	slli	a4,a4,0x2
   12320:	00068813          	mv	a6,a3
   12324:	1a812c23          	sw	s0,440(sp)
   12328:	1b212823          	sw	s2,432(sp)
   1232c:	19a12823          	sw	s10,400(sp)
   12330:	00e88733          	add	a4,a7,a4
   12334:	1a112e23          	sw	ra,444(sp)
   12338:	1b312623          	sw	s3,428(sp)
   1233c:	1b412423          	sw	s4,424(sp)
   12340:	1b512223          	sw	s5,420(sp)
   12344:	1b612023          	sw	s6,416(sp)
   12348:	19712e23          	sw	s7,412(sp)
   1234c:	19812c23          	sw	s8,408(sp)
   12350:	19912a23          	sw	s9,404(sp)
   12354:	19b12623          	sw	s11,396(sp)
   12358:	16812e27          	fsw	fs0,380(sp)
   1235c:	16912c27          	fsw	fs1,376(sp)
   12360:	17212a27          	fsw	fs2,372(sp)
   12364:	17312827          	fsw	fs3,368(sp)
   12368:	17412627          	fsw	fs4,364(sp)
   1236c:	17512427          	fsw	fs5,360(sp)
   12370:	17612227          	fsw	fs6,356(sp)
   12374:	01112623          	sw	a7,12(sp)
   12378:	00c12e23          	sw	a2,28(sp)
   1237c:	ffc00693          	li	a3,-4
   12380:	00b12823          	sw	a1,16(sp)
   12384:	00f12223          	sw	a5,4(sp)
   12388:	00072d03          	lw	s10,0(a4) # 7f800000 <__BSS_END__+0x7f7e9458>
   1238c:	00050913          	mv	s2,a0
   12390:	fff80413          	addi	s0,a6,-1
   12394:	78d64463          	blt	a2,a3,12b1c <__kernel_rem_pio2f+0x814>
   12398:	ffd60793          	addi	a5,a2,-3
   1239c:	41f7d713          	srai	a4,a5,0x1f
   123a0:	00777713          	andi	a4,a4,7
   123a4:	00f707b3          	add	a5,a4,a5
   123a8:	4037d793          	srai	a5,a5,0x3
   123ac:	00178b93          	addi	s7,a5,1
   123b0:	00f12023          	sw	a5,0(sp)
   123b4:	003b9793          	slli	a5,s7,0x3
   123b8:	00f12c23          	sw	a5,24(sp)
   123bc:	01c12783          	lw	a5,28(sp)
   123c0:	01812683          	lw	a3,24(sp)
   123c4:	008d0733          	add	a4,s10,s0
   123c8:	40d78ab3          	sub	s5,a5,a3
   123cc:	00012783          	lw	a5,0(sp)
   123d0:	408787b3          	sub	a5,a5,s0
   123d4:	04074063          	bltz	a4,12414 <__kernel_rem_pio2f+0x10c>
   123d8:	00412583          	lw	a1,4(sp)
   123dc:	00170613          	addi	a2,a4,1
   123e0:	00279693          	slli	a3,a5,0x2
   123e4:	07010713          	addi	a4,sp,112
   123e8:	00d586b3          	add	a3,a1,a3
   123ec:	00f60633          	add	a2,a2,a5
   123f0:	f00007d3          	fmv.w.x	fa5,zero
   123f4:	0007c663          	bltz	a5,12400 <__kernel_rem_pio2f+0xf8>
   123f8:	0006a503          	lw	a0,0(a3) # ff000000 <__BSS_END__+0xfefe9458>
   123fc:	d00577d3          	fcvt.s.w	fa5,a0
   12400:	00178793          	addi	a5,a5,1
   12404:	00f72027          	fsw	fa5,0(a4)
   12408:	00470713          	addi	a4,a4,4
   1240c:	00468693          	addi	a3,a3,4
   12410:	fec790e3          	bne	a5,a2,123f0 <__kernel_rem_pio2f+0xe8>
   12414:	060d4063          	bltz	s10,12474 <__kernel_rem_pio2f+0x16c>
   12418:	00241613          	slli	a2,s0,0x2
   1241c:	00460693          	addi	a3,a2,4
   12420:	07010793          	addi	a5,sp,112
   12424:	11010e13          	addi	t3,sp,272
   12428:	00040513          	mv	a0,s0
   1242c:	00c78633          	add	a2,a5,a2
   12430:	010d0eb3          	add	t4,s10,a6
   12434:	012686b3          	add	a3,a3,s2
   12438:	f00007d3          	fmv.w.x	fa5,zero
   1243c:	00060713          	mv	a4,a2
   12440:	00090793          	mv	a5,s2
   12444:	00044e63          	bltz	s0,12460 <__kernel_rem_pio2f+0x158>
   12448:	0007a687          	flw	fa3,0(a5)
   1244c:	00072707          	flw	fa4,0(a4)
   12450:	00478793          	addi	a5,a5,4
   12454:	ffc70713          	addi	a4,a4,-4
   12458:	78e6f7c3          	fmadd.s	fa5,fa3,fa4,fa5
   1245c:	fed796e3          	bne	a5,a3,12448 <__kernel_rem_pio2f+0x140>
   12460:	00fe2027          	fsw	fa5,0(t3)
   12464:	00150513          	addi	a0,a0,1
   12468:	004e0e13          	addi	t3,t3,4
   1246c:	00460613          	addi	a2,a2,4
   12470:	fdd514e3          	bne	a0,t4,12438 <__kernel_rem_pio2f+0x130>
   12474:	ca41aa87          	flw	fs5,-860(gp) # 16834 <__SDATA_BEGIN__+0x4c>
   12478:	c781aa07          	flw	fs4,-904(gp) # 16808 <__SDATA_BEGIN__+0x20>
   1247c:	ca81a487          	flw	fs1,-856(gp) # 16838 <__SDATA_BEGIN__+0x50>
   12480:	cac1a407          	flw	fs0,-852(gp) # 1683c <__SDATA_BEGIN__+0x54>
   12484:	002d1793          	slli	a5,s10,0x2
   12488:	c841a987          	flw	fs3,-892(gp) # 16814 <__SDATA_BEGIN__+0x2c>
   1248c:	c6c1a907          	flw	fs2,-916(gp) # 167fc <__SDATA_BEGIN__+0x14>
   12490:	02010b13          	addi	s6,sp,32
   12494:	ff878993          	addi	s3,a5,-8
   12498:	01c10713          	addi	a4,sp,28
   1249c:	00281c93          	slli	s9,a6,0x2
   124a0:	00f704b3          	add	s1,a4,a5
   124a4:	013b07b3          	add	a5,s6,s3
   124a8:	00f12423          	sw	a5,8(sp)
   124ac:	01990cb3          	add	s9,s2,s9
   124b0:	000d0a13          	mv	s4,s10
   124b4:	11010d93          	addi	s11,sp,272
   124b8:	002a1993          	slli	s3,s4,0x2
   124bc:	16010793          	addi	a5,sp,352
   124c0:	013787b3          	add	a5,a5,s3
   124c4:	fb07a507          	flw	fa0,-80(a5)
   124c8:	05405063          	blez	s4,12508 <__kernel_rem_pio2f+0x200>
   124cc:	ffc98793          	addi	a5,s3,-4
   124d0:	00fd87b3          	add	a5,s11,a5
   124d4:	000b0713          	mv	a4,s6
   124d8:	115577d3          	fmul.s	fa5,fa0,fs5
   124dc:	0007a687          	flw	fa3,0(a5)
   124e0:	00470713          	addi	a4,a4,4
   124e4:	00078613          	mv	a2,a5
   124e8:	ffc78793          	addi	a5,a5,-4
   124ec:	c0079553          	fcvt.w.s	a0,fa5,rtz
   124f0:	d00577d3          	fcvt.s.w	fa5,a0
   124f4:	5147f74b          	fnmsub.s	fa4,fa5,fs4,fa0
   124f8:	00d7f553          	fadd.s	fa0,fa5,fa3
   124fc:	c0071553          	fcvt.w.s	a0,fa4,rtz
   12500:	fea72e23          	sw	a0,-4(a4)
   12504:	fccd9ae3          	bne	s11,a2,124d8 <__kernel_rem_pio2f+0x1d0>
   12508:	000a8513          	mv	a0,s5
   1250c:	001000ef          	jal	ra,12d0c <scalbnf>
   12510:	20a50b53          	fmv.s	fs6,fa0
   12514:	10957553          	fmul.s	fa0,fa0,fs1
   12518:	73c000ef          	jal	ra,12c54 <floorf>
   1251c:	b085754b          	fnmsub.s	fa0,fa0,fs0,fs6
   12520:	c0051bd3          	fcvt.w.s	s7,fa0,rtz
   12524:	d00bfb53          	fcvt.s.w	fs6,s7
   12528:	09657b53          	fsub.s	fs6,fa0,fs6
   1252c:	15505063          	blez	s5,1266c <__kernel_rem_pio2f+0x364>
   12530:	fffa0713          	addi	a4,s4,-1
   12534:	16010793          	addi	a5,sp,352
   12538:	00271713          	slli	a4,a4,0x2
   1253c:	00e78733          	add	a4,a5,a4
   12540:	ec072e83          	lw	t4,-320(a4)
   12544:	00800793          	li	a5,8
   12548:	415787b3          	sub	a5,a5,s5
   1254c:	40fed533          	sra	a0,t4,a5
   12550:	00f51633          	sll	a2,a0,a5
   12554:	00700793          	li	a5,7
   12558:	40ce8633          	sub	a2,t4,a2
   1255c:	415787b3          	sub	a5,a5,s5
   12560:	ecc72023          	sw	a2,-320(a4)
   12564:	40f65c33          	sra	s8,a2,a5
   12568:	00ab8bb3          	add	s7,s7,a0
   1256c:	13804063          	bgtz	s8,1268c <__kernel_rem_pio2f+0x384>
   12570:	f0000753          	fmv.w.x	fa4,zero
   12574:	a0eb27d3          	feq.s	a5,fs6,fa4
   12578:	20078463          	beqz	a5,12780 <__kernel_rem_pio2f+0x478>
   1257c:	fffa0e93          	addi	t4,s4,-1
   12580:	03aec463          	blt	t4,s10,125a8 <__kernel_rem_pio2f+0x2a0>
   12584:	002a1793          	slli	a5,s4,0x2
   12588:	ffc78793          	addi	a5,a5,-4
   1258c:	00fb07b3          	add	a5,s6,a5
   12590:	00000713          	li	a4,0
   12594:	0007a503          	lw	a0,0(a5)
   12598:	ffc78793          	addi	a5,a5,-4
   1259c:	00a76733          	or	a4,a4,a0
   125a0:	fe979ae3          	bne	a5,s1,12594 <__kernel_rem_pio2f+0x28c>
   125a4:	3e071463          	bnez	a4,1298c <__kernel_rem_pio2f+0x684>
   125a8:	fffd0793          	addi	a5,s10,-1
   125ac:	00279793          	slli	a5,a5,0x2
   125b0:	16010713          	addi	a4,sp,352
   125b4:	00f707b3          	add	a5,a4,a5
   125b8:	ec07a783          	lw	a5,-320(a5)
   125bc:	3c079063          	bnez	a5,1297c <__kernel_rem_pio2f+0x674>
   125c0:	00812783          	lw	a5,8(sp)
   125c4:	00100713          	li	a4,1
   125c8:	0007a603          	lw	a2,0(a5)
   125cc:	00170713          	addi	a4,a4,1
   125d0:	ffc78793          	addi	a5,a5,-4
   125d4:	fe060ae3          	beqz	a2,125c8 <__kernel_rem_pio2f+0x2c0>
   125d8:	001a0793          	addi	a5,s4,1
   125dc:	00078e93          	mv	t4,a5
   125e0:	00ea0f33          	add	t5,s4,a4
   125e4:	00012703          	lw	a4,0(sp)
   125e8:	00f406b3          	add	a3,s0,a5
   125ec:	00269693          	slli	a3,a3,0x2
   125f0:	00f70533          	add	a0,a4,a5
   125f4:	16010713          	addi	a4,sp,352
   125f8:	00d706b3          	add	a3,a4,a3
   125fc:	00412703          	lw	a4,4(sp)
   12600:	00251513          	slli	a0,a0,0x2
   12604:	00279793          	slli	a5,a5,0x2
   12608:	00a70533          	add	a0,a4,a0
   1260c:	00fd8633          	add	a2,s11,a5
   12610:	f0c68693          	addi	a3,a3,-244
   12614:	00052783          	lw	a5,0(a0)
   12618:	f00007d3          	fmv.w.x	fa5,zero
   1261c:	d007f753          	fcvt.s.w	fa4,a5
   12620:	00e6a227          	fsw	fa4,4(a3)
   12624:	02044463          	bltz	s0,1264c <__kernel_rem_pio2f+0x344>
   12628:	00068713          	mv	a4,a3
   1262c:	00090793          	mv	a5,s2
   12630:	00c0006f          	j	1263c <__kernel_rem_pio2f+0x334>
   12634:	00072707          	flw	fa4,0(a4)
   12638:	ffc70713          	addi	a4,a4,-4
   1263c:	0007a687          	flw	fa3,0(a5)
   12640:	00478793          	addi	a5,a5,4
   12644:	78e6f7c3          	fmadd.s	fa5,fa3,fa4,fa5
   12648:	ff9796e3          	bne	a5,s9,12634 <__kernel_rem_pio2f+0x32c>
   1264c:	00f62027          	fsw	fa5,0(a2)
   12650:	001e8e93          	addi	t4,t4,1
   12654:	00450513          	addi	a0,a0,4
   12658:	00460613          	addi	a2,a2,4
   1265c:	00468693          	addi	a3,a3,4
   12660:	fbdf5ae3          	bge	t5,t4,12614 <__kernel_rem_pio2f+0x30c>
   12664:	000f0a13          	mv	s4,t5
   12668:	e51ff06f          	j	124b8 <__kernel_rem_pio2f+0x1b0>
   1266c:	2e0a9863          	bnez	s5,1295c <__kernel_rem_pio2f+0x654>
   12670:	fffa0793          	addi	a5,s4,-1
   12674:	00279793          	slli	a5,a5,0x2
   12678:	16010713          	addi	a4,sp,352
   1267c:	00f707b3          	add	a5,a4,a5
   12680:	ec07a603          	lw	a2,-320(a5)
   12684:	40765c13          	srai	s8,a2,0x7
   12688:	ef8054e3          	blez	s8,12570 <__kernel_rem_pio2f+0x268>
   1268c:	001b8b93          	addi	s7,s7,1
   12690:	49405e63          	blez	s4,12b2c <__kernel_rem_pio2f+0x824>
   12694:	02012e83          	lw	t4,32(sp)
   12698:	00100793          	li	a5,1
   1269c:	2a0e9c63          	bnez	t4,12954 <__kernel_rem_pio2f+0x64c>
   126a0:	08fa0263          	beq	s4,a5,12724 <__kernel_rem_pio2f+0x41c>
   126a4:	02412e83          	lw	t4,36(sp)
   126a8:	02410513          	addi	a0,sp,36
   126ac:	00100713          	li	a4,1
   126b0:	00170793          	addi	a5,a4,1
   126b4:	00450513          	addi	a0,a0,4
   126b8:	000e9e63          	bnez	t4,126d4 <__kernel_rem_pio2f+0x3cc>
   126bc:	06fa0463          	beq	s4,a5,12724 <__kernel_rem_pio2f+0x41c>
   126c0:	00052e83          	lw	t4,0(a0)
   126c4:	00078713          	mv	a4,a5
   126c8:	00170793          	addi	a5,a4,1
   126cc:	00450513          	addi	a0,a0,4
   126d0:	fe0e86e3          	beqz	t4,126bc <__kernel_rem_pio2f+0x3b4>
   126d4:	00271713          	slli	a4,a4,0x2
   126d8:	16010693          	addi	a3,sp,352
   126dc:	00e68533          	add	a0,a3,a4
   126e0:	10000713          	li	a4,256
   126e4:	41d70733          	sub	a4,a4,t4
   126e8:	ece52023          	sw	a4,-320(a0)
   126ec:	0347da63          	bge	a5,s4,12720 <__kernel_rem_pio2f+0x418>
   126f0:	00279793          	slli	a5,a5,0x2
   126f4:	00f68733          	add	a4,a3,a5
   126f8:	ec072703          	lw	a4,-320(a4)
   126fc:	00fb07b3          	add	a5,s6,a5
   12700:	013b0eb3          	add	t4,s6,s3
   12704:	0ff00513          	li	a0,255
   12708:	0080006f          	j	12710 <__kernel_rem_pio2f+0x408>
   1270c:	0007a703          	lw	a4,0(a5)
   12710:	40e50733          	sub	a4,a0,a4
   12714:	00e7a023          	sw	a4,0(a5)
   12718:	00478793          	addi	a5,a5,4
   1271c:	ffd798e3          	bne	a5,t4,1270c <__kernel_rem_pio2f+0x404>
   12720:	00100e93          	li	t4,1
   12724:	03505863          	blez	s5,12754 <__kernel_rem_pio2f+0x44c>
   12728:	00100793          	li	a5,1
   1272c:	3cfa8863          	beq	s5,a5,12afc <__kernel_rem_pio2f+0x7f4>
   12730:	00200793          	li	a5,2
   12734:	02fa9063          	bne	s5,a5,12754 <__kernel_rem_pio2f+0x44c>
   12738:	fffa0793          	addi	a5,s4,-1
   1273c:	16010713          	addi	a4,sp,352
   12740:	00279793          	slli	a5,a5,0x2
   12744:	00f707b3          	add	a5,a4,a5
   12748:	ec07a703          	lw	a4,-320(a5)
   1274c:	03f77713          	andi	a4,a4,63
   12750:	ece7a023          	sw	a4,-320(a5)
   12754:	00200793          	li	a5,2
   12758:	e0fc1ce3          	bne	s8,a5,12570 <__kernel_rem_pio2f+0x268>
   1275c:	0969fb53          	fsub.s	fs6,fs3,fs6
   12760:	e00e88e3          	beqz	t4,12570 <__kernel_rem_pio2f+0x268>
   12764:	21398553          	fmv.s	fa0,fs3
   12768:	000a8513          	mv	a0,s5
   1276c:	5a0000ef          	jal	ra,12d0c <scalbnf>
   12770:	08ab7b53          	fsub.s	fs6,fs6,fa0
   12774:	f0000753          	fmv.w.x	fa4,zero
   12778:	a0eb27d3          	feq.s	a5,fs6,fa4
   1277c:	e00790e3          	bnez	a5,1257c <__kernel_rem_pio2f+0x274>
   12780:	01812783          	lw	a5,24(sp)
   12784:	01c12703          	lw	a4,28(sp)
   12788:	216b0553          	fmv.s	fa0,fs6
   1278c:	40e78533          	sub	a0,a5,a4
   12790:	57c000ef          	jal	ra,12d0c <scalbnf>
   12794:	c781a707          	flw	fa4,-904(gp) # 16808 <__SDATA_BEGIN__+0x20>
   12798:	a0a707d3          	fle.s	a5,fa4,fa0
   1279c:	38078c63          	beqz	a5,12b34 <__kernel_rem_pio2f+0x82c>
   127a0:	ca41a687          	flw	fa3,-860(gp) # 16834 <__SDATA_BEGIN__+0x4c>
   127a4:	001a0e93          	addi	t4,s4,1
   127a8:	16010793          	addi	a5,sp,352
   127ac:	10d576d3          	fmul.s	fa3,fa0,fa3
   127b0:	01378fb3          	add	t6,a5,s3
   127b4:	16010713          	addi	a4,sp,352
   127b8:	002e9793          	slli	a5,t4,0x2
   127bc:	00f707b3          	add	a5,a4,a5
   127c0:	c0069753          	fcvt.w.s	a4,fa3,rtz
   127c4:	008a8a93          	addi	s5,s5,8
   127c8:	d00776d3          	fcvt.s.w	fa3,a4
   127cc:	50e6f7cb          	fnmsub.s	fa5,fa3,fa4,fa0
   127d0:	c0069753          	fcvt.w.s	a4,fa3,rtz
   127d4:	c00796d3          	fcvt.w.s	a3,fa5,rtz
   127d8:	ecdfa023          	sw	a3,-320(t6)
   127dc:	ece7a023          	sw	a4,-320(a5)
   127e0:	c841a507          	flw	fa0,-892(gp) # 16814 <__SDATA_BEGIN__+0x2c>
   127e4:	000a8513          	mv	a0,s5
   127e8:	01d12023          	sw	t4,0(sp)
   127ec:	520000ef          	jal	ra,12d0c <scalbnf>
   127f0:	00012e83          	lw	t4,0(sp)
   127f4:	380ecc63          	bltz	t4,12b8c <__kernel_rem_pio2f+0x884>
   127f8:	002e9893          	slli	a7,t4,0x2
   127fc:	ca41a687          	flw	fa3,-860(gp) # 16834 <__SDATA_BEGIN__+0x4c>
   12800:	11010793          	addi	a5,sp,272
   12804:	01178533          	add	a0,a5,a7
   12808:	00050713          	mv	a4,a0
   1280c:	011b07b3          	add	a5,s6,a7
   12810:	0007a583          	lw	a1,0(a5)
   12814:	ffc70713          	addi	a4,a4,-4
   12818:	00078693          	mv	a3,a5
   1281c:	d005f7d3          	fcvt.s.w	fa5,a1
   12820:	ffc78793          	addi	a5,a5,-4
   12824:	10a7f7d3          	fmul.s	fa5,fa5,fa0
   12828:	10d57553          	fmul.s	fa0,fa0,fa3
   1282c:	00f72227          	fsw	fa5,4(a4)
   12830:	fedb10e3          	bne	s6,a3,12810 <__kernel_rem_pio2f+0x508>
   12834:	0c010313          	addi	t1,sp,192
   12838:	ca01a607          	flw	fa2,-864(gp) # 16830 <__SDATA_BEGIN__+0x48>
   1283c:	00030813          	mv	a6,t1
   12840:	00000593          	li	a1,0
   12844:	040d4e63          	bltz	s10,128a0 <__kernel_rem_pio2f+0x598>
   12848:	00c12783          	lw	a5,12(sp)
   1284c:	20c60753          	fmv.s	fa4,fa2
   12850:	f00007d3          	fmv.w.x	fa5,zero
   12854:	01078693          	addi	a3,a5,16
   12858:	00050713          	mv	a4,a0
   1285c:	00000793          	li	a5,0
   12860:	0100006f          	j	12870 <__kernel_rem_pio2f+0x568>
   12864:	02f5c063          	blt	a1,a5,12884 <__kernel_rem_pio2f+0x57c>
   12868:	0006a707          	flw	fa4,0(a3)
   1286c:	00468693          	addi	a3,a3,4
   12870:	00072687          	flw	fa3,0(a4)
   12874:	00178793          	addi	a5,a5,1
   12878:	00470713          	addi	a4,a4,4
   1287c:	78e6f7c3          	fmadd.s	fa5,fa3,fa4,fa5
   12880:	fefd52e3          	bge	s10,a5,12864 <__kernel_rem_pio2f+0x55c>
   12884:	00f82027          	fsw	fa5,0(a6)
   12888:	00158793          	addi	a5,a1,1
   1288c:	00480813          	addi	a6,a6,4
   12890:	ffc50513          	addi	a0,a0,-4
   12894:	02be8263          	beq	t4,a1,128b8 <__kernel_rem_pio2f+0x5b0>
   12898:	00078593          	mv	a1,a5
   1289c:	fa0d56e3          	bgez	s10,12848 <__kernel_rem_pio2f+0x540>
   128a0:	f00007d3          	fmv.w.x	fa5,zero
   128a4:	00158793          	addi	a5,a1,1
   128a8:	00480813          	addi	a6,a6,4
   128ac:	fef82e27          	fsw	fa5,-4(a6)
   128b0:	ffc50513          	addi	a0,a0,-4
   128b4:	febe92e3          	bne	t4,a1,12898 <__kernel_rem_pio2f+0x590>
   128b8:	01412703          	lw	a4,20(sp)
   128bc:	00200793          	li	a5,2
   128c0:	16e7c263          	blt	a5,a4,12a24 <__kernel_rem_pio2f+0x71c>
   128c4:	f00007d3          	fmv.w.x	fa5,zero
   128c8:	011308b3          	add	a7,t1,a7
   128cc:	0ee04e63          	bgtz	a4,129c8 <__kernel_rem_pio2f+0x6c0>
   128d0:	02071463          	bnez	a4,128f8 <__kernel_rem_pio2f+0x5f0>
   128d4:	0008a707          	flw	fa4,0(a7)
   128d8:	00088793          	mv	a5,a7
   128dc:	ffc88893          	addi	a7,a7,-4
   128e0:	00e7f7d3          	fadd.s	fa5,fa5,fa4
   128e4:	fef318e3          	bne	t1,a5,128d4 <__kernel_rem_pio2f+0x5cc>
   128e8:	000c0463          	beqz	s8,128f0 <__kernel_rem_pio2f+0x5e8>
   128ec:	20f797d3          	fneg.s	fa5,fa5
   128f0:	01012783          	lw	a5,16(sp)
   128f4:	00f7a027          	fsw	fa5,0(a5)
   128f8:	1bc12083          	lw	ra,444(sp)
   128fc:	1b812403          	lw	s0,440(sp)
   12900:	1b412483          	lw	s1,436(sp)
   12904:	1b012903          	lw	s2,432(sp)
   12908:	1ac12983          	lw	s3,428(sp)
   1290c:	1a812a03          	lw	s4,424(sp)
   12910:	1a412a83          	lw	s5,420(sp)
   12914:	1a012b03          	lw	s6,416(sp)
   12918:	19812c03          	lw	s8,408(sp)
   1291c:	19412c83          	lw	s9,404(sp)
   12920:	19012d03          	lw	s10,400(sp)
   12924:	18c12d83          	lw	s11,396(sp)
   12928:	17c12407          	flw	fs0,380(sp)
   1292c:	17812487          	flw	fs1,376(sp)
   12930:	17412907          	flw	fs2,372(sp)
   12934:	17012987          	flw	fs3,368(sp)
   12938:	16c12a07          	flw	fs4,364(sp)
   1293c:	16812a87          	flw	fs5,360(sp)
   12940:	16412b07          	flw	fs6,356(sp)
   12944:	007bf513          	andi	a0,s7,7
   12948:	19c12b83          	lw	s7,412(sp)
   1294c:	1c010113          	addi	sp,sp,448
   12950:	00008067          	ret
   12954:	00000713          	li	a4,0
   12958:	d7dff06f          	j	126d4 <__kernel_rem_pio2f+0x3cc>
   1295c:	a16907d3          	fle.s	a5,fs2,fs6
   12960:	00000c13          	li	s8,0
   12964:	c00786e3          	beqz	a5,12570 <__kernel_rem_pio2f+0x268>
   12968:	001b8b93          	addi	s7,s7,1
   1296c:	00200c13          	li	s8,2
   12970:	d34042e3          	bgtz	s4,12694 <__kernel_rem_pio2f+0x38c>
   12974:	0969fb53          	fsub.s	fs6,fs3,fs6
   12978:	bf9ff06f          	j	12570 <__kernel_rem_pio2f+0x268>
   1297c:	001a0793          	addi	a5,s4,1
   12980:	00078e93          	mv	t4,a5
   12984:	00078f13          	mv	t5,a5
   12988:	c5dff06f          	j	125e4 <__kernel_rem_pio2f+0x2dc>
   1298c:	002e9793          	slli	a5,t4,0x2
   12990:	16010713          	addi	a4,sp,352
   12994:	00f707b3          	add	a5,a4,a5
   12998:	ec07a783          	lw	a5,-320(a5)
   1299c:	ff8a8a93          	addi	s5,s5,-8
   129a0:	e40790e3          	bnez	a5,127e0 <__kernel_rem_pio2f+0x4d8>
   129a4:	002a1793          	slli	a5,s4,0x2
   129a8:	ff878793          	addi	a5,a5,-8
   129ac:	00fb07b3          	add	a5,s6,a5
   129b0:	0007a703          	lw	a4,0(a5)
   129b4:	fffe8e93          	addi	t4,t4,-1
   129b8:	ffc78793          	addi	a5,a5,-4
   129bc:	ff8a8a93          	addi	s5,s5,-8
   129c0:	fe0708e3          	beqz	a4,129b0 <__kernel_rem_pio2f+0x6a8>
   129c4:	e1dff06f          	j	127e0 <__kernel_rem_pio2f+0x4d8>
   129c8:	0008a707          	flw	fa4,0(a7)
   129cc:	00088793          	mv	a5,a7
   129d0:	ffc88893          	addi	a7,a7,-4
   129d4:	00e7f7d3          	fadd.s	fa5,fa5,fa4
   129d8:	fef318e3          	bne	t1,a5,129c8 <__kernel_rem_pio2f+0x6c0>
   129dc:	160c1863          	bnez	s8,12b4c <__kernel_rem_pio2f+0x844>
   129e0:	01012783          	lw	a5,16(sp)
   129e4:	0c012707          	flw	fa4,192(sp)
   129e8:	00f7a027          	fsw	fa5,0(a5)
   129ec:	08f777d3          	fsub.s	fa5,fa4,fa5
   129f0:	03d05463          	blez	t4,12a18 <__kernel_rem_pio2f+0x710>
   129f4:	0c410713          	addi	a4,sp,196
   129f8:	00100793          	li	a5,1
   129fc:	00072707          	flw	fa4,0(a4)
   12a00:	00178793          	addi	a5,a5,1
   12a04:	00470713          	addi	a4,a4,4
   12a08:	00e7f7d3          	fadd.s	fa5,fa5,fa4
   12a0c:	fefed8e3          	bge	t4,a5,129fc <__kernel_rem_pio2f+0x6f4>
   12a10:	000c0463          	beqz	s8,12a18 <__kernel_rem_pio2f+0x710>
   12a14:	20f797d3          	fneg.s	fa5,fa5
   12a18:	01012783          	lw	a5,16(sp)
   12a1c:	00f7a227          	fsw	fa5,4(a5)
   12a20:	ed9ff06f          	j	128f8 <__kernel_rem_pio2f+0x5f0>
   12a24:	01412703          	lw	a4,20(sp)
   12a28:	00300793          	li	a5,3
   12a2c:	ecf716e3          	bne	a4,a5,128f8 <__kernel_rem_pio2f+0x5f0>
   12a30:	040e8263          	beqz	t4,12a74 <__kernel_rem_pio2f+0x76c>
   12a34:	16010713          	addi	a4,sp,352
   12a38:	01170733          	add	a4,a4,a7
   12a3c:	002e9793          	slli	a5,t4,0x2
   12a40:	f6072707          	flw	fa4,-160(a4)
   12a44:	ffc78793          	addi	a5,a5,-4
   12a48:	00f307b3          	add	a5,t1,a5
   12a4c:	0007a787          	flw	fa5,0(a5)
   12a50:	20e706d3          	fmv.s	fa3,fa4
   12a54:	00078713          	mv	a4,a5
   12a58:	00f77753          	fadd.s	fa4,fa4,fa5
   12a5c:	ffc78793          	addi	a5,a5,-4
   12a60:	08e7f7d3          	fsub.s	fa5,fa5,fa4
   12a64:	00e7a227          	fsw	fa4,4(a5)
   12a68:	00d7f7d3          	fadd.s	fa5,fa5,fa3
   12a6c:	00f7a427          	fsw	fa5,8(a5)
   12a70:	fce31ee3          	bne	t1,a4,12a4c <__kernel_rem_pio2f+0x744>
   12a74:	00100793          	li	a5,1
   12a78:	f00007d3          	fmv.w.x	fa5,zero
   12a7c:	07d7d063          	bge	a5,t4,12adc <__kernel_rem_pio2f+0x7d4>
   12a80:	16010793          	addi	a5,sp,352
   12a84:	011788b3          	add	a7,a5,a7
   12a88:	f608a707          	flw	fa4,-160(a7)
   12a8c:	002e9793          	slli	a5,t4,0x2
   12a90:	ffc78793          	addi	a5,a5,-4
   12a94:	00f30733          	add	a4,t1,a5
   12a98:	00072787          	flw	fa5,0(a4)
   12a9c:	20e706d3          	fmv.s	fa3,fa4
   12aa0:	00070693          	mv	a3,a4
   12aa4:	00f77753          	fadd.s	fa4,fa4,fa5
   12aa8:	ffc70713          	addi	a4,a4,-4
   12aac:	08e7f7d3          	fsub.s	fa5,fa5,fa4
   12ab0:	00e72227          	fsw	fa4,4(a4)
   12ab4:	00d7f7d3          	fadd.s	fa5,fa5,fa3
   12ab8:	00f72427          	fsw	fa5,8(a4)
   12abc:	fce31ee3          	bne	t1,a4,12a98 <__kernel_rem_pio2f+0x790>
   12ac0:	f00007d3          	fmv.w.x	fa5,zero
   12ac4:	00478793          	addi	a5,a5,4
   12ac8:	00f30333          	add	t1,t1,a5
   12acc:	00032707          	flw	fa4,0(t1)
   12ad0:	ffc30313          	addi	t1,t1,-4
   12ad4:	00e7f7d3          	fadd.s	fa5,fa5,fa4
   12ad8:	fe669ae3          	bne	a3,t1,12acc <__kernel_rem_pio2f+0x7c4>
   12adc:	0c012687          	flw	fa3,192(sp)
   12ae0:	0c412707          	flw	fa4,196(sp)
   12ae4:	080c1463          	bnez	s8,12b6c <__kernel_rem_pio2f+0x864>
   12ae8:	01012783          	lw	a5,16(sp)
   12aec:	00d7a027          	fsw	fa3,0(a5)
   12af0:	00e7a227          	fsw	fa4,4(a5)
   12af4:	00f7a427          	fsw	fa5,8(a5)
   12af8:	e01ff06f          	j	128f8 <__kernel_rem_pio2f+0x5f0>
   12afc:	fffa0793          	addi	a5,s4,-1
   12b00:	16010713          	addi	a4,sp,352
   12b04:	00279793          	slli	a5,a5,0x2
   12b08:	00f707b3          	add	a5,a4,a5
   12b0c:	ec07a703          	lw	a4,-320(a5)
   12b10:	07f77713          	andi	a4,a4,127
   12b14:	ece7a023          	sw	a4,-320(a5)
   12b18:	c3dff06f          	j	12754 <__kernel_rem_pio2f+0x44c>
   12b1c:	00800793          	li	a5,8
   12b20:	00f12c23          	sw	a5,24(sp)
   12b24:	00012023          	sw	zero,0(sp)
   12b28:	895ff06f          	j	123bc <__kernel_rem_pio2f+0xb4>
   12b2c:	00000e93          	li	t4,0
   12b30:	bf5ff06f          	j	12724 <__kernel_rem_pio2f+0x41c>
   12b34:	c00517d3          	fcvt.w.s	a5,fa0,rtz
   12b38:	16010713          	addi	a4,sp,352
   12b3c:	01370fb3          	add	t6,a4,s3
   12b40:	000a0e93          	mv	t4,s4
   12b44:	ecffa023          	sw	a5,-320(t6)
   12b48:	c99ff06f          	j	127e0 <__kernel_rem_pio2f+0x4d8>
   12b4c:	20f79753          	fneg.s	fa4,fa5
   12b50:	01012783          	lw	a5,16(sp)
   12b54:	00e7a027          	fsw	fa4,0(a5)
   12b58:	0c012707          	flw	fa4,192(sp)
   12b5c:	08f777d3          	fsub.s	fa5,fa4,fa5
   12b60:	e9d04ae3          	bgtz	t4,129f4 <__kernel_rem_pio2f+0x6ec>
   12b64:	20f797d3          	fneg.s	fa5,fa5
   12b68:	eb1ff06f          	j	12a18 <__kernel_rem_pio2f+0x710>
   12b6c:	01012783          	lw	a5,16(sp)
   12b70:	20d696d3          	fneg.s	fa3,fa3
   12b74:	20e71753          	fneg.s	fa4,fa4
   12b78:	20f797d3          	fneg.s	fa5,fa5
   12b7c:	00d7a027          	fsw	fa3,0(a5)
   12b80:	00e7a227          	fsw	fa4,4(a5)
   12b84:	00f7a427          	fsw	fa5,8(a5)
   12b88:	d71ff06f          	j	128f8 <__kernel_rem_pio2f+0x5f0>
   12b8c:	01412703          	lw	a4,20(sp)
   12b90:	00200793          	li	a5,2
   12b94:	00e7cc63          	blt	a5,a4,12bac <__kernel_rem_pio2f+0x8a4>
   12b98:	f00007d3          	fmv.w.x	fa5,zero
   12b9c:	e4e040e3          	bgtz	a4,129dc <__kernel_rem_pio2f+0x6d4>
   12ba0:	d4071ce3          	bnez	a4,128f8 <__kernel_rem_pio2f+0x5f0>
   12ba4:	d40c06e3          	beqz	s8,128f0 <__kernel_rem_pio2f+0x5e8>
   12ba8:	d45ff06f          	j	128ec <__kernel_rem_pio2f+0x5e4>
   12bac:	01412703          	lw	a4,20(sp)
   12bb0:	00300793          	li	a5,3
   12bb4:	f00007d3          	fmv.w.x	fa5,zero
   12bb8:	f2f702e3          	beq	a4,a5,12adc <__kernel_rem_pio2f+0x7d4>
   12bbc:	d3dff06f          	j	128f8 <__kernel_rem_pio2f+0x5f0>

00012bc0 <__kernel_sinf>:
   12bc0:	e00507d3          	fmv.x.w	a5,fa0
   12bc4:	320006b7          	lui	a3,0x32000
   12bc8:	00179713          	slli	a4,a5,0x1
   12bcc:	00175713          	srli	a4,a4,0x1
   12bd0:	00d75663          	bge	a4,a3,12bdc <__kernel_sinf+0x1c>
   12bd4:	c0051753          	fcvt.w.s	a4,fa0,rtz
   12bd8:	06070863          	beqz	a4,12c48 <__kernel_sinf+0x88>
   12bdc:	f00787d3          	fmv.w.x	fa5,a5
   12be0:	10f7f753          	fmul.s	fa4,fa5,fa5
   12be4:	cb01a787          	flw	fa5,-848(gp) # 16840 <__SDATA_BEGIN__+0x58>
   12be8:	cb41a687          	flw	fa3,-844(gp) # 16844 <__SDATA_BEGIN__+0x5c>
   12bec:	68f777c3          	fmadd.s	fa5,fa4,fa5,fa3
   12bf0:	cb81a687          	flw	fa3,-840(gp) # 16848 <__SDATA_BEGIN__+0x60>
   12bf4:	68e7f7c3          	fmadd.s	fa5,fa5,fa4,fa3
   12bf8:	f00786d3          	fmv.w.x	fa3,a5
   12bfc:	10e6f553          	fmul.s	fa0,fa3,fa4
   12c00:	cbc1a687          	flw	fa3,-836(gp) # 1684c <__SDATA_BEGIN__+0x64>
   12c04:	68e7f7c3          	fmadd.s	fa5,fa5,fa4,fa3
   12c08:	cc01a687          	flw	fa3,-832(gp) # 16850 <__SDATA_BEGIN__+0x68>
   12c0c:	68e7f7c3          	fmadd.s	fa5,fa5,fa4,fa3
   12c10:	00051c63          	bnez	a0,12c28 <__kernel_sinf+0x68>
   12c14:	cc41a687          	flw	fa3,-828(gp) # 16854 <__SDATA_BEGIN__+0x6c>
   12c18:	68f777c3          	fmadd.s	fa5,fa4,fa5,fa3
   12c1c:	f0078753          	fmv.w.x	fa4,a5
   12c20:	70a7f543          	fmadd.s	fa0,fa5,fa0,fa4
   12c24:	00008067          	ret
   12c28:	10f577d3          	fmul.s	fa5,fa0,fa5
   12c2c:	c6c1a687          	flw	fa3,-916(gp) # 167fc <__SDATA_BEGIN__+0x14>
   12c30:	78d5f7c7          	fmsub.s	fa5,fa1,fa3,fa5
   12c34:	58e7f5c7          	fmsub.s	fa1,fa5,fa4,fa1
   12c38:	cc81a787          	flw	fa5,-824(gp) # 16858 <__SDATA_BEGIN__+0x70>
   12c3c:	58f57543          	fmadd.s	fa0,fa0,fa5,fa1
   12c40:	f00787d3          	fmv.w.x	fa5,a5
   12c44:	08a7f553          	fsub.s	fa0,fa5,fa0
   12c48:	00008067          	ret

00012c4c <fabsf>:
   12c4c:	20a52553          	fabs.s	fa0,fa0
   12c50:	00008067          	ret

00012c54 <floorf>:
   12c54:	e00507d3          	fmv.x.w	a5,fa0
   12c58:	01600613          	li	a2,22
   12c5c:	00179693          	slli	a3,a5,0x1
   12c60:	0186d713          	srli	a4,a3,0x18
   12c64:	f8170713          	addi	a4,a4,-127
   12c68:	00078593          	mv	a1,a5
   12c6c:	0016d693          	srli	a3,a3,0x1
   12c70:	08e64063          	blt	a2,a4,12cf0 <floorf+0x9c>
   12c74:	04074663          	bltz	a4,12cc0 <floorf+0x6c>
   12c78:	00800537          	lui	a0,0x800
   12c7c:	fff50693          	addi	a3,a0,-1 # 7fffff <__BSS_END__+0x7e9457>
   12c80:	40e6d6b3          	sra	a3,a3,a4
   12c84:	00f6f833          	and	a6,a3,a5
   12c88:	e0050653          	fmv.x.w	a2,fa0
   12c8c:	02080663          	beqz	a6,12cb8 <floorf+0x64>
   12c90:	cd01a787          	flw	fa5,-816(gp) # 16860 <__SDATA_BEGIN__+0x78>
   12c94:	f0000753          	fmv.w.x	fa4,zero
   12c98:	00f577d3          	fadd.s	fa5,fa0,fa5
   12c9c:	a0f71853          	flt.s	a6,fa4,fa5
   12ca0:	00080c63          	beqz	a6,12cb8 <floorf+0x64>
   12ca4:	0007d663          	bgez	a5,12cb0 <floorf+0x5c>
   12ca8:	40e55733          	sra	a4,a0,a4
   12cac:	00f705b3          	add	a1,a4,a5
   12cb0:	fff6c693          	not	a3,a3
   12cb4:	00b6f633          	and	a2,a3,a1
   12cb8:	f0060553          	fmv.w.x	fa0,a2
   12cbc:	00008067          	ret
   12cc0:	cd01a787          	flw	fa5,-816(gp) # 16860 <__SDATA_BEGIN__+0x78>
   12cc4:	f0000753          	fmv.w.x	fa4,zero
   12cc8:	e0050653          	fmv.x.w	a2,fa0
   12ccc:	00f577d3          	fadd.s	fa5,fa0,fa5
   12cd0:	a0f71753          	flt.s	a4,fa4,fa5
   12cd4:	fe0702e3          	beqz	a4,12cb8 <floorf+0x64>
   12cd8:	e0070653          	fmv.x.w	a2,fa4
   12cdc:	fc07dee3          	bgez	a5,12cb8 <floorf+0x64>
   12ce0:	e0050653          	fmv.x.w	a2,fa0
   12ce4:	fc068ae3          	beqz	a3,12cb8 <floorf+0x64>
   12ce8:	ccc1a603          	lw	a2,-820(gp) # 1685c <__SDATA_BEGIN__+0x74>
   12cec:	fcdff06f          	j	12cb8 <floorf+0x64>
   12cf0:	7f800737          	lui	a4,0x7f800
   12cf4:	e0050653          	fmv.x.w	a2,fa0
   12cf8:	fce6e0e3          	bltu	a3,a4,12cb8 <floorf+0x64>
   12cfc:	00a577d3          	fadd.s	fa5,fa0,fa0
   12d00:	e0078653          	fmv.x.w	a2,fa5
   12d04:	f0060553          	fmv.w.x	fa0,a2
   12d08:	00008067          	ret

00012d0c <scalbnf>:
   12d0c:	e00507d3          	fmv.x.w	a5,fa0
   12d10:	00179693          	slli	a3,a5,0x1
   12d14:	0016d713          	srli	a4,a3,0x1
   12d18:	04068e63          	beqz	a3,12d74 <scalbnf+0x68>
   12d1c:	7f8006b7          	lui	a3,0x7f800
   12d20:	04d77e63          	bgeu	a4,a3,12d7c <scalbnf+0x70>
   12d24:	00d7f633          	and	a2,a5,a3
   12d28:	06061263          	bnez	a2,12d8c <scalbnf+0x80>
   12d2c:	cd41a787          	flw	fa5,-812(gp) # 16864 <__SDATA_BEGIN__+0x7c>
   12d30:	ffff4737          	lui	a4,0xffff4
   12d34:	cb070713          	addi	a4,a4,-848 # ffff3cb0 <__BSS_END__+0xfffdd108>
   12d38:	10f577d3          	fmul.s	fa5,fa0,fa5
   12d3c:	e00787d3          	fmv.x.w	a5,fa5
   12d40:	0ae54663          	blt	a0,a4,12dec <scalbnf+0xe0>
   12d44:	4177d713          	srai	a4,a5,0x17
   12d48:	0ff77713          	andi	a4,a4,255
   12d4c:	fe770713          	addi	a4,a4,-25
   12d50:	00a70733          	add	a4,a4,a0
   12d54:	0fe00613          	li	a2,254
   12d58:	00078693          	mv	a3,a5
   12d5c:	04e65263          	bge	a2,a4,12da0 <scalbnf+0x94>
   12d60:	cd01a707          	flw	fa4,-816(gp) # 16860 <__SDATA_BEGIN__+0x78>
   12d64:	f00787d3          	fmv.w.x	fa5,a5
   12d68:	20f707d3          	fsgnj.s	fa5,fa4,fa5
   12d6c:	10e7f7d3          	fmul.s	fa5,fa5,fa4
   12d70:	e00787d3          	fmv.x.w	a5,fa5
   12d74:	f0078553          	fmv.w.x	fa0,a5
   12d78:	00008067          	ret
   12d7c:	00a577d3          	fadd.s	fa5,fa0,fa0
   12d80:	e00787d3          	fmv.x.w	a5,fa5
   12d84:	f0078553          	fmv.w.x	fa0,a5
   12d88:	00008067          	ret
   12d8c:	01775713          	srli	a4,a4,0x17
   12d90:	00a70733          	add	a4,a4,a0
   12d94:	0fe00613          	li	a2,254
   12d98:	00078693          	mv	a3,a5
   12d9c:	fce642e3          	blt	a2,a4,12d60 <scalbnf+0x54>
   12da0:	02e04863          	bgtz	a4,12dd0 <scalbnf+0xc4>
   12da4:	fea00613          	li	a2,-22
   12da8:	04c75c63          	bge	a4,a2,12e00 <scalbnf+0xf4>
   12dac:	0000c737          	lui	a4,0xc
   12db0:	35070713          	addi	a4,a4,848 # c350 <main-0x3d24>
   12db4:	faa746e3          	blt	a4,a0,12d60 <scalbnf+0x54>
   12db8:	cd81a707          	flw	fa4,-808(gp) # 16868 <__SDATA_BEGIN__+0x80>
   12dbc:	f00787d3          	fmv.w.x	fa5,a5
   12dc0:	20f707d3          	fsgnj.s	fa5,fa4,fa5
   12dc4:	10e7f7d3          	fmul.s	fa5,fa5,fa4
   12dc8:	e00787d3          	fmv.x.w	a5,fa5
   12dcc:	fa9ff06f          	j	12d74 <scalbnf+0x68>
   12dd0:	808007b7          	lui	a5,0x80800
   12dd4:	fff78793          	addi	a5,a5,-1 # 807fffff <__BSS_END__+0x807e9457>
   12dd8:	00f6f6b3          	and	a3,a3,a5
   12ddc:	01771793          	slli	a5,a4,0x17
   12de0:	00f6e7b3          	or	a5,a3,a5
   12de4:	f0078553          	fmv.w.x	fa0,a5
   12de8:	00008067          	ret
   12dec:	f0078753          	fmv.w.x	fa4,a5
   12df0:	cd81a787          	flw	fa5,-808(gp) # 16868 <__SDATA_BEGIN__+0x80>
   12df4:	10f777d3          	fmul.s	fa5,fa4,fa5
   12df8:	e00787d3          	fmv.x.w	a5,fa5
   12dfc:	f79ff06f          	j	12d74 <scalbnf+0x68>
   12e00:	01970793          	addi	a5,a4,25
   12e04:	80800737          	lui	a4,0x80800
   12e08:	fff70713          	addi	a4,a4,-1 # 807fffff <__BSS_END__+0x807e9457>
   12e0c:	00e6f6b3          	and	a3,a3,a4
   12e10:	01779793          	slli	a5,a5,0x17
   12e14:	00d7e7b3          	or	a5,a5,a3
   12e18:	f0078753          	fmv.w.x	fa4,a5
   12e1c:	cdc1a787          	flw	fa5,-804(gp) # 1686c <__SDATA_BEGIN__+0x84>
   12e20:	10f777d3          	fmul.s	fa5,fa4,fa5
   12e24:	e00787d3          	fmv.x.w	a5,fa5
   12e28:	f4dff06f          	j	12d74 <scalbnf+0x68>

00012e2c <__udivdi3>:
#endif

#ifdef L_udivdi3
UDWtype
__udivdi3 (UDWtype n, UDWtype d)
{
   12e2c:	00050893          	mv	a7,a0
   12e30:	00058793          	mv	a5,a1
  d0 = dd.s.low;
   12e34:	00060813          	mv	a6,a2
  d1 = dd.s.high;
   12e38:	00068513          	mv	a0,a3
  n0 = nn.s.low;
   12e3c:	00088313          	mv	t1,a7
  if (d1 == 0)
   12e40:	28069463          	bnez	a3,130c8 <__udivdi3+0x29c>
      if (d0 > n1)
   12e44:	000156b7          	lui	a3,0x15
   12e48:	3e868693          	addi	a3,a3,1000 # 153e8 <__clz_tab>
   12e4c:	0ec5f663          	bgeu	a1,a2,12f38 <__udivdi3+0x10c>
	  count_leading_zeros (bm, d0);
   12e50:	00010737          	lui	a4,0x10
   12e54:	0ce67863          	bgeu	a2,a4,12f24 <__udivdi3+0xf8>
   12e58:	0ff00713          	li	a4,255
   12e5c:	00c73733          	sltu	a4,a4,a2
   12e60:	00371713          	slli	a4,a4,0x3
   12e64:	00e65533          	srl	a0,a2,a4
   12e68:	00a686b3          	add	a3,a3,a0
   12e6c:	0006c683          	lbu	a3,0(a3)
   12e70:	02000513          	li	a0,32
   12e74:	00e68733          	add	a4,a3,a4
   12e78:	40e506b3          	sub	a3,a0,a4
	  if (bm != 0)
   12e7c:	00e50c63          	beq	a0,a4,12e94 <__udivdi3+0x68>
	      n1 = (n1 << bm) | (n0 >> (W_TYPE_SIZE - bm));
   12e80:	00d795b3          	sll	a1,a5,a3
   12e84:	00e8d733          	srl	a4,a7,a4
	      d0 = d0 << bm;
   12e88:	00d61833          	sll	a6,a2,a3
	      n1 = (n1 << bm) | (n0 >> (W_TYPE_SIZE - bm));
   12e8c:	00b765b3          	or	a1,a4,a1
	      n0 = n0 << bm;
   12e90:	00d89333          	sll	t1,a7,a3
	  udiv_qrnnd (q0, n0, n1, n0, d0);
   12e94:	01085893          	srli	a7,a6,0x10
   12e98:	0315d6b3          	divu	a3,a1,a7
   12e9c:	01081613          	slli	a2,a6,0x10
   12ea0:	01065613          	srli	a2,a2,0x10
   12ea4:	01035793          	srli	a5,t1,0x10
   12ea8:	0315f733          	remu	a4,a1,a7
   12eac:	00068513          	mv	a0,a3
   12eb0:	02d605b3          	mul	a1,a2,a3
   12eb4:	01071713          	slli	a4,a4,0x10
   12eb8:	00f767b3          	or	a5,a4,a5
   12ebc:	00b7fe63          	bgeu	a5,a1,12ed8 <__udivdi3+0xac>
   12ec0:	010787b3          	add	a5,a5,a6
   12ec4:	fff68513          	addi	a0,a3,-1
   12ec8:	0107e863          	bltu	a5,a6,12ed8 <__udivdi3+0xac>
   12ecc:	00b7f663          	bgeu	a5,a1,12ed8 <__udivdi3+0xac>
   12ed0:	ffe68513          	addi	a0,a3,-2
   12ed4:	010787b3          	add	a5,a5,a6
   12ed8:	40b787b3          	sub	a5,a5,a1
   12edc:	0317f733          	remu	a4,a5,a7
   12ee0:	01031313          	slli	t1,t1,0x10
   12ee4:	01035313          	srli	t1,t1,0x10
   12ee8:	0317d7b3          	divu	a5,a5,a7
   12eec:	01071713          	slli	a4,a4,0x10
   12ef0:	00676333          	or	t1,a4,t1
   12ef4:	02f606b3          	mul	a3,a2,a5
   12ef8:	00078613          	mv	a2,a5
   12efc:	00d37c63          	bgeu	t1,a3,12f14 <__udivdi3+0xe8>
   12f00:	00680333          	add	t1,a6,t1
   12f04:	fff78613          	addi	a2,a5,-1
   12f08:	01036663          	bltu	t1,a6,12f14 <__udivdi3+0xe8>
   12f0c:	00d37463          	bgeu	t1,a3,12f14 <__udivdi3+0xe8>
   12f10:	ffe78613          	addi	a2,a5,-2
   12f14:	01051513          	slli	a0,a0,0x10
   12f18:	00c56533          	or	a0,a0,a2
	      q1 = 0;
   12f1c:	00000593          	li	a1,0
   12f20:	0e40006f          	j	13004 <__udivdi3+0x1d8>
	  count_leading_zeros (bm, d0);
   12f24:	01000537          	lui	a0,0x1000
   12f28:	01000713          	li	a4,16
   12f2c:	f2a66ce3          	bltu	a2,a0,12e64 <__udivdi3+0x38>
   12f30:	01800713          	li	a4,24
   12f34:	f31ff06f          	j	12e64 <__udivdi3+0x38>
	  if (d0 == 0)
   12f38:	00061663          	bnez	a2,12f44 <__udivdi3+0x118>
	    d0 = 1 / d0;	/* Divide intentionally by zero.  */
   12f3c:	00100713          	li	a4,1
   12f40:	02c75833          	divu	a6,a4,a2
	  count_leading_zeros (bm, d0);
   12f44:	00010737          	lui	a4,0x10
   12f48:	0ce87063          	bgeu	a6,a4,13008 <__udivdi3+0x1dc>
   12f4c:	0ff00713          	li	a4,255
   12f50:	01077463          	bgeu	a4,a6,12f58 <__udivdi3+0x12c>
   12f54:	00800513          	li	a0,8
   12f58:	00a85733          	srl	a4,a6,a0
   12f5c:	00e686b3          	add	a3,a3,a4
   12f60:	0006c703          	lbu	a4,0(a3)
   12f64:	02000613          	li	a2,32
   12f68:	00a70733          	add	a4,a4,a0
   12f6c:	40e606b3          	sub	a3,a2,a4
	  if (bm == 0)
   12f70:	0ae61663          	bne	a2,a4,1301c <__udivdi3+0x1f0>
	      n1 -= d0;
   12f74:	410787b3          	sub	a5,a5,a6
	      q1 = 1;
   12f78:	00100593          	li	a1,1
	  udiv_qrnnd (q0, n0, n1, n0, d0);
   12f7c:	01085893          	srli	a7,a6,0x10
   12f80:	01081613          	slli	a2,a6,0x10
   12f84:	01065613          	srli	a2,a2,0x10
   12f88:	01035713          	srli	a4,t1,0x10
   12f8c:	0317f6b3          	remu	a3,a5,a7
   12f90:	0317d7b3          	divu	a5,a5,a7
   12f94:	01069693          	slli	a3,a3,0x10
   12f98:	00e6e733          	or	a4,a3,a4
   12f9c:	02f60e33          	mul	t3,a2,a5
   12fa0:	00078513          	mv	a0,a5
   12fa4:	01c77e63          	bgeu	a4,t3,12fc0 <__udivdi3+0x194>
   12fa8:	01070733          	add	a4,a4,a6
   12fac:	fff78513          	addi	a0,a5,-1
   12fb0:	01076863          	bltu	a4,a6,12fc0 <__udivdi3+0x194>
   12fb4:	01c77663          	bgeu	a4,t3,12fc0 <__udivdi3+0x194>
   12fb8:	ffe78513          	addi	a0,a5,-2
   12fbc:	01070733          	add	a4,a4,a6
   12fc0:	41c70733          	sub	a4,a4,t3
   12fc4:	031777b3          	remu	a5,a4,a7
   12fc8:	01031313          	slli	t1,t1,0x10
   12fcc:	01035313          	srli	t1,t1,0x10
   12fd0:	03175733          	divu	a4,a4,a7
   12fd4:	01079793          	slli	a5,a5,0x10
   12fd8:	0067e333          	or	t1,a5,t1
   12fdc:	02e606b3          	mul	a3,a2,a4
   12fe0:	00070613          	mv	a2,a4
   12fe4:	00d37c63          	bgeu	t1,a3,12ffc <__udivdi3+0x1d0>
   12fe8:	00680333          	add	t1,a6,t1
   12fec:	fff70613          	addi	a2,a4,-1 # ffff <main-0x75>
   12ff0:	01036663          	bltu	t1,a6,12ffc <__udivdi3+0x1d0>
   12ff4:	00d37463          	bgeu	t1,a3,12ffc <__udivdi3+0x1d0>
   12ff8:	ffe70613          	addi	a2,a4,-2
   12ffc:	01051513          	slli	a0,a0,0x10
   13000:	00c56533          	or	a0,a0,a2
  return __udivmoddi4 (n, d, (UDWtype *) 0);
}
   13004:	00008067          	ret
	  count_leading_zeros (bm, d0);
   13008:	01000737          	lui	a4,0x1000
   1300c:	01000513          	li	a0,16
   13010:	f4e864e3          	bltu	a6,a4,12f58 <__udivdi3+0x12c>
   13014:	01800513          	li	a0,24
   13018:	f41ff06f          	j	12f58 <__udivdi3+0x12c>
	      d0 = d0 << bm;
   1301c:	00d81833          	sll	a6,a6,a3
	      n2 = n1 >> b;
   13020:	00e7d533          	srl	a0,a5,a4
	      n0 = n0 << bm;
   13024:	00d89333          	sll	t1,a7,a3
	      n1 = (n1 << bm) | (n0 >> b);
   13028:	00d797b3          	sll	a5,a5,a3
   1302c:	00e8d733          	srl	a4,a7,a4
	      udiv_qrnnd (q1, n1, n2, n1, d0);
   13030:	01085893          	srli	a7,a6,0x10
	      n1 = (n1 << bm) | (n0 >> b);
   13034:	00f76633          	or	a2,a4,a5
	      udiv_qrnnd (q1, n1, n2, n1, d0);
   13038:	03157733          	remu	a4,a0,a7
   1303c:	01081793          	slli	a5,a6,0x10
   13040:	0107d793          	srli	a5,a5,0x10
   13044:	01065593          	srli	a1,a2,0x10
   13048:	03155533          	divu	a0,a0,a7
   1304c:	01071713          	slli	a4,a4,0x10
   13050:	00b76733          	or	a4,a4,a1
   13054:	02a786b3          	mul	a3,a5,a0
   13058:	00050593          	mv	a1,a0
   1305c:	00d77e63          	bgeu	a4,a3,13078 <__udivdi3+0x24c>
   13060:	01070733          	add	a4,a4,a6
   13064:	fff50593          	addi	a1,a0,-1 # ffffff <__BSS_END__+0xfe9457>
   13068:	01076863          	bltu	a4,a6,13078 <__udivdi3+0x24c>
   1306c:	00d77663          	bgeu	a4,a3,13078 <__udivdi3+0x24c>
   13070:	ffe50593          	addi	a1,a0,-2
   13074:	01070733          	add	a4,a4,a6
   13078:	40d706b3          	sub	a3,a4,a3
   1307c:	0316f733          	remu	a4,a3,a7
   13080:	01061613          	slli	a2,a2,0x10
   13084:	01065613          	srli	a2,a2,0x10
   13088:	0316d6b3          	divu	a3,a3,a7
   1308c:	01071713          	slli	a4,a4,0x10
   13090:	02d78533          	mul	a0,a5,a3
   13094:	00c767b3          	or	a5,a4,a2
   13098:	00068713          	mv	a4,a3
   1309c:	00a7fe63          	bgeu	a5,a0,130b8 <__udivdi3+0x28c>
   130a0:	010787b3          	add	a5,a5,a6
   130a4:	fff68713          	addi	a4,a3,-1
   130a8:	0107e863          	bltu	a5,a6,130b8 <__udivdi3+0x28c>
   130ac:	00a7f663          	bgeu	a5,a0,130b8 <__udivdi3+0x28c>
   130b0:	ffe68713          	addi	a4,a3,-2
   130b4:	010787b3          	add	a5,a5,a6
   130b8:	01059593          	slli	a1,a1,0x10
   130bc:	40a787b3          	sub	a5,a5,a0
   130c0:	00e5e5b3          	or	a1,a1,a4
   130c4:	eb9ff06f          	j	12f7c <__udivdi3+0x150>
      if (d1 > n1)
   130c8:	18d5e663          	bltu	a1,a3,13254 <__udivdi3+0x428>
	  count_leading_zeros (bm, d1);
   130cc:	00010737          	lui	a4,0x10
   130d0:	04e6f463          	bgeu	a3,a4,13118 <__udivdi3+0x2ec>
   130d4:	0ff00713          	li	a4,255
   130d8:	00d735b3          	sltu	a1,a4,a3
   130dc:	00359593          	slli	a1,a1,0x3
   130e0:	00015737          	lui	a4,0x15
   130e4:	00b6d533          	srl	a0,a3,a1
   130e8:	3e870713          	addi	a4,a4,1000 # 153e8 <__clz_tab>
   130ec:	00a70733          	add	a4,a4,a0
   130f0:	00074703          	lbu	a4,0(a4)
   130f4:	02000513          	li	a0,32
   130f8:	00b70733          	add	a4,a4,a1
   130fc:	40e505b3          	sub	a1,a0,a4
	  if (bm == 0)
   13100:	02e51663          	bne	a0,a4,1312c <__udivdi3+0x300>
		  q0 = 1;
   13104:	00100513          	li	a0,1
	      if (n1 > d1 || n0 >= d0)
   13108:	eef6eee3          	bltu	a3,a5,13004 <__udivdi3+0x1d8>
   1310c:	00c8b533          	sltu	a0,a7,a2
   13110:	00154513          	xori	a0,a0,1
   13114:	ef1ff06f          	j	13004 <__udivdi3+0x1d8>
	  count_leading_zeros (bm, d1);
   13118:	01000737          	lui	a4,0x1000
   1311c:	01000593          	li	a1,16
   13120:	fce6e0e3          	bltu	a3,a4,130e0 <__udivdi3+0x2b4>
   13124:	01800593          	li	a1,24
   13128:	fb9ff06f          	j	130e0 <__udivdi3+0x2b4>
	      d1 = (d1 << bm) | (d0 >> b);
   1312c:	00e65833          	srl	a6,a2,a4
   13130:	00b696b3          	sll	a3,a3,a1
   13134:	00d86833          	or	a6,a6,a3
	      n2 = n1 >> b;
   13138:	00e7de33          	srl	t3,a5,a4
	      udiv_qrnnd (q0, n1, n2, n1, d1);
   1313c:	01085e93          	srli	t4,a6,0x10
   13140:	03de76b3          	remu	a3,t3,t4
	      n1 = (n1 << bm) | (n0 >> b);
   13144:	00b797b3          	sll	a5,a5,a1
   13148:	00e8d733          	srl	a4,a7,a4
	      d0 = d0 << bm;
   1314c:	00b61333          	sll	t1,a2,a1
	      n1 = (n1 << bm) | (n0 >> b);
   13150:	00f76633          	or	a2,a4,a5
	      udiv_qrnnd (q0, n1, n2, n1, d1);
   13154:	01081793          	slli	a5,a6,0x10
   13158:	0107d793          	srli	a5,a5,0x10
   1315c:	01065713          	srli	a4,a2,0x10
   13160:	03de5e33          	divu	t3,t3,t4
   13164:	01069693          	slli	a3,a3,0x10
   13168:	00e6e733          	or	a4,a3,a4
   1316c:	03c78f33          	mul	t5,a5,t3
   13170:	000e0513          	mv	a0,t3
   13174:	01e77e63          	bgeu	a4,t5,13190 <__udivdi3+0x364>
   13178:	01070733          	add	a4,a4,a6
   1317c:	fffe0513          	addi	a0,t3,-1
   13180:	01076863          	bltu	a4,a6,13190 <__udivdi3+0x364>
   13184:	01e77663          	bgeu	a4,t5,13190 <__udivdi3+0x364>
   13188:	ffee0513          	addi	a0,t3,-2
   1318c:	01070733          	add	a4,a4,a6
   13190:	41e70733          	sub	a4,a4,t5
   13194:	03d776b3          	remu	a3,a4,t4
   13198:	03d75733          	divu	a4,a4,t4
   1319c:	01069693          	slli	a3,a3,0x10
   131a0:	02e78e33          	mul	t3,a5,a4
   131a4:	01061793          	slli	a5,a2,0x10
   131a8:	0107d793          	srli	a5,a5,0x10
   131ac:	00f6e7b3          	or	a5,a3,a5
   131b0:	00070613          	mv	a2,a4
   131b4:	01c7fe63          	bgeu	a5,t3,131d0 <__udivdi3+0x3a4>
   131b8:	010787b3          	add	a5,a5,a6
   131bc:	fff70613          	addi	a2,a4,-1 # ffffff <__BSS_END__+0xfe9457>
   131c0:	0107e863          	bltu	a5,a6,131d0 <__udivdi3+0x3a4>
   131c4:	01c7f663          	bgeu	a5,t3,131d0 <__udivdi3+0x3a4>
   131c8:	ffe70613          	addi	a2,a4,-2
   131cc:	010787b3          	add	a5,a5,a6
   131d0:	01051513          	slli	a0,a0,0x10
	      umul_ppmm (m1, m0, q0, d0);
   131d4:	00010eb7          	lui	t4,0x10
	      udiv_qrnnd (q0, n1, n2, n1, d1);
   131d8:	00c56533          	or	a0,a0,a2
	      umul_ppmm (m1, m0, q0, d0);
   131dc:	fffe8693          	addi	a3,t4,-1 # ffff <main-0x75>
   131e0:	00d57833          	and	a6,a0,a3
   131e4:	01055613          	srli	a2,a0,0x10
   131e8:	00d376b3          	and	a3,t1,a3
   131ec:	01035313          	srli	t1,t1,0x10
	      udiv_qrnnd (q0, n1, n2, n1, d1);
   131f0:	41c787b3          	sub	a5,a5,t3
	      umul_ppmm (m1, m0, q0, d0);
   131f4:	02d80e33          	mul	t3,a6,a3
   131f8:	02d606b3          	mul	a3,a2,a3
   131fc:	010e5713          	srli	a4,t3,0x10
   13200:	02680833          	mul	a6,a6,t1
   13204:	00d80833          	add	a6,a6,a3
   13208:	01070733          	add	a4,a4,a6
   1320c:	02660633          	mul	a2,a2,t1
   13210:	00d77463          	bgeu	a4,a3,13218 <__udivdi3+0x3ec>
   13214:	01d60633          	add	a2,a2,t4
   13218:	01075693          	srli	a3,a4,0x10
   1321c:	00c68633          	add	a2,a3,a2
	      if (m1 > n1 || (m1 == n1 && m0 > n0))
   13220:	02c7e663          	bltu	a5,a2,1324c <__udivdi3+0x420>
   13224:	cec79ce3          	bne	a5,a2,12f1c <__udivdi3+0xf0>
	      umul_ppmm (m1, m0, q0, d0);
   13228:	000107b7          	lui	a5,0x10
   1322c:	fff78793          	addi	a5,a5,-1 # ffff <main-0x75>
   13230:	00f77733          	and	a4,a4,a5
   13234:	01071713          	slli	a4,a4,0x10
   13238:	00fe7e33          	and	t3,t3,a5
	      n0 = n0 << bm;
   1323c:	00b898b3          	sll	a7,a7,a1
	      umul_ppmm (m1, m0, q0, d0);
   13240:	01c70733          	add	a4,a4,t3
	      q1 = 0;
   13244:	00000593          	li	a1,0
	      if (m1 > n1 || (m1 == n1 && m0 > n0))
   13248:	dae8fee3          	bgeu	a7,a4,13004 <__udivdi3+0x1d8>
		  q0--;
   1324c:	fff50513          	addi	a0,a0,-1
		  sub_ddmmss (m1, m0, m1, m0, d1, d0);
   13250:	ccdff06f          	j	12f1c <__udivdi3+0xf0>
	  q1 = 0;
   13254:	00000593          	li	a1,0
	  q0 = 0;
   13258:	00000513          	li	a0,0
   1325c:	da9ff06f          	j	13004 <__udivdi3+0x1d8>

00013260 <__errno>:
   13260:	ce41a503          	lw	a0,-796(gp) # 16874 <_impure_ptr>
   13264:	00008067          	ret

00013268 <exit>:
   13268:	ff010113          	addi	sp,sp,-16
   1326c:	00000593          	li	a1,0
   13270:	00812423          	sw	s0,8(sp)
   13274:	00112623          	sw	ra,12(sp)
   13278:	00050413          	mv	s0,a0
   1327c:	2bc000ef          	jal	ra,13538 <__call_exitprocs>
   13280:	ce01a503          	lw	a0,-800(gp) # 16870 <_global_impure_ptr>
   13284:	03c52783          	lw	a5,60(a0)
   13288:	00078463          	beqz	a5,13290 <exit+0x28>
   1328c:	000780e7          	jalr	a5
   13290:	00040513          	mv	a0,s0
   13294:	4cc000ef          	jal	ra,13760 <_exit>

00013298 <__libc_init_array>:
   13298:	ff010113          	addi	sp,sp,-16
   1329c:	00812423          	sw	s0,8(sp)
   132a0:	01212023          	sw	s2,0(sp)
   132a4:	00016437          	lui	s0,0x16
   132a8:	00016937          	lui	s2,0x16
   132ac:	37c40793          	addi	a5,s0,892 # 1637c <__init_array_start>
   132b0:	37c90913          	addi	s2,s2,892 # 1637c <__init_array_start>
   132b4:	40f90933          	sub	s2,s2,a5
   132b8:	00112623          	sw	ra,12(sp)
   132bc:	00912223          	sw	s1,4(sp)
   132c0:	40295913          	srai	s2,s2,0x2
   132c4:	02090063          	beqz	s2,132e4 <__libc_init_array+0x4c>
   132c8:	37c40413          	addi	s0,s0,892
   132cc:	00000493          	li	s1,0
   132d0:	00042783          	lw	a5,0(s0)
   132d4:	00148493          	addi	s1,s1,1
   132d8:	00440413          	addi	s0,s0,4
   132dc:	000780e7          	jalr	a5
   132e0:	fe9918e3          	bne	s2,s1,132d0 <__libc_init_array+0x38>
   132e4:	00016437          	lui	s0,0x16
   132e8:	00016937          	lui	s2,0x16
   132ec:	37c40793          	addi	a5,s0,892 # 1637c <__init_array_start>
   132f0:	38890913          	addi	s2,s2,904 # 16388 <__do_global_dtors_aux_fini_array_entry>
   132f4:	40f90933          	sub	s2,s2,a5
   132f8:	40295913          	srai	s2,s2,0x2
   132fc:	02090063          	beqz	s2,1331c <__libc_init_array+0x84>
   13300:	37c40413          	addi	s0,s0,892
   13304:	00000493          	li	s1,0
   13308:	00042783          	lw	a5,0(s0)
   1330c:	00148493          	addi	s1,s1,1
   13310:	00440413          	addi	s0,s0,4
   13314:	000780e7          	jalr	a5
   13318:	fe9918e3          	bne	s2,s1,13308 <__libc_init_array+0x70>
   1331c:	00c12083          	lw	ra,12(sp)
   13320:	00812403          	lw	s0,8(sp)
   13324:	00412483          	lw	s1,4(sp)
   13328:	00012903          	lw	s2,0(sp)
   1332c:	01010113          	addi	sp,sp,16
   13330:	00008067          	ret

00013334 <memcpy>:
   13334:	00a5c7b3          	xor	a5,a1,a0
   13338:	0037f793          	andi	a5,a5,3
   1333c:	00c508b3          	add	a7,a0,a2
   13340:	06079663          	bnez	a5,133ac <memcpy+0x78>
   13344:	00300793          	li	a5,3
   13348:	06c7f263          	bgeu	a5,a2,133ac <memcpy+0x78>
   1334c:	00357793          	andi	a5,a0,3
   13350:	00050713          	mv	a4,a0
   13354:	0c079a63          	bnez	a5,13428 <memcpy+0xf4>
   13358:	ffc8f613          	andi	a2,a7,-4
   1335c:	40e606b3          	sub	a3,a2,a4
   13360:	02000793          	li	a5,32
   13364:	02000293          	li	t0,32
   13368:	06d7c263          	blt	a5,a3,133cc <memcpy+0x98>
   1336c:	00058693          	mv	a3,a1
   13370:	00070793          	mv	a5,a4
   13374:	02c77863          	bgeu	a4,a2,133a4 <memcpy+0x70>
   13378:	0006a803          	lw	a6,0(a3)
   1337c:	00478793          	addi	a5,a5,4
   13380:	00468693          	addi	a3,a3,4
   13384:	ff07ae23          	sw	a6,-4(a5)
   13388:	fec7e8e3          	bltu	a5,a2,13378 <memcpy+0x44>
   1338c:	fff60793          	addi	a5,a2,-1
   13390:	40e787b3          	sub	a5,a5,a4
   13394:	ffc7f793          	andi	a5,a5,-4
   13398:	00478793          	addi	a5,a5,4
   1339c:	00f70733          	add	a4,a4,a5
   133a0:	00f585b3          	add	a1,a1,a5
   133a4:	01176863          	bltu	a4,a7,133b4 <memcpy+0x80>
   133a8:	00008067          	ret
   133ac:	00050713          	mv	a4,a0
   133b0:	ff157ce3          	bgeu	a0,a7,133a8 <memcpy+0x74>
   133b4:	0005c783          	lbu	a5,0(a1)
   133b8:	00170713          	addi	a4,a4,1
   133bc:	00158593          	addi	a1,a1,1
   133c0:	fef70fa3          	sb	a5,-1(a4)
   133c4:	ff1768e3          	bltu	a4,a7,133b4 <memcpy+0x80>
   133c8:	00008067          	ret
   133cc:	0045a683          	lw	a3,4(a1)
   133d0:	01c5a783          	lw	a5,28(a1)
   133d4:	0005af83          	lw	t6,0(a1)
   133d8:	0085af03          	lw	t5,8(a1)
   133dc:	00c5ae83          	lw	t4,12(a1)
   133e0:	0105ae03          	lw	t3,16(a1)
   133e4:	0145a303          	lw	t1,20(a1)
   133e8:	0185a803          	lw	a6,24(a1)
   133ec:	00d72223          	sw	a3,4(a4)
   133f0:	0205a683          	lw	a3,32(a1)
   133f4:	01f72023          	sw	t6,0(a4)
   133f8:	01e72423          	sw	t5,8(a4)
   133fc:	01d72623          	sw	t4,12(a4)
   13400:	01c72823          	sw	t3,16(a4)
   13404:	00672a23          	sw	t1,20(a4)
   13408:	01072c23          	sw	a6,24(a4)
   1340c:	00f72e23          	sw	a5,28(a4)
   13410:	02470713          	addi	a4,a4,36
   13414:	40e607b3          	sub	a5,a2,a4
   13418:	fed72e23          	sw	a3,-4(a4)
   1341c:	02458593          	addi	a1,a1,36
   13420:	faf2c6e3          	blt	t0,a5,133cc <memcpy+0x98>
   13424:	f49ff06f          	j	1336c <memcpy+0x38>
   13428:	0005c683          	lbu	a3,0(a1)
   1342c:	00170713          	addi	a4,a4,1
   13430:	00377793          	andi	a5,a4,3
   13434:	fed70fa3          	sb	a3,-1(a4)
   13438:	00158593          	addi	a1,a1,1
   1343c:	f0078ee3          	beqz	a5,13358 <memcpy+0x24>
   13440:	0005c683          	lbu	a3,0(a1)
   13444:	00170713          	addi	a4,a4,1
   13448:	00377793          	andi	a5,a4,3
   1344c:	fed70fa3          	sb	a3,-1(a4)
   13450:	00158593          	addi	a1,a1,1
   13454:	fc079ae3          	bnez	a5,13428 <memcpy+0xf4>
   13458:	f01ff06f          	j	13358 <memcpy+0x24>

0001345c <memset>:
   1345c:	00f00313          	li	t1,15
   13460:	00050713          	mv	a4,a0
   13464:	02c37e63          	bgeu	t1,a2,134a0 <memset+0x44>
   13468:	00f77793          	andi	a5,a4,15
   1346c:	0a079063          	bnez	a5,1350c <memset+0xb0>
   13470:	08059263          	bnez	a1,134f4 <memset+0x98>
   13474:	ff067693          	andi	a3,a2,-16
   13478:	00f67613          	andi	a2,a2,15
   1347c:	00e686b3          	add	a3,a3,a4
   13480:	00b72023          	sw	a1,0(a4)
   13484:	00b72223          	sw	a1,4(a4)
   13488:	00b72423          	sw	a1,8(a4)
   1348c:	00b72623          	sw	a1,12(a4)
   13490:	01070713          	addi	a4,a4,16
   13494:	fed766e3          	bltu	a4,a3,13480 <memset+0x24>
   13498:	00061463          	bnez	a2,134a0 <memset+0x44>
   1349c:	00008067          	ret
   134a0:	40c306b3          	sub	a3,t1,a2
   134a4:	00269693          	slli	a3,a3,0x2
   134a8:	00000297          	auipc	t0,0x0
   134ac:	005686b3          	add	a3,a3,t0
   134b0:	00c68067          	jr	12(a3)
   134b4:	00b70723          	sb	a1,14(a4)
   134b8:	00b706a3          	sb	a1,13(a4)
   134bc:	00b70623          	sb	a1,12(a4)
   134c0:	00b705a3          	sb	a1,11(a4)
   134c4:	00b70523          	sb	a1,10(a4)
   134c8:	00b704a3          	sb	a1,9(a4)
   134cc:	00b70423          	sb	a1,8(a4)
   134d0:	00b703a3          	sb	a1,7(a4)
   134d4:	00b70323          	sb	a1,6(a4)
   134d8:	00b702a3          	sb	a1,5(a4)
   134dc:	00b70223          	sb	a1,4(a4)
   134e0:	00b701a3          	sb	a1,3(a4)
   134e4:	00b70123          	sb	a1,2(a4)
   134e8:	00b700a3          	sb	a1,1(a4)
   134ec:	00b70023          	sb	a1,0(a4)
   134f0:	00008067          	ret
   134f4:	0ff5f593          	andi	a1,a1,255
   134f8:	00859693          	slli	a3,a1,0x8
   134fc:	00d5e5b3          	or	a1,a1,a3
   13500:	01059693          	slli	a3,a1,0x10
   13504:	00d5e5b3          	or	a1,a1,a3
   13508:	f6dff06f          	j	13474 <memset+0x18>
   1350c:	00279693          	slli	a3,a5,0x2
   13510:	00000297          	auipc	t0,0x0
   13514:	005686b3          	add	a3,a3,t0
   13518:	00008293          	mv	t0,ra
   1351c:	fa0680e7          	jalr	-96(a3)
   13520:	00028093          	mv	ra,t0
   13524:	ff078793          	addi	a5,a5,-16
   13528:	40f70733          	sub	a4,a4,a5
   1352c:	00f60633          	add	a2,a2,a5
   13530:	f6c378e3          	bgeu	t1,a2,134a0 <memset+0x44>
   13534:	f3dff06f          	j	13470 <memset+0x14>

00013538 <__call_exitprocs>:
   13538:	fd010113          	addi	sp,sp,-48
   1353c:	01412c23          	sw	s4,24(sp)
   13540:	ce01aa03          	lw	s4,-800(gp) # 16870 <_global_impure_ptr>
   13544:	03212023          	sw	s2,32(sp)
   13548:	02112623          	sw	ra,44(sp)
   1354c:	148a2903          	lw	s2,328(s4)
   13550:	02812423          	sw	s0,40(sp)
   13554:	02912223          	sw	s1,36(sp)
   13558:	01312e23          	sw	s3,28(sp)
   1355c:	01512a23          	sw	s5,20(sp)
   13560:	01612823          	sw	s6,16(sp)
   13564:	01712623          	sw	s7,12(sp)
   13568:	01812423          	sw	s8,8(sp)
   1356c:	04090063          	beqz	s2,135ac <__call_exitprocs+0x74>
   13570:	00050b13          	mv	s6,a0
   13574:	00058b93          	mv	s7,a1
   13578:	00100a93          	li	s5,1
   1357c:	fff00993          	li	s3,-1
   13580:	00492483          	lw	s1,4(s2)
   13584:	fff48413          	addi	s0,s1,-1
   13588:	02044263          	bltz	s0,135ac <__call_exitprocs+0x74>
   1358c:	00249493          	slli	s1,s1,0x2
   13590:	009904b3          	add	s1,s2,s1
   13594:	040b8463          	beqz	s7,135dc <__call_exitprocs+0xa4>
   13598:	1044a783          	lw	a5,260(s1)
   1359c:	05778063          	beq	a5,s7,135dc <__call_exitprocs+0xa4>
   135a0:	fff40413          	addi	s0,s0,-1
   135a4:	ffc48493          	addi	s1,s1,-4
   135a8:	ff3416e3          	bne	s0,s3,13594 <__call_exitprocs+0x5c>
   135ac:	02c12083          	lw	ra,44(sp)
   135b0:	02812403          	lw	s0,40(sp)
   135b4:	02412483          	lw	s1,36(sp)
   135b8:	02012903          	lw	s2,32(sp)
   135bc:	01c12983          	lw	s3,28(sp)
   135c0:	01812a03          	lw	s4,24(sp)
   135c4:	01412a83          	lw	s5,20(sp)
   135c8:	01012b03          	lw	s6,16(sp)
   135cc:	00c12b83          	lw	s7,12(sp)
   135d0:	00812c03          	lw	s8,8(sp)
   135d4:	03010113          	addi	sp,sp,48
   135d8:	00008067          	ret
   135dc:	00492783          	lw	a5,4(s2)
   135e0:	0044a683          	lw	a3,4(s1)
   135e4:	fff78793          	addi	a5,a5,-1
   135e8:	04878e63          	beq	a5,s0,13644 <__call_exitprocs+0x10c>
   135ec:	0004a223          	sw	zero,4(s1)
   135f0:	fa0688e3          	beqz	a3,135a0 <__call_exitprocs+0x68>
   135f4:	18892783          	lw	a5,392(s2)
   135f8:	008a9733          	sll	a4,s5,s0
   135fc:	00492c03          	lw	s8,4(s2)
   13600:	00f777b3          	and	a5,a4,a5
   13604:	02079263          	bnez	a5,13628 <__call_exitprocs+0xf0>
   13608:	000680e7          	jalr	a3
   1360c:	00492703          	lw	a4,4(s2)
   13610:	148a2783          	lw	a5,328(s4)
   13614:	01871463          	bne	a4,s8,1361c <__call_exitprocs+0xe4>
   13618:	f92784e3          	beq	a5,s2,135a0 <__call_exitprocs+0x68>
   1361c:	f80788e3          	beqz	a5,135ac <__call_exitprocs+0x74>
   13620:	00078913          	mv	s2,a5
   13624:	f5dff06f          	j	13580 <__call_exitprocs+0x48>
   13628:	18c92783          	lw	a5,396(s2)
   1362c:	0844a583          	lw	a1,132(s1)
   13630:	00f77733          	and	a4,a4,a5
   13634:	00071c63          	bnez	a4,1364c <__call_exitprocs+0x114>
   13638:	000b0513          	mv	a0,s6
   1363c:	000680e7          	jalr	a3
   13640:	fcdff06f          	j	1360c <__call_exitprocs+0xd4>
   13644:	00892223          	sw	s0,4(s2)
   13648:	fa9ff06f          	j	135f0 <__call_exitprocs+0xb8>
   1364c:	00058513          	mv	a0,a1
   13650:	000680e7          	jalr	a3
   13654:	fb9ff06f          	j	1360c <__call_exitprocs+0xd4>

00013658 <__libc_fini_array>:
   13658:	ff010113          	addi	sp,sp,-16
   1365c:	00812423          	sw	s0,8(sp)
   13660:	000167b7          	lui	a5,0x16
   13664:	00016437          	lui	s0,0x16
   13668:	38840413          	addi	s0,s0,904 # 16388 <__do_global_dtors_aux_fini_array_entry>
   1366c:	38c78793          	addi	a5,a5,908 # 1638c <__fini_array_end>
   13670:	408787b3          	sub	a5,a5,s0
   13674:	00912223          	sw	s1,4(sp)
   13678:	00112623          	sw	ra,12(sp)
   1367c:	4027d493          	srai	s1,a5,0x2
   13680:	02048063          	beqz	s1,136a0 <__libc_fini_array+0x48>
   13684:	ffc78793          	addi	a5,a5,-4
   13688:	00878433          	add	s0,a5,s0
   1368c:	00042783          	lw	a5,0(s0)
   13690:	fff48493          	addi	s1,s1,-1
   13694:	ffc40413          	addi	s0,s0,-4
   13698:	000780e7          	jalr	a5
   1369c:	fe0498e3          	bnez	s1,1368c <__libc_fini_array+0x34>
   136a0:	00c12083          	lw	ra,12(sp)
   136a4:	00812403          	lw	s0,8(sp)
   136a8:	00412483          	lw	s1,4(sp)
   136ac:	01010113          	addi	sp,sp,16
   136b0:	00008067          	ret

000136b4 <atexit>:
   136b4:	00050593          	mv	a1,a0
   136b8:	00000693          	li	a3,0
   136bc:	00000613          	li	a2,0
   136c0:	00000513          	li	a0,0
   136c4:	0040006f          	j	136c8 <__register_exitproc>

000136c8 <__register_exitproc>:
   136c8:	ce01a703          	lw	a4,-800(gp) # 16870 <_global_impure_ptr>
   136cc:	14872783          	lw	a5,328(a4)
   136d0:	04078c63          	beqz	a5,13728 <__register_exitproc+0x60>
   136d4:	0047a703          	lw	a4,4(a5)
   136d8:	01f00813          	li	a6,31
   136dc:	06e84e63          	blt	a6,a4,13758 <__register_exitproc+0x90>
   136e0:	00271813          	slli	a6,a4,0x2
   136e4:	02050663          	beqz	a0,13710 <__register_exitproc+0x48>
   136e8:	01078333          	add	t1,a5,a6
   136ec:	08c32423          	sw	a2,136(t1)
   136f0:	1887a883          	lw	a7,392(a5)
   136f4:	00100613          	li	a2,1
   136f8:	00e61633          	sll	a2,a2,a4
   136fc:	00c8e8b3          	or	a7,a7,a2
   13700:	1917a423          	sw	a7,392(a5)
   13704:	10d32423          	sw	a3,264(t1)
   13708:	00200693          	li	a3,2
   1370c:	02d50463          	beq	a0,a3,13734 <__register_exitproc+0x6c>
   13710:	00170713          	addi	a4,a4,1
   13714:	00e7a223          	sw	a4,4(a5)
   13718:	010787b3          	add	a5,a5,a6
   1371c:	00b7a423          	sw	a1,8(a5)
   13720:	00000513          	li	a0,0
   13724:	00008067          	ret
   13728:	14c70793          	addi	a5,a4,332
   1372c:	14f72423          	sw	a5,328(a4)
   13730:	fa5ff06f          	j	136d4 <__register_exitproc+0xc>
   13734:	18c7a683          	lw	a3,396(a5)
   13738:	00170713          	addi	a4,a4,1
   1373c:	00e7a223          	sw	a4,4(a5)
   13740:	00c6e633          	or	a2,a3,a2
   13744:	18c7a623          	sw	a2,396(a5)
   13748:	010787b3          	add	a5,a5,a6
   1374c:	00b7a423          	sw	a1,8(a5)
   13750:	00000513          	li	a0,0
   13754:	00008067          	ret
   13758:	fff00513          	li	a0,-1
   1375c:	00008067          	ret

00013760 <_exit>:
   13760:	05d00893          	li	a7,93
   13764:	00000073          	ecall
   13768:	00054463          	bltz	a0,13770 <_exit+0x10>
   1376c:	0000006f          	j	1376c <_exit+0xc>
   13770:	ff010113          	addi	sp,sp,-16
   13774:	00812423          	sw	s0,8(sp)
   13778:	00050413          	mv	s0,a0
   1377c:	00112623          	sw	ra,12(sp)
   13780:	40800433          	neg	s0,s0
   13784:	addff0ef          	jal	ra,13260 <__errno>
   13788:	00852023          	sw	s0,0(a0)
   1378c:	0000006f          	j	1378c <_exit+0x2c>

Disassembly of section .rodata:

00013790 <npio2_hw-0x1888>:
   13790:	20555047          	fmsub.s	ft0,fa0,ft5,ft4,unknown
   13794:	4950                	lw	a2,20(a0)
   13796:	4550                	lw	a2,12(a0)
   13798:	494c                	lw	a1,20(a0)
   1379a:	454e                	lw	a0,208(sp)
   1379c:	5420                	lw	s0,104(s0)
   1379e:	5345                	li	t1,-15
   137a0:	0054                	addi	a3,sp,4
   137a2:	0000                	unimp
   137a4:	4954                	lw	a3,20(a0)
   137a6:	454d                	li	a0,19
   137a8:	203a                	fld	ft0,392(sp)
   137aa:	0000                	unimp
   137ac:	003a                	c.slli	zero,0xe
   137ae:	0000                	unimp
   137b0:	3fc90fdb          	0x3fc90fdb
   137b4:	0000                	unimp
   137b6:	4280                	lw	s0,0(a3)
   137b8:	0000                	unimp
   137ba:	4200                	lw	s0,0(a2)
   137bc:	0000                	unimp
   137be:	4040                	lw	s0,4(s0)
   137c0:	d70a                	sw	sp,172(sp)
   137c2:	d70a3ca3          	0xd70a3ca3
   137c6:	00003d23          	0x3d23
   137ca:	4030                	lw	a2,64(s0)
   137cc:	0000                	unimp
   137ce:	3fc0                	fld	fs0,184(a5)
   137d0:	0000                	unimp
   137d2:	42c0                	lw	s0,4(a3)
   137d4:	0000                	unimp
   137d6:	4300                	lw	s0,0(a4)
   137d8:	0000                	unimp
   137da:	437f                	0x437f
   137dc:	0000                	unimp
   137de:	4340                	lw	s0,4(a4)
   137e0:	3a83126f          	jal	tp,44b88 <__BSS_END__+0x2dfe0>
   137e4:	2020                	fld	fs0,64(s0)
   137e6:	2020                	fld	fs0,64(s0)
   137e8:	2020                	fld	fs0,64(s0)
   137ea:	2020                	fld	fs0,64(s0)
   137ec:	2020                	fld	fs0,64(s0)
   137ee:	2020                	fld	fs0,64(s0)
   137f0:	2020                	fld	fs0,64(s0)
   137f2:	2020                	fld	fs0,64(s0)
   137f4:	2020                	fld	fs0,64(s0)
   137f6:	0020                	addi	s0,sp,8
   137f8:	3130                	fld	fa2,96(a0)
   137fa:	3332                	fld	ft6,296(sp)
   137fc:	3534                	fld	fa3,104(a0)
   137fe:	3736                	fld	fa4,360(sp)
   13800:	3938                	fld	fa4,112(a0)
   13802:	0000                	unimp
   13804:	3130                	fld	fa2,96(a0)
   13806:	3332                	fld	ft6,296(sp)
   13808:	3534                	fld	fa3,104(a0)
   1380a:	3736                	fld	fa4,360(sp)
   1380c:	3938                	fld	fa4,112(a0)
   1380e:	4241                	li	tp,16
   13810:	46454443          	fmadd.q	fs0,fa0,ft4,fs0,rmm
	...
   13820:	0000                	unimp
   13822:	00ff                	0xff
   13824:	0000                	unimp
   13826:	0000                	unimp
   13828:	ff00                	fsw	fs0,56(a4)
   1382a:	ff00                	fsw	fs0,56(a4)
   1382c:	0000                	unimp
   1382e:	0000                	unimp
   13830:	0000                	unimp
   13832:	00ff                	0xff
   13834:	00ff                	0xff
   13836:	0000                	unimp
   13838:	ff00                	fsw	fs0,56(a4)
   1383a:	ffff                	0xffff
   1383c:	0000                	unimp
   1383e:	0000                	unimp
   13840:	ff00                	fsw	fs0,56(a4)
   13842:	ffff                	0xffff
   13844:	00ff                	0xff
   13846:	0000                	unimp
   13848:	0000                	unimp
   1384a:	00ff                	0xff
   1384c:	0000                	unimp
   1384e:	0000                	unimp
   13850:	0000                	unimp
   13852:	00ff                	0xff
   13854:	0000                	unimp
   13856:	0000                	unimp
   13858:	0000                	unimp
   1385a:	ff00                	fsw	fs0,56(a4)
   1385c:	0000                	unimp
   1385e:	0000                	unimp
   13860:	ff00                	fsw	fs0,56(a4)
	...
   1386a:	00ff                	0xff
	...
   13894:	00ff                	0xff
   13896:	0000                	unimp
   13898:	ff00                	fsw	fs0,56(a4)
   1389a:	ffff                	0xffff
   1389c:	0000                	unimp
   1389e:	0000                	unimp
   138a0:	0000                	unimp
   138a2:	00ff                	0xff
   138a4:	0000                	unimp
   138a6:	0000                	unimp
   138a8:	ff00                	fsw	fs0,56(a4)
   138aa:	ffff                	0xffff
   138ac:	0000                	unimp
   138ae:	0000                	unimp
   138b0:	ffff                	0xffff
   138b2:	ffff                	0xffff
   138b4:	00ff                	0xff
   138b6:	0000                	unimp
   138b8:	0000                	unimp
   138ba:	ff00                	fsw	fs0,56(a4)
   138bc:	0000                	unimp
   138be:	0000                	unimp
   138c0:	ffff                	0xffff
   138c2:	ffff                	0xffff
   138c4:	00ff                	0xff
   138c6:	0000                	unimp
   138c8:	0000                	unimp
   138ca:	ffff                	0xffff
   138cc:	0000                	unimp
   138ce:	0000                	unimp
   138d0:	ffff                	0xffff
   138d2:	ffff                	0xffff
   138d4:	00ff                	0xff
   138d6:	0000                	unimp
   138d8:	ff00                	fsw	fs0,56(a4)
   138da:	ffff                	0xffff
   138dc:	0000                	unimp
   138de:	0000                	unimp
   138e0:	ff00                	fsw	fs0,56(a4)
   138e2:	ffff                	0xffff
	...
   13910:	0000                	unimp
   13912:	ffff                	0xffff
	...
   13920:	0000                	unimp
   13922:	00ff                	0xff
   13924:	0000                	unimp
   13926:	0000                	unimp
   13928:	ff00                	fsw	fs0,56(a4)
   1392a:	ff00                	fsw	fs0,56(a4)
   1392c:	0000                	unimp
   1392e:	0000                	unimp
   13930:	ffff                	0xffff
   13932:	ffff                	0xffff
   13934:	00ff                	0xff
   13936:	0000                	unimp
   13938:	00ff                	0xff
   1393a:	00ff                	0xff
   1393c:	00ff                	0xff
   1393e:	0000                	unimp
   13940:	00ff                	0xff
   13942:	00ff                	0xff
   13944:	00ff                	0xff
   13946:	0000                	unimp
   13948:	ff00                	fsw	fs0,56(a4)
   1394a:	ff00                	fsw	fs0,56(a4)
   1394c:	0000                	unimp
   1394e:	0000                	unimp
   13950:	0000                	unimp
   13952:	00ff                	0xff
   13954:	0000                	unimp
   13956:	0000                	unimp
   13958:	0000                	unimp
   1395a:	00ff                	0xff
   1395c:	0000                	unimp
   1395e:	0000                	unimp
   13960:	0000                	unimp
   13962:	00ff                	0xff
   13964:	0000                	unimp
   13966:	0000                	unimp
   13968:	00ff                	0xff
   1396a:	00ff                	0xff
   1396c:	00ff                	0xff
   1396e:	0000                	unimp
   13970:	0000                	unimp
   13972:	00ff                	0xff
	...
   13994:	00ff                	0xff
   13996:	0000                	unimp
   13998:	00ff                	0xff
   1399a:	0000                	unimp
   1399c:	00ff                	0xff
   1399e:	0000                	unimp
   139a0:	ff00                	fsw	fs0,56(a4)
   139a2:	00ff                	0xff
   139a4:	0000                	unimp
   139a6:	0000                	unimp
   139a8:	00ff                	0xff
   139aa:	0000                	unimp
   139ac:	00ff                	0xff
   139ae:	0000                	unimp
   139b0:	0000                	unimp
   139b2:	ff00                	fsw	fs0,56(a4)
   139b4:	0000                	unimp
   139b6:	0000                	unimp
   139b8:	0000                	unimp
   139ba:	ffff                	0xffff
   139bc:	0000                	unimp
   139be:	0000                	unimp
   139c0:	00ff                	0xff
   139c2:	0000                	unimp
   139c4:	0000                	unimp
   139c6:	0000                	unimp
   139c8:	ff00                	fsw	fs0,56(a4)
	...
   139d2:	0000                	unimp
   139d4:	00ff                	0xff
   139d6:	0000                	unimp
   139d8:	00ff                	0xff
   139da:	0000                	unimp
   139dc:	00ff                	0xff
   139de:	0000                	unimp
   139e0:	00ff                	0xff
   139e2:	0000                	unimp
   139e4:	00ff                	0xff
	...
   139fa:	ff00                	fsw	fs0,56(a4)
	...
   13a08:	ff00                	fsw	fs0,56(a4)
   13a0a:	0000                	unimp
   13a0c:	0000                	unimp
   13a0e:	0000                	unimp
   13a10:	ff00                	fsw	fs0,56(a4)
   13a12:	0000                	unimp
   13a14:	00ff                	0xff
	...
   13a22:	00ff                	0xff
	...
   13a30:	ff00                	fsw	fs0,56(a4)
   13a32:	ff00                	fsw	fs0,56(a4)
   13a34:	0000                	unimp
   13a36:	0000                	unimp
   13a38:	00ff                	0xff
   13a3a:	00ff                	0xff
   13a3c:	0000                	unimp
   13a3e:	0000                	unimp
   13a40:	00ff                	0xff
   13a42:	ffff                	0xffff
   13a44:	0000                	unimp
   13a46:	0000                	unimp
   13a48:	0000                	unimp
   13a4a:	00ff                	0xff
	...
   13a58:	ff00                	fsw	fs0,56(a4)
	...
   13a62:	ff00                	fsw	fs0,56(a4)
   13a64:	0000                	unimp
   13a66:	0000                	unimp
   13a68:	ff00                	fsw	fs0,56(a4)
   13a6a:	ffff                	0xffff
   13a6c:	0000                	unimp
   13a6e:	0000                	unimp
   13a70:	0000                	unimp
   13a72:	00ff                	0xff
	...
   13a90:	0000                	unimp
   13a92:	ff00                	fsw	fs0,56(a4)
   13a94:	0000                	unimp
   13a96:	0000                	unimp
   13a98:	00ff                	0xff
   13a9a:	ff00                	fsw	fs0,56(a4)
   13a9c:	00ff                	0xff
   13a9e:	0000                	unimp
   13aa0:	0000                	unimp
   13aa2:	00ff                	0xff
	...
   13aac:	00ff                	0xff
   13aae:	0000                	unimp
   13ab0:	0000                	unimp
   13ab2:	00ff                	0xff
   13ab4:	0000                	unimp
   13ab6:	0000                	unimp
   13ab8:	ff00                	fsw	fs0,56(a4)
   13aba:	ff00                	fsw	fs0,56(a4)
   13abc:	0000                	unimp
   13abe:	0000                	unimp
   13ac0:	ffff                	0xffff
   13ac2:	ffff                	0xffff
   13ac4:	0000                	unimp
   13ac6:	0000                	unimp
   13ac8:	00ff                	0xff
	...
   13ad2:	ff00                	fsw	fs0,56(a4)
   13ad4:	0000                	unimp
   13ad6:	0000                	unimp
   13ad8:	00ff                	0xff
   13ada:	0000                	unimp
   13adc:	00ff                	0xff
   13ade:	0000                	unimp
   13ae0:	00ff                	0xff
   13ae2:	0000                	unimp
   13ae4:	00ff                	0xff
   13ae6:	0000                	unimp
   13ae8:	0000                	unimp
   13aea:	00ff                	0xff
   13aec:	0000                	unimp
   13aee:	0000                	unimp
   13af0:	0000                	unimp
   13af2:	00ff                	0xff
   13af4:	0000                	unimp
   13af6:	0000                	unimp
   13af8:	0000                	unimp
   13afa:	00ff                	0xff
   13afc:	0000                	unimp
   13afe:	0000                	unimp
   13b00:	ffff                	0xffff
   13b02:	ffff                	0xffff
   13b04:	00ff                	0xff
   13b06:	0000                	unimp
   13b08:	0000                	unimp
   13b0a:	00ff                	0xff
	...
   13b14:	00ff                	0xff
	...
   13b22:	00ff                	0xff
	...
   13b30:	ffff                	0xffff
   13b32:	ffff                	0xffff
   13b34:	00ff                	0xff
   13b36:	0000                	unimp
   13b38:	ff00                	fsw	fs0,56(a4)
   13b3a:	ffff                	0xffff
   13b3c:	0000                	unimp
   13b3e:	0000                	unimp
   13b40:	ff00                	fsw	fs0,56(a4)
   13b42:	ffff                	0xffff
   13b44:	00ff                	0xff
   13b46:	0000                	unimp
   13b48:	ff00                	fsw	fs0,56(a4)
   13b4a:	ff00                	fsw	fs0,56(a4)
   13b4c:	ff00                	fsw	fs0,56(a4)
	...
   13b56:	0000                	unimp
   13b58:	ff00                	fsw	fs0,56(a4)
	...
   13b62:	ff00                	fsw	fs0,56(a4)
   13b64:	0000                	unimp
   13b66:	0000                	unimp
   13b68:	ff00                	fsw	fs0,56(a4)
   13b6a:	ff00                	fsw	fs0,56(a4)
   13b6c:	0000                	unimp
   13b6e:	0000                	unimp
   13b70:	ffff                	0xffff
   13b72:	ffff                	0xffff
   13b74:	00ff                	0xff
	...
   13b7e:	0000                	unimp
   13b80:	ff00                	fsw	fs0,56(a4)
   13b82:	ffff                	0xffff
   13b84:	00ff                	0xff
	...
   13b92:	ff00                	fsw	fs0,56(a4)
   13b94:	0000                	unimp
   13b96:	0000                	unimp
   13b98:	00ff                	0xff
   13b9a:	00ff                	0xff
   13b9c:	00ff                	0xff
   13b9e:	0000                	unimp
   13ba0:	0000                	unimp
   13ba2:	00ff                	0xff
   13ba4:	0000                	unimp
   13ba6:	0000                	unimp
   13ba8:	0000                	unimp
   13baa:	ff00                	fsw	fs0,56(a4)
   13bac:	0000                	unimp
   13bae:	0000                	unimp
   13bb0:	ff00                	fsw	fs0,56(a4)
   13bb2:	ffff                	0xffff
   13bb4:	0000                	unimp
   13bb6:	0000                	unimp
   13bb8:	00ff                	0xff
   13bba:	ff00                	fsw	fs0,56(a4)
	...
   13bc4:	00ff                	0xff
   13bc6:	0000                	unimp
   13bc8:	ffff                	0xffff
   13bca:	ffff                	0xffff
   13bcc:	0000                	unimp
   13bce:	0000                	unimp
   13bd0:	0000                	unimp
   13bd2:	ff00                	fsw	fs0,56(a4)
   13bd4:	0000                	unimp
   13bd6:	0000                	unimp
   13bd8:	ff00                	fsw	fs0,56(a4)
   13bda:	ffff                	0xffff
   13bdc:	0000                	unimp
   13bde:	0000                	unimp
   13be0:	ff00                	fsw	fs0,56(a4)
   13be2:	ffff                	0xffff
   13be4:	00ff                	0xff
	...
   13bf6:	0000                	unimp
   13bf8:	ff00                	fsw	fs0,56(a4)
	...
   13c0a:	ff00                	fsw	fs0,56(a4)
   13c0c:	0000                	unimp
   13c0e:	0000                	unimp
   13c10:	0000                	unimp
   13c12:	ff00                	fsw	fs0,56(a4)
	...
   13c20:	0000                	unimp
   13c22:	00ff                	0xff
	...
   13c30:	00ff                	0xff
   13c32:	00ff                	0xff
   13c34:	0000                	unimp
   13c36:	0000                	unimp
   13c38:	0000                	unimp
   13c3a:	00ff                	0xff
   13c3c:	00ff                	0xff
   13c3e:	0000                	unimp
   13c40:	0000                	unimp
   13c42:	ffff                	0xffff
   13c44:	ff00                	fsw	fs0,56(a4)
   13c46:	0000                	unimp
   13c48:	00ff                	0xff
   13c4a:	0000                	unimp
   13c4c:	00ff                	0xff
	...
   13c56:	0000                	unimp
   13c58:	ff00                	fsw	fs0,56(a4)
	...
   13c62:	ff00                	fsw	fs0,56(a4)
   13c64:	0000                	unimp
   13c66:	0000                	unimp
   13c68:	00ff                	0xff
   13c6a:	0000                	unimp
   13c6c:	00ff                	0xff
   13c6e:	0000                	unimp
   13c70:	0000                	unimp
   13c72:	00ff                	0xff
	...
   13c90:	0000                	unimp
   13c92:	00ff                	0xff
   13c94:	0000                	unimp
   13c96:	0000                	unimp
   13c98:	ffff                	0xffff
   13c9a:	0000                	unimp
   13c9c:	00ff                	0xff
   13c9e:	0000                	unimp
   13ca0:	0000                	unimp
   13ca2:	00ff                	0xff
   13ca4:	0000                	unimp
   13ca6:	0000                	unimp
   13ca8:	0000                	unimp
   13caa:	00ff                	0xff
	...
   13cb4:	00ff                	0xff
   13cb6:	0000                	unimp
   13cb8:	ffff                	0xffff
   13cba:	ffff                	0xffff
   13cbc:	00ff                	0xff
   13cbe:	0000                	unimp
   13cc0:	0000                	unimp
   13cc2:	0000                	unimp
   13cc4:	00ff                	0xff
   13cc6:	0000                	unimp
   13cc8:	00ff                	0xff
   13cca:	0000                	unimp
   13ccc:	00ff                	0xff
   13cce:	0000                	unimp
   13cd0:	0000                	unimp
   13cd2:	00ff                	0xff
   13cd4:	0000                	unimp
   13cd6:	0000                	unimp
   13cd8:	00ff                	0xff
   13cda:	0000                	unimp
   13cdc:	00ff                	0xff
   13cde:	0000                	unimp
   13ce0:	0000                	unimp
   13ce2:	0000                	unimp
   13ce4:	00ff                	0xff
	...
   13cfa:	00ff                	0xff
   13cfc:	0000                	unimp
   13cfe:	0000                	unimp
   13d00:	ffff                	0xffff
   13d02:	ffff                	0xffff
   13d04:	00ff                	0xff
   13d06:	0000                	unimp
   13d08:	0000                	unimp
   13d0a:	00ff                	0xff
   13d0c:	0000                	unimp
   13d0e:	0000                	unimp
   13d10:	0000                	unimp
   13d12:	00ff                	0xff
	...
   13d38:	00ff                	0xff
   13d3a:	00ff                	0xff
   13d3c:	00ff                	0xff
   13d3e:	0000                	unimp
   13d40:	ff00                	fsw	fs0,56(a4)
   13d42:	ff00                	fsw	fs0,56(a4)
   13d44:	ff00                	fsw	fs0,56(a4)
   13d46:	0000                	unimp
   13d48:	00ff                	0xff
   13d4a:	0000                	unimp
   13d4c:	00ff                	0xff
	...
   13d56:	0000                	unimp
   13d58:	ff00                	fsw	fs0,56(a4)
	...
   13d62:	ff00                	fsw	fs0,56(a4)
	...
   13d70:	0000                	unimp
   13d72:	00ff                	0xff
   13d74:	0000                	unimp
   13d76:	0000                	unimp
   13d78:	0000                	unimp
   13d7a:	00ff                	0xff
	...
   13d90:	0000                	unimp
   13d92:	00ff                	0xff
   13d94:	0000                	unimp
   13d96:	0000                	unimp
   13d98:	00ff                	0xff
   13d9a:	0000                	unimp
   13d9c:	00ff                	0xff
   13d9e:	0000                	unimp
   13da0:	0000                	unimp
   13da2:	00ff                	0xff
   13da4:	0000                	unimp
   13da6:	0000                	unimp
   13da8:	ff00                	fsw	fs0,56(a4)
   13daa:	0000                	unimp
   13dac:	0000                	unimp
   13dae:	0000                	unimp
   13db0:	00ff                	0xff
   13db2:	0000                	unimp
   13db4:	00ff                	0xff
   13db6:	0000                	unimp
   13db8:	0000                	unimp
   13dba:	ff00                	fsw	fs0,56(a4)
   13dbc:	0000                	unimp
   13dbe:	0000                	unimp
   13dc0:	00ff                	0xff
   13dc2:	0000                	unimp
   13dc4:	00ff                	0xff
   13dc6:	0000                	unimp
   13dc8:	00ff                	0xff
   13dca:	0000                	unimp
   13dcc:	00ff                	0xff
   13dce:	0000                	unimp
   13dd0:	0000                	unimp
   13dd2:	00ff                	0xff
   13dd4:	0000                	unimp
   13dd6:	0000                	unimp
   13dd8:	00ff                	0xff
   13dda:	0000                	unimp
   13ddc:	00ff                	0xff
   13dde:	0000                	unimp
   13de0:	0000                	unimp
   13de2:	ff00                	fsw	fs0,56(a4)
	...
   13df0:	0000                	unimp
   13df2:	00ff                	0xff
   13df4:	0000                	unimp
   13df6:	0000                	unimp
   13df8:	0000                	unimp
   13dfa:	ff00                	fsw	fs0,56(a4)
	...
   13e08:	ff00                	fsw	fs0,56(a4)
	...
   13e22:	00ff                	0xff
	...
   13e38:	ff00                	fsw	fs0,56(a4)
   13e3a:	ffff                	0xffff
   13e3c:	0000                	unimp
   13e3e:	0000                	unimp
   13e40:	ff00                	fsw	fs0,56(a4)
   13e42:	0000                	unimp
   13e44:	00ff                	0xff
   13e46:	0000                	unimp
   13e48:	ff00                	fsw	fs0,56(a4)
   13e4a:	ffff                	0xffff
   13e4c:	ff00                	fsw	fs0,56(a4)
	...
   13e5a:	00ff                	0xff
   13e5c:	0000                	unimp
   13e5e:	0000                	unimp
   13e60:	0000                	unimp
   13e62:	00ff                	0xff
	...
   13e78:	0000                	unimp
   13e7a:	00ff                	0xff
	...
   13e88:	0000                	unimp
   13e8a:	00ff                	0xff
   13e8c:	0000                	unimp
   13e8e:	0000                	unimp
   13e90:	ff00                	fsw	fs0,56(a4)
   13e92:	0000                	unimp
   13e94:	0000                	unimp
   13e96:	0000                	unimp
   13e98:	ff00                	fsw	fs0,56(a4)
   13e9a:	ffff                	0xffff
   13e9c:	0000                	unimp
   13e9e:	0000                	unimp
   13ea0:	0000                	unimp
   13ea2:	00ff                	0xff
   13ea4:	0000                	unimp
   13ea6:	0000                	unimp
   13ea8:	ffff                	0xffff
   13eaa:	ffff                	0xffff
   13eac:	00ff                	0xff
   13eae:	0000                	unimp
   13eb0:	ff00                	fsw	fs0,56(a4)
   13eb2:	ffff                	0xffff
   13eb4:	0000                	unimp
   13eb6:	0000                	unimp
   13eb8:	0000                	unimp
   13eba:	ff00                	fsw	fs0,56(a4)
   13ebc:	0000                	unimp
   13ebe:	0000                	unimp
   13ec0:	ff00                	fsw	fs0,56(a4)
   13ec2:	ffff                	0xffff
   13ec4:	0000                	unimp
   13ec6:	0000                	unimp
   13ec8:	ff00                	fsw	fs0,56(a4)
   13eca:	ffff                	0xffff
   13ecc:	0000                	unimp
   13ece:	0000                	unimp
   13ed0:	0000                	unimp
   13ed2:	00ff                	0xff
   13ed4:	0000                	unimp
   13ed6:	0000                	unimp
   13ed8:	ff00                	fsw	fs0,56(a4)
   13eda:	ffff                	0xffff
   13edc:	0000                	unimp
   13ede:	0000                	unimp
   13ee0:	ff00                	fsw	fs0,56(a4)
   13ee2:	00ff                	0xff
   13ee4:	0000                	unimp
   13ee6:	0000                	unimp
   13ee8:	0000                	unimp
   13eea:	00ff                	0xff
   13eec:	0000                	unimp
   13eee:	0000                	unimp
   13ef0:	0000                	unimp
   13ef2:	00ff                	0xff
	...
   13f10:	0000                	unimp
   13f12:	00ff                	0xff
	...
   13f38:	0000                	unimp
   13f3a:	00ff                	0xff
	...
   13f58:	0000                	unimp
   13f5a:	ff00                	fsw	fs0,56(a4)
   13f5c:	0000                	unimp
   13f5e:	0000                	unimp
   13f60:	ff00                	fsw	fs0,56(a4)
	...
   13f76:	0000                	unimp
   13f78:	ff00                	fsw	fs0,56(a4)
	...
   13f8e:	0000                	unimp
   13f90:	ff00                	fsw	fs0,56(a4)
	...
   13fee:	0000                	unimp
   13ff0:	ff00                	fsw	fs0,56(a4)
	...
   1401a:	ffff                	0xffff
   1401c:	0000                	unimp
   1401e:	0000                	unimp
   14020:	0000                	unimp
   14022:	00ff                	0xff
   14024:	0000                	unimp
   14026:	0000                	unimp
   14028:	ffff                	0xffff
   1402a:	ffff                	0xffff
   1402c:	0000                	unimp
   1402e:	0000                	unimp
   14030:	ff00                	fsw	fs0,56(a4)
   14032:	ffff                	0xffff
   14034:	0000                	unimp
   14036:	0000                	unimp
   14038:	ffff                	0xffff
   1403a:	00ff                	0xff
   1403c:	0000                	unimp
   1403e:	0000                	unimp
   14040:	ff00                	fsw	fs0,56(a4)
   14042:	ffff                	0xffff
   14044:	00ff                	0xff
   14046:	0000                	unimp
   14048:	ff00                	fsw	fs0,56(a4)
   1404a:	ffff                	0xffff
   1404c:	00ff                	0xff
   1404e:	0000                	unimp
   14050:	ff00                	fsw	fs0,56(a4)
   14052:	ffff                	0xffff
   14054:	0000                	unimp
   14056:	0000                	unimp
   14058:	00ff                	0xff
   1405a:	0000                	unimp
   1405c:	00ff                	0xff
   1405e:	0000                	unimp
   14060:	0000                	unimp
   14062:	00ff                	0xff
	...
   1406c:	00ff                	0xff
   1406e:	0000                	unimp
   14070:	00ff                	0xff
   14072:	0000                	unimp
   14074:	00ff                	0xff
   14076:	0000                	unimp
   14078:	ff00                	fsw	fs0,56(a4)
   1407a:	0000                	unimp
   1407c:	0000                	unimp
   1407e:	0000                	unimp
   14080:	00ff                	0xff
   14082:	0000                	unimp
   14084:	00ff                	0xff
   14086:	0000                	unimp
   14088:	ffff                	0xffff
   1408a:	0000                	unimp
   1408c:	00ff                	0xff
   1408e:	0000                	unimp
   14090:	ff00                	fsw	fs0,56(a4)
   14092:	ffff                	0xffff
   14094:	0000                	unimp
   14096:	0000                	unimp
   14098:	ffff                	0xffff
   1409a:	ffff                	0xffff
   1409c:	0000                	unimp
   1409e:	0000                	unimp
   140a0:	ff00                	fsw	fs0,56(a4)
   140a2:	ffff                	0xffff
   140a4:	0000                	unimp
   140a6:	0000                	unimp
   140a8:	ffff                	0xffff
   140aa:	ffff                	0xffff
   140ac:	0000                	unimp
   140ae:	0000                	unimp
   140b0:	ff00                	fsw	fs0,56(a4)
   140b2:	ffff                	0xffff
   140b4:	0000                	unimp
   140b6:	0000                	unimp
   140b8:	ffff                	0xffff
   140ba:	ffff                	0xffff
   140bc:	00ff                	0xff
   140be:	0000                	unimp
   140c0:	00ff                	0xff
   140c2:	0000                	unimp
   140c4:	00ff                	0xff
   140c6:	0000                	unimp
   140c8:	00ff                	0xff
   140ca:	0000                	unimp
   140cc:	00ff                	0xff
   140ce:	0000                	unimp
   140d0:	00ff                	0xff
   140d2:	0000                	unimp
   140d4:	00ff                	0xff
   140d6:	0000                	unimp
   140d8:	00ff                	0xff
   140da:	0000                	unimp
   140dc:	00ff                	0xff
   140de:	0000                	unimp
   140e0:	00ff                	0xff
   140e2:	0000                	unimp
   140e4:	00ff                	0xff
   140e6:	0000                	unimp
   140e8:	ff00                	fsw	fs0,56(a4)
   140ea:	ffff                	0xffff
   140ec:	00ff                	0xff
   140ee:	0000                	unimp
   140f0:	0000                	unimp
   140f2:	ffff                	0xffff
   140f4:	0000                	unimp
   140f6:	0000                	unimp
   140f8:	ff00                	fsw	fs0,56(a4)
   140fa:	0000                	unimp
   140fc:	0000                	unimp
   140fe:	0000                	unimp
   14100:	ff00                	fsw	fs0,56(a4)
   14102:	00ff                	0xff
   14104:	0000                	unimp
   14106:	0000                	unimp
   14108:	0000                	unimp
   1410a:	00ff                	0xff
	...
   14118:	ff00                	fsw	fs0,56(a4)
   1411a:	0000                	unimp
   1411c:	00ff                	0xff
   1411e:	0000                	unimp
   14120:	0000                	unimp
   14122:	00ff                	0xff
   14124:	0000                	unimp
   14126:	0000                	unimp
   14128:	00ff                	0xff
   1412a:	0000                	unimp
   1412c:	00ff                	0xff
   1412e:	0000                	unimp
   14130:	00ff                	0xff
   14132:	0000                	unimp
   14134:	00ff                	0xff
   14136:	0000                	unimp
   14138:	00ff                	0xff
   1413a:	ff00                	fsw	fs0,56(a4)
   1413c:	0000                	unimp
   1413e:	0000                	unimp
   14140:	ff00                	fsw	fs0,56(a4)
   14142:	0000                	unimp
   14144:	0000                	unimp
   14146:	0000                	unimp
   14148:	ff00                	fsw	fs0,56(a4)
   1414a:	0000                	unimp
   1414c:	0000                	unimp
   1414e:	0000                	unimp
   14150:	00ff                	0xff
   14152:	0000                	unimp
   14154:	00ff                	0xff
   14156:	0000                	unimp
   14158:	00ff                	0xff
   1415a:	0000                	unimp
   1415c:	00ff                	0xff
   1415e:	0000                	unimp
   14160:	0000                	unimp
   14162:	00ff                	0xff
	...
   1416c:	00ff                	0xff
   1416e:	0000                	unimp
   14170:	00ff                	0xff
   14172:	ff00                	fsw	fs0,56(a4)
   14174:	0000                	unimp
   14176:	0000                	unimp
   14178:	ff00                	fsw	fs0,56(a4)
   1417a:	0000                	unimp
   1417c:	0000                	unimp
   1417e:	0000                	unimp
   14180:	ffff                	0xffff
   14182:	ff00                	fsw	fs0,56(a4)
   14184:	00ff                	0xff
   14186:	0000                	unimp
   14188:	ffff                	0xffff
   1418a:	0000                	unimp
   1418c:	00ff                	0xff
   1418e:	0000                	unimp
   14190:	00ff                	0xff
   14192:	0000                	unimp
   14194:	00ff                	0xff
   14196:	0000                	unimp
   14198:	00ff                	0xff
   1419a:	0000                	unimp
   1419c:	00ff                	0xff
   1419e:	0000                	unimp
   141a0:	00ff                	0xff
   141a2:	0000                	unimp
   141a4:	00ff                	0xff
   141a6:	0000                	unimp
   141a8:	00ff                	0xff
   141aa:	0000                	unimp
   141ac:	00ff                	0xff
   141ae:	0000                	unimp
   141b0:	00ff                	0xff
   141b2:	0000                	unimp
   141b4:	00ff                	0xff
   141b6:	0000                	unimp
   141b8:	0000                	unimp
   141ba:	00ff                	0xff
   141bc:	0000                	unimp
   141be:	0000                	unimp
   141c0:	00ff                	0xff
   141c2:	0000                	unimp
   141c4:	00ff                	0xff
   141c6:	0000                	unimp
   141c8:	00ff                	0xff
   141ca:	0000                	unimp
   141cc:	00ff                	0xff
   141ce:	0000                	unimp
   141d0:	00ff                	0xff
   141d2:	0000                	unimp
   141d4:	00ff                	0xff
   141d6:	0000                	unimp
   141d8:	00ff                	0xff
   141da:	0000                	unimp
   141dc:	00ff                	0xff
   141de:	0000                	unimp
   141e0:	00ff                	0xff
   141e2:	0000                	unimp
   141e4:	00ff                	0xff
   141e6:	0000                	unimp
   141e8:	0000                	unimp
   141ea:	0000                	unimp
   141ec:	00ff                	0xff
   141ee:	0000                	unimp
   141f0:	0000                	unimp
   141f2:	00ff                	0xff
   141f4:	0000                	unimp
   141f6:	0000                	unimp
   141f8:	ff00                	fsw	fs0,56(a4)
	...
   14202:	00ff                	0xff
   14204:	0000                	unimp
   14206:	0000                	unimp
   14208:	ff00                	fsw	fs0,56(a4)
   1420a:	ff00                	fsw	fs0,56(a4)
	...
   14218:	00ff                	0xff
   1421a:	ffff                	0xffff
   1421c:	ff00                	fsw	fs0,56(a4)
   1421e:	0000                	unimp
   14220:	ff00                	fsw	fs0,56(a4)
   14222:	ff00                	fsw	fs0,56(a4)
   14224:	0000                	unimp
   14226:	0000                	unimp
   14228:	00ff                	0xff
   1422a:	0000                	unimp
   1422c:	00ff                	0xff
   1422e:	0000                	unimp
   14230:	00ff                	0xff
   14232:	0000                	unimp
   14234:	0000                	unimp
   14236:	0000                	unimp
   14238:	00ff                	0xff
   1423a:	0000                	unimp
   1423c:	00ff                	0xff
   1423e:	0000                	unimp
   14240:	ff00                	fsw	fs0,56(a4)
   14242:	0000                	unimp
   14244:	0000                	unimp
   14246:	0000                	unimp
   14248:	ff00                	fsw	fs0,56(a4)
   1424a:	0000                	unimp
   1424c:	0000                	unimp
   1424e:	0000                	unimp
   14250:	00ff                	0xff
   14252:	0000                	unimp
   14254:	0000                	unimp
   14256:	0000                	unimp
   14258:	00ff                	0xff
   1425a:	0000                	unimp
   1425c:	00ff                	0xff
   1425e:	0000                	unimp
   14260:	0000                	unimp
   14262:	00ff                	0xff
	...
   1426c:	00ff                	0xff
   1426e:	0000                	unimp
   14270:	00ff                	0xff
   14272:	00ff                	0xff
   14274:	0000                	unimp
   14276:	0000                	unimp
   14278:	ff00                	fsw	fs0,56(a4)
   1427a:	0000                	unimp
   1427c:	0000                	unimp
   1427e:	0000                	unimp
   14280:	00ff                	0xff
   14282:	00ff                	0xff
   14284:	00ff                	0xff
   14286:	0000                	unimp
   14288:	00ff                	0xff
   1428a:	00ff                	0xff
   1428c:	00ff                	0xff
   1428e:	0000                	unimp
   14290:	00ff                	0xff
   14292:	0000                	unimp
   14294:	00ff                	0xff
   14296:	0000                	unimp
   14298:	00ff                	0xff
   1429a:	0000                	unimp
   1429c:	00ff                	0xff
   1429e:	0000                	unimp
   142a0:	00ff                	0xff
   142a2:	0000                	unimp
   142a4:	00ff                	0xff
   142a6:	0000                	unimp
   142a8:	00ff                	0xff
   142aa:	0000                	unimp
   142ac:	00ff                	0xff
   142ae:	0000                	unimp
   142b0:	00ff                	0xff
	...
   142ba:	00ff                	0xff
   142bc:	0000                	unimp
   142be:	0000                	unimp
   142c0:	00ff                	0xff
   142c2:	0000                	unimp
   142c4:	00ff                	0xff
   142c6:	0000                	unimp
   142c8:	00ff                	0xff
   142ca:	0000                	unimp
   142cc:	00ff                	0xff
   142ce:	0000                	unimp
   142d0:	00ff                	0xff
   142d2:	00ff                	0xff
   142d4:	00ff                	0xff
   142d6:	0000                	unimp
   142d8:	ff00                	fsw	fs0,56(a4)
   142da:	ff00                	fsw	fs0,56(a4)
   142dc:	0000                	unimp
   142de:	0000                	unimp
   142e0:	ff00                	fsw	fs0,56(a4)
   142e2:	ff00                	fsw	fs0,56(a4)
   142e4:	0000                	unimp
   142e6:	0000                	unimp
   142e8:	0000                	unimp
   142ea:	ff00                	fsw	fs0,56(a4)
   142ec:	0000                	unimp
   142ee:	0000                	unimp
   142f0:	0000                	unimp
   142f2:	00ff                	0xff
   142f4:	0000                	unimp
   142f6:	0000                	unimp
   142f8:	0000                	unimp
   142fa:	00ff                	0xff
   142fc:	0000                	unimp
   142fe:	0000                	unimp
   14300:	0000                	unimp
   14302:	00ff                	0xff
	...
   14318:	ffff                	0xffff
   1431a:	ff00                	fsw	fs0,56(a4)
   1431c:	ff00                	fsw	fs0,56(a4)
   1431e:	0000                	unimp
   14320:	ff00                	fsw	fs0,56(a4)
   14322:	ff00                	fsw	fs0,56(a4)
   14324:	0000                	unimp
   14326:	0000                	unimp
   14328:	ffff                	0xffff
   1432a:	ffff                	0xffff
   1432c:	0000                	unimp
   1432e:	0000                	unimp
   14330:	00ff                	0xff
   14332:	0000                	unimp
   14334:	0000                	unimp
   14336:	0000                	unimp
   14338:	00ff                	0xff
   1433a:	0000                	unimp
   1433c:	00ff                	0xff
   1433e:	0000                	unimp
   14340:	ff00                	fsw	fs0,56(a4)
   14342:	ffff                	0xffff
   14344:	0000                	unimp
   14346:	0000                	unimp
   14348:	ff00                	fsw	fs0,56(a4)
   1434a:	ffff                	0xffff
   1434c:	0000                	unimp
   1434e:	0000                	unimp
   14350:	00ff                	0xff
   14352:	ff00                	fsw	fs0,56(a4)
   14354:	00ff                	0xff
   14356:	0000                	unimp
   14358:	ffff                	0xffff
   1435a:	ffff                	0xffff
   1435c:	00ff                	0xff
   1435e:	0000                	unimp
   14360:	0000                	unimp
   14362:	00ff                	0xff
	...
   1436c:	00ff                	0xff
   1436e:	0000                	unimp
   14370:	ffff                	0xffff
   14372:	0000                	unimp
   14374:	0000                	unimp
   14376:	0000                	unimp
   14378:	ff00                	fsw	fs0,56(a4)
   1437a:	0000                	unimp
   1437c:	0000                	unimp
   1437e:	0000                	unimp
   14380:	00ff                	0xff
   14382:	0000                	unimp
   14384:	00ff                	0xff
   14386:	0000                	unimp
   14388:	00ff                	0xff
   1438a:	00ff                	0xff
   1438c:	00ff                	0xff
   1438e:	0000                	unimp
   14390:	00ff                	0xff
   14392:	0000                	unimp
   14394:	00ff                	0xff
   14396:	0000                	unimp
   14398:	ffff                	0xffff
   1439a:	ffff                	0xffff
   1439c:	0000                	unimp
   1439e:	0000                	unimp
   143a0:	00ff                	0xff
   143a2:	0000                	unimp
   143a4:	00ff                	0xff
   143a6:	0000                	unimp
   143a8:	ffff                	0xffff
   143aa:	ffff                	0xffff
   143ac:	0000                	unimp
   143ae:	0000                	unimp
   143b0:	ff00                	fsw	fs0,56(a4)
   143b2:	ffff                	0xffff
   143b4:	0000                	unimp
   143b6:	0000                	unimp
   143b8:	0000                	unimp
   143ba:	00ff                	0xff
   143bc:	0000                	unimp
   143be:	0000                	unimp
   143c0:	00ff                	0xff
   143c2:	0000                	unimp
   143c4:	00ff                	0xff
   143c6:	0000                	unimp
   143c8:	ff00                	fsw	fs0,56(a4)
   143ca:	ff00                	fsw	fs0,56(a4)
   143cc:	0000                	unimp
   143ce:	0000                	unimp
   143d0:	00ff                	0xff
   143d2:	00ff                	0xff
   143d4:	00ff                	0xff
   143d6:	0000                	unimp
   143d8:	0000                	unimp
   143da:	00ff                	0xff
   143dc:	0000                	unimp
   143de:	0000                	unimp
   143e0:	0000                	unimp
   143e2:	00ff                	0xff
   143e4:	0000                	unimp
   143e6:	0000                	unimp
   143e8:	0000                	unimp
   143ea:	00ff                	0xff
   143ec:	0000                	unimp
   143ee:	0000                	unimp
   143f0:	0000                	unimp
   143f2:	00ff                	0xff
   143f4:	0000                	unimp
   143f6:	0000                	unimp
   143f8:	0000                	unimp
   143fa:	00ff                	0xff
   143fc:	0000                	unimp
   143fe:	0000                	unimp
   14400:	0000                	unimp
   14402:	00ff                	0xff
	...
   14418:	ffff                	0xffff
   1441a:	ff00                	fsw	fs0,56(a4)
   1441c:	ff00                	fsw	fs0,56(a4)
   1441e:	0000                	unimp
   14420:	ffff                	0xffff
   14422:	ffff                	0xffff
   14424:	00ff                	0xff
   14426:	0000                	unimp
   14428:	00ff                	0xff
   1442a:	0000                	unimp
   1442c:	00ff                	0xff
   1442e:	0000                	unimp
   14430:	00ff                	0xff
   14432:	0000                	unimp
   14434:	0000                	unimp
   14436:	0000                	unimp
   14438:	00ff                	0xff
   1443a:	0000                	unimp
   1443c:	00ff                	0xff
   1443e:	0000                	unimp
   14440:	ff00                	fsw	fs0,56(a4)
   14442:	0000                	unimp
   14444:	0000                	unimp
   14446:	0000                	unimp
   14448:	ff00                	fsw	fs0,56(a4)
   1444a:	0000                	unimp
   1444c:	0000                	unimp
   1444e:	0000                	unimp
   14450:	00ff                	0xff
   14452:	0000                	unimp
   14454:	00ff                	0xff
   14456:	0000                	unimp
   14458:	00ff                	0xff
   1445a:	0000                	unimp
   1445c:	00ff                	0xff
   1445e:	0000                	unimp
   14460:	0000                	unimp
   14462:	00ff                	0xff
   14464:	0000                	unimp
   14466:	0000                	unimp
   14468:	00ff                	0xff
   1446a:	0000                	unimp
   1446c:	00ff                	0xff
   1446e:	0000                	unimp
   14470:	00ff                	0xff
   14472:	00ff                	0xff
   14474:	0000                	unimp
   14476:	0000                	unimp
   14478:	ff00                	fsw	fs0,56(a4)
   1447a:	0000                	unimp
   1447c:	0000                	unimp
   1447e:	0000                	unimp
   14480:	00ff                	0xff
   14482:	0000                	unimp
   14484:	00ff                	0xff
   14486:	0000                	unimp
   14488:	00ff                	0xff
   1448a:	ff00                	fsw	fs0,56(a4)
   1448c:	00ff                	0xff
   1448e:	0000                	unimp
   14490:	00ff                	0xff
   14492:	0000                	unimp
   14494:	00ff                	0xff
   14496:	0000                	unimp
   14498:	00ff                	0xff
   1449a:	0000                	unimp
   1449c:	0000                	unimp
   1449e:	0000                	unimp
   144a0:	00ff                	0xff
   144a2:	0000                	unimp
   144a4:	00ff                	0xff
   144a6:	0000                	unimp
   144a8:	00ff                	0xff
   144aa:	00ff                	0xff
	...
   144b4:	00ff                	0xff
   144b6:	0000                	unimp
   144b8:	0000                	unimp
   144ba:	00ff                	0xff
   144bc:	0000                	unimp
   144be:	0000                	unimp
   144c0:	00ff                	0xff
   144c2:	0000                	unimp
   144c4:	00ff                	0xff
   144c6:	0000                	unimp
   144c8:	ff00                	fsw	fs0,56(a4)
   144ca:	ff00                	fsw	fs0,56(a4)
   144cc:	0000                	unimp
   144ce:	0000                	unimp
   144d0:	ff00                	fsw	fs0,56(a4)
   144d2:	ff00                	fsw	fs0,56(a4)
   144d4:	0000                	unimp
   144d6:	0000                	unimp
   144d8:	ff00                	fsw	fs0,56(a4)
   144da:	ff00                	fsw	fs0,56(a4)
   144dc:	0000                	unimp
   144de:	0000                	unimp
   144e0:	0000                	unimp
   144e2:	00ff                	0xff
   144e4:	0000                	unimp
   144e6:	0000                	unimp
   144e8:	ff00                	fsw	fs0,56(a4)
	...
   144f2:	00ff                	0xff
   144f4:	0000                	unimp
   144f6:	0000                	unimp
   144f8:	0000                	unimp
   144fa:	ff00                	fsw	fs0,56(a4)
   144fc:	0000                	unimp
   144fe:	0000                	unimp
   14500:	0000                	unimp
   14502:	00ff                	0xff
	...
   14518:	00ff                	0xff
   1451a:	ffff                	0xffff
   1451c:	00ff                	0xff
   1451e:	0000                	unimp
   14520:	00ff                	0xff
   14522:	0000                	unimp
   14524:	00ff                	0xff
   14526:	0000                	unimp
   14528:	00ff                	0xff
   1452a:	0000                	unimp
   1452c:	00ff                	0xff
   1452e:	0000                	unimp
   14530:	00ff                	0xff
   14532:	0000                	unimp
   14534:	00ff                	0xff
   14536:	0000                	unimp
   14538:	00ff                	0xff
   1453a:	ff00                	fsw	fs0,56(a4)
   1453c:	0000                	unimp
   1453e:	0000                	unimp
   14540:	ff00                	fsw	fs0,56(a4)
   14542:	0000                	unimp
   14544:	0000                	unimp
   14546:	0000                	unimp
   14548:	ff00                	fsw	fs0,56(a4)
   1454a:	0000                	unimp
   1454c:	0000                	unimp
   1454e:	0000                	unimp
   14550:	00ff                	0xff
   14552:	0000                	unimp
   14554:	00ff                	0xff
   14556:	0000                	unimp
   14558:	00ff                	0xff
   1455a:	0000                	unimp
   1455c:	00ff                	0xff
   1455e:	0000                	unimp
   14560:	0000                	unimp
   14562:	00ff                	0xff
   14564:	0000                	unimp
   14566:	0000                	unimp
   14568:	00ff                	0xff
   1456a:	0000                	unimp
   1456c:	00ff                	0xff
   1456e:	0000                	unimp
   14570:	00ff                	0xff
   14572:	ff00                	fsw	fs0,56(a4)
   14574:	0000                	unimp
   14576:	0000                	unimp
   14578:	ff00                	fsw	fs0,56(a4)
   1457a:	0000                	unimp
   1457c:	0000                	unimp
   1457e:	0000                	unimp
   14580:	00ff                	0xff
   14582:	0000                	unimp
   14584:	00ff                	0xff
   14586:	0000                	unimp
   14588:	00ff                	0xff
   1458a:	ff00                	fsw	fs0,56(a4)
   1458c:	00ff                	0xff
   1458e:	0000                	unimp
   14590:	00ff                	0xff
   14592:	0000                	unimp
   14594:	00ff                	0xff
   14596:	0000                	unimp
   14598:	00ff                	0xff
   1459a:	0000                	unimp
   1459c:	0000                	unimp
   1459e:	0000                	unimp
   145a0:	00ff                	0xff
   145a2:	00ff                	0xff
   145a4:	00ff                	0xff
   145a6:	0000                	unimp
   145a8:	00ff                	0xff
   145aa:	ff00                	fsw	fs0,56(a4)
   145ac:	0000                	unimp
   145ae:	0000                	unimp
   145b0:	00ff                	0xff
   145b2:	0000                	unimp
   145b4:	00ff                	0xff
   145b6:	0000                	unimp
   145b8:	0000                	unimp
   145ba:	00ff                	0xff
   145bc:	0000                	unimp
   145be:	0000                	unimp
   145c0:	00ff                	0xff
   145c2:	0000                	unimp
   145c4:	00ff                	0xff
   145c6:	0000                	unimp
   145c8:	0000                	unimp
   145ca:	00ff                	0xff
   145cc:	0000                	unimp
   145ce:	0000                	unimp
   145d0:	ff00                	fsw	fs0,56(a4)
   145d2:	ff00                	fsw	fs0,56(a4)
   145d4:	0000                	unimp
   145d6:	0000                	unimp
   145d8:	00ff                	0xff
   145da:	0000                	unimp
   145dc:	00ff                	0xff
   145de:	0000                	unimp
   145e0:	0000                	unimp
   145e2:	00ff                	0xff
   145e4:	0000                	unimp
   145e6:	0000                	unimp
   145e8:	ff00                	fsw	fs0,56(a4)
	...
   145f2:	00ff                	0xff
   145f4:	0000                	unimp
   145f6:	0000                	unimp
   145f8:	0000                	unimp
   145fa:	ff00                	fsw	fs0,56(a4)
   145fc:	0000                	unimp
   145fe:	0000                	unimp
   14600:	0000                	unimp
   14602:	00ff                	0xff
	...
   14618:	ff00                	fsw	fs0,56(a4)
   1461a:	0000                	unimp
   1461c:	0000                	unimp
   1461e:	0000                	unimp
   14620:	00ff                	0xff
   14622:	0000                	unimp
   14624:	00ff                	0xff
   14626:	0000                	unimp
   14628:	ffff                	0xffff
   1462a:	ffff                	0xffff
   1462c:	0000                	unimp
   1462e:	0000                	unimp
   14630:	ff00                	fsw	fs0,56(a4)
   14632:	ffff                	0xffff
   14634:	0000                	unimp
   14636:	0000                	unimp
   14638:	ffff                	0xffff
   1463a:	00ff                	0xff
   1463c:	0000                	unimp
   1463e:	0000                	unimp
   14640:	ff00                	fsw	fs0,56(a4)
   14642:	ffff                	0xffff
   14644:	00ff                	0xff
   14646:	0000                	unimp
   14648:	ff00                	fsw	fs0,56(a4)
   1464a:	0000                	unimp
   1464c:	0000                	unimp
   1464e:	0000                	unimp
   14650:	ff00                	fsw	fs0,56(a4)
   14652:	ffff                	0xffff
   14654:	0000                	unimp
   14656:	0000                	unimp
   14658:	00ff                	0xff
   1465a:	0000                	unimp
   1465c:	00ff                	0xff
   1465e:	0000                	unimp
   14660:	0000                	unimp
   14662:	00ff                	0xff
   14664:	0000                	unimp
   14666:	0000                	unimp
   14668:	ff00                	fsw	fs0,56(a4)
   1466a:	ffff                	0xffff
   1466c:	0000                	unimp
   1466e:	0000                	unimp
   14670:	00ff                	0xff
   14672:	0000                	unimp
   14674:	00ff                	0xff
   14676:	0000                	unimp
   14678:	ff00                	fsw	fs0,56(a4)
   1467a:	ffff                	0xffff
   1467c:	00ff                	0xff
   1467e:	0000                	unimp
   14680:	00ff                	0xff
   14682:	0000                	unimp
   14684:	00ff                	0xff
   14686:	0000                	unimp
   14688:	00ff                	0xff
   1468a:	0000                	unimp
   1468c:	00ff                	0xff
   1468e:	0000                	unimp
   14690:	ff00                	fsw	fs0,56(a4)
   14692:	ffff                	0xffff
   14694:	0000                	unimp
   14696:	0000                	unimp
   14698:	00ff                	0xff
   1469a:	0000                	unimp
   1469c:	0000                	unimp
   1469e:	0000                	unimp
   146a0:	ff00                	fsw	fs0,56(a4)
   146a2:	ffff                	0xffff
   146a4:	0000                	unimp
   146a6:	0000                	unimp
   146a8:	00ff                	0xff
   146aa:	0000                	unimp
   146ac:	00ff                	0xff
   146ae:	0000                	unimp
   146b0:	ff00                	fsw	fs0,56(a4)
   146b2:	ffff                	0xffff
   146b4:	0000                	unimp
   146b6:	0000                	unimp
   146b8:	0000                	unimp
   146ba:	00ff                	0xff
   146bc:	0000                	unimp
   146be:	0000                	unimp
   146c0:	ff00                	fsw	fs0,56(a4)
   146c2:	ffff                	0xffff
   146c4:	0000                	unimp
   146c6:	0000                	unimp
   146c8:	0000                	unimp
   146ca:	00ff                	0xff
   146cc:	0000                	unimp
   146ce:	0000                	unimp
   146d0:	ff00                	fsw	fs0,56(a4)
   146d2:	ff00                	fsw	fs0,56(a4)
   146d4:	0000                	unimp
   146d6:	0000                	unimp
   146d8:	00ff                	0xff
   146da:	0000                	unimp
   146dc:	00ff                	0xff
   146de:	0000                	unimp
   146e0:	0000                	unimp
   146e2:	00ff                	0xff
   146e4:	0000                	unimp
   146e6:	0000                	unimp
   146e8:	ff00                	fsw	fs0,56(a4)
   146ea:	ffff                	0xffff
   146ec:	00ff                	0xff
   146ee:	0000                	unimp
   146f0:	0000                	unimp
   146f2:	00ff                	0xff
	...
   146fc:	00ff                	0xff
   146fe:	0000                	unimp
   14700:	0000                	unimp
   14702:	00ff                	0xff
	...
   14718:	0000                	unimp
   1471a:	ffff                	0xffff
	...
   147a0:	0000                	unimp
   147a2:	ff00                	fsw	fs0,56(a4)
	...
   147f0:	0000                	unimp
   147f2:	ffff                	0xffff
	...
   147fc:	00ff                	0xff
   147fe:	0000                	unimp
   14800:	ff00                	fsw	fs0,56(a4)
   14802:	00ff                	0xff
	...
   14810:	ffff                	0xffff
   14812:	ffff                	0xffff
   14814:	ffff                	0xffff
   14816:	0000                	unimp
   14818:	0000                	unimp
   1481a:	ffff                	0xffff
	...
   14828:	ff00                	fsw	fs0,56(a4)
	...
   1483a:	0000                	unimp
   1483c:	00ff                	0xff
	...
   1484a:	ff00                	fsw	fs0,56(a4)
   1484c:	00ff                	0xff
	...
   14856:	0000                	unimp
   14858:	ff00                	fsw	fs0,56(a4)
	...
   14862:	00ff                	0xff
   14864:	0000                	unimp
   14866:	0000                	unimp
   14868:	0000                	unimp
   1486a:	ff00                	fsw	fs0,56(a4)
   1486c:	0000                	unimp
   1486e:	0000                	unimp
   14870:	ff00                	fsw	fs0,56(a4)
	...
   1487a:	00ff                	0xff
	...
   148b8:	0000                	unimp
   148ba:	00ff                	0xff
	...
   148f0:	0000                	unimp
   148f2:	ff00                	fsw	fs0,56(a4)
   148f4:	0000                	unimp
   148f6:	0000                	unimp
   148f8:	0000                	unimp
   148fa:	00ff                	0xff
   148fc:	0000                	unimp
   148fe:	0000                	unimp
   14900:	ff00                	fsw	fs0,56(a4)
   14902:	0000                	unimp
   14904:	0000                	unimp
   14906:	0000                	unimp
   14908:	ff00                	fsw	fs0,56(a4)
   1490a:	00ff                	0xff
   1490c:	00ff                	0xff
   1490e:	0000                	unimp
   14910:	0000                	unimp
   14912:	ffff                	0xffff
   14914:	0000                	unimp
   14916:	0000                	unimp
   14918:	ff00                	fsw	fs0,56(a4)
	...
   14926:	0000                	unimp
   14928:	ff00                	fsw	fs0,56(a4)
	...
   1493a:	0000                	unimp
   1493c:	00ff                	0xff
	...
   1494a:	00ff                	0xff
	...
   14958:	ff00                	fsw	fs0,56(a4)
	...
   1496e:	0000                	unimp
   14970:	ff00                	fsw	fs0,56(a4)
	...
   1497a:	00ff                	0xff
	...
   149b8:	0000                	unimp
   149ba:	00ff                	0xff
	...
   149f0:	0000                	unimp
   149f2:	00ff                	0xff
   149f4:	0000                	unimp
   149f6:	0000                	unimp
   149f8:	0000                	unimp
   149fa:	00ff                	0xff
   149fc:	0000                	unimp
   149fe:	0000                	unimp
   14a00:	0000                	unimp
   14a02:	00ff                	0xff
   14a04:	0000                	unimp
   14a06:	0000                	unimp
   14a08:	00ff                	0xff
   14a0a:	ffff                	0xffff
   14a0c:	0000                	unimp
   14a0e:	0000                	unimp
   14a10:	ff00                	fsw	fs0,56(a4)
   14a12:	0000                	unimp
   14a14:	00ff                	0xff
   14a16:	0000                	unimp
   14a18:	ff00                	fsw	fs0,56(a4)
	...
   14a22:	ffff                	0xffff
   14a24:	0000                	unimp
   14a26:	0000                	unimp
   14a28:	ff00                	fsw	fs0,56(a4)
   14a2a:	ffff                	0xffff
   14a2c:	0000                	unimp
   14a2e:	0000                	unimp
   14a30:	0000                	unimp
   14a32:	ffff                	0xffff
   14a34:	0000                	unimp
   14a36:	0000                	unimp
   14a38:	0000                	unimp
   14a3a:	ffff                	0xffff
   14a3c:	00ff                	0xff
   14a3e:	0000                	unimp
   14a40:	0000                	unimp
   14a42:	ffff                	0xffff
   14a44:	0000                	unimp
   14a46:	0000                	unimp
   14a48:	ff00                	fsw	fs0,56(a4)
   14a4a:	ffff                	0xffff
   14a4c:	0000                	unimp
   14a4e:	0000                	unimp
   14a50:	0000                	unimp
   14a52:	ffff                	0xffff
   14a54:	00ff                	0xff
   14a56:	0000                	unimp
   14a58:	ff00                	fsw	fs0,56(a4)
   14a5a:	ffff                	0xffff
   14a5c:	0000                	unimp
   14a5e:	0000                	unimp
   14a60:	0000                	unimp
   14a62:	00ff                	0xff
   14a64:	0000                	unimp
   14a66:	0000                	unimp
   14a68:	0000                	unimp
   14a6a:	ff00                	fsw	fs0,56(a4)
   14a6c:	0000                	unimp
   14a6e:	0000                	unimp
   14a70:	ff00                	fsw	fs0,56(a4)
   14a72:	0000                	unimp
   14a74:	00ff                	0xff
   14a76:	0000                	unimp
   14a78:	0000                	unimp
   14a7a:	00ff                	0xff
   14a7c:	0000                	unimp
   14a7e:	0000                	unimp
   14a80:	ffff                	0xffff
   14a82:	ff00                	fsw	fs0,56(a4)
   14a84:	0000                	unimp
   14a86:	0000                	unimp
   14a88:	ff00                	fsw	fs0,56(a4)
   14a8a:	ffff                	0xffff
   14a8c:	0000                	unimp
   14a8e:	0000                	unimp
   14a90:	0000                	unimp
   14a92:	ffff                	0xffff
   14a94:	0000                	unimp
   14a96:	0000                	unimp
   14a98:	ff00                	fsw	fs0,56(a4)
   14a9a:	ffff                	0xffff
   14a9c:	0000                	unimp
   14a9e:	0000                	unimp
   14aa0:	0000                	unimp
   14aa2:	ffff                	0xffff
   14aa4:	00ff                	0xff
   14aa6:	0000                	unimp
   14aa8:	ff00                	fsw	fs0,56(a4)
   14aaa:	ff00                	fsw	fs0,56(a4)
   14aac:	00ff                	0xff
   14aae:	0000                	unimp
   14ab0:	0000                	unimp
   14ab2:	ffff                	0xffff
   14ab4:	00ff                	0xff
   14ab6:	0000                	unimp
   14ab8:	ff00                	fsw	fs0,56(a4)
   14aba:	ffff                	0xffff
   14abc:	0000                	unimp
   14abe:	0000                	unimp
   14ac0:	ff00                	fsw	fs0,56(a4)
   14ac2:	0000                	unimp
   14ac4:	00ff                	0xff
   14ac6:	0000                	unimp
   14ac8:	00ff                	0xff
   14aca:	0000                	unimp
   14acc:	00ff                	0xff
   14ace:	0000                	unimp
   14ad0:	00ff                	0xff
   14ad2:	0000                	unimp
   14ad4:	00ff                	0xff
   14ad6:	0000                	unimp
   14ad8:	00ff                	0xff
   14ada:	0000                	unimp
   14adc:	00ff                	0xff
   14ade:	0000                	unimp
   14ae0:	00ff                	0xff
   14ae2:	0000                	unimp
   14ae4:	00ff                	0xff
   14ae6:	0000                	unimp
   14ae8:	ff00                	fsw	fs0,56(a4)
   14aea:	ffff                	0xffff
   14aec:	00ff                	0xff
   14aee:	0000                	unimp
   14af0:	0000                	unimp
   14af2:	00ff                	0xff
   14af4:	0000                	unimp
   14af6:	0000                	unimp
   14af8:	0000                	unimp
   14afa:	00ff                	0xff
   14afc:	0000                	unimp
   14afe:	0000                	unimp
   14b00:	0000                	unimp
   14b02:	00ff                	0xff
	...
   14b10:	00ff                	0xff
   14b12:	ffff                	0xffff
   14b14:	ff00                	fsw	fs0,56(a4)
   14b16:	0000                	unimp
   14b18:	ffff                	0xffff
   14b1a:	00ff                	0xff
	...
   14b24:	00ff                	0xff
   14b26:	0000                	unimp
   14b28:	ff00                	fsw	fs0,56(a4)
   14b2a:	0000                	unimp
   14b2c:	00ff                	0xff
   14b2e:	0000                	unimp
   14b30:	ff00                	fsw	fs0,56(a4)
   14b32:	0000                	unimp
   14b34:	00ff                	0xff
   14b36:	0000                	unimp
   14b38:	ff00                	fsw	fs0,56(a4)
   14b3a:	0000                	unimp
   14b3c:	00ff                	0xff
   14b3e:	0000                	unimp
   14b40:	ff00                	fsw	fs0,56(a4)
   14b42:	0000                	unimp
   14b44:	00ff                	0xff
   14b46:	0000                	unimp
   14b48:	0000                	unimp
   14b4a:	00ff                	0xff
   14b4c:	0000                	unimp
   14b4e:	0000                	unimp
   14b50:	ff00                	fsw	fs0,56(a4)
   14b52:	0000                	unimp
   14b54:	00ff                	0xff
   14b56:	0000                	unimp
   14b58:	ff00                	fsw	fs0,56(a4)
   14b5a:	0000                	unimp
   14b5c:	00ff                	0xff
   14b5e:	0000                	unimp
   14b60:	0000                	unimp
   14b62:	00ff                	0xff
   14b64:	0000                	unimp
   14b66:	0000                	unimp
   14b68:	0000                	unimp
   14b6a:	ff00                	fsw	fs0,56(a4)
   14b6c:	0000                	unimp
   14b6e:	0000                	unimp
   14b70:	ff00                	fsw	fs0,56(a4)
   14b72:	ff00                	fsw	fs0,56(a4)
   14b74:	0000                	unimp
   14b76:	0000                	unimp
   14b78:	0000                	unimp
   14b7a:	00ff                	0xff
   14b7c:	0000                	unimp
   14b7e:	0000                	unimp
   14b80:	00ff                	0xff
   14b82:	00ff                	0xff
   14b84:	00ff                	0xff
   14b86:	0000                	unimp
   14b88:	ff00                	fsw	fs0,56(a4)
   14b8a:	0000                	unimp
   14b8c:	00ff                	0xff
   14b8e:	0000                	unimp
   14b90:	ff00                	fsw	fs0,56(a4)
   14b92:	0000                	unimp
   14b94:	00ff                	0xff
   14b96:	0000                	unimp
   14b98:	ff00                	fsw	fs0,56(a4)
   14b9a:	0000                	unimp
   14b9c:	00ff                	0xff
   14b9e:	0000                	unimp
   14ba0:	ff00                	fsw	fs0,56(a4)
   14ba2:	0000                	unimp
   14ba4:	00ff                	0xff
   14ba6:	0000                	unimp
   14ba8:	ff00                	fsw	fs0,56(a4)
   14baa:	00ff                	0xff
   14bac:	0000                	unimp
   14bae:	0000                	unimp
   14bb0:	ff00                	fsw	fs0,56(a4)
	...
   14bba:	00ff                	0xff
   14bbc:	0000                	unimp
   14bbe:	0000                	unimp
   14bc0:	ff00                	fsw	fs0,56(a4)
   14bc2:	0000                	unimp
   14bc4:	00ff                	0xff
   14bc6:	0000                	unimp
   14bc8:	ff00                	fsw	fs0,56(a4)
   14bca:	ff00                	fsw	fs0,56(a4)
   14bcc:	0000                	unimp
   14bce:	0000                	unimp
   14bd0:	00ff                	0xff
   14bd2:	0000                	unimp
   14bd4:	00ff                	0xff
   14bd6:	0000                	unimp
   14bd8:	ff00                	fsw	fs0,56(a4)
   14bda:	ff00                	fsw	fs0,56(a4)
   14bdc:	0000                	unimp
   14bde:	0000                	unimp
   14be0:	ff00                	fsw	fs0,56(a4)
   14be2:	ff00                	fsw	fs0,56(a4)
   14be4:	0000                	unimp
   14be6:	0000                	unimp
   14be8:	0000                	unimp
   14bea:	ff00                	fsw	fs0,56(a4)
   14bec:	0000                	unimp
   14bee:	0000                	unimp
   14bf0:	ff00                	fsw	fs0,56(a4)
	...
   14c02:	ff00                	fsw	fs0,56(a4)
	...
   14c10:	ffff                	0xffff
   14c12:	0000                	unimp
   14c14:	ff00                	fsw	fs0,56(a4)
   14c16:	0000                	unimp
   14c18:	ff00                	fsw	fs0,56(a4)
	...
   14c22:	ffff                	0xffff
   14c24:	00ff                	0xff
   14c26:	0000                	unimp
   14c28:	ff00                	fsw	fs0,56(a4)
   14c2a:	0000                	unimp
   14c2c:	00ff                	0xff
   14c2e:	0000                	unimp
   14c30:	ff00                	fsw	fs0,56(a4)
   14c32:	0000                	unimp
   14c34:	0000                	unimp
   14c36:	0000                	unimp
   14c38:	ff00                	fsw	fs0,56(a4)
   14c3a:	0000                	unimp
   14c3c:	00ff                	0xff
   14c3e:	0000                	unimp
   14c40:	ff00                	fsw	fs0,56(a4)
   14c42:	ffff                	0xffff
   14c44:	00ff                	0xff
   14c46:	0000                	unimp
   14c48:	0000                	unimp
   14c4a:	00ff                	0xff
   14c4c:	0000                	unimp
   14c4e:	0000                	unimp
   14c50:	ff00                	fsw	fs0,56(a4)
   14c52:	0000                	unimp
   14c54:	00ff                	0xff
   14c56:	0000                	unimp
   14c58:	ff00                	fsw	fs0,56(a4)
   14c5a:	0000                	unimp
   14c5c:	00ff                	0xff
   14c5e:	0000                	unimp
   14c60:	0000                	unimp
   14c62:	00ff                	0xff
   14c64:	0000                	unimp
   14c66:	0000                	unimp
   14c68:	0000                	unimp
   14c6a:	ff00                	fsw	fs0,56(a4)
   14c6c:	0000                	unimp
   14c6e:	0000                	unimp
   14c70:	ff00                	fsw	fs0,56(a4)
   14c72:	00ff                	0xff
   14c74:	0000                	unimp
   14c76:	0000                	unimp
   14c78:	0000                	unimp
   14c7a:	00ff                	0xff
   14c7c:	0000                	unimp
   14c7e:	0000                	unimp
   14c80:	00ff                	0xff
   14c82:	00ff                	0xff
   14c84:	00ff                	0xff
   14c86:	0000                	unimp
   14c88:	ff00                	fsw	fs0,56(a4)
   14c8a:	0000                	unimp
   14c8c:	00ff                	0xff
   14c8e:	0000                	unimp
   14c90:	ff00                	fsw	fs0,56(a4)
   14c92:	0000                	unimp
   14c94:	00ff                	0xff
   14c96:	0000                	unimp
   14c98:	ff00                	fsw	fs0,56(a4)
   14c9a:	0000                	unimp
   14c9c:	00ff                	0xff
   14c9e:	0000                	unimp
   14ca0:	ff00                	fsw	fs0,56(a4)
   14ca2:	0000                	unimp
   14ca4:	00ff                	0xff
   14ca6:	0000                	unimp
   14ca8:	ff00                	fsw	fs0,56(a4)
	...
   14cb2:	ffff                	0xffff
   14cb4:	0000                	unimp
   14cb6:	0000                	unimp
   14cb8:	0000                	unimp
   14cba:	00ff                	0xff
   14cbc:	0000                	unimp
   14cbe:	0000                	unimp
   14cc0:	ff00                	fsw	fs0,56(a4)
   14cc2:	0000                	unimp
   14cc4:	00ff                	0xff
   14cc6:	0000                	unimp
   14cc8:	ff00                	fsw	fs0,56(a4)
   14cca:	ff00                	fsw	fs0,56(a4)
   14ccc:	0000                	unimp
   14cce:	0000                	unimp
   14cd0:	00ff                	0xff
   14cd2:	00ff                	0xff
   14cd4:	00ff                	0xff
   14cd6:	0000                	unimp
   14cd8:	0000                	unimp
   14cda:	00ff                	0xff
   14cdc:	0000                	unimp
   14cde:	0000                	unimp
   14ce0:	ff00                	fsw	fs0,56(a4)
   14ce2:	ff00                	fsw	fs0,56(a4)
   14ce4:	0000                	unimp
   14ce6:	0000                	unimp
   14ce8:	0000                	unimp
   14cea:	00ff                	0xff
   14cec:	0000                	unimp
   14cee:	0000                	unimp
   14cf0:	0000                	unimp
   14cf2:	00ff                	0xff
	...
   14d00:	0000                	unimp
   14d02:	00ff                	0xff
	...
   14d10:	ffff                	0xffff
   14d12:	0000                	unimp
   14d14:	ff00                	fsw	fs0,56(a4)
   14d16:	0000                	unimp
   14d18:	ff00                	fsw	fs0,56(a4)
   14d1a:	0000                	unimp
   14d1c:	00ff                	0xff
   14d1e:	0000                	unimp
   14d20:	ff00                	fsw	fs0,56(a4)
   14d22:	0000                	unimp
   14d24:	00ff                	0xff
   14d26:	0000                	unimp
   14d28:	ff00                	fsw	fs0,56(a4)
   14d2a:	0000                	unimp
   14d2c:	00ff                	0xff
   14d2e:	0000                	unimp
   14d30:	ff00                	fsw	fs0,56(a4)
   14d32:	0000                	unimp
   14d34:	00ff                	0xff
   14d36:	0000                	unimp
   14d38:	ff00                	fsw	fs0,56(a4)
   14d3a:	0000                	unimp
   14d3c:	00ff                	0xff
   14d3e:	0000                	unimp
   14d40:	ff00                	fsw	fs0,56(a4)
	...
   14d4a:	00ff                	0xff
   14d4c:	0000                	unimp
   14d4e:	0000                	unimp
   14d50:	0000                	unimp
   14d52:	ffff                	0xffff
   14d54:	00ff                	0xff
   14d56:	0000                	unimp
   14d58:	ff00                	fsw	fs0,56(a4)
   14d5a:	0000                	unimp
   14d5c:	00ff                	0xff
   14d5e:	0000                	unimp
   14d60:	0000                	unimp
   14d62:	00ff                	0xff
   14d64:	0000                	unimp
   14d66:	0000                	unimp
   14d68:	0000                	unimp
   14d6a:	ff00                	fsw	fs0,56(a4)
   14d6c:	0000                	unimp
   14d6e:	0000                	unimp
   14d70:	ff00                	fsw	fs0,56(a4)
   14d72:	ff00                	fsw	fs0,56(a4)
   14d74:	0000                	unimp
   14d76:	0000                	unimp
   14d78:	0000                	unimp
   14d7a:	00ff                	0xff
   14d7c:	0000                	unimp
   14d7e:	0000                	unimp
   14d80:	00ff                	0xff
   14d82:	00ff                	0xff
   14d84:	00ff                	0xff
   14d86:	0000                	unimp
   14d88:	ff00                	fsw	fs0,56(a4)
   14d8a:	0000                	unimp
   14d8c:	00ff                	0xff
   14d8e:	0000                	unimp
   14d90:	ff00                	fsw	fs0,56(a4)
   14d92:	0000                	unimp
   14d94:	00ff                	0xff
   14d96:	0000                	unimp
   14d98:	ff00                	fsw	fs0,56(a4)
   14d9a:	ffff                	0xffff
   14d9c:	0000                	unimp
   14d9e:	0000                	unimp
   14da0:	0000                	unimp
   14da2:	ffff                	0xffff
   14da4:	00ff                	0xff
   14da6:	0000                	unimp
   14da8:	ff00                	fsw	fs0,56(a4)
	...
   14db2:	0000                	unimp
   14db4:	00ff                	0xff
   14db6:	0000                	unimp
   14db8:	0000                	unimp
   14dba:	00ff                	0xff
   14dbc:	0000                	unimp
   14dbe:	0000                	unimp
   14dc0:	ff00                	fsw	fs0,56(a4)
   14dc2:	0000                	unimp
   14dc4:	00ff                	0xff
   14dc6:	0000                	unimp
   14dc8:	0000                	unimp
   14dca:	00ff                	0xff
   14dcc:	0000                	unimp
   14dce:	0000                	unimp
   14dd0:	ff00                	fsw	fs0,56(a4)
   14dd2:	ff00                	fsw	fs0,56(a4)
   14dd4:	0000                	unimp
   14dd6:	0000                	unimp
   14dd8:	ff00                	fsw	fs0,56(a4)
   14dda:	ff00                	fsw	fs0,56(a4)
   14ddc:	0000                	unimp
   14dde:	0000                	unimp
   14de0:	0000                	unimp
   14de2:	00ff                	0xff
   14de4:	0000                	unimp
   14de6:	0000                	unimp
   14de8:	ff00                	fsw	fs0,56(a4)
	...
   14df2:	00ff                	0xff
   14df4:	0000                	unimp
   14df6:	0000                	unimp
   14df8:	0000                	unimp
   14dfa:	00ff                	0xff
   14dfc:	0000                	unimp
   14dfe:	0000                	unimp
   14e00:	0000                	unimp
   14e02:	00ff                	0xff
	...
   14e10:	00ff                	0xff
   14e12:	ffff                	0xffff
   14e14:	ff00                	fsw	fs0,56(a4)
   14e16:	0000                	unimp
   14e18:	ffff                	0xffff
   14e1a:	ffff                	0xffff
   14e1c:	0000                	unimp
   14e1e:	0000                	unimp
   14e20:	0000                	unimp
   14e22:	ffff                	0xffff
   14e24:	00ff                	0xff
   14e26:	0000                	unimp
   14e28:	ff00                	fsw	fs0,56(a4)
   14e2a:	ffff                	0xffff
   14e2c:	0000                	unimp
   14e2e:	0000                	unimp
   14e30:	0000                	unimp
   14e32:	ffff                	0xffff
   14e34:	0000                	unimp
   14e36:	0000                	unimp
   14e38:	0000                	unimp
   14e3a:	ffff                	0xffff
   14e3c:	00ff                	0xff
   14e3e:	0000                	unimp
   14e40:	0000                	unimp
   14e42:	ffff                	0xffff
   14e44:	0000                	unimp
   14e46:	0000                	unimp
   14e48:	0000                	unimp
   14e4a:	00ff                	0xff
	...
   14e54:	00ff                	0xff
   14e56:	0000                	unimp
   14e58:	ff00                	fsw	fs0,56(a4)
   14e5a:	0000                	unimp
   14e5c:	00ff                	0xff
   14e5e:	0000                	unimp
   14e60:	0000                	unimp
   14e62:	00ff                	0xff
   14e64:	0000                	unimp
   14e66:	0000                	unimp
   14e68:	0000                	unimp
   14e6a:	ff00                	fsw	fs0,56(a4)
   14e6c:	0000                	unimp
   14e6e:	0000                	unimp
   14e70:	ff00                	fsw	fs0,56(a4)
   14e72:	0000                	unimp
   14e74:	00ff                	0xff
   14e76:	0000                	unimp
   14e78:	0000                	unimp
   14e7a:	ff00                	fsw	fs0,56(a4)
   14e7c:	0000                	unimp
   14e7e:	0000                	unimp
   14e80:	00ff                	0xff
   14e82:	00ff                	0xff
   14e84:	00ff                	0xff
   14e86:	0000                	unimp
   14e88:	ff00                	fsw	fs0,56(a4)
   14e8a:	0000                	unimp
   14e8c:	00ff                	0xff
   14e8e:	0000                	unimp
   14e90:	0000                	unimp
   14e92:	ffff                	0xffff
   14e94:	0000                	unimp
   14e96:	0000                	unimp
   14e98:	ff00                	fsw	fs0,56(a4)
	...
   14ea2:	0000                	unimp
   14ea4:	00ff                	0xff
   14ea6:	0000                	unimp
   14ea8:	ff00                	fsw	fs0,56(a4)
   14eaa:	0000                	unimp
   14eac:	0000                	unimp
   14eae:	0000                	unimp
   14eb0:	ff00                	fsw	fs0,56(a4)
   14eb2:	ffff                	0xffff
   14eb4:	0000                	unimp
   14eb6:	0000                	unimp
   14eb8:	0000                	unimp
   14eba:	ff00                	fsw	fs0,56(a4)
   14ebc:	0000                	unimp
   14ebe:	0000                	unimp
   14ec0:	0000                	unimp
   14ec2:	ffff                	0xffff
   14ec4:	0000                	unimp
   14ec6:	0000                	unimp
   14ec8:	0000                	unimp
   14eca:	00ff                	0xff
   14ecc:	0000                	unimp
   14ece:	0000                	unimp
   14ed0:	ff00                	fsw	fs0,56(a4)
   14ed2:	ff00                	fsw	fs0,56(a4)
   14ed4:	0000                	unimp
   14ed6:	0000                	unimp
   14ed8:	00ff                	0xff
   14eda:	0000                	unimp
   14edc:	00ff                	0xff
   14ede:	0000                	unimp
   14ee0:	0000                	unimp
   14ee2:	00ff                	0xff
   14ee4:	0000                	unimp
   14ee6:	0000                	unimp
   14ee8:	ff00                	fsw	fs0,56(a4)
   14eea:	ffff                	0xffff
   14eec:	00ff                	0xff
   14eee:	0000                	unimp
   14ef0:	0000                	unimp
   14ef2:	00ff                	0xff
   14ef4:	0000                	unimp
   14ef6:	0000                	unimp
   14ef8:	0000                	unimp
   14efa:	00ff                	0xff
   14efc:	0000                	unimp
   14efe:	0000                	unimp
   14f00:	0000                	unimp
   14f02:	00ff                	0xff
	...
   14f10:	ff00                	fsw	fs0,56(a4)
   14f12:	0000                	unimp
   14f14:	00ff                	0xff
	...
   14f52:	ffff                	0xffff
	...
   14f68:	ff00                	fsw	fs0,56(a4)
   14f6a:	00ff                	0xff
	...
   14f98:	ff00                	fsw	fs0,56(a4)
	...
   14fa2:	0000                	unimp
   14fa4:	00ff                	0xff
	...
   14fde:	0000                	unimp
   14fe0:	ffff                	0xffff
	...
   14ff2:	ff00                	fsw	fs0,56(a4)
   14ff4:	0000                	unimp
   14ff6:	0000                	unimp
   14ff8:	0000                	unimp
   14ffa:	00ff                	0xff
   14ffc:	0000                	unimp
   14ffe:	0000                	unimp
   15000:	ff00                	fsw	fs0,56(a4)
	...
   15012:	ffff                	0xffff
   15014:	0000                	unimp
	...

00015018 <npio2_hw>:
   15018:	0f00                	addi	s0,sp,912
   1501a:	3fc9                	jal	14fec <_exit+0x188c>
   1501c:	0f00                	addi	s0,sp,912
   1501e:	4049                	c.li	zero,18
   15020:	cb00                	sw	s0,16(a4)
   15022:	4096                	lw	ra,68(sp)
   15024:	0f00                	addi	s0,sp,912
   15026:	40c9                	li	ra,18
   15028:	5300                	lw	s0,32(a4)
   1502a:	cb0040fb          	0xcb0040fb
   1502e:	4116                	lw	sp,68(sp)
   15030:	ed00                	fsw	fs0,24(a0)
   15032:	0f00412f          	0xf00412f
   15036:	4149                	li	sp,18
   15038:	3100                	fld	fs0,32(a0)
   1503a:	4162                	lw	sp,24(sp)
   1503c:	5300                	lw	s0,32(a4)
   1503e:	3a00417b          	0x3a00417b
   15042:	418a                	lw	gp,128(sp)
   15044:	cb00                	sw	s0,16(a4)
   15046:	4196                	lw	gp,68(sp)
   15048:	5c00                	lw	s0,56(s0)
   1504a:	ed0041a3          	0xed0041a3
   1504e:	7e0041af          	0x7e0041af
   15052:	41bc                	lw	a5,64(a1)
   15054:	0f00                	addi	s0,sp,912
   15056:	41c9                	li	gp,18
   15058:	a000                	fsd	fs0,0(s0)
   1505a:	41d5                	li	gp,21
   1505c:	3100                	fld	fs0,32(a0)
   1505e:	41e2                	lw	gp,24(sp)
   15060:	c200                	sw	s0,0(a2)
   15062:	41ee                	lw	gp,216(sp)
   15064:	5300                	lw	s0,32(a4)
   15066:	f20041fb          	0xf20041fb
   1506a:	3a004203          	lbu	tp,928(zero) # 3a0 <main-0xfcd4>
   1506e:	420a                	lw	tp,128(sp)
   15070:	8300                	0x8300
   15072:	4210                	lw	a2,0(a2)
   15074:	cb00                	sw	s0,16(a4)
   15076:	4216                	lw	tp,68(sp)
   15078:	1400                	addi	s0,sp,544
   1507a:	421d                	li	tp,7
   1507c:	5c00                	lw	s0,56(s0)
   1507e:	a5004223          	0xa5004223
   15082:	4229                	li	tp,10
   15084:	ed00                	fsw	fs0,24(a0)
   15086:	3600422f          	0x3600422f
   1508a:	4236                	lw	tp,76(sp)
   1508c:	7e00                	flw	fs0,56(a2)
   1508e:	423c                	lw	a5,64(a2)
   15090:	c700                	sw	s0,8(a4)
   15092:	4242                	lw	tp,16(sp)
   15094:	0f00                	addi	s0,sp,912
   15096:	4249                	li	tp,18

00015098 <two_over_pi>:
   15098:	00a2                	slli	ra,ra,0x8
   1509a:	0000                	unimp
   1509c:	00f9                	addi	ra,ra,30
   1509e:	0000                	unimp
   150a0:	00000083          	lb	ra,0(zero) # 0 <main-0x10074>
   150a4:	006e                	c.slli	zero,0x1b
   150a6:	0000                	unimp
   150a8:	004e                	c.slli	zero,0x13
   150aa:	0000                	unimp
   150ac:	0044                	addi	s1,sp,4
   150ae:	0000                	unimp
   150b0:	0015                	c.nop	5
   150b2:	0000                	unimp
   150b4:	0029                	c.nop	10
   150b6:	0000                	unimp
   150b8:	00fc                	addi	a5,sp,76
   150ba:	0000                	unimp
   150bc:	00000027          	0x27
   150c0:	00000057          	0x57
   150c4:	00d1                	addi	ra,ra,20
   150c6:	0000                	unimp
   150c8:	00f5                	addi	ra,ra,29
   150ca:	0000                	unimp
   150cc:	0034                	addi	a3,sp,8
   150ce:	0000                	unimp
   150d0:	00dd                	addi	ra,ra,23
   150d2:	0000                	unimp
   150d4:	00c0                	addi	s0,sp,68
   150d6:	0000                	unimp
   150d8:	000000db          	0xdb
   150dc:	0062                	c.slli	zero,0x18
   150de:	0000                	unimp
   150e0:	0095                	addi	ra,ra,5
   150e2:	0000                	unimp
   150e4:	0099                	addi	ra,ra,6
   150e6:	0000                	unimp
   150e8:	003c                	addi	a5,sp,8
   150ea:	0000                	unimp
   150ec:	00000043          	fmadd.s	ft0,ft0,ft0,ft0,rne
   150f0:	0090                	addi	a2,sp,64
   150f2:	0000                	unimp
   150f4:	0041                	c.nop	16
   150f6:	0000                	unimp
   150f8:	00fe                	slli	ra,ra,0x1f
   150fa:	0000                	unimp
   150fc:	0051                	c.nop	20
   150fe:	0000                	unimp
   15100:	00000063          	beqz	zero,15100 <two_over_pi+0x68>
   15104:	000000ab          	0xab
   15108:	00de                	slli	ra,ra,0x17
   1510a:	0000                	unimp
   1510c:	000000bb          	0xbb
   15110:	00c5                	addi	ra,ra,17
   15112:	0000                	unimp
   15114:	0061                	c.nop	24
   15116:	0000                	unimp
   15118:	000000b7          	lui	ra,0x0
   1511c:	0024                	addi	s1,sp,8
   1511e:	0000                	unimp
   15120:	006e                	c.slli	zero,0x1b
   15122:	0000                	unimp
   15124:	003a                	c.slli	zero,0xe
   15126:	0000                	unimp
   15128:	0042                	c.slli	zero,0x10
   1512a:	0000                	unimp
   1512c:	004d                	c.nop	19
   1512e:	0000                	unimp
   15130:	00d2                	slli	ra,ra,0x14
   15132:	0000                	unimp
   15134:	00e0                	addi	s0,sp,76
   15136:	0000                	unimp
   15138:	0006                	c.slli	zero,0x1
   1513a:	0000                	unimp
   1513c:	0049                	c.nop	18
   1513e:	0000                	unimp
   15140:	002e                	c.slli	zero,0xb
   15142:	0000                	unimp
   15144:	00ea                	slli	ra,ra,0x1a
   15146:	0000                	unimp
   15148:	0009                	c.nop	2
   1514a:	0000                	unimp
   1514c:	00d1                	addi	ra,ra,20
   1514e:	0000                	unimp
   15150:	0092                	slli	ra,ra,0x4
   15152:	0000                	unimp
   15154:	001c                	0x1c
   15156:	0000                	unimp
   15158:	00fe                	slli	ra,ra,0x1f
   1515a:	0000                	unimp
   1515c:	001d                	c.nop	7
   1515e:	0000                	unimp
   15160:	000000eb          	0xeb
   15164:	001c                	0x1c
   15166:	0000                	unimp
   15168:	00b1                	addi	ra,ra,12
   1516a:	0000                	unimp
   1516c:	0029                	c.nop	10
   1516e:	0000                	unimp
   15170:	000000a7          	0xa7
   15174:	003e                	c.slli	zero,0xf
   15176:	0000                	unimp
   15178:	00e8                	addi	a0,sp,76
   1517a:	0000                	unimp
   1517c:	0082                	c.slli64	ra
   1517e:	0000                	unimp
   15180:	0035                	c.nop	13
   15182:	0000                	unimp
   15184:	00f5                	addi	ra,ra,29
   15186:	0000                	unimp
   15188:	002e                	c.slli	zero,0xb
   1518a:	0000                	unimp
   1518c:	000000bb          	0xbb
   15190:	0044                	addi	s1,sp,4
   15192:	0000                	unimp
   15194:	0084                	addi	s1,sp,64
   15196:	0000                	unimp
   15198:	00e9                	addi	ra,ra,26
   1519a:	0000                	unimp
   1519c:	009c                	addi	a5,sp,64
   1519e:	0000                	unimp
   151a0:	0070                	addi	a2,sp,12
   151a2:	0000                	unimp
   151a4:	0026                	c.slli	zero,0x9
   151a6:	0000                	unimp
   151a8:	00b4                	addi	a3,sp,72
   151aa:	0000                	unimp
   151ac:	005f 0000 007e      	0x7e0000005f
   151b2:	0000                	unimp
   151b4:	0041                	c.nop	16
   151b6:	0000                	unimp
   151b8:	0039                	c.nop	14
   151ba:	0000                	unimp
   151bc:	0091                	addi	ra,ra,4
   151be:	0000                	unimp
   151c0:	00d6                	slli	ra,ra,0x15
   151c2:	0000                	unimp
   151c4:	0039                	c.nop	14
   151c6:	0000                	unimp
   151c8:	00000083          	lb	ra,0(zero) # 0 <main-0x10074>
   151cc:	00000053          	fadd.s	ft0,ft0,ft0,rne
   151d0:	0039                	c.nop	14
   151d2:	0000                	unimp
   151d4:	00f4                	addi	a3,sp,76
   151d6:	0000                	unimp
   151d8:	009c                	addi	a5,sp,64
   151da:	0000                	unimp
   151dc:	0084                	addi	s1,sp,64
   151de:	0000                	unimp
   151e0:	005f 0000 008b      	0x8b0000005f
   151e6:	0000                	unimp
   151e8:	00bd                	addi	ra,ra,15
   151ea:	0000                	unimp
   151ec:	00f9                	addi	ra,ra,30
   151ee:	0000                	unimp
   151f0:	0028                	addi	a0,sp,8
   151f2:	0000                	unimp
   151f4:	0000003b          	0x3b
   151f8:	001f 0000 00f8      	0xf80000001f
   151fe:	0000                	unimp
   15200:	00000097          	auipc	ra,0x0
   15204:	00ff                	0xff
   15206:	0000                	unimp
   15208:	00de                	slli	ra,ra,0x17
   1520a:	0000                	unimp
   1520c:	0005                	c.nop	1
   1520e:	0000                	unimp
   15210:	0098                	addi	a4,sp,64
   15212:	0000                	unimp
   15214:	0000000f          	fence	unknown,unknown
   15218:	000000ef          	jal	ra,15218 <two_over_pi+0x180>
   1521c:	0000002f          	0x2f
   15220:	0011                	c.nop	4
   15222:	0000                	unimp
   15224:	0000008b          	0x8b
   15228:	005a                	c.slli	zero,0x16
   1522a:	0000                	unimp
   1522c:	000a                	c.slli	zero,0x2
   1522e:	0000                	unimp
   15230:	006d                	c.nop	27
   15232:	0000                	unimp
   15234:	001f 0000 006d      	0x6d0000001f
   1523a:	0000                	unimp
   1523c:	0036                	c.slli	zero,0xd
   1523e:	0000                	unimp
   15240:	007e                	c.slli	zero,0x1f
   15242:	0000                	unimp
   15244:	000000cf          	fnmadd.s	ft1,ft0,ft0,ft0,rne
   15248:	00000027          	0x27
   1524c:	000000cb          	fnmsub.s	ft1,ft0,ft0,ft0,rne
   15250:	0009                	c.nop	2
   15252:	0000                	unimp
   15254:	000000b7          	lui	ra,0x0
   15258:	0000004f          	fnmadd.s	ft0,ft0,ft0,ft0,rne
   1525c:	0046                	c.slli	zero,0x11
   1525e:	0000                	unimp
   15260:	0000003f 00000066 	0x660000003f
   15268:	009e                	slli	ra,ra,0x7
   1526a:	0000                	unimp
   1526c:	005f 0000 00ea      	0xea0000005f
   15272:	0000                	unimp
   15274:	002d                	c.nop	11
   15276:	0000                	unimp
   15278:	0075                	c.nop	29
   1527a:	0000                	unimp
   1527c:	00000027          	0x27
   15280:	00ba                	slli	ra,ra,0xe
   15282:	0000                	unimp
   15284:	000000c7          	fmsub.s	ft1,ft0,ft0,ft0,rne
   15288:	000000eb          	0xeb
   1528c:	00e5                	addi	ra,ra,25
   1528e:	0000                	unimp
   15290:	00f1                	addi	ra,ra,28
   15292:	0000                	unimp
   15294:	0000007b          	0x7b
   15298:	003d                	c.nop	15
   1529a:	0000                	unimp
   1529c:	00000007          	0x7
   152a0:	0039                	c.nop	14
   152a2:	0000                	unimp
   152a4:	000000f7          	0xf7
   152a8:	008a                	slli	ra,ra,0x2
   152aa:	0000                	unimp
   152ac:	0052                	c.slli	zero,0x14
   152ae:	0000                	unimp
   152b0:	0092                	slli	ra,ra,0x4
   152b2:	0000                	unimp
   152b4:	00ea                	slli	ra,ra,0x1a
   152b6:	0000                	unimp
   152b8:	0000006b          	0x6b
   152bc:	000000fb          	0xfb
   152c0:	005f 0000 00b1      	0xb10000005f
   152c6:	0000                	unimp
   152c8:	001f 0000 008d      	0x8d0000001f
   152ce:	0000                	unimp
   152d0:	005d                	c.nop	23
   152d2:	0000                	unimp
   152d4:	0008                	0x8
   152d6:	0000                	unimp
   152d8:	0056                	c.slli	zero,0x15
   152da:	0000                	unimp
   152dc:	00000003          	lb	zero,0(zero) # 0 <main-0x10074>
   152e0:	0030                	addi	a2,sp,8
   152e2:	0000                	unimp
   152e4:	0046                	c.slli	zero,0x11
   152e6:	0000                	unimp
   152e8:	00fc                	addi	a5,sp,76
   152ea:	0000                	unimp
   152ec:	0000007b          	0x7b
   152f0:	0000006b          	0x6b
   152f4:	000000ab          	0xab
   152f8:	00f0                	addi	a2,sp,76
   152fa:	0000                	unimp
   152fc:	000000cf          	fnmadd.s	ft1,ft0,ft0,ft0,rne
   15300:	00bc                	addi	a5,sp,72
   15302:	0000                	unimp
   15304:	0020                	addi	s0,sp,8
   15306:	0000                	unimp
   15308:	009a                	slli	ra,ra,0x6
   1530a:	0000                	unimp
   1530c:	00f4                	addi	a3,sp,76
   1530e:	0000                	unimp
   15310:	0036                	c.slli	zero,0xd
   15312:	0000                	unimp
   15314:	001d                	c.nop	7
   15316:	0000                	unimp
   15318:	00a9                	addi	ra,ra,10
   1531a:	0000                	unimp
   1531c:	000000e3          	beqz	zero,15b1c <__clz_tab+0x734>
   15320:	0091                	addi	ra,ra,4
   15322:	0000                	unimp
   15324:	0061                	c.nop	24
   15326:	0000                	unimp
   15328:	005e                	c.slli	zero,0x17
   1532a:	0000                	unimp
   1532c:	00e6                	slli	ra,ra,0x19
   1532e:	0000                	unimp
   15330:	0000001b          	0x1b
   15334:	0008                	0x8
   15336:	0000                	unimp
   15338:	0065                	c.nop	25
   1533a:	0000                	unimp
   1533c:	0099                	addi	ra,ra,6
   1533e:	0000                	unimp
   15340:	0085                	addi	ra,ra,1
   15342:	0000                	unimp
   15344:	005f 0000 0014      	0x140000005f
   1534a:	0000                	unimp
   1534c:	00a0                	addi	s0,sp,72
   1534e:	0000                	unimp
   15350:	0068                	addi	a0,sp,12
   15352:	0000                	unimp
   15354:	0040                	addi	s0,sp,4
   15356:	0000                	unimp
   15358:	008d                	addi	ra,ra,3
   1535a:	0000                	unimp
   1535c:	00ff                	0xff
   1535e:	0000                	unimp
   15360:	00d8                	addi	a4,sp,68
   15362:	0000                	unimp
   15364:	0080                	addi	s0,sp,64
   15366:	0000                	unimp
   15368:	004d                	c.nop	19
   1536a:	0000                	unimp
   1536c:	00000073          	ecall
   15370:	00000027          	0x27
   15374:	0031                	c.nop	12
   15376:	0000                	unimp
   15378:	0006                	c.slli	zero,0x1
   1537a:	0000                	unimp
   1537c:	0006                	c.slli	zero,0x1
   1537e:	0000                	unimp
   15380:	0015                	c.nop	5
   15382:	0000                	unimp
   15384:	0056                	c.slli	zero,0x15
   15386:	0000                	unimp
   15388:	00ca                	slli	ra,ra,0x12
   1538a:	0000                	unimp
   1538c:	00000073          	ecall
   15390:	00a8                	addi	a0,sp,72
   15392:	0000                	unimp
   15394:	00c9                	addi	ra,ra,18
   15396:	0000                	unimp
   15398:	0060                	addi	s0,sp,12
   1539a:	0000                	unimp
   1539c:	00e2                	slli	ra,ra,0x18
   1539e:	0000                	unimp
   153a0:	0000007b          	0x7b
   153a4:	00c0                	addi	s0,sp,68
   153a6:	0000                	unimp
   153a8:	008c                	addi	a1,sp,64
   153aa:	0000                	unimp
   153ac:	0000006b          	0x6b

000153b0 <init_jk>:
   153b0:	0004                	0x4
   153b2:	0000                	unimp
   153b4:	00000007          	0x7
   153b8:	0009                	c.nop	2
	...

000153bc <PIo2>:
   153bc:	0000                	unimp
   153be:	3fc9                	jal	15390 <two_over_pi+0x2f8>
   153c0:	0000                	unimp
   153c2:	39f0                	fld	fa2,240(a1)
   153c4:	0000                	unimp
   153c6:	37da                	fld	fa5,432(sp)
   153c8:	0000                	unimp
   153ca:	33a2                	fld	ft7,40(sp)
   153cc:	0000                	unimp
   153ce:	2e84                	fld	fs1,24(a3)
   153d0:	0000                	unimp
   153d2:	2b50                	fld	fa2,144(a4)
   153d4:	0000                	unimp
   153d6:	27c2                	fld	fa5,16(sp)
   153d8:	0000                	unimp
   153da:	22d0                	fld	fa2,128(a3)
   153dc:	0000                	unimp
   153de:	1fc4                	addi	s1,sp,1012
   153e0:	0000                	unimp
   153e2:	1bc6                	slli	s7,s7,0x31
   153e4:	0000                	unimp
   153e6:	1744                	addi	s1,sp,932

000153e8 <__clz_tab>:
   153e8:	0100                	addi	s0,sp,128
   153ea:	0202                	c.slli64	tp
   153ec:	03030303          	lb	t1,48(t1)
   153f0:	0404                	addi	s1,sp,512
   153f2:	0404                	addi	s1,sp,512
   153f4:	0404                	addi	s1,sp,512
   153f6:	0404                	addi	s1,sp,512
   153f8:	0505                	addi	a0,a0,1
   153fa:	0505                	addi	a0,a0,1
   153fc:	0505                	addi	a0,a0,1
   153fe:	0505                	addi	a0,a0,1
   15400:	0505                	addi	a0,a0,1
   15402:	0505                	addi	a0,a0,1
   15404:	0505                	addi	a0,a0,1
   15406:	0505                	addi	a0,a0,1
   15408:	0606                	slli	a2,a2,0x1
   1540a:	0606                	slli	a2,a2,0x1
   1540c:	0606                	slli	a2,a2,0x1
   1540e:	0606                	slli	a2,a2,0x1
   15410:	0606                	slli	a2,a2,0x1
   15412:	0606                	slli	a2,a2,0x1
   15414:	0606                	slli	a2,a2,0x1
   15416:	0606                	slli	a2,a2,0x1
   15418:	0606                	slli	a2,a2,0x1
   1541a:	0606                	slli	a2,a2,0x1
   1541c:	0606                	slli	a2,a2,0x1
   1541e:	0606                	slli	a2,a2,0x1
   15420:	0606                	slli	a2,a2,0x1
   15422:	0606                	slli	a2,a2,0x1
   15424:	0606                	slli	a2,a2,0x1
   15426:	0606                	slli	a2,a2,0x1
   15428:	07070707          	0x7070707
   1542c:	07070707          	0x7070707
   15430:	07070707          	0x7070707
   15434:	07070707          	0x7070707
   15438:	07070707          	0x7070707
   1543c:	07070707          	0x7070707
   15440:	07070707          	0x7070707
   15444:	07070707          	0x7070707
   15448:	07070707          	0x7070707
   1544c:	07070707          	0x7070707
   15450:	07070707          	0x7070707
   15454:	07070707          	0x7070707
   15458:	07070707          	0x7070707
   1545c:	07070707          	0x7070707
   15460:	07070707          	0x7070707
   15464:	07070707          	0x7070707
   15468:	0808                	addi	a0,sp,16
   1546a:	0808                	addi	a0,sp,16
   1546c:	0808                	addi	a0,sp,16
   1546e:	0808                	addi	a0,sp,16
   15470:	0808                	addi	a0,sp,16
   15472:	0808                	addi	a0,sp,16
   15474:	0808                	addi	a0,sp,16
   15476:	0808                	addi	a0,sp,16
   15478:	0808                	addi	a0,sp,16
   1547a:	0808                	addi	a0,sp,16
   1547c:	0808                	addi	a0,sp,16
   1547e:	0808                	addi	a0,sp,16
   15480:	0808                	addi	a0,sp,16
   15482:	0808                	addi	a0,sp,16
   15484:	0808                	addi	a0,sp,16
   15486:	0808                	addi	a0,sp,16
   15488:	0808                	addi	a0,sp,16
   1548a:	0808                	addi	a0,sp,16
   1548c:	0808                	addi	a0,sp,16
   1548e:	0808                	addi	a0,sp,16
   15490:	0808                	addi	a0,sp,16
   15492:	0808                	addi	a0,sp,16
   15494:	0808                	addi	a0,sp,16
   15496:	0808                	addi	a0,sp,16
   15498:	0808                	addi	a0,sp,16
   1549a:	0808                	addi	a0,sp,16
   1549c:	0808                	addi	a0,sp,16
   1549e:	0808                	addi	a0,sp,16
   154a0:	0808                	addi	a0,sp,16
   154a2:	0808                	addi	a0,sp,16
   154a4:	0808                	addi	a0,sp,16
   154a6:	0808                	addi	a0,sp,16
   154a8:	0808                	addi	a0,sp,16
   154aa:	0808                	addi	a0,sp,16
   154ac:	0808                	addi	a0,sp,16
   154ae:	0808                	addi	a0,sp,16
   154b0:	0808                	addi	a0,sp,16
   154b2:	0808                	addi	a0,sp,16
   154b4:	0808                	addi	a0,sp,16
   154b6:	0808                	addi	a0,sp,16
   154b8:	0808                	addi	a0,sp,16
   154ba:	0808                	addi	a0,sp,16
   154bc:	0808                	addi	a0,sp,16
   154be:	0808                	addi	a0,sp,16
   154c0:	0808                	addi	a0,sp,16
   154c2:	0808                	addi	a0,sp,16
   154c4:	0808                	addi	a0,sp,16
   154c6:	0808                	addi	a0,sp,16
   154c8:	0808                	addi	a0,sp,16
   154ca:	0808                	addi	a0,sp,16
   154cc:	0808                	addi	a0,sp,16
   154ce:	0808                	addi	a0,sp,16
   154d0:	0808                	addi	a0,sp,16
   154d2:	0808                	addi	a0,sp,16
   154d4:	0808                	addi	a0,sp,16
   154d6:	0808                	addi	a0,sp,16
   154d8:	0808                	addi	a0,sp,16
   154da:	0808                	addi	a0,sp,16
   154dc:	0808                	addi	a0,sp,16
   154de:	0808                	addi	a0,sp,16
   154e0:	0808                	addi	a0,sp,16
   154e2:	0808                	addi	a0,sp,16
   154e4:	0808                	addi	a0,sp,16
   154e6:	0808                	addi	a0,sp,16

Disassembly of section .eh_frame:

00016000 <__EH_FRAME_BEGIN__>:
   16000:	0010                	0x10
   16002:	0000                	unimp
   16004:	0000                	unimp
   16006:	0000                	unimp
   16008:	00527a03          	0x527a03
   1600c:	7c01                	lui	s8,0xfffe0
   1600e:	0101                	addi	sp,sp,0
   16010:	00020d1b          	0x20d1b
   16014:	0034                	addi	a3,sp,8
   16016:	0000                	unimp
   16018:	0018                	0x18
   1601a:	0000                	unimp
   1601c:	a4e8                	fsd	fa0,200(s1)
   1601e:	ffff                	0xffff
   16020:	01d4                	addi	a3,sp,196
   16022:	0000                	unimp
   16024:	4400                	lw	s0,8(s0)
   16026:	300e                	fld	ft0,224(sp)
   16028:	b544                	fsd	fs1,168(a0)
   1602a:	4c0a                	lw	s8,128(sp)
   1602c:	07b2                	slli	a5,a5,0xc
   1602e:	8158                	0x8158
   16030:	a801                	j	16040 <__EH_FRAME_BEGIN__+0x40>
   16032:	a905                	j	16462 <impure_data+0xc2>
   16034:	b306                	fsd	ft1,416(sp)
   16036:	b408                	fsd	fa0,40(s0)
   16038:	0309                	addi	t1,t1,2
   1603a:	017c                	addi	a5,sp,140
   1603c:	50c1                	li	ra,-16
   1603e:	44e8                	lw	a0,76(s1)
   16040:	44e9                	li	s1,26
   16042:	44f2                	lw	s1,28(sp)
   16044:	44f444f3          	0x44f444f3
   16048:	44f5                	li	s1,29
   1604a:	000e                	c.slli	zero,0x3
   1604c:	0030                	addi	a2,sp,8
   1604e:	0000                	unimp
   16050:	0050                	addi	a2,sp,4
   16052:	0000                	unimp
   16054:	a684                	fsd	fs1,8(a3)
   16056:	ffff                	0xffff
   16058:	008c                	addi	a1,sp,64
   1605a:	0000                	unimp
   1605c:	4400                	lw	s0,8(s0)
   1605e:	200e                	fld	ft0,192(sp)
   16060:	8944                	0x8944
   16062:	02885803          	lhu	a6,40(a6)
   16066:	0492                	slli	s1,s1,0x4
   16068:	06940593          	addi	a1,s0,105
   1606c:	0181                	addi	gp,gp,0
   1606e:	5002                	0x5002
   16070:	44c1                	li	s1,16
   16072:	44c8                	lw	a0,12(s1)
   16074:	44c9                	li	s1,18
   16076:	44d2                	lw	s1,20(sp)
   16078:	44d444d3          	0x44d444d3
   1607c:	000e                	c.slli	zero,0x3
   1607e:	0000                	unimp
   16080:	006c                	addi	a1,sp,12
   16082:	0000                	unimp
   16084:	0084                	addi	s1,sp,64
   16086:	0000                	unimp
   16088:	a6dc                	fsd	fa5,136(a3)
   1608a:	ffff                	0xffff
   1608c:	0404                	addi	s1,sp,512
   1608e:	0000                	unimp
   16090:	4400                	lw	s0,8(s0)
   16092:	600e                	flw	ft0,192(sp)
   16094:	9344                	0x9344
   16096:	0205                	addi	tp,tp,1
   16098:	8854                	0x8854
   1609a:	8902                	jr	s2
   1609c:	96049203          	lh	tp,-1696(s1)
   160a0:	8108                	0x8108
   160a2:	9401                	srai	s0,s0,0x20
   160a4:	9506                	add	a0,a0,ra
   160a6:	98099707          	0x98099707
   160aa:	990a                	add	s2,s2,sp
   160ac:	9b0c9a0b          	0x9b0c9a0b
   160b0:	a80d                	j	160e2 <__EH_FRAME_BEGIN__+0xe2>
   160b2:	a911                	j	164c6 <impure_data+0x126>
   160b4:	b212                	fsd	ft4,288(sp)
   160b6:	b414b313          	sltiu	t1,s1,-1215
   160ba:	b515                	j	15ede <__clz_tab+0xaf6>
   160bc:	b616                	fsd	ft5,296(sp)
   160be:	02f40317          	auipc	t1,0x2f40
   160c2:	c10a                	sw	sp,128(sp)
   160c4:	c844                	sw	s1,20(s0)
   160c6:	c948                	sw	a0,20(a0)
   160c8:	d244                	sw	s1,36(a2)
   160ca:	d344                	sw	s1,36(a4)
   160cc:	d444                	sw	s1,44(s0)
   160ce:	d544                	sw	s1,44(a0)
   160d0:	d644                	sw	s1,44(a2)
   160d2:	d744                	sw	s1,44(a4)
   160d4:	d844                	sw	s1,52(s0)
   160d6:	d944                	sw	s1,52(a0)
   160d8:	da44                	sw	s1,52(a2)
   160da:	db44                	sw	s1,52(a4)
   160dc:	e844                	fsw	fs1,20(s0)
   160de:	e944                	fsw	fs1,20(a0)
   160e0:	f244                	fsw	fs1,36(a2)
   160e2:	f344                	fsw	fs1,36(a4)
   160e4:	f444                	fsw	fs1,44(s0)
   160e6:	f544                	fsw	fs1,44(a0)
   160e8:	f644                	fsw	fs1,44(a2)
   160ea:	0e44                	addi	s1,sp,788
   160ec:	4400                	lw	s0,8(s0)
   160ee:	0040000b          	0x40000b
   160f2:	0000                	unimp
   160f4:	00f4                	addi	a3,sp,76
   160f6:	0000                	unimp
   160f8:	9f7c                	0x9f7c
   160fa:	ffff                	0xffff
   160fc:	03a4                	addi	s1,sp,456
   160fe:	0000                	unimp
   16100:	4400                	lw	s0,8(s0)
   16102:	900e                	c.add	zero,gp
   16104:	0201                	addi	tp,tp,0
   16106:	0e58                	addi	a4,sp,788
   16108:	4190                	lw	a2,0(a1)
   1610a:	0181                	addi	gp,gp,0
   1610c:	0288                	addi	a0,sp,320
   1610e:	0389                	addi	t2,t2,2
   16110:	0492                	slli	s1,s1,0x4
   16112:	06940593          	addi	a1,s0,105
   16116:	0795                	addi	a5,a5,5
   16118:	0896                	slli	a7,a7,0x5
   1611a:	0a980997          	auipc	s3,0xa980
   1611e:	0b99                	addi	s7,s7,6
   16120:	0c9a                	slli	s9,s9,0x6
   16122:	11a80d9b          	0x11a80d9b
   16126:	12a9                	addi	t0,t0,-22
   16128:	13b2                	slli	t2,t2,0x2c
   1612a:	15b414b3          	0x15b414b3
   1612e:	16b5                	addi	a3,a3,-19
   16130:	17b6                	slli	a5,a5,0x2d
   16132:	0000                	unimp
   16134:	0010                	0x10
   16136:	0000                	unimp
   16138:	0138                	addi	a4,sp,136
   1613a:	0000                	unimp
   1613c:	aa2c                	fsd	fa1,80(a2)
   1613e:	ffff                	0xffff
   16140:	002c                	addi	a1,sp,8
   16142:	0000                	unimp
   16144:	0000                	unimp
   16146:	0000                	unimp
   16148:	0010                	0x10
   1614a:	0000                	unimp
   1614c:	014c                	addi	a1,sp,132
   1614e:	0000                	unimp
   16150:	aa44                	fsd	fs1,144(a2)
   16152:	ffff                	0xffff
   16154:	0014                	0x14
   16156:	0000                	unimp
   16158:	0000                	unimp
   1615a:	0000                	unimp
   1615c:	0018                	0x18
   1615e:	0000                	unimp
   16160:	0160                	addi	s0,sp,140
   16162:	0000                	unimp
   16164:	aa44                	fsd	fs1,144(a2)
   16166:	ffff                	0xffff
   16168:	0024                	addi	s1,sp,8
   1616a:	0000                	unimp
   1616c:	4800                	lw	s0,16(s0)
   1616e:	100e                	c.slli	zero,0x23
   16170:	814c                	0x814c
   16172:	4801                	li	a6,0
   16174:	44c1                	li	s1,16
   16176:	000e                	c.slli	zero,0x3
   16178:	0010                	0x10
   1617a:	0000                	unimp
   1617c:	017c                	addi	a5,sp,140
   1617e:	0000                	unimp
   16180:	aa4c                	fsd	fa1,144(a2)
   16182:	ffff                	0xffff
   16184:	0044                	addi	s1,sp,4
   16186:	0000                	unimp
   16188:	0000                	unimp
   1618a:	0000                	unimp
   1618c:	0010                	0x10
   1618e:	0000                	unimp
   16190:	0190                	addi	a2,sp,192
   16192:	0000                	unimp
   16194:	aa7c                	fsd	fa5,208(a2)
   16196:	ffff                	0xffff
   16198:	0018                	0x18
   1619a:	0000                	unimp
   1619c:	0000                	unimp
   1619e:	0000                	unimp
   161a0:	0010                	0x10
   161a2:	0000                	unimp
   161a4:	01a4                	addi	s1,sp,200
   161a6:	0000                	unimp
   161a8:	aa80                	fsd	fs0,16(a3)
   161aa:	ffff                	0xffff
   161ac:	001c                	0x1c
   161ae:	0000                	unimp
   161b0:	0000                	unimp
   161b2:	0000                	unimp
   161b4:	0010                	0x10
   161b6:	0000                	unimp
   161b8:	01b8                	addi	a4,sp,200
   161ba:	0000                	unimp
   161bc:	aa88                	fsd	fa0,16(a3)
   161be:	ffff                	0xffff
   161c0:	003c                	addi	a5,sp,8
   161c2:	0000                	unimp
   161c4:	0000                	unimp
   161c6:	0000                	unimp
   161c8:	001c                	0x1c
   161ca:	0000                	unimp
   161cc:	01cc                	addi	a1,sp,196
   161ce:	0000                	unimp
   161d0:	aab0                	fsd	fa2,80(a3)
   161d2:	ffff                	0xffff
   161d4:	0070                	addi	a2,sp,12
   161d6:	0000                	unimp
   161d8:	4400                	lw	s0,8(s0)
   161da:	100e                	c.slli	zero,0x23
   161dc:	8144                	0x8144
   161de:	0201                	addi	tp,tp,0
   161e0:	c160                	sw	s0,68(a0)
   161e2:	0e44                	addi	s1,sp,788
   161e4:	0000                	unimp
   161e6:	0000                	unimp
   161e8:	004c                	addi	a1,sp,4
   161ea:	0000                	unimp
   161ec:	01ec                	addi	a1,sp,204
   161ee:	0000                	unimp
   161f0:	ab00                	fsd	fs0,16(a4)
   161f2:	ffff                	0xffff
   161f4:	00fc                	addi	a5,sp,76
   161f6:	0000                	unimp
   161f8:	4c00                	lw	s0,24(s0)
   161fa:	300e                	fld	ft0,224(sp)
   161fc:	8864                	0x8864
   161fe:	8902                	jr	s2
   16200:	93049203          	lh	tp,-1744(s1)
   16204:	9405                	srai	s0,s0,0x21
   16206:	9506                	add	a0,a0,ra
   16208:	97089607          	0x97089607
   1620c:	8109                	srli	a0,a0,0x2
   1620e:	0201                	addi	tp,tp,0
   16210:	0a6c                	addi	a1,sp,284
   16212:	44c1                	li	s1,16
   16214:	44c8                	lw	a0,12(s1)
   16216:	44c9                	li	s1,18
   16218:	44d2                	lw	s1,20(sp)
   1621a:	44d444d3          	0x44d444d3
   1621e:	44d5                	li	s1,21
   16220:	44d6                	lw	s1,84(sp)
   16222:	000e44d7          	0xe44d7
   16226:	0b44                	addi	s1,sp,404
   16228:	3402                	fld	fs0,32(sp)
   1622a:	000e                	c.slli	zero,0x3
   1622c:	c8c1                	beqz	s1,162bc <__EH_FRAME_BEGIN__+0x2bc>
   1622e:	d2c9                	beqz	a3,161b0 <__EH_FRAME_BEGIN__+0x1b0>
   16230:	d6d5d4d3          	0xd6d5d4d3
   16234:	000000d7          	0xd7
   16238:	0020                	addi	s0,sp,8
   1623a:	0000                	unimp
   1623c:	023c                	addi	a5,sp,264
   1623e:	0000                	unimp
   16240:	abac                	fsd	fa1,80(a5)
   16242:	ffff                	0xffff
   16244:	03c4                	addi	s1,sp,452
   16246:	0000                	unimp
   16248:	7800                	flw	fs0,48(s0)
   1624a:	300e                	fld	ft0,224(sp)
   1624c:	814c                	0x814c
   1624e:	0301                	addi	t1,t1,0
   16250:	018c                	addi	a1,sp,192
   16252:	c10a                	sw	sp,128(sp)
   16254:	0e44                	addi	s1,sp,788
   16256:	4400                	lw	s0,8(s0)
   16258:	0000000b          	0xb
   1625c:	0028                	addi	a0,sp,8
   1625e:	0000                	unimp
   16260:	0260                	addi	s0,sp,268
   16262:	0000                	unimp
   16264:	af4c                	fsd	fa1,152(a4)
   16266:	ffff                	0xffff
   16268:	005c                	addi	a5,sp,4
   1626a:	0000                	unimp
   1626c:	4400                	lw	s0,8(s0)
   1626e:	100e                	c.slli	zero,0x23
   16270:	8850                	0x8850
   16272:	8902                	jr	s2
   16274:	81049203          	lh	tp,-2032(s1)
   16278:	0201                	addi	tp,tp,0
   1627a:	c134                	sw	a3,64(a0)
   1627c:	c844                	sw	s1,20(s0)
   1627e:	c944                	sw	s1,20(a0)
   16280:	d244                	sw	s1,36(a2)
   16282:	0e44                	addi	s1,sp,788
   16284:	0000                	unimp
   16286:	0000                	unimp
   16288:	0018                	0x18
   1628a:	0000                	unimp
   1628c:	028c                	addi	a1,sp,320
   1628e:	0000                	unimp
   16290:	af7c                	fsd	fa5,216(a4)
   16292:	ffff                	0xffff
   16294:	0034                	addi	a3,sp,8
   16296:	0000                	unimp
   16298:	5400                	lw	s0,40(s0)
   1629a:	100e                	c.slli	zero,0x23
   1629c:	8150                	0x8150
   1629e:	4801                	li	a6,0
   162a0:	44c1                	li	s1,16
   162a2:	000e                	c.slli	zero,0x3
   162a4:	001c                	0x1c
   162a6:	0000                	unimp
   162a8:	02a8                	addi	a0,sp,328
   162aa:	0000                	unimp
   162ac:	af94                	fsd	fa3,24(a5)
   162ae:	ffff                	0xffff
   162b0:	0344                	addi	s1,sp,388
   162b2:	0000                	unimp
   162b4:	0200                	addi	s0,sp,256
   162b6:	0e64                	addi	s1,sp,796
   162b8:	4410                	lw	a2,8(s0)
   162ba:	0188                	addi	a0,sp,192
   162bc:	c802c003          	lbu	zero,-896(t0) # 13190 <__udivdi3+0x364>
   162c0:	0e44                	addi	s1,sp,788
   162c2:	0000                	unimp
   162c4:	0040                	addi	s0,sp,4
   162c6:	0000                	unimp
   162c8:	02c8                	addi	a0,sp,324
   162ca:	0000                	unimp
   162cc:	b2b8                	fsd	fa4,96(a3)
   162ce:	ffff                	0xffff
   162d0:	039c                	addi	a5,sp,448
   162d2:	0000                	unimp
   162d4:	0200                	addi	s0,sp,256
   162d6:	0e7c                	addi	a5,sp,796
   162d8:	5c20                	lw	s0,120(s0)
   162da:	0188                	addi	a0,sp,192
   162dc:	0289                	addi	t0,t0,2
   162de:	0392                	slli	t2,t2,0x4
   162e0:	05940493          	addi	s1,s0,89
   162e4:	0695                	addi	a3,a3,5
   162e6:	0796                	slli	a5,a5,0x5
   162e8:	0a02bc03          	0xa02bc03
   162ec:	44c8                	lw	a0,12(s1)
   162ee:	44c9                	li	s1,18
   162f0:	44d2                	lw	s1,20(sp)
   162f2:	44d444d3          	0x44d444d3
   162f6:	44d5                	li	s1,21
   162f8:	44d6                	lw	s1,84(sp)
   162fa:	000e                	c.slli	zero,0x3
   162fc:	0b44                	addi	s1,sp,404
   162fe:	0e64                	addi	s1,sp,796
   16300:	c800                	sw	s0,16(s0)
   16302:	d2c9                	beqz	a3,16284 <__EH_FRAME_BEGIN__+0x284>
   16304:	d6d5d4d3          	0xd6d5d4d3
   16308:	001c                	0x1c
   1630a:	0000                	unimp
   1630c:	030c                	addi	a1,sp,384
   1630e:	0000                	unimp
   16310:	b610                	fsd	fa2,40(a2)
   16312:	ffff                	0xffff
   16314:	00f8                	addi	a4,sp,76
   16316:	0000                	unimp
   16318:	5c00                	lw	s0,56(s0)
   1631a:	300e                	fld	ft0,224(sp)
   1631c:	4402                	lw	s0,0(sp)
   1631e:	0181                	addi	gp,gp,0
   16320:	9002                	ebreak
   16322:	44c1                	li	s1,16
   16324:	000e                	c.slli	zero,0x3
   16326:	0000                	unimp
   16328:	0024                	addi	s1,sp,8
   1632a:	0000                	unimp
   1632c:	032c                	addi	a1,sp,392
   1632e:	0000                	unimp
   16330:	b6e8                	fsd	fa0,232(a3)
   16332:	ffff                	0xffff
   16334:	03dc                	addi	a5,sp,452
   16336:	0000                	unimp
   16338:	7800                	flw	fs0,48(s0)
   1633a:	300e                	fld	ft0,224(sp)
   1633c:	8150                	0x8150
   1633e:	8801                	andi	s0,s0,0
   16340:	0302                	c.slli64	t1
   16342:	0198                	addi	a4,sp,192
   16344:	c10a                	sw	sp,128(sp)
   16346:	c848                	sw	a0,20(s0)
   16348:	0e44                	addi	s1,sp,788
   1634a:	4400                	lw	s0,8(s0)
   1634c:	0000000b          	0xb
   16350:	0010                	0x10
   16352:	0000                	unimp
   16354:	0354                	addi	a3,sp,388
   16356:	0000                	unimp
   16358:	a0c0                	fsd	fs0,128(s1)
   1635a:	ffff                	0xffff
   1635c:	001c                	0x1c
   1635e:	0000                	unimp
   16360:	0000                	unimp
   16362:	0000                	unimp
   16364:	0010                	0x10
   16366:	0000                	unimp
   16368:	0368                	addi	a0,sp,396
   1636a:	0000                	unimp
   1636c:	cac0                	sw	s0,20(a3)
   1636e:	ffff                	0xffff
   16370:	0434                	addi	a3,sp,520
   16372:	0000                	unimp
   16374:	0000                	unimp
	...

00016378 <__FRAME_END__>:
   16378:	0000                	unimp
	...

Disassembly of section .init_array:

0001637c <__init_array_start>:
   1637c:	0434                	addi	a3,sp,520
   1637e:	0001                	nop

00016380 <__frame_dummy_init_array_entry>:
   16380:	04e4                	addi	s1,sp,588
   16382:	0001                	nop
   16384:	0418                	addi	a4,sp,512
   16386:	0001                	nop

Disassembly of section .fini_array:

00016388 <__do_global_dtors_aux_fini_array_entry>:
   16388:	0498                	addi	a4,sp,576
   1638a:	0001                	nop

Disassembly of section .data:

00016390 <seed>:
   16390:	00000007          	0x7

00016394 <GraphicsFontStart>:
   16394:	e800                	fsw	fs0,16(s0)
   16396:	1001                	c.nop	-32

00016398 <GraphicsRAMStart>:
   16398:	0000                	unimp
   1639a:	1000                	addi	s0,sp,32

0001639c <IO_GPUCommandFIFO>:
   1639c:	0000                	unimp
   1639e:	8000                	0x8000

000163a0 <impure_data>:
   163a0:	0000                	unimp
   163a2:	0000                	unimp
   163a4:	668c                	flw	fa1,8(a3)
   163a6:	0001                	nop
   163a8:	66f4                	flw	fa3,76(a3)
   163aa:	0001                	nop
   163ac:	675c                	flw	fa5,12(a4)
   163ae:	0001                	nop
	...
   16448:	0001                	nop
   1644a:	0000                	unimp
   1644c:	0000                	unimp
   1644e:	0000                	unimp
   16450:	330e                	fld	ft6,224(sp)
   16452:	abcd                	j	16a44 <_ZL11consoleText+0x1a8>
   16454:	1234                	addi	a3,sp,296
   16456:	e66d                	bnez	a2,16540 <impure_data+0x1a0>
   16458:	deec                	sw	a1,124(a3)
   1645a:	0005                	c.nop	1
   1645c:	0000000b          	0xb
	...

Disassembly of section .got:

000167c8 <.got>:
   167c8:	ffff                	0xffff
   167ca:	ffff                	0xffff
   167cc:	0000                	unimp
	...

000167d0 <_GLOBAL_OFFSET_TABLE_>:
   167d0:	0000                	unimp
   167d2:	0000                	unimp
   167d4:	639c                	flw	fa5,0(a5)
   167d6:	0001                	nop
   167d8:	6394                	flw	fa3,0(a5)
   167da:	0001                	nop
   167dc:	6ba4                	flw	fs1,80(a5)
   167de:	0001                	nop
   167e0:	6398                	flw	fa4,0(a5)
   167e2:	0001                	nop
   167e4:	6390                	flw	fa2,0(a5)
   167e6:	0001                	nop

Disassembly of section .sdata:

000167e8 <__SDATA_BEGIN__>:
   167e8:	0f80                	addi	s0,sp,976
   167ea:	3fc9                	jal	167bc <impure_data+0x41c>
   167ec:	37354443          	fmadd.q	fs0,fa0,fs3,ft6,rmm
   167f0:	4400                	lw	s0,8(s0)
   167f2:	3735                	jal	1671e <impure_data+0x37e>
   167f4:	a308                	fsd	fa0,0(a4)
   167f6:	2e85                	jal	16b66 <_ZL11consoleText+0x2ca>
   167f8:	f984                	fsw	fs1,48(a1)
   167fa:	3f22                	fld	ft10,40(sp)
   167fc:	0000                	unimp
   167fe:	3f00                	fld	fs0,56(a4)
   16800:	a300                	fsd	fs0,0(a4)
   16802:	2e85                	jal	16b72 <_ZL11consoleText+0x2d6>
   16804:	3132                	fld	ft2,296(sp)
   16806:	248d                	jal	16a68 <_ZL11consoleText+0x1cc>
   16808:	0000                	unimp
   1680a:	4380                	lw	s0,0(a5)
   1680c:	0000                	unimp
   1680e:	3f38                	fld	fa4,120(a4)
   16810:	0000                	unimp
   16812:	3e90                	fld	fa2,56(a3)
   16814:	0000                	unimp
   16816:	3f80                	fld	fs0,56(a5)
   16818:	d74e                	sw	s3,172(sp)
   1681a:	74f6ad47          	0x74f6ad47
   1681e:	f27c310f          	0xf27c310f
   16822:	0d01b493          	sltiu	s1,gp,208
   16826:	37d0                	fld	fa2,168(a5)
   16828:	0b61                	addi	s6,s6,24
   1682a:	bab6                	fsd	fa3,368(sp)
   1682c:	3d2aaaab          	0x3d2aaaab
   16830:	0000                	unimp
   16832:	3fc9                	jal	16804 <__SDATA_BEGIN__+0x1c>
   16834:	0000                	unimp
   16836:	3b80                	fld	fs0,48(a5)
   16838:	0000                	unimp
   1683a:	3e00                	fld	fs0,56(a2)
   1683c:	0000                	unimp
   1683e:	4100                	lw	s0,0(a0)
   16840:	2f2ec9d3          	0x2f2ec9d3
   16844:	2f34                	fld	fa3,88(a4)
   16846:	ef1bb2d7          	0xef1bb2d7
   1684a:	3638                	fld	fa4,104(a2)
   1684c:	0d01                	addi	s10,s10,0
   1684e:	b950                	fsd	fa2,176(a0)
   16850:	8889                	andi	s1,s1,2
   16852:	3c08                	fld	fa0,56(s0)
   16854:	be2aaaab          	0xbe2aaaab
   16858:	3e2aaaab          	0x3e2aaaab
   1685c:	0000                	unimp
   1685e:	bf80                	fsd	fs0,56(a5)
   16860:	f2ca                	fsw	fs2,100(sp)
   16862:	7149                	addi	sp,sp,-368
   16864:	0000                	unimp
   16866:	4c00                	lw	s0,24(s0)
   16868:	4260                	lw	s0,68(a2)
   1686a:	0da2                	slli	s11,s11,0x8
   1686c:	0000                	unimp
   1686e:	3300                	fld	fs0,32(a4)

00016870 <_global_impure_ptr>:
   16870:	63a0                	flw	fs0,64(a5)
   16872:	0001                	nop

00016874 <_impure_ptr>:
   16874:	63a0                	flw	fs0,64(a5)
   16876:	0001                	nop

Disassembly of section .bss:

00016878 <completed.1>:
   16878:	0000                	unimp
	...

0001687c <object.0>:
	...

00016894 <_ZZ13drawparticlesPsE12spawnerindex>:
   16894:	0000                	unimp
	...

00016898 <_ZZ13drawparticlesPsE5proll>:
   16898:	0000                	unimp
	...

0001689c <_ZL11consoleText>:
	...

00016b9c <_ZL7cursorx>:
   16b9c:	0000                	unimp
	...

00016ba0 <_ZL7cursory>:
   16ba0:	0000                	unimp
	...

00016ba4 <font>:
   16ba4:	0000                	unimp
	...

Disassembly of section .comment:

00000000 <.comment>:
   0:	3a434347          	fmsub.d	ft6,ft6,ft4,ft7,rmm
   4:	2820                	fld	fs0,80(s0)
   6:	29554e47          	fmsub.s	ft8,fa0,fs5,ft5,rmm
   a:	3120                	fld	fs0,96(a0)
   c:	2e30                	fld	fa2,88(a2)
   e:	2e32                	fld	ft8,264(sp)
  10:	0030                	addi	a2,sp,8

Disassembly of section .riscv.attributes:

00000000 <.riscv.attributes>:
   0:	2941                	jal	490 <main-0xfbe4>
   2:	0000                	unimp
   4:	7200                	flw	fs0,32(a2)
   6:	7369                	lui	t1,0xffffa
   8:	01007663          	bgeu	zero,a6,14 <main-0x10060>
   c:	001f 0000 1004      	0x10040000001f
  12:	7205                	lui	tp,0xfffe1
  14:	3376                	fld	ft6,376(sp)
  16:	6932                	flw	fs2,12(sp)
  18:	7032                	flw	ft0,44(sp)
  1a:	5f30                	lw	a2,120(a4)
  1c:	326d                	jal	fffff9c6 <__BSS_END__+0xfffe8e1e>
  1e:	3070                	fld	fa2,224(s0)
  20:	665f 7032 0030      	0x307032665f
  26:	0108                	addi	a0,sp,128
  28:	0b0a                	slli	s6,s6,0x2

Disassembly of section .debug_aranges:

00000000 <.debug_aranges>:
   0:	001c                	0x1c
   2:	0000                	unimp
   4:	0002                	c.slli64	zero
   6:	0000                	unimp
   8:	0000                	unimp
   a:	0004                	0x4
   c:	0000                	unimp
   e:	0000                	unimp
  10:	2e2c                	fld	fa1,88(a2)
  12:	0001                	nop
  14:	0434                	addi	a3,sp,520
	...
  1e:	0000                	unimp
  20:	0014                	0x14
  22:	0000                	unimp
  24:	0002                	c.slli64	zero
  26:	07b2                	slli	a5,a5,0xc
  28:	0000                	unimp
  2a:	0004                	0x4
	...

Disassembly of section .debug_info:

00000000 <.debug_info>:
   0:	07ae                	slli	a5,a5,0xb
   2:	0000                	unimp
   4:	0004                	0x4
   6:	0000                	unimp
   8:	0000                	unimp
   a:	0104                	addi	s1,sp,128
   c:	0000008f          	0x8f
  10:	200c                	fld	fa1,0(s0)
  12:	0000                	unimp
  14:	0000                	unimp
  16:	0002                	c.slli64	zero
  18:	2c00                	fld	fs0,24(s0)
  1a:	012e                	slli	sp,sp,0xb
  1c:	3400                	fld	fs0,40(s0)
  1e:	0004                	0x4
  20:	0000                	unimp
  22:	0000                	unimp
  24:	0200                	addi	s0,sp,256
  26:	0708                	addi	a0,sp,896
  28:	0078                	addi	a4,sp,12
  2a:	0000                	unimp
  2c:	0402                	c.slli64	s0
  2e:	00008207          	0x8207
  32:	0300                	addi	s0,sp,384
  34:	0504                	addi	s1,sp,640
  36:	6e69                	lui	t3,0x1a
  38:	0074                	addi	a3,sp,12
  3a:	0802                	c.slli64	a6
  3c:	6a05                	lui	s4,0x1
  3e:	0000                	unimp
  40:	0200                	addi	s0,sp,256
  42:	0410                	addi	a2,sp,512
  44:	01f4                	addi	a3,sp,204
  46:	0000                	unimp
  48:	0102                	c.slli64	sp
  4a:	7506                	flw	fa0,96(sp)
  4c:	0001                	nop
  4e:	0200                	addi	s0,sp,256
  50:	0801                	addi	a6,a6,0
  52:	00000173          	0x173
  56:	0202                	c.slli64	tp
  58:	5605                	li	a2,-31
  5a:	0000                	unimp
  5c:	0200                	addi	s0,sp,256
  5e:	0702                	c.slli64	a4
  60:	01a6                	slli	gp,gp,0x9
  62:	0000                	unimp
  64:	0402                	c.slli64	s0
  66:	6f05                	lui	t5,0x1
  68:	0000                	unimp
  6a:	0200                	addi	s0,sp,256
  6c:	0704                	addi	s1,sp,896
  6e:	007d                	c.nop	31
  70:	0000                	unimp
  72:	0102                	c.slli64	sp
  74:	7c08                	flw	fa0,56(s0)
  76:	0001                	nop
  78:	0400                	addi	s0,sp,512
  7a:	0195                	addi	gp,gp,5
  7c:	0000                	unimp
  7e:	7b02                	flw	fs6,32(sp)
  80:	4f16                	lw	t5,68(sp)
  82:	0000                	unimp
  84:	0500                	addi	s0,sp,640
  86:	0079                	c.nop	30
  88:	0000                	unimp
  8a:	7204                	flw	fs1,32(a2)
  8c:	0002                	c.slli64	zero
  8e:	0200                	addi	s0,sp,256
  90:	0f80                	addi	s0,sp,976
  92:	00000033          	add	zero,zero,zero
  96:	7104                	flw	fs1,32(a0)
  98:	0002                	c.slli64	zero
  9a:	0200                	addi	s0,sp,256
  9c:	1681                	addi	a3,a3,-32
  9e:	002c                	addi	a1,sp,8
  a0:	0000                	unimp
  a2:	ba04                	fsd	fs1,48(a2)
  a4:	0001                	nop
  a6:	0200                	addi	s0,sp,256
  a8:	0f84                	addi	s1,sp,976
  aa:	003a                	c.slli	zero,0xe
  ac:	0000                	unimp
  ae:	b904                	fsd	fs1,48(a0)
  b0:	0001                	nop
  b2:	0200                	addi	s0,sp,256
  b4:	1685                	addi	a3,a3,-31
  b6:	0025                	c.nop	9
  b8:	0000                	unimp
  ba:	0402                	c.slli64	s0
  bc:	1a04                	addi	s1,sp,304
  be:	0000                	unimp
  c0:	0200                	addi	s0,sp,256
  c2:	0308                	addi	a0,sp,384
  c4:	0012                	c.slli	zero,0x4
  c6:	0000                	unimp
  c8:	0802                	c.slli64	a6
  ca:	f904                	fsw	fs1,48(a0)
  cc:	0001                	nop
  ce:	0200                	addi	s0,sp,256
  d0:	0310                	addi	a2,sp,384
  d2:	000001cb          	fnmsub.s	ft3,ft0,ft0,ft0,rne
  d6:	2002                	fld	ft0,0(sp)
  d8:	0001ec03          	0x1ec03
  dc:	0600                	addi	s0,sp,768
  de:	019d                	addi	gp,gp,7
  e0:	0000                	unimp
  e2:	0208                	addi	a0,sp,256
  e4:	01ed                	addi	gp,gp,27
  e6:	080a                	slli	a6,a6,0x2
  e8:	0001                	nop
  ea:	0700                	addi	s0,sp,896
  ec:	6f6c                	flw	fa1,92(a4)
  ee:	ed020077          	0xed020077
  f2:	1a01                	addi	s4,s4,-32
  f4:	008a                	slli	ra,ra,0x2
  f6:	0000                	unimp
  f8:	0800                	addi	s0,sp,16
  fa:	0164                	addi	s1,sp,140
  fc:	0000                	unimp
  fe:	ed02                	fsw	ft0,152(sp)
 100:	1f01                	addi	t5,t5,-32
 102:	008a                	slli	ra,ra,0x2
 104:	0000                	unimp
 106:	0004                	0x4
 108:	0809                	addi	a6,a6,2
 10a:	f402                	fsw	ft0,40(sp)
 10c:	0901                	addi	s2,s2,0
 10e:	012a                	slli	sp,sp,0xa
 110:	0000                	unimp
 112:	730a                	flw	ft6,160(sp)
 114:	0200                	addi	s0,sp,256
 116:	01f6                	slli	gp,gp,0x1d
 118:	0000dd13          	srli	s10,ra,0x0
 11c:	0a00                	addi	s0,sp,272
 11e:	6c6c                	flw	fa1,92(s0)
 120:	0200                	addi	s0,sp,256
 122:	a20a01f7          	0xa20a01f7
 126:	0000                	unimp
 128:	0000                	unimp
 12a:	0000000b          	0xb
 12e:	0200                	addi	s0,sp,256
 130:	01f8                	addi	a4,sp,204
 132:	00010803          	lb	a6,0(sp)
 136:	0500                	addi	s0,sp,640
 138:	012a                	slli	sp,sp,0xa
 13a:	0000                	unimp
 13c:	850c                	0x850c
 13e:	0000                	unimp
 140:	4c00                	lw	s0,24(s0)
 142:	0001                	nop
 144:	0d00                	addi	s0,sp,656
 146:	002c                	addi	a1,sp,8
 148:	0000                	unimp
 14a:	00ff                	0xff
 14c:	3c05                	jal	fffffb7c <__BSS_END__+0xfffe8fd4>
 14e:	0001                	nop
 150:	0e00                	addi	s0,sp,784
 152:	0169                	addi	sp,sp,26
 154:	0000                	unimp
 156:	0202                	c.slli64	tp
 158:	1602                	slli	a2,a2,0x20
 15a:	014c                	addi	a1,sp,132
 15c:	0000                	unimp
 15e:	0000080f          	0x80f
 162:	0100                	addi	s0,sp,128
 164:	0526                	slli	a0,a0,0x9
 166:	ae01                	j	476 <main-0xfbfe>
 168:	0000                	unimp
 16a:	2c00                	fld	fs0,24(s0)
 16c:	012e                	slli	sp,sp,0xb
 16e:	3400                	fld	fs0,40(s0)
 170:	0004                	0x4
 172:	0100                	addi	s0,sp,128
 174:	3a9c                	fld	fa5,48(a3)
 176:	0004                	0x4
 178:	1000                	addi	s0,sp,32
 17a:	006e                	c.slli	zero,0x1b
 17c:	2601                	jal	47c <main-0xfbf8>
 17e:	1405                	addi	s0,s0,-31
 180:	00ae                	slli	ra,ra,0xb
 182:	0000                	unimp
 184:	0000                	unimp
 186:	0000                	unimp
 188:	6410                	flw	fa2,8(s0)
 18a:	0100                	addi	s0,sp,128
 18c:	0526                	slli	a0,a0,0x9
 18e:	ae1f 0000 2800      	0x28000000ae1f
 194:	0000                	unimp
 196:	1100                	addi	s0,sp,160
 198:	043a                	slli	s0,s0,0xe
 19a:	0000                	unimp
 19c:	2e30                	fld	fa2,88(a2)
 19e:	0001                	nop
 1a0:	0000                	unimp
 1a2:	0000                	unimp
 1a4:	2801                	jal	1b4 <main-0xfec0>
 1a6:	0a05                	addi	s4,s4,1
 1a8:	6212                	flw	ft4,4(sp)
 1aa:	0004                	0x4
 1ac:	c000                	sw	s0,0(s0)
 1ae:	0000                	unimp
 1b0:	1200                	addi	s0,sp,288
 1b2:	00000457          	0x457
 1b6:	00e0                	addi	s0,sp,76
 1b8:	0000                	unimp
 1ba:	4c12                	lw	s8,4(sp)
 1bc:	0004                	0x4
 1be:	9800                	0x9800
 1c0:	0001                	nop
 1c2:	1300                	addi	s0,sp,416
 1c4:	0000                	unimp
 1c6:	0000                	unimp
 1c8:	6e14                	flw	fa3,24(a2)
 1ca:	0004                	0x4
 1cc:	1400                	addi	s0,sp,544
 1ce:	047a                	slli	s0,s0,0x1e
 1d0:	0000                	unimp
 1d2:	8614                	0x8614
 1d4:	0004                	0x4
 1d6:	1500                	addi	s0,sp,672
 1d8:	0492                	slli	s1,s1,0x4
 1da:	0000                	unimp
 1dc:	0260                	addi	s0,sp,268
 1de:	0000                	unimp
 1e0:	9e15                	0x9e15
 1e2:	0004                	0x4
 1e4:	0600                	addi	s0,sp,768
 1e6:	15000003          	lb	zero,336(zero) # 150 <main-0xff24>
 1ea:	04aa                	slli	s1,s1,0xa
 1ec:	0000                	unimp
 1ee:	0392                	slli	t2,t2,0x4
 1f0:	0000                	unimp
 1f2:	b615                	j	fffffd16 <__BSS_END__+0xfffe916e>
 1f4:	0004                	0x4
 1f6:	0200                	addi	s0,sp,256
 1f8:	0004                	0x4
 1fa:	1500                	addi	s0,sp,672
 1fc:	04c2                	slli	s1,s1,0x10
 1fe:	0000                	unimp
 200:	04ba                	slli	s1,s1,0xe
 202:	0000                	unimp
 204:	ce15                	beqz	a2,240 <main-0xfe34>
 206:	0004                	0x4
 208:	d800                	sw	s0,48(s0)
 20a:	0004                	0x4
 20c:	1500                	addi	s0,sp,672
 20e:	04da                	slli	s1,s1,0x16
 210:	0000                	unimp
 212:	04f6                	slli	s1,s1,0x1d
 214:	0000                	unimp
 216:	e615                	bnez	a2,242 <main-0xfe32>
 218:	0004                	0x4
 21a:	2000                	fld	fs0,0(s0)
 21c:	0005                	c.nop	1
 21e:	1500                	addi	s0,sp,672
 220:	04f1                	addi	s1,s1,28
 222:	0000                	unimp
 224:	053e                	slli	a0,a0,0xf
 226:	0000                	unimp
 228:	fd14                	fsw	fa3,56(a0)
 22a:	0004                	0x4
 22c:	1600                	addi	s0,sp,800
 22e:	0509                	addi	a0,a0,2
 230:	0000                	unimp
 232:	0028                	addi	a0,sp,8
 234:	0000                	unimp
 236:	024d                	addi	tp,tp,19
 238:	0000                	unimp
 23a:	0e15                	addi	t3,t3,5
 23c:	0005                	c.nop	1
 23e:	7d00                	flw	fs0,56(a0)
 240:	0005                	c.nop	1
 242:	1500                	addi	s0,sp,672
 244:	0000051b          	0x51b
 248:	05b9                	addi	a1,a1,14
 24a:	0000                	unimp
 24c:	1700                	addi	s0,sp,928
 24e:	0529                	addi	a0,a0,10
 250:	0000                	unimp
 252:	2e94                	fld	fa3,24(a3)
 254:	0001                	nop
 256:	0088                	addi	a0,sp,64
 258:	0000                	unimp
 25a:	029e                	slli	t0,t0,0x7
 25c:	0000                	unimp
 25e:	2e15                	jal	592 <main-0xfae2>
 260:	0005                	c.nop	1
 262:	cc00                	sw	s0,24(s0)
 264:	0005                	c.nop	1
 266:	1500                	addi	s0,sp,672
 268:	0000053b          	0x53b
 26c:	05df 0000 4815      	0x4815000005df
 272:	0005                	c.nop	1
 274:	0300                	addi	s0,sp,384
 276:	0006                	c.slli	zero,0x1
 278:	1500                	addi	s0,sp,672
 27a:	0555                	addi	a0,a0,21
 27c:	0000                	unimp
 27e:	0621                	addi	a2,a2,8
 280:	0000                	unimp
 282:	6215                	lui	tp,0x5
 284:	0005                	c.nop	1
 286:	3f00                	fld	fs0,56(a4)
 288:	0006                	c.slli	zero,0x1
 28a:	1500                	addi	s0,sp,672
 28c:	0000056f          	jal	a0,28c <main-0xfde8>
 290:	067a                	slli	a2,a2,0x1e
 292:	0000                	unimp
 294:	7c15                	lui	s8,0xfffe5
 296:	0005                	c.nop	1
 298:	9800                	0x9800
 29a:	0006                	c.slli	zero,0x1
 29c:	0000                	unimp
 29e:	9f16                	add	t5,t5,t0
 2a0:	0006                	c.slli	zero,0x1
 2a2:	4000                	lw	s0,0(s0)
 2a4:	0000                	unimp
 2a6:	5d00                	lw	s0,56(a0)
 2a8:	15000003          	lb	zero,336(zero) # 150 <main-0xff24>
 2ac:	06a0                	addi	s0,sp,840
 2ae:	0000                	unimp
 2b0:	06b6                	slli	a3,a3,0xd
 2b2:	0000                	unimp
 2b4:	ac15                	j	4e8 <main-0xfb8c>
 2b6:	0006                	c.slli	zero,0x1
 2b8:	c900                	sw	s0,16(a0)
 2ba:	0006                	c.slli	zero,0x1
 2bc:	1600                	addi	s0,sp,800
 2be:	06b8                	addi	a4,sp,840
 2c0:	0000                	unimp
 2c2:	0058                	addi	a4,sp,4
 2c4:	0000                	unimp
 2c6:	030a                	slli	t1,t1,0x2
 2c8:	0000                	unimp
 2ca:	bd15                	j	fe <main-0xff76>
 2cc:	0006                	c.slli	zero,0x1
 2ce:	0a00                	addi	s0,sp,272
 2d0:	15000007          	0x15000007
 2d4:	06ca                	slli	a3,a3,0x12
 2d6:	0000                	unimp
 2d8:	072c                	addi	a1,sp,904
 2da:	0000                	unimp
 2dc:	d715                	beqz	a4,208 <main-0xfe6c>
 2de:	0006                	c.slli	zero,0x1
 2e0:	5000                	lw	s0,32(s0)
 2e2:	15000007          	0x15000007
 2e6:	06e4                	addi	s1,sp,844
 2e8:	0000                	unimp
 2ea:	076e                	slli	a4,a4,0x1b
 2ec:	0000                	unimp
 2ee:	f115                	bnez	a0,212 <main-0xfe62>
 2f0:	0006                	c.slli	zero,0x1
 2f2:	8c00                	0x8c00
 2f4:	15000007          	0x15000007
 2f8:	06fe                	slli	a3,a3,0x1f
 2fa:	0000                	unimp
 2fc:	000007c7          	fmsub.s	fa5,ft0,ft0,ft0,rne
 300:	0b15                	addi	s6,s6,5
 302:	f0000007          	0xf0000007
 306:	00000007          	0x7
 30a:	1918                	addi	a4,sp,176
 30c:	80000007          	0x80000007
 310:	0000                	unimp
 312:	1500                	addi	s0,sp,672
 314:	071e                	slli	a4,a4,0x7
 316:	0000                	unimp
 318:	080e                	slli	a6,a6,0x3
 31a:	0000                	unimp
 31c:	2b15                	jal	850 <main-0xf824>
 31e:	21000007          	0x21000007
 322:	0008                	0x8
 324:	1500                	addi	s0,sp,672
 326:	0738                	addi	a4,sp,904
 328:	0000                	unimp
 32a:	0874                	addi	a3,sp,28
 32c:	0000                	unimp
 32e:	4515                	li	a0,5
 330:	87000007          	0x87000007
 334:	0008                	0x8
 336:	1500                	addi	s0,sp,672
 338:	0752                	slli	a4,a4,0x14
 33a:	0000                	unimp
 33c:	089a                	slli	a7,a7,0x6
 33e:	0000                	unimp
 340:	5f15                	li	t5,-27
 342:	ed000007          	0xed000007
 346:	0008                	0x8
 348:	1500                	addi	s0,sp,672
 34a:	076c                	addi	a1,sp,908
 34c:	0000                	unimp
 34e:	0900                	addi	s0,sp,144
 350:	0000                	unimp
 352:	7915                	lui	s2,0xfffe5
 354:	31000007          	0x31000007
 358:	0009                	c.nop	2
 35a:	0000                	unimp
 35c:	1600                	addi	s0,sp,800
 35e:	058a                	slli	a1,a1,0x2
 360:	0000                	unimp
 362:	00b0                	addi	a2,sp,72
 364:	0000                	unimp
 366:	037d                	addi	t1,t1,31
 368:	0000                	unimp
 36a:	8f15                	sub	a4,a4,a3
 36c:	0005                	c.nop	1
 36e:	4400                	lw	s0,8(s0)
 370:	0009                	c.nop	2
 372:	1500                	addi	s0,sp,672
 374:	059c                	addi	a5,sp,704
 376:	0000                	unimp
 378:	0980                	addi	s0,sp,208
 37a:	0000                	unimp
 37c:	1700                	addi	s0,sp,928
 37e:	0000060b          	0x60b
 382:	2f7c                	fld	fa5,216(a4)
 384:	0001                	nop
 386:	0088                	addi	a0,sp,64
 388:	0000                	unimp
 38a:	03ce                	slli	t2,t2,0x13
 38c:	0000                	unimp
 38e:	1015                	c.nop	-27
 390:	0006                	c.slli	zero,0x1
 392:	9e00                	0x9e00
 394:	0009                	c.nop	2
 396:	1500                	addi	s0,sp,672
 398:	061d                	addi	a2,a2,7
 39a:	0000                	unimp
 39c:	09b1                	addi	s3,s3,12
 39e:	0000                	unimp
 3a0:	2a15                	jal	4d4 <main-0xfba0>
 3a2:	0006                	c.slli	zero,0x1
 3a4:	d500                	sw	s0,40(a0)
 3a6:	0009                	c.nop	2
 3a8:	1500                	addi	s0,sp,672
 3aa:	00000637          	lui	a2,0x0
 3ae:	000009f3          	0x9f3
 3b2:	4415                	li	s0,5
 3b4:	0006                	c.slli	zero,0x1
 3b6:	1100                	addi	s0,sp,160
 3b8:	000a                	c.slli	zero,0x2
 3ba:	1500                	addi	s0,sp,672
 3bc:	0651                	addi	a2,a2,20
 3be:	0000                	unimp
 3c0:	0a4c                	addi	a1,sp,276
 3c2:	0000                	unimp
 3c4:	5e15                	li	t3,-27
 3c6:	0006                	c.slli	zero,0x1
 3c8:	6a00                	flw	fs0,16(a2)
 3ca:	000a                	c.slli	zero,0x2
 3cc:	0000                	unimp
 3ce:	aa16                	fsd	ft5,272(sp)
 3d0:	0005                	c.nop	1
 3d2:	c800                	sw	s0,16(s0)
 3d4:	0000                	unimp
 3d6:	1b00                	addi	s0,sp,432
 3d8:	0004                	0x4
 3da:	1500                	addi	s0,sp,672
 3dc:	000005af          	0x5af
 3e0:	0a88                	addi	a0,sp,336
 3e2:	0000                	unimp
 3e4:	bc15                	j	fffffe18 <__BSS_END__+0xfffe9270>
 3e6:	0005                	c.nop	1
 3e8:	9b00                	0x9b00
 3ea:	000a                	c.slli	zero,0x2
 3ec:	1500                	addi	s0,sp,672
 3ee:	05c9                	addi	a1,a1,18
 3f0:	0000                	unimp
 3f2:	00000abf 0005d615 	0x5d61500000abf
 3fa:	dd00                	sw	s0,56(a0)
 3fc:	000a                	c.slli	zero,0x2
 3fe:	1500                	addi	s0,sp,672
 400:	000005e3          	beqz	zero,c0a <main-0xf46a>
 404:	00000afb          	0xafb
 408:	f015                	bnez	s0,32c <main-0xfd48>
 40a:	0005                	c.nop	1
 40c:	2f00                	fld	fs0,24(a4)
 40e:	1500000b          	0x1500000b
 412:	05fd                	addi	a1,a1,31
 414:	0000                	unimp
 416:	0b58                	addi	a4,sp,404
 418:	0000                	unimp
 41a:	1800                	addi	s0,sp,48
 41c:	066c                	addi	a1,sp,780
 41e:	0000                	unimp
 420:	00e0                	addi	s0,sp,76
 422:	0000                	unimp
 424:	7115                	addi	sp,sp,-224
 426:	0006                	c.slli	zero,0x1
 428:	8600                	0x8600
 42a:	1500000b          	0x1500000b
 42e:	067e                	slli	a2,a2,0x1f
 430:	0000                	unimp
 432:	0bba                	slli	s7,s7,0xe
 434:	0000                	unimp
 436:	0000                	unimp
 438:	0000                	unimp
 43a:	df19                	beqz	a4,358 <main-0xfd1c>
 43c:	0001                	nop
 43e:	0100                	addi	s0,sp,128
 440:	ae0103f7          	0xae0103f7
 444:	0000                	unimp
 446:	0300                	addi	s0,sp,384
 448:	000007ab          	0x7ab
 44c:	6e1a                	flw	ft8,132(sp)
 44e:	0100                	addi	s0,sp,128
 450:	ae1703f7          	0xae1703f7
 454:	0000                	unimp
 456:	1a00                	addi	s0,sp,304
 458:	0064                	addi	s1,sp,12
 45a:	f701                	bnez	a4,362 <main-0xfd12>
 45c:	00ae2203          	lw	tp,10(t3) # 1a00a <__BSS_END__+0x3462>
 460:	0000                	unimp
 462:	721a                	flw	ft4,164(sp)
 464:	0070                	addi	a2,sp,12
 466:	f701                	bnez	a4,36e <main-0xfd06>
 468:	07ab2e03          	lw	t3,122(s6)
 46c:	0000                	unimp
 46e:	006e6e1b          	0x6e6e1b
 472:	f901                	bnez	a0,382 <main-0xfcf2>
 474:	01371103          	lh	sp,19(a4)
 478:	0000                	unimp
 47a:	0064641b          	0x64641b
 47e:	fa01                	bnez	a2,38e <main-0xfce6>
 480:	01371103          	lh	sp,19(a4)
 484:	0000                	unimp
 486:	0072721b          	0x72721b
 48a:	fb01                	bnez	a4,39a <main-0xfcda>
 48c:	012a0b03          	lb	s6,18(s4) # 1012 <main-0xf062>
 490:	0000                	unimp
 492:	0030641b          	0x30641b
 496:	fc01                	bnez	s0,3ae <main-0xfcc6>
 498:	00960a03          	lb	s4,9(a2) # 9 <main-0x1006b>
 49c:	0000                	unimp
 49e:	0031641b          	0x31641b
 4a2:	fc01                	bnez	s0,3ba <main-0xfcba>
 4a4:	00960e03          	lb	t3,9(a2)
 4a8:	0000                	unimp
 4aa:	00306e1b          	0x306e1b
 4ae:	fc01                	bnez	s0,3c6 <main-0xfcae>
 4b0:	00961203          	lh	tp,9(a2)
 4b4:	0000                	unimp
 4b6:	00316e1b          	0x316e1b
 4ba:	fc01                	bnez	s0,3d2 <main-0xfca2>
 4bc:	00961603          	lh	a2,9(a2)
 4c0:	0000                	unimp
 4c2:	00326e1b          	0x326e1b
 4c6:	fc01                	bnez	s0,3de <main-0xfc96>
 4c8:	00961a03          	lh	s4,9(a2)
 4cc:	0000                	unimp
 4ce:	0030711b          	0x30711b
 4d2:	fd01                	bnez	a0,3ea <main-0xfc8a>
 4d4:	00960a03          	lb	s4,9(a2)
 4d8:	0000                	unimp
 4da:	0031711b          	0x31711b
 4de:	fd01                	bnez	a0,3f6 <main-0xfc7e>
 4e0:	00960e03          	lb	t3,9(a2)
 4e4:	0000                	unimp
 4e6:	0100621b          	0x100621b
 4ea:	03fe                	slli	t2,t2,0x1f
 4ec:	960a                	add	a2,a2,sp
 4ee:	0000                	unimp
 4f0:	1b00                	addi	s0,sp,432
 4f2:	6d62                	flw	fs10,24(sp)
 4f4:	0100                	addi	s0,sp,128
 4f6:	03fe                	slli	t2,t2,0x1f
 4f8:	960d                	srai	a2,a2,0x23
 4fa:	0000                	unimp
 4fc:	1b00                	addi	s0,sp,432
 4fe:	01007777          	0x1007777
 502:	371104c7          	fmsub.q	fs1,ft2,fa7,ft6,rne
 506:	0001                	nop
 508:	1c00                	addi	s0,sp,560
 50a:	0529                	addi	a0,a0,10
 50c:	0000                	unimp
 50e:	da1d                	beqz	a2,444 <main-0xfc30>
 510:	0001                	nop
 512:	0100                	addi	s0,sp,128
 514:	042e                	slli	s0,s0,0xb
 516:	9604                	0x9604
 518:	0000                	unimp
 51a:	1b00                	addi	s0,sp,432
 51c:	5f5f 0061 2e01      	0x2e0100615f5f
 522:	0404                	addi	s1,sp,512
 524:	0096                	slli	ra,ra,0x5
 526:	0000                	unimp
 528:	1c00                	addi	s0,sp,560
 52a:	058a                	slli	a1,a1,0x2
 52c:	0000                	unimp
 52e:	511d                	li	sp,-25
 530:	0000                	unimp
 532:	0100                	addi	s0,sp,128
 534:	043a                	slli	s0,s0,0xe
 536:	9604                	0x9604
 538:	0000                	unimp
 53a:	1d00                	addi	s0,sp,688
 53c:	004c                	addi	a1,sp,4
 53e:	0000                	unimp
 540:	3a01                	jal	fffffe50 <__BSS_END__+0xfffe92a8>
 542:	0404                	addi	s1,sp,512
 544:	0096                	slli	ra,ra,0x5
 546:	0000                	unimp
 548:	c61d                	beqz	a2,576 <main-0xfafe>
 54a:	0001                	nop
 54c:	0100                	addi	s0,sp,128
 54e:	043a                	slli	s0,s0,0xe
 550:	9604                	0x9604
 552:	0000                	unimp
 554:	1d00                	addi	s0,sp,688
 556:	01c1                	addi	gp,gp,16
 558:	0000                	unimp
 55a:	3a01                	jal	fffffe6a <__BSS_END__+0xfffe92c2>
 55c:	0404                	addi	s1,sp,512
 55e:	0096                	slli	ra,ra,0x5
 560:	0000                	unimp
 562:	7e1d                	lui	t3,0xfffe7
 564:	0002                	c.slli64	zero
 566:	0100                	addi	s0,sp,128
 568:	043a                	slli	s0,s0,0xe
 56a:	9604                	0x9604
 56c:	0000                	unimp
 56e:	1d00                	addi	s0,sp,688
 570:	0279                	addi	tp,tp,30
 572:	0000                	unimp
 574:	3a01                	jal	fffffe84 <__BSS_END__+0xfffe92dc>
 576:	0404                	addi	s1,sp,512
 578:	0096                	slli	ra,ra,0x5
 57a:	0000                	unimp
 57c:	6d5f5f1b          	0x6d5f5f1b
 580:	0100                	addi	s0,sp,128
 582:	043a                	slli	s0,s0,0xe
 584:	9604                	0x9604
 586:	0000                	unimp
 588:	0000                	unimp
 58a:	aa1c                	fsd	fa5,16(a2)
 58c:	0005                	c.nop	1
 58e:	1d00                	addi	s0,sp,688
 590:	01da                	slli	gp,gp,0x16
 592:	0000                	unimp
 594:	4601                	li	a2,0
 596:	0404                	addi	s1,sp,512
 598:	0096                	slli	ra,ra,0x5
 59a:	0000                	unimp
 59c:	615f5f1b          	0x615f5f1b
 5a0:	0100                	addi	s0,sp,128
 5a2:	0446                	slli	s0,s0,0x11
 5a4:	9604                	0x9604
 5a6:	0000                	unimp
 5a8:	0000                	unimp
 5aa:	0b1c                	addi	a5,sp,400
 5ac:	0006                	c.slli	zero,0x1
 5ae:	1d00                	addi	s0,sp,688
 5b0:	0051                	c.nop	20
 5b2:	0000                	unimp
 5b4:	5f01                	li	t5,-32
 5b6:	0804                	addi	s1,sp,16
 5b8:	0096                	slli	ra,ra,0x5
 5ba:	0000                	unimp
 5bc:	4c1d                	li	s8,7
 5be:	0000                	unimp
 5c0:	0100                	addi	s0,sp,128
 5c2:	045f 9608 0000      	0x9608045f
 5c8:	1d00                	addi	s0,sp,688
 5ca:	01c6                	slli	gp,gp,0x11
 5cc:	0000                	unimp
 5ce:	5f01                	li	t5,-32
 5d0:	0804                	addi	s1,sp,16
 5d2:	0096                	slli	ra,ra,0x5
 5d4:	0000                	unimp
 5d6:	c11d                	beqz	a0,5fc <main-0xfa78>
 5d8:	0001                	nop
 5da:	0100                	addi	s0,sp,128
 5dc:	045f 9608 0000      	0x9608045f
 5e2:	1d00                	addi	s0,sp,688
 5e4:	027e                	slli	tp,tp,0x1f
 5e6:	0000                	unimp
 5e8:	5f01                	li	t5,-32
 5ea:	0804                	addi	s1,sp,16
 5ec:	0096                	slli	ra,ra,0x5
 5ee:	0000                	unimp
 5f0:	791d                	lui	s2,0xfffe7
 5f2:	0002                	c.slli64	zero
 5f4:	0100                	addi	s0,sp,128
 5f6:	045f 9608 0000      	0x9608045f
 5fc:	1b00                	addi	s0,sp,432
 5fe:	5f5f 006d 5f01      	0x5f01006d5f5f
 604:	0804                	addi	s1,sp,16
 606:	0096                	slli	ra,ra,0x5
 608:	0000                	unimp
 60a:	1c00                	addi	s0,sp,560
 60c:	066c                	addi	a1,sp,780
 60e:	0000                	unimp
 610:	511d                	li	sp,-25
 612:	0000                	unimp
 614:	0100                	addi	s0,sp,128
 616:	0464                	addi	s1,sp,524
 618:	9604                	0x9604
 61a:	0000                	unimp
 61c:	1d00                	addi	s0,sp,688
 61e:	004c                	addi	a1,sp,4
 620:	0000                	unimp
 622:	6401                	0x6401
 624:	0404                	addi	s1,sp,512
 626:	0096                	slli	ra,ra,0x5
 628:	0000                	unimp
 62a:	c61d                	beqz	a2,658 <main-0xfa1c>
 62c:	0001                	nop
 62e:	0100                	addi	s0,sp,128
 630:	0464                	addi	s1,sp,524
 632:	9604                	0x9604
 634:	0000                	unimp
 636:	1d00                	addi	s0,sp,688
 638:	01c1                	addi	gp,gp,16
 63a:	0000                	unimp
 63c:	6401                	0x6401
 63e:	0404                	addi	s1,sp,512
 640:	0096                	slli	ra,ra,0x5
 642:	0000                	unimp
 644:	7e1d                	lui	t3,0xfffe7
 646:	0002                	c.slli64	zero
 648:	0100                	addi	s0,sp,128
 64a:	0464                	addi	s1,sp,524
 64c:	9604                	0x9604
 64e:	0000                	unimp
 650:	1d00                	addi	s0,sp,688
 652:	0279                	addi	tp,tp,30
 654:	0000                	unimp
 656:	6401                	0x6401
 658:	0404                	addi	s1,sp,512
 65a:	0096                	slli	ra,ra,0x5
 65c:	0000                	unimp
 65e:	6d5f5f1b          	0x6d5f5f1b
 662:	0100                	addi	s0,sp,128
 664:	0464                	addi	s1,sp,524
 666:	9604                	0x9604
 668:	0000                	unimp
 66a:	0000                	unimp
 66c:	8c1c                	0x8c1c
 66e:	0006                	c.slli	zero,0x1
 670:	1d00                	addi	s0,sp,688
 672:	01da                	slli	gp,gp,0x16
 674:	0000                	unimp
 676:	8701                	c.srai64	a4
 678:	0404                	addi	s1,sp,512
 67a:	0096                	slli	ra,ra,0x5
 67c:	0000                	unimp
 67e:	615f5f1b          	0x615f5f1b
 682:	0100                	addi	s0,sp,128
 684:	96040487          	0x96040487
 688:	0000                	unimp
 68a:	0000                	unimp
 68c:	9f1c                	0x9f1c
 68e:	0006                	c.slli	zero,0x1
 690:	1b00                	addi	s0,sp,432
 692:	5f5f 0078 9501      	0x950100785f5f
 698:	0504                	addi	s1,sp,640
 69a:	0096                	slli	ra,ra,0x5
 69c:	0000                	unimp
 69e:	1e00                	addi	s0,sp,816
 6a0:	00316d1b          	0x316d1b
 6a4:	a501                	j	ca4 <main-0xf3d0>
 6a6:	0f04                	addi	s1,sp,912
 6a8:	0096                	slli	ra,ra,0x5
 6aa:	0000                	unimp
 6ac:	00306d1b          	0x306d1b
 6b0:	a501                	j	cb0 <main-0xf3c4>
 6b2:	1304                	addi	s1,sp,416
 6b4:	0096                	slli	ra,ra,0x5
 6b6:	0000                	unimp
 6b8:	191c                	addi	a5,sp,176
 6ba:	1d000007          	0x1d000007
 6be:	0051                	c.nop	20
 6c0:	0000                	unimp
 6c2:	b001                	j	fffffec2 <__BSS_END__+0xfffe931a>
 6c4:	0804                	addi	s1,sp,16
 6c6:	0096                	slli	ra,ra,0x5
 6c8:	0000                	unimp
 6ca:	4c1d                	li	s8,7
 6cc:	0000                	unimp
 6ce:	0100                	addi	s0,sp,128
 6d0:	04b0                	addi	a2,sp,584
 6d2:	9608                	0x9608
 6d4:	0000                	unimp
 6d6:	1d00                	addi	s0,sp,688
 6d8:	01c6                	slli	gp,gp,0x11
 6da:	0000                	unimp
 6dc:	b001                	j	fffffedc <__BSS_END__+0xfffe9334>
 6de:	0804                	addi	s1,sp,16
 6e0:	0096                	slli	ra,ra,0x5
 6e2:	0000                	unimp
 6e4:	c11d                	beqz	a0,70a <main-0xf96a>
 6e6:	0001                	nop
 6e8:	0100                	addi	s0,sp,128
 6ea:	04b0                	addi	a2,sp,584
 6ec:	9608                	0x9608
 6ee:	0000                	unimp
 6f0:	1d00                	addi	s0,sp,688
 6f2:	027e                	slli	tp,tp,0x1f
 6f4:	0000                	unimp
 6f6:	b001                	j	fffffef6 <__BSS_END__+0xfffe934e>
 6f8:	0804                	addi	s1,sp,16
 6fa:	0096                	slli	ra,ra,0x5
 6fc:	0000                	unimp
 6fe:	791d                	lui	s2,0xfffe7
 700:	0002                	c.slli64	zero
 702:	0100                	addi	s0,sp,128
 704:	04b0                	addi	a2,sp,584
 706:	9608                	0x9608
 708:	0000                	unimp
 70a:	1b00                	addi	s0,sp,432
 70c:	5f5f 006d b001      	0xb001006d5f5f
 712:	0804                	addi	s1,sp,16
 714:	0096                	slli	ra,ra,0x5
 716:	0000                	unimp
 718:	1c00                	addi	s0,sp,560
 71a:	00000787          	0x787
 71e:	811d                	srli	a0,a0,0x7
 720:	0001                	nop
 722:	0100                	addi	s0,sp,128
 724:	04b1                	addi	s1,s1,12
 726:	9608                	0x9608
 728:	0000                	unimp
 72a:	1d00                	addi	s0,sp,688
 72c:	0186                	slli	gp,gp,0x1
 72e:	0000                	unimp
 730:	b101                	j	330 <main-0xfd44>
 732:	0804                	addi	s1,sp,16
 734:	0096                	slli	ra,ra,0x5
 736:	0000                	unimp
 738:	8b1d                	andi	a4,a4,7
 73a:	0001                	nop
 73c:	0100                	addi	s0,sp,128
 73e:	04b1                	addi	s1,s1,12
 740:	9608                	0x9608
 742:	0000                	unimp
 744:	1d00                	addi	s0,sp,688
 746:	0190                	addi	a2,sp,192
 748:	0000                	unimp
 74a:	b101                	j	34a <main-0xfd2a>
 74c:	0804                	addi	s1,sp,16
 74e:	0096                	slli	ra,ra,0x5
 750:	0000                	unimp
 752:	881d                	andi	s0,s0,7
 754:	0002                	c.slli64	zero
 756:	0100                	addi	s0,sp,128
 758:	04b1                	addi	s1,s1,12
 75a:	9608                	0x9608
 75c:	0000                	unimp
 75e:	1d00                	addi	s0,sp,688
 760:	0065                	c.nop	25
 762:	0000                	unimp
 764:	b101                	j	364 <main-0xfd10>
 766:	0804                	addi	s1,sp,16
 768:	0096                	slli	ra,ra,0x5
 76a:	0000                	unimp
 76c:	831d                	srli	a4,a4,0x7
 76e:	0002                	c.slli64	zero
 770:	0100                	addi	s0,sp,128
 772:	04b1                	addi	s1,s1,12
 774:	9608                	0x9608
 776:	0000                	unimp
 778:	1d00                	addi	s0,sp,688
 77a:	0060                	addi	s0,sp,12
 77c:	0000                	unimp
 77e:	b101                	j	37e <main-0xfcf6>
 780:	0804                	addi	s1,sp,16
 782:	0096                	slli	ra,ra,0x5
 784:	0000                	unimp
 786:	1c00                	addi	s0,sp,560
 788:	079a                	slli	a5,a5,0x6
 78a:	0000                	unimp
 78c:	785f5f1b          	0x785f5f1b
 790:	0100                	addi	s0,sp,128
 792:	04b6                	slli	s1,s1,0xd
 794:	9605                	srai	a2,a2,0x21
 796:	0000                	unimp
 798:	0000                	unimp
 79a:	1b1e                	slli	s6,s6,0x27
 79c:	5f5f 0078 be01      	0xbe0100785f5f
 7a2:	0504                	addi	s1,sp,640
 7a4:	0096                	slli	ra,ra,0x5
 7a6:	0000                	unimp
 7a8:	0000                	unimp
 7aa:	1f00                	addi	s0,sp,944
 7ac:	ae04                	fsd	fs1,24(a2)
 7ae:	0000                	unimp
 7b0:	0000                	unimp
 7b2:	000000d3          	fadd.s	ft1,ft0,ft0,rne
 7b6:	0004                	0x4
 7b8:	019d                	addi	gp,gp,7
 7ba:	0000                	unimp
 7bc:	0104                	addi	s1,sp,128
 7be:	028d                	addi	t0,t0,3
 7c0:	0000                	unimp
 7c2:	200c                	fld	fa1,0(s0)
 7c4:	0000                	unimp
 7c6:	0000                	unimp
 7c8:	0002                	c.slli64	zero
 7ca:	4f00                	lw	s0,24(a4)
 7cc:	02000007          	0x2000007
 7d0:	0504                	addi	s1,sp,640
 7d2:	6e69                	lui	t3,0x1a
 7d4:	0074                	addi	a3,sp,12
 7d6:	82070403          	lb	s0,-2016(a4)
 7da:	0000                	unimp
 7dc:	0300                	addi	s0,sp,384
 7de:	0508                	addi	a0,sp,640
 7e0:	006a                	c.slli	zero,0x1a
 7e2:	0000                	unimp
 7e4:	f4041003          	lh	zero,-192(s0)
 7e8:	0001                	nop
 7ea:	0300                	addi	s0,sp,384
 7ec:	0601                	addi	a2,a2,0
 7ee:	0175                	addi	sp,sp,29
 7f0:	0000                	unimp
 7f2:	73080103          	lb	sp,1840(a6)
 7f6:	0001                	nop
 7f8:	0300                	addi	s0,sp,384
 7fa:	0502                	c.slli64	a0
 7fc:	0056                	c.slli	zero,0x15
 7fe:	0000                	unimp
 800:	a6070203          	lb	tp,-1440(a4)
 804:	0001                	nop
 806:	0300                	addi	s0,sp,384
 808:	0504                	addi	s1,sp,640
 80a:	0000006f          	j	80a <main-0xf86a>
 80e:	7d070403          	lb	s0,2000(a4)
 812:	0000                	unimp
 814:	0300                	addi	s0,sp,384
 816:	0708                	addi	a0,sp,896
 818:	0078                	addi	a4,sp,12
 81a:	0000                	unimp
 81c:	7c080103          	lb	sp,1984(a6)
 820:	0001                	nop
 822:	0400                	addi	s0,sp,512
 824:	0195                	addi	gp,gp,5
 826:	0000                	unimp
 828:	7b01                	lui	s6,0xfffe0
 82a:	4016                	0x4016
 82c:	0000                	unimp
 82e:	0500                	addi	s0,sp,640
 830:	0071                	c.nop	28
 832:	0000                	unimp
 834:	1a040403          	lb	s0,416(s0)
 838:	0000                	unimp
 83a:	0300                	addi	s0,sp,384
 83c:	0308                	addi	a0,sp,384
 83e:	0012                	c.slli	zero,0x4
 840:	0000                	unimp
 842:	f9040803          	lb	a6,-112(s0)
 846:	0001                	nop
 848:	0300                	addi	s0,sp,384
 84a:	0310                	addi	a2,sp,384
 84c:	000001cb          	fnmsub.s	ft3,ft0,ft0,ft0,rne
 850:	ec032003          	lw	zero,-320(t1) # ffff9ec0 <__BSS_END__+0xfffe3318>
 854:	0001                	nop
 856:	0600                	addi	s0,sp,768
 858:	007d                	c.nop	31
 85a:	0000                	unimp
 85c:	00b5                	addi	ra,ra,13
 85e:	0000                	unimp
 860:	00002407          	flw	fs0,0(zero) # 0 <main-0x10074>
 864:	ff00                	fsw	fs0,56(a4)
 866:	0500                	addi	s0,sp,640
 868:	00a5                	addi	ra,ra,9
 86a:	0000                	unimp
 86c:	6908                	flw	fa0,16(a0)
 86e:	0001                	nop
 870:	0100                	addi	s0,sp,128
 872:	0202                	c.slli64	tp
 874:	b516                	fsd	ft5,168(sp)
 876:	0000                	unimp
 878:	0900                	addi	s0,sp,144
 87a:	00ba                	slli	ra,ra,0xe
 87c:	0000                	unimp
 87e:	b202                	fsd	ft0,288(sp)
 880:	0f02                	c.slli64	t5
 882:	0305                	addi	t1,t1,1
 884:	53e8                	lw	a0,100(a5)
 886:	0001                	nop
	...

Disassembly of section .debug_abbrev:

00000000 <.debug_abbrev>:
   0:	1101                	addi	sp,sp,-32
   2:	2501                	jal	602 <main-0xfa72>
   4:	130e                	slli	t1,t1,0x23
   6:	1b0e030b          	0x1b0e030b
   a:	110e                	slli	sp,sp,0x23
   c:	1201                	addi	tp,tp,-32
   e:	1006                	c.slli	zero,0x21
  10:	02000017          	auipc	zero,0x2000
  14:	0024                	addi	s1,sp,8
  16:	0b3e0b0b          	0xb3e0b0b
  1a:	00000e03          	lb	t3,0(zero) # 0 <main-0x10074>
  1e:	0b002403          	lw	s0,176(zero) # b0 <main-0xffc4>
  22:	030b3e0b          	0x30b3e0b
  26:	0008                	0x8
  28:	0400                	addi	s0,sp,512
  2a:	0016                	c.slli	zero,0x5
  2c:	0b3a0e03          	lb	t3,179(s4)
  30:	0b390b3b          	0xb390b3b
  34:	1349                	addi	t1,t1,-14
  36:	0000                	unimp
  38:	2605                	jal	358 <main-0xfd1c>
  3a:	4900                	lw	s0,16(a0)
  3c:	06000013          	li	zero,96
  40:	0e030113          	addi	sp,t1,224
  44:	0b3a0b0b          	0xb3a0b0b
  48:	0b39053b          	0xb39053b
  4c:	1301                	addi	t1,t1,-32
  4e:	0000                	unimp
  50:	03000d07          	0x3000d07
  54:	3a08                	fld	fa0,48(a2)
  56:	39053b0b          	0x39053b0b
  5a:	3813490b          	0x3813490b
  5e:	0800000b          	0x800000b
  62:	000d                	c.nop	3
  64:	0b3a0e03          	lb	t3,179(s4)
  68:	0b39053b          	0xb39053b
  6c:	1349                	addi	t1,t1,-14
  6e:	0b38                	addi	a4,sp,408
  70:	0000                	unimp
  72:	1709                	addi	a4,a4,-30
  74:	0b01                	addi	s6,s6,0
  76:	3b0b3a0b          	0x3b0b3a0b
  7a:	3905                	jal	fffffcaa <__BSS_END__+0xfffe9102>
  7c:	0013010b          	0x13010b
  80:	0a00                	addi	s0,sp,272
  82:	000d                	c.nop	3
  84:	0b3a0803          	lb	a6,179(s4)
  88:	0b39053b          	0xb39053b
  8c:	1349                	addi	t1,t1,-14
  8e:	0000                	unimp
  90:	0300160b          	0x300160b
  94:	3a0e                	fld	fs4,224(sp)
  96:	39053b0b          	0x39053b0b
  9a:	0013490b          	0x13490b
  9e:	0c00                	addi	s0,sp,528
  a0:	0101                	addi	sp,sp,0
  a2:	1349                	addi	t1,t1,-14
  a4:	1301                	addi	t1,t1,-32
  a6:	0000                	unimp
  a8:	210d                	jal	4ca <main-0xfbaa>
  aa:	4900                	lw	s0,16(a0)
  ac:	000b2f13          	slti	t5,s6,0
  b0:	0e00                	addi	s0,sp,784
  b2:	0034                	addi	a3,sp,8
  b4:	0b3a0e03          	lb	t3,179(s4)
  b8:	0b39053b          	0xb39053b
  bc:	1349                	addi	t1,t1,-14
  be:	193c193f 2e0f0000 	0x2e0f0000193c193f
  c6:	3f01                	jal	ffffffd6 <__BSS_END__+0xfffe942e>
  c8:	0319                	addi	t1,t1,6
  ca:	3a0e                	fld	fs4,224(sp)
  cc:	39053b0b          	0x39053b0b
  d0:	4919270b          	0x4919270b
  d4:	12011113          	0x12011113
  d8:	4006                	0x4006
  da:	9718                	0x9718
  dc:	1942                	slli	s2,s2,0x30
  de:	1301                	addi	t1,t1,-32
  e0:	0000                	unimp
  e2:	0510                	addi	a2,sp,640
  e4:	0300                	addi	s0,sp,384
  e6:	3a08                	fld	fa0,48(a2)
  e8:	39053b0b          	0x39053b0b
  ec:	0213490b          	0x213490b
  f0:	11000017          	auipc	zero,0x11000
  f4:	011d                	addi	sp,sp,7
  f6:	1331                	addi	t1,t1,-20
  f8:	0152                	slli	sp,sp,0x14
  fa:	1755                	addi	a4,a4,-11
  fc:	0b58                	addi	a4,sp,404
  fe:	0559                	addi	a0,a0,22
 100:	00000b57          	0xb57
 104:	0512                	slli	a0,a0,0x4
 106:	3100                	fld	fs0,32(a0)
 108:	00170213          	addi	tp,a4,1
 10c:	1300                	addi	s0,sp,416
 10e:	1755010b          	0x1755010b
 112:	0000                	unimp
 114:	3414                	fld	fa3,40(s0)
 116:	3100                	fld	fs0,32(a0)
 118:	15000013          	li	zero,336
 11c:	0034                	addi	a3,sp,8
 11e:	1331                	addi	t1,t1,-20
 120:	1702                	slli	a4,a4,0x20
 122:	0000                	unimp
 124:	0b16                	slli	s6,s6,0x5
 126:	3101                	jal	fffffd26 <__BSS_END__+0xfffe917e>
 128:	01175513          	srli	a0,a4,0x11
 12c:	17000013          	li	zero,368
 130:	1331010b          	0x1331010b
 134:	0111                	addi	sp,sp,4
 136:	0612                	slli	a2,a2,0x4
 138:	1301                	addi	t1,t1,-32
 13a:	0000                	unimp
 13c:	0b18                	addi	a4,sp,400
 13e:	3101                	jal	fffffd3e <__BSS_END__+0xfffe9196>
 140:	00175513          	srli	a0,a4,0x1
 144:	1900                	addi	s0,sp,176
 146:	012e                	slli	sp,sp,0xb
 148:	0b3a0e03          	lb	t3,179(s4)
 14c:	0b39053b          	0xb39053b
 150:	13491927          	0x13491927
 154:	0b20                	addi	s0,sp,408
 156:	1301                	addi	t1,t1,-32
 158:	0000                	unimp
 15a:	051a                	slli	a0,a0,0x6
 15c:	0300                	addi	s0,sp,384
 15e:	3a08                	fld	fa0,48(a2)
 160:	39053b0b          	0x39053b0b
 164:	0013490b          	0x13490b
 168:	1b00                	addi	s0,sp,432
 16a:	0034                	addi	a3,sp,8
 16c:	0b3a0803          	lb	a6,179(s4)
 170:	0b39053b          	0xb39053b
 174:	1349                	addi	t1,t1,-14
 176:	0000                	unimp
 178:	0b1c                	addi	a5,sp,400
 17a:	0101                	addi	sp,sp,0
 17c:	1d000013          	li	zero,464
 180:	0034                	addi	a3,sp,8
 182:	0b3a0e03          	lb	t3,179(s4)
 186:	0b39053b          	0xb39053b
 18a:	1349                	addi	t1,t1,-14
 18c:	0000                	unimp
 18e:	0b1e                	slli	s6,s6,0x7
 190:	0001                	nop
 192:	1f00                	addi	s0,sp,944
 194:	0b0b000f          	0xb0b000f
 198:	1349                	addi	t1,t1,-14
 19a:	0000                	unimp
 19c:	0100                	addi	s0,sp,128
 19e:	0111                	addi	sp,sp,4
 1a0:	0e25                	addi	t3,t3,9
 1a2:	0e030b13          	addi	s6,t1,224
 1a6:	17100e1b          	0x17100e1b
 1aa:	0000                	unimp
 1ac:	2402                	fld	fs0,0(sp)
 1ae:	0b00                	addi	s0,sp,400
 1b0:	030b3e0b          	0x30b3e0b
 1b4:	0008                	0x8
 1b6:	0300                	addi	s0,sp,384
 1b8:	0024                	addi	s1,sp,8
 1ba:	0b3e0b0b          	0xb3e0b0b
 1be:	00000e03          	lb	t3,0(zero) # 0 <main-0x10074>
 1c2:	1604                	addi	s1,sp,800
 1c4:	0300                	addi	s0,sp,384
 1c6:	3a0e                	fld	fs4,224(sp)
 1c8:	390b3b0b          	0x390b3b0b
 1cc:	0013490b          	0x13490b
 1d0:	0500                	addi	s0,sp,640
 1d2:	0026                	c.slli	zero,0x9
 1d4:	1349                	addi	t1,t1,-14
 1d6:	0000                	unimp
 1d8:	0106                	slli	sp,sp,0x1
 1da:	4901                	li	s2,0
 1dc:	00130113          	addi	sp,t1,1
 1e0:	0700                	addi	s0,sp,896
 1e2:	0021                	c.nop	8
 1e4:	1349                	addi	t1,t1,-14
 1e6:	00000b2f          	0xb2f
 1ea:	3408                	fld	fa0,40(s0)
 1ec:	0300                	addi	s0,sp,384
 1ee:	3a0e                	fld	fs4,224(sp)
 1f0:	39053b0b          	0x39053b0b
 1f4:	3f13490b          	0x3f13490b
 1f8:	3c19                	jal	fffffc0e <__BSS_END__+0xfffe9066>
 1fa:	0019                	c.nop	6
 1fc:	0900                	addi	s0,sp,144
 1fe:	0034                	addi	a3,sp,8
 200:	0b3a1347          	fmsub.d	ft6,fs4,fs3,ft1,rtz
 204:	0b39053b          	0xb39053b
 208:	1802                	slli	a6,a6,0x20
 20a:	0000                	unimp
	...

Disassembly of section .debug_line:

00000000 <.debug_line>:
   0:	0000074b          	fnmsub.s	fa4,ft0,ft0,ft0,rne
   4:	004f0003          	lb	zero,4(t5) # 1004 <main-0xf070>
   8:	0000                	unimp
   a:	0101                	addi	sp,sp,0
   c:	000d0efb          	0xd0efb
  10:	0101                	addi	sp,sp,0
  12:	0101                	addi	sp,sp,0
  14:	0000                	unimp
  16:	0100                	addi	s0,sp,128
  18:	0000                	unimp
  1a:	2e01                	jal	32a <main-0xfd4a>
  1c:	2f2e                	fld	ft10,200(sp)
  1e:	2e2e                	fld	ft8,200(sp)
  20:	2f2e2e2f          	0x2f2e2e2f
  24:	2e2e                	fld	ft8,200(sp)
  26:	2f2e2e2f          	0x2f2e2e2f
  2a:	2f2e                	fld	ft10,200(sp)
  2c:	6972                	flw	fs2,28(sp)
  2e:	2d766373          	csrrsi	t1,0x2d7,12
  32:	2f636367          	0x2f636367
  36:	696c                	flw	fa1,84(a0)
  38:	6762                	flw	fa4,24(sp)
  3a:	00006363          	bltu	zero,zero,40 <main-0x10034>
  3e:	696c                	flw	fa1,84(a0)
  40:	6762                	flw	fa4,24(sp)
  42:	2e326363          	bltu	tp,gp,328 <main-0xfd4c>
  46:	00010063          	beqz	sp,46 <main-0x1002e>
  4a:	6c00                	flw	fs0,24(s0)
  4c:	6269                	lui	tp,0x1a
  4e:	32636367          	0x32636367
  52:	682e                	flw	fa6,200(sp)
  54:	0100                	addi	s0,sp,128
  56:	0000                	unimp
  58:	0500                	addi	s0,sp,640
  5a:	0001                	nop
  5c:	0205                	addi	tp,tp,1
  5e:	2e2c                	fld	fa1,88(a2)
  60:	0001                	nop
  62:	010aa603          	lw	a2,16(s5)
  66:	0305                	addi	t1,t1,1
  68:	00090103          	lb	sp,0(s2) # fffe7000 <__BSS_END__+0xfffd0458>
  6c:	0100                	addi	s0,sp,128
  6e:	0105                	addi	sp,sp,1
  70:	0306                	slli	t1,t1,0x1
  72:	097f                	0x97f
  74:	0000                	unimp
  76:	0501                	addi	a0,a0,0
  78:	d2030603          	lb	a2,-736(t1)
  7c:	097d                	addi	s2,s2,31
  7e:	0004                	0x4
  80:	0301                	addi	t1,t1,0
  82:	0901                	addi	s2,s2,0
  84:	0000                	unimp
  86:	0301                	addi	t1,t1,0
  88:	0901                	addi	s2,s2,0
  8a:	0000                	unimp
  8c:	0301                	addi	t1,t1,0
  8e:	0901                	addi	s2,s2,0
  90:	0000                	unimp
  92:	0301                	addi	t1,t1,0
  94:	0901                	addi	s2,s2,0
  96:	0000                	unimp
  98:	0301                	addi	t1,t1,0
  9a:	0901                	addi	s2,s2,0
  9c:	0000                	unimp
  9e:	0301                	addi	t1,t1,0
  a0:	0902                	c.slli64	s2
  a2:	0000                	unimp
  a4:	0501                	addi	a0,a0,0
  a6:	0601                	addi	a2,a2,0
  a8:	0902a703          	lw	a4,144(t0)
  ac:	0000                	unimp
  ae:	0501                	addi	a0,a0,0
  b0:	0306                	slli	t1,t1,0x1
  b2:	7dd9                	lui	s11,0xffff6
  b4:	0409                	addi	s0,s0,2
  b6:	0100                	addi	s0,sp,128
  b8:	0305                	addi	t1,t1,1
  ba:	0306                	slli	t1,t1,0x1
  bc:	0901                	addi	s2,s2,0
  be:	0004                	0x4
  c0:	0501                	addi	a0,a0,0
  c2:	0606                	slli	a2,a2,0x1
  c4:	00090003          	lb	zero,0(s2)
  c8:	0100                	addi	s0,sp,128
  ca:	0305                	addi	t1,t1,1
  cc:	0306                	slli	t1,t1,0x1
  ce:	0901                	addi	s2,s2,0
  d0:	0004                	0x4
  d2:	0501                	addi	a0,a0,0
  d4:	0606                	slli	a2,a2,0x1
  d6:	00090003          	lb	zero,0(s2)
  da:	0100                	addi	s0,sp,128
  dc:	0305                	addi	t1,t1,1
  de:	0306                	slli	t1,t1,0x1
  e0:	0901                	addi	s2,s2,0
  e2:	0004                	0x4
  e4:	0301                	addi	t1,t1,0
  e6:	0925                	addi	s2,s2,9
  e8:	0000                	unimp
  ea:	0501                	addi	a0,a0,0
  ec:	0606                	slli	a2,a2,0x1
  ee:	00090003          	lb	zero,0(s2)
  f2:	0100                	addi	s0,sp,128
  f4:	0705                	addi	a4,a4,1
  f6:	0306                	slli	t1,t1,0x1
  f8:	0902                	c.slli64	s2
  fa:	0004                	0x4
  fc:	0501                	addi	a0,a0,0
  fe:	060a                	slli	a2,a2,0x2
 100:	08090003          	lb	zero,128(s2)
 104:	0100                	addi	s0,sp,128
 106:	0405                	addi	s0,s0,1
 108:	0306                	slli	t1,t1,0x1
 10a:	0904                	addi	s1,sp,144
 10c:	0004                	0x4
 10e:	0301                	addi	t1,t1,0
 110:	0900                	addi	s0,sp,144
 112:	0000                	unimp
 114:	0301                	addi	t1,t1,0
 116:	0900                	addi	s0,sp,144
 118:	0000                	unimp
 11a:	0301                	addi	t1,t1,0
 11c:	0900                	addi	s0,sp,144
 11e:	0000                	unimp
 120:	0301                	addi	t1,t1,0
 122:	0900                	addi	s0,sp,144
 124:	0000                	unimp
 126:	0301                	addi	t1,t1,0
 128:	0900                	addi	s0,sp,144
 12a:	0014                	0x14
 12c:	0301                	addi	t1,t1,0
 12e:	0900                	addi	s0,sp,144
 130:	0018                	0x18
 132:	0301                	addi	t1,t1,0
 134:	0902                	c.slli64	s2
 136:	0000                	unimp
 138:	0501                	addi	a0,a0,0
 13a:	00030607          	0x30607
 13e:	0009                	c.nop	2
 140:	0100                	addi	s0,sp,128
 142:	0805                	addi	a6,a6,1
 144:	0306                	slli	t1,t1,0x1
 146:	0905                	addi	s2,s2,1
 148:	0004                	0x4
 14a:	0501                	addi	a0,a0,0
 14c:	0611                	addi	a2,a2,4
 14e:	00090103          	lb	sp,0(s2)
 152:	0100                	addi	s0,sp,128
 154:	1e05                	addi	t3,t3,-31
 156:	04090003          	lb	zero,64(s2)
 15a:	0100                	addi	s0,sp,128
 15c:	0b05                	addi	s6,s6,1
 15e:	04097f03          	0x4097f03
 162:	0100                	addi	s0,sp,128
 164:	0805                	addi	a6,a6,1
 166:	0306                	slli	t1,t1,0x1
 168:	0901                	addi	s2,s2,0
 16a:	0004                	0x4
 16c:	0501                	addi	a0,a0,0
 16e:	0003060b          	0x3060b
 172:	0009                	c.nop	2
 174:	0100                	addi	s0,sp,128
 176:	0805                	addi	a6,a6,1
 178:	0306                	slli	t1,t1,0x1
 17a:	0901                	addi	s2,s2,0
 17c:	0004                	0x4
 17e:	0501                	addi	a0,a0,0
 180:	0003060b          	0x3060b
 184:	0009                	c.nop	2
 186:	0100                	addi	s0,sp,128
 188:	0405                	addi	s0,s0,1
 18a:	0306                	slli	t1,t1,0x1
 18c:	00040903          	lb	s2,0(s0)
 190:	0301                	addi	t1,t1,0
 192:	0900                	addi	s0,sp,144
 194:	0000                	unimp
 196:	0301                	addi	t1,t1,0
 198:	0900                	addi	s0,sp,144
 19a:	0000                	unimp
 19c:	0301                	addi	t1,t1,0
 19e:	0900                	addi	s0,sp,144
 1a0:	0000                	unimp
 1a2:	0301                	addi	t1,t1,0
 1a4:	0900                	addi	s0,sp,144
 1a6:	0004                	0x4
 1a8:	0301                	addi	t1,t1,0
 1aa:	0900                	addi	s0,sp,144
 1ac:	000c                	0xc
 1ae:	0301                	addi	t1,t1,0
 1b0:	0900                	addi	s0,sp,144
 1b2:	0008                	0x8
 1b4:	0301                	addi	t1,t1,0
 1b6:	0900                	addi	s0,sp,144
 1b8:	0000                	unimp
 1ba:	0301                	addi	t1,t1,0
 1bc:	0900                	addi	s0,sp,144
 1be:	0008                	0x8
 1c0:	0301                	addi	t1,t1,0
 1c2:	0900                	addi	s0,sp,144
 1c4:	0008                	0x8
 1c6:	0301                	addi	t1,t1,0
 1c8:	0900                	addi	s0,sp,144
 1ca:	0004                	0x4
 1cc:	0301                	addi	t1,t1,0
 1ce:	0900                	addi	s0,sp,144
 1d0:	0008                	0x8
 1d2:	0301                	addi	t1,t1,0
 1d4:	0900                	addi	s0,sp,144
 1d6:	0004                	0x4
 1d8:	0301                	addi	t1,t1,0
 1da:	0900                	addi	s0,sp,144
 1dc:	0004                	0x4
 1de:	0301                	addi	t1,t1,0
 1e0:	0900                	addi	s0,sp,144
 1e2:	0008                	0x8
 1e4:	0301                	addi	t1,t1,0
 1e6:	0900                	addi	s0,sp,144
 1e8:	0004                	0x4
 1ea:	0301                	addi	t1,t1,0
 1ec:	0900                	addi	s0,sp,144
 1ee:	0004                	0x4
 1f0:	0301                	addi	t1,t1,0
 1f2:	0900                	addi	s0,sp,144
 1f4:	000c                	0xc
 1f6:	0301                	addi	t1,t1,0
 1f8:	0900                	addi	s0,sp,144
 1fa:	000c                	0xc
 1fc:	0301                	addi	t1,t1,0
 1fe:	0900                	addi	s0,sp,144
 200:	0000                	unimp
 202:	0301                	addi	t1,t1,0
 204:	0900                	addi	s0,sp,144
 206:	0008                	0x8
 208:	0301                	addi	t1,t1,0
 20a:	0900                	addi	s0,sp,144
 20c:	0008                	0x8
 20e:	0301                	addi	t1,t1,0
 210:	0900                	addi	s0,sp,144
 212:	0004                	0x4
 214:	0301                	addi	t1,t1,0
 216:	0900                	addi	s0,sp,144
 218:	0004                	0x4
 21a:	0301                	addi	t1,t1,0
 21c:	0900                	addi	s0,sp,144
 21e:	0004                	0x4
 220:	0301                	addi	t1,t1,0
 222:	0900                	addi	s0,sp,144
 224:	0000                	unimp
 226:	0301                	addi	t1,t1,0
 228:	0900                	addi	s0,sp,144
 22a:	0008                	0x8
 22c:	0301                	addi	t1,t1,0
 22e:	0900                	addi	s0,sp,144
 230:	0000                	unimp
 232:	0301                	addi	t1,t1,0
 234:	0901                	addi	s2,s2,0
 236:	0000                	unimp
 238:	0501                	addi	a0,a0,0
 23a:	fe03060b          	0xfe03060b
 23e:	0900                	addi	s0,sp,144
 240:	0000                	unimp
 242:	0501                	addi	a0,a0,0
 244:	0304                	addi	s1,sp,384
 246:	7ef5                	lui	t4,0xffffd
 248:	0809                	addi	a6,a6,2
 24a:	0100                	addi	s0,sp,128
 24c:	0306                	slli	t1,t1,0x1
 24e:	0915                	addi	s2,s2,5
 250:	0014                	0x14
 252:	0501                	addi	a0,a0,0
 254:	00030607          	0x30607
 258:	0009                	c.nop	2
 25a:	0100                	addi	s0,sp,128
 25c:	0605                	addi	a2,a2,1
 25e:	0306                	slli	t1,t1,0x1
 260:	0901                	addi	s2,s2,0
 262:	0004                	0x4
 264:	0501                	addi	a0,a0,0
 266:	0609                	addi	a2,a2,2
 268:	00090003          	lb	zero,0(s2)
 26c:	0100                	addi	s0,sp,128
 26e:	0405                	addi	s0,s0,1
 270:	0306                	slli	t1,t1,0x1
 272:	0902                	c.slli64	s2
 274:	0008                	0x8
 276:	0301                	addi	t1,t1,0
 278:	0900                	addi	s0,sp,144
 27a:	0000                	unimp
 27c:	0301                	addi	t1,t1,0
 27e:	0900                	addi	s0,sp,144
 280:	0000                	unimp
 282:	0301                	addi	t1,t1,0
 284:	0900                	addi	s0,sp,144
 286:	0000                	unimp
 288:	0301                	addi	t1,t1,0
 28a:	0900                	addi	s0,sp,144
 28c:	0000                	unimp
 28e:	0301                	addi	t1,t1,0
 290:	0900                	addi	s0,sp,144
 292:	0014                	0x14
 294:	0301                	addi	t1,t1,0
 296:	0900                	addi	s0,sp,144
 298:	0018                	0x18
 29a:	0301                	addi	t1,t1,0
 29c:	0902                	c.slli64	s2
 29e:	0000                	unimp
 2a0:	0501                	addi	a0,a0,0
 2a2:	00030607          	0x30607
 2a6:	0009                	c.nop	2
 2a8:	0100                	addi	s0,sp,128
 2aa:	0805                	addi	a6,a6,1
 2ac:	0306                	slli	t1,t1,0x1
 2ae:	0909                	addi	s2,s2,2
 2b0:	0004                	0x4
 2b2:	0501                	addi	a0,a0,0
 2b4:	0003060b          	0x3060b
 2b8:	0009                	c.nop	2
 2ba:	0100                	addi	s0,sp,128
 2bc:	0805                	addi	a6,a6,1
 2be:	0306                	slli	t1,t1,0x1
 2c0:	0901                	addi	s2,s2,0
 2c2:	0004                	0x4
 2c4:	0501                	addi	a0,a0,0
 2c6:	0003060b          	0x3060b
 2ca:	0009                	c.nop	2
 2cc:	0100                	addi	s0,sp,128
 2ce:	0805                	addi	a6,a6,1
 2d0:	0306                	slli	t1,t1,0x1
 2d2:	090d                	addi	s2,s2,3
 2d4:	0004                	0x4
 2d6:	0501                	addi	a0,a0,0
 2d8:	0304                	addi	s1,sp,384
 2da:	0905                	addi	s2,s2,1
 2dc:	0000                	unimp
 2de:	0301                	addi	t1,t1,0
 2e0:	0900                	addi	s0,sp,144
 2e2:	0000                	unimp
 2e4:	0301                	addi	t1,t1,0
 2e6:	0900                	addi	s0,sp,144
 2e8:	0000                	unimp
 2ea:	0301                	addi	t1,t1,0
 2ec:	0900                	addi	s0,sp,144
 2ee:	0000                	unimp
 2f0:	0301                	addi	t1,t1,0
 2f2:	0900                	addi	s0,sp,144
 2f4:	0004                	0x4
 2f6:	0301                	addi	t1,t1,0
 2f8:	0900                	addi	s0,sp,144
 2fa:	0008                	0x8
 2fc:	0301                	addi	t1,t1,0
 2fe:	0900                	addi	s0,sp,144
 300:	0008                	0x8
 302:	0301                	addi	t1,t1,0
 304:	0900                	addi	s0,sp,144
 306:	0004                	0x4
 308:	0301                	addi	t1,t1,0
 30a:	0900                	addi	s0,sp,144
 30c:	000c                	0xc
 30e:	0301                	addi	t1,t1,0
 310:	0900                	addi	s0,sp,144
 312:	0000                	unimp
 314:	0301                	addi	t1,t1,0
 316:	0900                	addi	s0,sp,144
 318:	0008                	0x8
 31a:	0301                	addi	t1,t1,0
 31c:	0900                	addi	s0,sp,144
 31e:	0008                	0x8
 320:	0301                	addi	t1,t1,0
 322:	0900                	addi	s0,sp,144
 324:	0004                	0x4
 326:	0301                	addi	t1,t1,0
 328:	0900                	addi	s0,sp,144
 32a:	0004                	0x4
 32c:	0301                	addi	t1,t1,0
 32e:	0900                	addi	s0,sp,144
 330:	0008                	0x8
 332:	0301                	addi	t1,t1,0
 334:	0900                	addi	s0,sp,144
 336:	0004                	0x4
 338:	0301                	addi	t1,t1,0
 33a:	0900                	addi	s0,sp,144
 33c:	0004                	0x4
 33e:	0301                	addi	t1,t1,0
 340:	0900                	addi	s0,sp,144
 342:	000c                	0xc
 344:	0301                	addi	t1,t1,0
 346:	0900                	addi	s0,sp,144
 348:	000c                	0xc
 34a:	0301                	addi	t1,t1,0
 34c:	0900                	addi	s0,sp,144
 34e:	0000                	unimp
 350:	0301                	addi	t1,t1,0
 352:	0900                	addi	s0,sp,144
 354:	0008                	0x8
 356:	0301                	addi	t1,t1,0
 358:	0900                	addi	s0,sp,144
 35a:	0008                	0x8
 35c:	0301                	addi	t1,t1,0
 35e:	0900                	addi	s0,sp,144
 360:	0004                	0x4
 362:	0301                	addi	t1,t1,0
 364:	0900                	addi	s0,sp,144
 366:	0004                	0x4
 368:	0301                	addi	t1,t1,0
 36a:	0900                	addi	s0,sp,144
 36c:	0004                	0x4
 36e:	0301                	addi	t1,t1,0
 370:	0900                	addi	s0,sp,144
 372:	0000                	unimp
 374:	0301                	addi	t1,t1,0
 376:	0900                	addi	s0,sp,144
 378:	0008                	0x8
 37a:	0501                	addi	a0,a0,0
 37c:	00e30303          	lb	t1,14(t1)
 380:	0009                	c.nop	2
 382:	0100                	addi	s0,sp,128
 384:	00090103          	lb	sp,0(s2)
 388:	0100                	addi	s0,sp,128
 38a:	0105                	addi	sp,sp,1
 38c:	0306                	slli	t1,t1,0x1
 38e:	00e1                	addi	ra,ra,24
 390:	0009                	c.nop	2
 392:	0100                	addi	s0,sp,128
 394:	0405                	addi	s0,s0,1
 396:	097e9d03          	lh	s10,151(t4) # ffffd097 <__BSS_END__+0xfffe64ef>
 39a:	0004                	0x4
 39c:	0501                	addi	a0,a0,0
 39e:	0608                	addi	a0,sp,768
 3a0:	14091203          	lh	tp,320(s2)
 3a4:	0100                	addi	s0,sp,128
 3a6:	00090203          	lb	tp,0(s2)
 3aa:	0100                	addi	s0,sp,128
 3ac:	0b05                	addi	s6,s6,1
 3ae:	0306                	slli	t1,t1,0x1
 3b0:	0900                	addi	s0,sp,144
 3b2:	0000                	unimp
 3b4:	0501                	addi	a0,a0,0
 3b6:	0608                	addi	a0,sp,768
 3b8:	04090103          	lb	sp,64(s2)
 3bc:	0100                	addi	s0,sp,128
 3be:	0b05                	addi	s6,s6,1
 3c0:	0306                	slli	t1,t1,0x1
 3c2:	0900                	addi	s0,sp,144
 3c4:	0000                	unimp
 3c6:	0501                	addi	a0,a0,0
 3c8:	0608                	addi	a0,sp,768
 3ca:	04090103          	lb	sp,64(s2)
 3ce:	0100                	addi	s0,sp,128
 3d0:	0b05                	addi	s6,s6,1
 3d2:	0306                	slli	t1,t1,0x1
 3d4:	0901                	addi	s2,s2,0
 3d6:	0000                	unimp
 3d8:	0501                	addi	a0,a0,0
 3da:	0311                	addi	t1,t1,4
 3dc:	097f                	0x97f
 3de:	0004                	0x4
 3e0:	0501                	addi	a0,a0,0
 3e2:	031e                	slli	t1,t1,0x7
 3e4:	0900                	addi	s0,sp,144
 3e6:	0004                	0x4
 3e8:	0501                	addi	a0,a0,0
 3ea:	0308                	addi	a0,sp,384
 3ec:	00040903          	lb	s2,0(s0)
 3f0:	0501                	addi	a0,a0,0
 3f2:	097d030b          	0x97d030b
 3f6:	0004                	0x4
 3f8:	0501                	addi	a0,a0,0
 3fa:	0608                	addi	a0,sp,768
 3fc:	04090103          	lb	sp,64(s2)
 400:	0100                	addi	s0,sp,128
 402:	00090203          	lb	tp,0(s2)
 406:	0100                	addi	s0,sp,128
 408:	00090003          	lb	zero,0(s2)
 40c:	0100                	addi	s0,sp,128
 40e:	00090003          	lb	zero,0(s2)
 412:	0100                	addi	s0,sp,128
 414:	00090003          	lb	zero,0(s2)
 418:	0100                	addi	s0,sp,128
 41a:	00090003          	lb	zero,0(s2)
 41e:	0100                	addi	s0,sp,128
 420:	0c090003          	lb	zero,192(s2)
 424:	0100                	addi	s0,sp,128
 426:	00090003          	lb	zero,0(s2)
 42a:	0100                	addi	s0,sp,128
 42c:	08090003          	lb	zero,128(s2)
 430:	0100                	addi	s0,sp,128
 432:	0c090003          	lb	zero,192(s2)
 436:	0100                	addi	s0,sp,128
 438:	00090003          	lb	zero,0(s2)
 43c:	0100                	addi	s0,sp,128
 43e:	08090003          	lb	zero,128(s2)
 442:	0100                	addi	s0,sp,128
 444:	08090003          	lb	zero,128(s2)
 448:	0100                	addi	s0,sp,128
 44a:	04090003          	lb	zero,64(s2)
 44e:	0100                	addi	s0,sp,128
 450:	04090003          	lb	zero,64(s2)
 454:	0100                	addi	s0,sp,128
 456:	08090003          	lb	zero,128(s2)
 45a:	0100                	addi	s0,sp,128
 45c:	04090003          	lb	zero,64(s2)
 460:	0100                	addi	s0,sp,128
 462:	04090003          	lb	zero,64(s2)
 466:	0100                	addi	s0,sp,128
 468:	0c090003          	lb	zero,192(s2)
 46c:	0100                	addi	s0,sp,128
 46e:	08090003          	lb	zero,128(s2)
 472:	0100                	addi	s0,sp,128
 474:	04090003          	lb	zero,64(s2)
 478:	0100                	addi	s0,sp,128
 47a:	08090003          	lb	zero,128(s2)
 47e:	0100                	addi	s0,sp,128
 480:	08090003          	lb	zero,128(s2)
 484:	0100                	addi	s0,sp,128
 486:	04090003          	lb	zero,64(s2)
 48a:	0100                	addi	s0,sp,128
 48c:	04090003          	lb	zero,64(s2)
 490:	0100                	addi	s0,sp,128
 492:	08090003          	lb	zero,128(s2)
 496:	0100                	addi	s0,sp,128
 498:	08090003          	lb	zero,128(s2)
 49c:	0100                	addi	s0,sp,128
 49e:	04090003          	lb	zero,64(s2)
 4a2:	0100                	addi	s0,sp,128
 4a4:	0705                	addi	a4,a4,1
 4a6:	04091503          	lh	a0,64(s2)
 4aa:	0100                	addi	s0,sp,128
 4ac:	0a05                	addi	s4,s4,1
 4ae:	0306                	slli	t1,t1,0x1
 4b0:	0900                	addi	s0,sp,144
 4b2:	0000                	unimp
 4b4:	0501                	addi	a0,a0,0
 4b6:	0604                	addi	s1,sp,768
 4b8:	04091303          	lh	t1,64(s2)
 4bc:	0100                	addi	s0,sp,128
 4be:	00090003          	lb	zero,0(s2)
 4c2:	0100                	addi	s0,sp,128
 4c4:	00090003          	lb	zero,0(s2)
 4c8:	0100                	addi	s0,sp,128
 4ca:	00090003          	lb	zero,0(s2)
 4ce:	0100                	addi	s0,sp,128
 4d0:	00090003          	lb	zero,0(s2)
 4d4:	0100                	addi	s0,sp,128
 4d6:	14090003          	lb	zero,320(s2)
 4da:	0100                	addi	s0,sp,128
 4dc:	20090003          	lb	zero,512(s2)
 4e0:	0100                	addi	s0,sp,128
 4e2:	00090103          	lb	sp,0(s2)
 4e6:	0100                	addi	s0,sp,128
 4e8:	0705                	addi	a4,a4,1
 4ea:	0306                	slli	t1,t1,0x1
 4ec:	0900                	addi	s0,sp,144
 4ee:	0000                	unimp
 4f0:	0501                	addi	a0,a0,0
 4f2:	0608                	addi	a0,sp,768
 4f4:	04090a03          	lb	s4,64(s2)
 4f8:	0100                	addi	s0,sp,128
 4fa:	0306                	slli	t1,t1,0x1
 4fc:	0902                	c.slli64	s2
 4fe:	0000                	unimp
 500:	0501                	addi	a0,a0,0
 502:	097e030b          	0x97e030b
 506:	0004                	0x4
 508:	0501                	addi	a0,a0,0
 50a:	0314                	addi	a3,sp,384
 50c:	0900                	addi	s0,sp,144
 50e:	0004                	0x4
 510:	0501                	addi	a0,a0,0
 512:	0304                	addi	s1,sp,384
 514:	0975                	addi	s2,s2,29
 516:	000c                	0xc
 518:	0501                	addi	a0,a0,0
 51a:	0608                	addi	a0,sp,768
 51c:	14091e03          	lh	t3,320(s2)
 520:	0100                	addi	s0,sp,128
 522:	00090303          	lb	t1,0(s2)
 526:	0100                	addi	s0,sp,128
 528:	00090203          	lb	tp,0(s2)
 52c:	0100                	addi	s0,sp,128
 52e:	1e05                	addi	t3,t3,-31
 530:	0306                	slli	t1,t1,0x1
 532:	0900                	addi	s0,sp,144
 534:	0000                	unimp
 536:	0501                	addi	a0,a0,0
 538:	0311                	addi	t1,t1,4
 53a:	0900                	addi	s0,sp,144
 53c:	0004                	0x4
 53e:	0501                	addi	a0,a0,0
 540:	0900030b          	0x900030b
 544:	0004                	0x4
 546:	0501                	addi	a0,a0,0
 548:	0608                	addi	a0,sp,768
 54a:	04090103          	lb	sp,64(s2)
 54e:	0100                	addi	s0,sp,128
 550:	0b05                	addi	s6,s6,1
 552:	0306                	slli	t1,t1,0x1
 554:	0901                	addi	s2,s2,0
 556:	0000                	unimp
 558:	0501                	addi	a0,a0,0
 55a:	0308                	addi	a0,sp,384
 55c:	0904                	addi	s1,sp,144
 55e:	0004                	0x4
 560:	0501                	addi	a0,a0,0
 562:	0311                	addi	t1,t1,4
 564:	097d                	addi	s2,s2,31
 566:	0008                	0x8
 568:	0501                	addi	a0,a0,0
 56a:	031e                	slli	t1,t1,0x7
 56c:	0900                	addi	s0,sp,144
 56e:	0004                	0x4
 570:	0501                	addi	a0,a0,0
 572:	097e030b          	0x97e030b
 576:	0004                	0x4
 578:	0501                	addi	a0,a0,0
 57a:	0608                	addi	a0,sp,768
 57c:	04090103          	lb	sp,64(s2)
 580:	0100                	addi	s0,sp,128
 582:	00090103          	lb	sp,0(s2)
 586:	0100                	addi	s0,sp,128
 588:	0b05                	addi	s6,s6,1
 58a:	0306                	slli	t1,t1,0x1
 58c:	0900                	addi	s0,sp,144
 58e:	0000                	unimp
 590:	0501                	addi	a0,a0,0
 592:	0608                	addi	a0,sp,768
 594:	04090103          	lb	sp,64(s2)
 598:	0100                	addi	s0,sp,128
 59a:	00090203          	lb	tp,0(s2)
 59e:	0100                	addi	s0,sp,128
 5a0:	00090003          	lb	zero,0(s2)
 5a4:	0100                	addi	s0,sp,128
 5a6:	00090003          	lb	zero,0(s2)
 5aa:	0100                	addi	s0,sp,128
 5ac:	00090003          	lb	zero,0(s2)
 5b0:	0100                	addi	s0,sp,128
 5b2:	00090003          	lb	zero,0(s2)
 5b6:	0100                	addi	s0,sp,128
 5b8:	08090003          	lb	zero,128(s2)
 5bc:	0100                	addi	s0,sp,128
 5be:	00090003          	lb	zero,0(s2)
 5c2:	0100                	addi	s0,sp,128
 5c4:	08090003          	lb	zero,128(s2)
 5c8:	0100                	addi	s0,sp,128
 5ca:	0c090003          	lb	zero,192(s2)
 5ce:	0100                	addi	s0,sp,128
 5d0:	00090003          	lb	zero,0(s2)
 5d4:	0100                	addi	s0,sp,128
 5d6:	08090003          	lb	zero,128(s2)
 5da:	0100                	addi	s0,sp,128
 5dc:	08090003          	lb	zero,128(s2)
 5e0:	0100                	addi	s0,sp,128
 5e2:	04090003          	lb	zero,64(s2)
 5e6:	0100                	addi	s0,sp,128
 5e8:	04090003          	lb	zero,64(s2)
 5ec:	0100                	addi	s0,sp,128
 5ee:	08090003          	lb	zero,128(s2)
 5f2:	0100                	addi	s0,sp,128
 5f4:	04090003          	lb	zero,64(s2)
 5f8:	0100                	addi	s0,sp,128
 5fa:	04090003          	lb	zero,64(s2)
 5fe:	0100                	addi	s0,sp,128
 600:	04090003          	lb	zero,64(s2)
 604:	0100                	addi	s0,sp,128
 606:	08090003          	lb	zero,128(s2)
 60a:	0100                	addi	s0,sp,128
 60c:	0c090003          	lb	zero,192(s2)
 610:	0100                	addi	s0,sp,128
 612:	08090003          	lb	zero,128(s2)
 616:	0100                	addi	s0,sp,128
 618:	08090003          	lb	zero,128(s2)
 61c:	0100                	addi	s0,sp,128
 61e:	04090003          	lb	zero,64(s2)
 622:	0100                	addi	s0,sp,128
 624:	04090003          	lb	zero,64(s2)
 628:	0100                	addi	s0,sp,128
 62a:	08090003          	lb	zero,128(s2)
 62e:	0100                	addi	s0,sp,128
 630:	0306                	slli	t1,t1,0x1
 632:	0901                	addi	s2,s2,0
 634:	0004                	0x4
 636:	0301                	addi	t1,t1,0
 638:	097f                	0x97f
 63a:	0004                	0x4
 63c:	0301                	addi	t1,t1,0
 63e:	0901                	addi	s2,s2,0
 640:	0004                	0x4
 642:	0301                	addi	t1,t1,0
 644:	097f                	0x97f
 646:	0014                	0x14
 648:	0601                	addi	a2,a2,0
 64a:	04090003          	lb	zero,64(s2)
 64e:	0100                	addi	s0,sp,128
 650:	00090003          	lb	zero,0(s2)
 654:	0100                	addi	s0,sp,128
 656:	00090003          	lb	zero,0(s2)
 65a:	0100                	addi	s0,sp,128
 65c:	00090103          	lb	sp,0(s2)
 660:	0100                	addi	s0,sp,128
 662:	00090003          	lb	zero,0(s2)
 666:	0100                	addi	s0,sp,128
 668:	00090003          	lb	zero,0(s2)
 66c:	0100                	addi	s0,sp,128
 66e:	00090003          	lb	zero,0(s2)
 672:	0100                	addi	s0,sp,128
 674:	00090003          	lb	zero,0(s2)
 678:	0100                	addi	s0,sp,128
 67a:	00090003          	lb	zero,0(s2)
 67e:	0100                	addi	s0,sp,128
 680:	00090003          	lb	zero,0(s2)
 684:	0100                	addi	s0,sp,128
 686:	00090003          	lb	zero,0(s2)
 68a:	0100                	addi	s0,sp,128
 68c:	04090003          	lb	zero,64(s2)
 690:	0100                	addi	s0,sp,128
 692:	00090003          	lb	zero,0(s2)
 696:	0100                	addi	s0,sp,128
 698:	04090003          	lb	zero,64(s2)
 69c:	0100                	addi	s0,sp,128
 69e:	14090003          	lb	zero,320(s2)
 6a2:	0100                	addi	s0,sp,128
 6a4:	00090003          	lb	zero,0(s2)
 6a8:	0100                	addi	s0,sp,128
 6aa:	00090003          	lb	zero,0(s2)
 6ae:	0100                	addi	s0,sp,128
 6b0:	04090003          	lb	zero,64(s2)
 6b4:	0100                	addi	s0,sp,128
 6b6:	04090003          	lb	zero,64(s2)
 6ba:	0100                	addi	s0,sp,128
 6bc:	08090003          	lb	zero,128(s2)
 6c0:	0100                	addi	s0,sp,128
 6c2:	00090003          	lb	zero,0(s2)
 6c6:	0100                	addi	s0,sp,128
 6c8:	00090203          	lb	tp,0(s2)
 6cc:	0100                	addi	s0,sp,128
 6ce:	0b05                	addi	s6,s6,1
 6d0:	0306                	slli	t1,t1,0x1
 6d2:	0900                	addi	s0,sp,144
 6d4:	0000                	unimp
 6d6:	0501                	addi	a0,a0,0
 6d8:	0314                	addi	a3,sp,384
 6da:	0900                	addi	s0,sp,144
 6dc:	0004                	0x4
 6de:	0501                	addi	a0,a0,0
 6e0:	0308                	addi	a0,sp,384
 6e2:	097e                	slli	s2,s2,0x1f
 6e4:	0004                	0x4
 6e6:	0501                	addi	a0,a0,0
 6e8:	097d030b          	0x97d030b
 6ec:	0014                	0x14
 6ee:	0501                	addi	a0,a0,0
 6f0:	0308                	addi	a0,sp,384
 6f2:	00040903          	lb	s2,0(s0)
 6f6:	0501                	addi	a0,a0,0
 6f8:	0908030b          	0x908030b
 6fc:	0004                	0x4
 6fe:	0501                	addi	a0,a0,0
 700:	0321                	addi	t1,t1,8
 702:	097a                	slli	s2,s2,0x1e
 704:	0004                	0x4
 706:	0501                	addi	a0,a0,0
 708:	0605                	addi	a2,a2,1
 70a:	04090203          	lb	tp,64(s2)
 70e:	0100                	addi	s0,sp,128
 710:	0705                	addi	a4,a4,1
 712:	0306                	slli	t1,t1,0x1
 714:	0900                	addi	s0,sp,144
 716:	0000                	unimp
 718:	0501                	addi	a0,a0,0
 71a:	0605                	addi	a2,a2,1
 71c:	04090103          	lb	sp,64(s2)
 720:	0100                	addi	s0,sp,128
 722:	00090003          	lb	zero,0(s2)
 726:	0100                	addi	s0,sp,128
 728:	00090003          	lb	zero,0(s2)
 72c:	0100                	addi	s0,sp,128
 72e:	00090003          	lb	zero,0(s2)
 732:	0100                	addi	s0,sp,128
 734:	00090003          	lb	zero,0(s2)
 738:	0100                	addi	s0,sp,128
 73a:	0705                	addi	a4,a4,1
 73c:	0306                	slli	t1,t1,0x1
 73e:	00040943          	fmadd.s	fs2,fs0,ft0,ft0,rne
 742:	0301                	addi	t1,t1,0
 744:	097f                	0x97f
 746:	0004                	0x4
 748:	0901                	addi	s2,s2,0
 74a:	0008                	0x8
 74c:	0100                	addi	s0,sp,128
 74e:	5501                	li	a0,-32
 750:	0000                	unimp
 752:	0300                	addi	s0,sp,384
 754:	4f00                	lw	s0,24(a4)
 756:	0000                	unimp
 758:	0100                	addi	s0,sp,128
 75a:	fb01                	bnez	a4,66a <main-0xfa0a>
 75c:	0d0e                	slli	s10,s10,0x3
 75e:	0100                	addi	s0,sp,128
 760:	0101                	addi	sp,sp,0
 762:	0001                	nop
 764:	0000                	unimp
 766:	0001                	nop
 768:	0100                	addi	s0,sp,128
 76a:	2e2e                	fld	ft8,200(sp)
 76c:	2f2e2e2f          	0x2f2e2e2f
 770:	2e2e                	fld	ft8,200(sp)
 772:	2f2e2e2f          	0x2f2e2e2f
 776:	2e2e                	fld	ft8,200(sp)
 778:	722f2e2f          	0x722f2e2f
 77c:	7369                	lui	t1,0xffffa
 77e:	672d7663          	bgeu	s10,s2,dea <main-0xf28a>
 782:	6c2f6363          	bltu	t5,sp,e48 <main-0xf22c>
 786:	6269                	lui	tp,0x1a
 788:	00636367          	0x636367
 78c:	6c00                	flw	fs0,24(s0)
 78e:	6269                	lui	tp,0x1a
 790:	32636367          	0x32636367
 794:	682e                	flw	fa6,200(sp)
 796:	0100                	addi	s0,sp,128
 798:	0000                	unimp
 79a:	696c                	flw	fa1,84(a0)
 79c:	6762                	flw	fa4,24(sp)
 79e:	2e326363          	bltu	tp,gp,a84 <main-0xf5f0>
 7a2:	00010063          	beqz	sp,7a2 <main-0xf8d2>
	...

Disassembly of section .debug_str:

00000000 <.debug_str>:
   0:	5744                	lw	s1,44(a4)
   2:	6e75                	lui	t3,0x1d
   4:	6f69                	lui	t5,0x1a
   6:	006e                	c.slli	zero,0x1b
   8:	5f5f 6475 7669      	0x766964755f5f
   e:	6964                	flw	fs1,84(a0)
  10:	6f630033          	0x6f630033
  14:	706d                	c.lui	zero,0xffffb
  16:	656c                	flw	fa1,76(a0)
  18:	2078                	fld	fa4,192(s0)
  1a:	6c66                	flw	fs8,88(sp)
  1c:	0074616f          	jal	sp,46822 <__BSS_END__+0x2fc7a>
  20:	2e2e                	fld	ft8,200(sp)
  22:	2f2e2e2f          	0x2f2e2e2f
  26:	2e2e                	fld	ft8,200(sp)
  28:	2f2e2e2f          	0x2f2e2e2f
  2c:	2e2e                	fld	ft8,200(sp)
  2e:	722f2e2f          	0x722f2e2f
  32:	7369                	lui	t1,0xffffa
  34:	672d7663          	bgeu	s10,s2,6a0 <main-0xf9d4>
  38:	6c2f6363          	bltu	t5,sp,6fe <main-0xf976>
  3c:	6269                	lui	tp,0x1a
  3e:	2f636367          	0x2f636367
  42:	696c                	flw	fa1,84(a0)
  44:	6762                	flw	fa4,24(sp)
  46:	2e326363          	bltu	tp,gp,32c <main-0xfd48>
  4a:	5f5f0063          	beq	t5,s5,62a <main-0xfa4a>
  4e:	3064                	fld	fs1,224(s0)
  50:	5f00                	lw	s0,56(a4)
  52:	645f 0031 6873      	0x68730031645f
  58:	2074726f          	jal	tp,47a5e <__BSS_END__+0x30eb6>
  5c:	6e69                	lui	t3,0x1a
  5e:	0074                	addi	a3,sp,12
  60:	5f5f 6876 5f00      	0x5f0068765f5f
  66:	765f 006c 6f6c      	0x6f6c006c765f
  6c:	676e                	flw	fa4,216(sp)
  6e:	6c20                	flw	fs0,88(s0)
  70:	20676e6f          	jal	t3,76276 <__BSS_END__+0x5f6ce>
  74:	6e69                	lui	t3,0x1a
  76:	0074                	addi	a3,sp,12
  78:	6f6c                	flw	fa1,92(a4)
  7a:	676e                	flw	fa4,216(sp)
  7c:	6c20                	flw	fs0,88(s0)
  7e:	20676e6f          	jal	t3,76284 <__BSS_END__+0x5f6dc>
  82:	6e75                	lui	t3,0x1d
  84:	6e676973          	csrrsi	s2,0x6e6,14
  88:	6465                	lui	s0,0x19
  8a:	6920                	flw	fs0,80(a0)
  8c:	746e                	flw	fs0,248(sp)
  8e:	4700                	lw	s0,8(a4)
  90:	554e                	lw	a0,240(sp)
  92:	4320                	lw	s0,64(a4)
  94:	3731                	jal	ffffffa0 <__BSS_END__+0xfffe93f8>
  96:	3120                	fld	fs0,96(a0)
  98:	2e30                	fld	fa2,88(a2)
  9a:	2e32                	fld	ft8,264(sp)
  9c:	2030                	fld	fa2,64(s0)
  9e:	6d2d                	lui	s10,0xb
  a0:	646f6d63          	bltu	t5,t1,6fa <main-0xf97a>
  a4:	6c65                	lui	s8,0x19
  a6:	6d3d                	lui	s10,0xf
  a8:	6465                	lui	s0,0x19
  aa:	6f6c                	flw	fa1,92(a4)
  ac:	6d2d2077          	0x6d2d2077
  b0:	7261                	lui	tp,0xffff8
  b2:	723d6863          	bltu	s10,gp,7e2 <main-0xf892>
  b6:	3376                	fld	ft6,376(sp)
  b8:	6932                	flw	fs2,12(sp)
  ba:	666d                	lui	a2,0x1b
  bc:	2d20                	fld	fs0,88(a0)
  be:	616d                	addi	sp,sp,240
  c0:	6962                	flw	fs2,24(sp)
  c2:	693d                	lui	s2,0xf
  c4:	706c                	flw	fa1,100(s0)
  c6:	20663233          	0x20663233
  ca:	6d2d                	lui	s10,0xb
  cc:	646f6d63          	bltu	t5,t1,726 <main-0xf94e>
  d0:	6c65                	lui	s8,0x19
  d2:	6d3d                	lui	s10,0xf
  d4:	6465                	lui	s0,0x19
  d6:	6f6c                	flw	fa1,92(a4)
  d8:	6d2d2077          	0x6d2d2077
  dc:	7574                	flw	fa3,108(a0)
  de:	656e                	flw	fa0,216(sp)
  e0:	723d                	lui	tp,0xfffef
  e2:	656b636f          	jal	t1,b6738 <__BSS_END__+0x9fb90>
  e6:	2074                	fld	fa3,192(s0)
  e8:	6d2d                	lui	s10,0xb
  ea:	7261                	lui	tp,0xffff8
  ec:	723d6863          	bltu	s10,gp,81c <main-0xf858>
  f0:	3376                	fld	ft6,376(sp)
  f2:	6932                	flw	fs2,12(sp)
  f4:	666d                	lui	a2,0x1b
  f6:	2d20                	fld	fs0,88(a0)
  f8:	4f2d2067          	0x4f2d2067
  fc:	4f2d2073          	csrs	0x4f2,s10
 100:	2032                	fld	ft0,264(sp)
 102:	4f2d                	li	t5,11
 104:	662d2073          	csrs	0x662,s10
 108:	7562                	flw	fa0,56(sp)
 10a:	6c69                	lui	s8,0x1a
 10c:	6964                	flw	fs1,84(a0)
 10e:	676e                	flw	fa4,216(sp)
 110:	6c2d                	lui	s8,0xb
 112:	6269                	lui	tp,0x1a
 114:	20636367          	0x20636367
 118:	662d                	lui	a2,0xb
 11a:	6f6e                	flw	ft10,216(sp)
 11c:	732d                	lui	t1,0xfffeb
 11e:	6174                	flw	fa3,68(a0)
 120:	702d6b63          	bltu	s10,sp,836 <main-0xf83e>
 124:	6f72                	flw	ft10,28(sp)
 126:	6574                	flw	fa3,76(a0)
 128:	726f7463          	bgeu	t5,t1,850 <main-0xf824>
 12c:	2d20                	fld	fs0,88(a0)
 12e:	6566                	flw	fa0,88(sp)
 130:	6378                	flw	fa4,68(a4)
 132:	7065                	c.lui	zero,0xffff9
 134:	6974                	flw	fa3,84(a0)
 136:	20736e6f          	jal	t3,36b3c <__BSS_END__+0x1ff94>
 13a:	662d                	lui	a2,0xb
 13c:	6f6e                	flw	ft10,216(sp)
 13e:	2d6e                	fld	fs10,216(sp)
 140:	6c6c6163          	bltu	s8,t1,802 <main-0xf872>
 144:	652d                	lui	a0,0xb
 146:	6378                	flw	fa4,68(a4)
 148:	7065                	c.lui	zero,0xffff9
 14a:	6974                	flw	fa3,84(a0)
 14c:	20736e6f          	jal	t3,36b52 <__BSS_END__+0x1ffaa>
 150:	662d                	lui	a2,0xb
 152:	6976                	flw	fs2,92(sp)
 154:	69626973          	csrrsi	s2,0x696,4
 158:	696c                	flw	fa1,84(a0)
 15a:	7974                	flw	fa3,116(a0)
 15c:	683d                	lui	a6,0xf
 15e:	6469                	lui	s0,0x1a
 160:	6564                	flw	fs1,76(a0)
 162:	006e                	c.slli	zero,0x1b
 164:	6968                	flw	fa0,84(a0)
 166:	5f006867          	0x5f006867
 16a:	635f 7a6c 745f      	0x745f7a6c635f
 170:	6261                	lui	tp,0x18
 172:	7500                	flw	fs0,40(a0)
 174:	736e                	flw	ft6,248(sp)
 176:	6769                	lui	a4,0x1a
 178:	656e                	flw	fa0,216(sp)
 17a:	2064                	fld	fs1,192(s0)
 17c:	72616863          	bltu	sp,t1,8ac <main-0xf7c8>
 180:	5f00                	lw	s0,56(a4)
 182:	785f 0030 5f5f      	0x5f5f0030785f
 188:	3178                	fld	fa4,224(a0)
 18a:	5f00                	lw	s0,56(a4)
 18c:	785f 0032 5f5f      	0x5f5f0032785f
 192:	3378                	fld	fa4,224(a4)
 194:	5500                	lw	s0,40(a0)
 196:	4951                	li	s2,20
 198:	7974                	flw	fa3,116(a0)
 19a:	6570                	flw	fa2,76(a0)
 19c:	4400                	lw	s0,8(s0)
 19e:	72747357          	0x72747357
 1a2:	6375                	lui	t1,0x1d
 1a4:	0074                	addi	a3,sp,12
 1a6:	726f6873          	csrrsi	a6,0x726,30
 1aa:	2074                	fld	fa3,192(s0)
 1ac:	6e75                	lui	t3,0x1d
 1ae:	6e676973          	csrrsi	s2,0x6e6,14
 1b2:	6465                	lui	s0,0x19
 1b4:	6920                	flw	fs0,80(a0)
 1b6:	746e                	flw	fs0,248(sp)
 1b8:	5500                	lw	s0,40(a0)
 1ba:	4944                	lw	s1,20(a0)
 1bc:	7974                	flw	fa3,116(a0)
 1be:	6570                	flw	fa2,76(a0)
 1c0:	5f00                	lw	s0,56(a4)
 1c2:	715f 0030 5f5f      	0x5f5f0030715f
 1c8:	3171                	jal	fffffe54 <__BSS_END__+0xfffe92ac>
 1ca:	6300                	flw	fs0,0(a4)
 1cc:	6c706d6f          	jal	s10,7092 <main-0x8fe2>
 1d0:	7865                	lui	a6,0xffff9
 1d2:	6420                	flw	fs0,72(s0)
 1d4:	6c62756f          	jal	a0,2789a <__BSS_END__+0x10cf2>
 1d8:	0065                	c.nop	25
 1da:	5f5f 7278 5f00      	0x5f0072785f5f
 1e0:	755f 6964 6d76      	0x6d766964755f
 1e6:	6964646f          	jal	s0,4687c <__BSS_END__+0x2fcd4>
 1ea:	0034                	addi	a3,sp,8
 1ec:	706d6f63          	bltu	s10,t1,90a <main-0xf76a>
 1f0:	656c                	flw	fa1,76(a0)
 1f2:	2078                	fld	fa4,192(s0)
 1f4:	6f6c                	flw	fa1,92(a4)
 1f6:	676e                	flw	fa4,216(sp)
 1f8:	6420                	flw	fs0,72(s0)
 1fa:	6c62756f          	jal	a0,278c0 <__BSS_END__+0x10d18>
 1fe:	0065                	c.nop	25
 200:	64656d2f          	0x64656d2f
 204:	6169                	addi	sp,sp,208
 206:	676e652f          	0x676e652f
 20a:	6e69                	lui	t3,0x1a
 20c:	6f74532f          	0x6f74532f
 210:	6172                	flw	ft2,28(sp)
 212:	2f416567          	0x2f416567
 216:	5046                	0x5046
 218:	722f4147          	fmsub.d	ft2,ft10,ft2,fa4,rmm
 21c:	7369                	lui	t1,0xffffa
 21e:	672d7663          	bgeu	s10,s2,88a <main-0xf7ea>
 222:	756e                	flw	fa0,248(sp)
 224:	742d                	lui	s0,0xfffeb
 226:	636c6f6f          	jal	t5,c685c <__BSS_END__+0xafcb4>
 22a:	6168                	flw	fa0,68(a0)
 22c:	6e69                	lui	t3,0x1a
 22e:	6975622f          	0x6975622f
 232:	646c                	flw	fa1,76(s0)
 234:	672d                	lui	a4,0xb
 236:	6e2d6363          	bltu	s10,sp,91c <main-0xf758>
 23a:	7765                	lui	a4,0xffff9
 23c:	696c                	flw	fa1,84(a0)
 23e:	2d62                	fld	fs10,24(sp)
 240:	67617473          	csrrci	s0,0x676,2
 244:	3265                	jal	fffffbec <__BSS_END__+0xfffe9044>
 246:	7369722f          	0x7369722f
 24a:	34367663          	bgeu	a2,gp,596 <main-0xfade>
 24e:	752d                	lui	a0,0xfffeb
 250:	6b6e                	flw	fs6,216(sp)
 252:	6f6e                	flw	ft10,216(sp)
 254:	652d6e77          	0x652d6e77
 258:	666c                	flw	fa1,76(a2)
 25a:	3376722f          	0x3376722f
 25e:	6932                	flw	fs2,12(sp)
 260:	666d                	lui	a2,0x1b
 262:	706c692f          	0x706c692f
 266:	2f663233          	0x2f663233
 26a:	696c                	flw	fa1,84(a0)
 26c:	6762                	flw	fa4,24(sp)
 26e:	55006363          	bltu	zero,a6,7b4 <main-0xf8c0>
 272:	79744953          	0x79744953
 276:	6570                	flw	fa2,76(a0)
 278:	5f00                	lw	s0,56(a4)
 27a:	725f 0030 5f5f      	0x5f5f0030725f
 280:	3172                	fld	ft2,312(sp)
 282:	5f00                	lw	s0,56(a4)
 284:	755f 0068 5f5f      	0x5f5f0068755f
 28a:	6c75                	lui	s8,0x1d
 28c:	4700                	lw	s0,8(a4)
 28e:	554e                	lw	a0,240(sp)
 290:	4320                	lw	s0,64(a4)
 292:	3731                	jal	19e <main-0xfed6>
 294:	3120                	fld	fs0,96(a0)
 296:	2e30                	fld	fa2,88(a2)
 298:	2e32                	fld	ft8,264(sp)
 29a:	2030                	fld	fa2,64(s0)
 29c:	6d2d                	lui	s10,0xb
 29e:	646f6d63          	bltu	t5,t1,8f8 <main-0xf77c>
 2a2:	6c65                	lui	s8,0x19
 2a4:	6d3d                	lui	s10,0xf
 2a6:	6465                	lui	s0,0x19
 2a8:	6f6c                	flw	fa1,92(a4)
 2aa:	6d2d2077          	0x6d2d2077
 2ae:	7261                	lui	tp,0xffff8
 2b0:	723d6863          	bltu	s10,gp,9e0 <main-0xf694>
 2b4:	3376                	fld	ft6,376(sp)
 2b6:	6932                	flw	fs2,12(sp)
 2b8:	666d                	lui	a2,0x1b
 2ba:	2d20                	fld	fs0,88(a0)
 2bc:	616d                	addi	sp,sp,240
 2be:	6962                	flw	fs2,24(sp)
 2c0:	693d                	lui	s2,0xf
 2c2:	706c                	flw	fa1,100(s0)
 2c4:	20663233          	0x20663233
 2c8:	6d2d                	lui	s10,0xb
 2ca:	646f6d63          	bltu	t5,t1,924 <main-0xf750>
 2ce:	6c65                	lui	s8,0x19
 2d0:	6d3d                	lui	s10,0xf
 2d2:	6465                	lui	s0,0x19
 2d4:	6f6c                	flw	fa1,92(a4)
 2d6:	6d2d2077          	0x6d2d2077
 2da:	7574                	flw	fa3,108(a0)
 2dc:	656e                	flw	fa0,216(sp)
 2de:	723d                	lui	tp,0xfffef
 2e0:	656b636f          	jal	t1,b6936 <__BSS_END__+0x9fd8e>
 2e4:	2074                	fld	fa3,192(s0)
 2e6:	6d2d                	lui	s10,0xb
 2e8:	7261                	lui	tp,0xffff8
 2ea:	723d6863          	bltu	s10,gp,a1a <main-0xf65a>
 2ee:	3376                	fld	ft6,376(sp)
 2f0:	6932                	flw	fs2,12(sp)
 2f2:	666d                	lui	a2,0x1b
 2f4:	2d20                	fld	fs0,88(a0)
 2f6:	4f2d2067          	0x4f2d2067
 2fa:	4f2d2073          	csrs	0x4f2,s10
 2fe:	2032                	fld	ft0,264(sp)
 300:	4f2d                	li	t5,11
 302:	662d2073          	csrs	0x662,s10
 306:	7562                	flw	fa0,56(sp)
 308:	6c69                	lui	s8,0x1a
 30a:	6964                	flw	fs1,84(a0)
 30c:	676e                	flw	fa4,216(sp)
 30e:	6c2d                	lui	s8,0xb
 310:	6269                	lui	tp,0x1a
 312:	20636367          	0x20636367
 316:	662d                	lui	a2,0xb
 318:	6f6e                	flw	ft10,216(sp)
 31a:	732d                	lui	t1,0xfffeb
 31c:	6174                	flw	fa3,68(a0)
 31e:	702d6b63          	bltu	s10,sp,a34 <main-0xf640>
 322:	6f72                	flw	ft10,28(sp)
 324:	6574                	flw	fa3,76(a0)
 326:	726f7463          	bgeu	t5,t1,a4e <main-0xf626>
 32a:	2d20                	fld	fs0,88(a0)
 32c:	7666                	flw	fa2,120(sp)
 32e:	7369                	lui	t1,0xffffa
 330:	6269                	lui	tp,0x1a
 332:	6c69                	lui	s8,0x1a
 334:	7469                	lui	s0,0xffffa
 336:	3d79                	jal	1d4 <main-0xfea0>
 338:	6968                	flw	fa0,84(a0)
 33a:	6464                	flw	fs1,76(s0)
 33c:	6e65                	lui	t3,0x19
	...

Disassembly of section .debug_loc:

00000000 <.debug_loc>:
   0:	0000                	unimp
   2:	0000                	unimp
   4:	0010                	0x10
   6:	0000                	unimp
   8:	0006                	c.slli	zero,0x1
   a:	935a                	add	t1,t1,s6
   c:	5b04                	lw	s1,48(a4)
   e:	00100493          	li	s1,1
  12:	0000                	unimp
  14:	0434                	addi	a3,sp,520
  16:	0000                	unimp
  18:	0006                	c.slli	zero,0x1
  1a:	0af503f3          	0xaf503f3
  1e:	9f25                	0x9f25
	...
  2c:	0074                	addi	a3,sp,12
  2e:	0000                	unimp
  30:	0006                	c.slli	zero,0x1
  32:	935c                	0x935c
  34:	5d04                	lw	s1,56(a0)
  36:	00740493          	addi	s1,s0,7 # ffffa007 <__BSS_END__+0xfffe345f>
  3a:	0000                	unimp
  3c:	00f8                	addi	a4,sp,76
  3e:	0000                	unimp
  40:	0006                	c.slli	zero,0x1
  42:	0cf503f3          	0xcf503f3
  46:	9f25                	0x9f25
  48:	00f8                	addi	a4,sp,76
  4a:	0000                	unimp
  4c:	013c                	addi	a5,sp,136
  4e:	0000                	unimp
  50:	0006                	c.slli	zero,0x1
  52:	935c                	0x935c
  54:	5d04                	lw	s1,56(a0)
  56:	013c0493          	addi	s1,s8,19 # 1a013 <__BSS_END__+0x346b>
  5a:	0000                	unimp
  5c:	01dc                	addi	a5,sp,196
  5e:	0000                	unimp
  60:	0006                	c.slli	zero,0x1
  62:	0cf503f3          	0xcf503f3
  66:	9f25                	0x9f25
  68:	01dc                	addi	a5,sp,196
  6a:	0000                	unimp
  6c:	01f0                	addi	a2,sp,204
  6e:	0000                	unimp
  70:	0006                	c.slli	zero,0x1
  72:	935c                	0x935c
  74:	5d04                	lw	s1,56(a0)
  76:	01f00493          	li	s1,31
  7a:	0000                	unimp
  7c:	029c                	addi	a5,sp,320
  7e:	0000                	unimp
  80:	0006                	c.slli	zero,0x1
  82:	0cf503f3          	0xcf503f3
  86:	9f25                	0x9f25
  88:	029c                	addi	a5,sp,320
  8a:	0000                	unimp
  8c:	0328                	addi	a0,sp,392
  8e:	0000                	unimp
  90:	0006                	c.slli	zero,0x1
  92:	935c                	0x935c
  94:	5d04                	lw	s1,56(a0)
  96:	03280493          	addi	s1,a6,50 # ffff9032 <__BSS_END__+0xfffe248a>
  9a:	0000                	unimp
  9c:	0428                	addi	a0,sp,520
  9e:	0000                	unimp
  a0:	0006                	c.slli	zero,0x1
  a2:	0cf503f3          	0xcf503f3
  a6:	9f25                	0x9f25
  a8:	0428                	addi	a0,sp,520
  aa:	0000                	unimp
  ac:	0434                	addi	a3,sp,520
  ae:	0000                	unimp
  b0:	0006                	c.slli	zero,0x1
  b2:	935c                	0x935c
  b4:	5d04                	lw	s1,56(a0)
  b6:	00000493          	li	s1,0
  ba:	0000                	unimp
  bc:	0000                	unimp
  be:	0000                	unimp
  c0:	0004                	0x4
  c2:	0000                	unimp
  c4:	01d8                	addi	a4,sp,196
  c6:	0000                	unimp
  c8:	0002                	c.slli64	zero
  ca:	9f30                	0x9f30
  cc:	01dc                	addi	a5,sp,196
  ce:	0000                	unimp
  d0:	0434                	addi	a3,sp,520
  d2:	0000                	unimp
  d4:	0002                	c.slli64	zero
  d6:	9f30                	0x9f30
	...
  e0:	0004                	0x4
  e2:	0000                	unimp
  e4:	001c                	0x1c
  e6:	0000                	unimp
  e8:	0006                	c.slli	zero,0x1
  ea:	935c                	0x935c
  ec:	5d04                	lw	s1,56(a0)
  ee:	001c0493          	addi	s1,s8,1
  f2:	0000                	unimp
  f4:	0038                	addi	a4,sp,8
  f6:	0000                	unimp
  f8:	0006                	c.slli	zero,0x1
  fa:	935c                	0x935c
  fc:	5a04                	lw	s1,48(a2)
  fe:	00f80493          	addi	s1,a6,15
 102:	0000                	unimp
 104:	00fc                	addi	a5,sp,76
 106:	0000                	unimp
 108:	0006                	c.slli	zero,0x1
 10a:	935c                	0x935c
 10c:	5a04                	lw	s1,48(a2)
 10e:	010c0493          	addi	s1,s8,16
 112:	0000                	unimp
 114:	012c                	addi	a1,sp,136
 116:	0000                	unimp
 118:	0006                	c.slli	zero,0x1
 11a:	935c                	0x935c
 11c:	5a04                	lw	s1,48(a2)
 11e:	01dc0493          	addi	s1,s8,29
 122:	0000                	unimp
 124:	01e4                	addi	s1,sp,204
 126:	0000                	unimp
 128:	0006                	c.slli	zero,0x1
 12a:	935c                	0x935c
 12c:	5a04                	lw	s1,48(a2)
 12e:	029c0493          	addi	s1,s8,41
 132:	0000                	unimp
 134:	02bc                	addi	a5,sp,328
 136:	0000                	unimp
 138:	0006                	c.slli	zero,0x1
 13a:	935c                	0x935c
 13c:	5a04                	lw	s1,48(a2)
 13e:	02bc0493          	addi	s1,s8,43
 142:	0000                	unimp
 144:	02ec                	addi	a1,sp,332
 146:	0000                	unimp
 148:	0006                	c.slli	zero,0x1
 14a:	935c                	0x935c
 14c:	5d04                	lw	s1,56(a0)
 14e:	02ec0493          	addi	s1,s8,46
 152:	0000                	unimp
 154:	0300                	addi	s0,sp,384
 156:	0000                	unimp
 158:	0006                	c.slli	zero,0x1
 15a:	935c                	0x935c
 15c:	5a04                	lw	s1,48(a2)
 15e:	03000493          	li	s1,48
 162:	0000                	unimp
 164:	0308                	addi	a0,sp,384
 166:	0000                	unimp
 168:	0006                	c.slli	zero,0x1
 16a:	935c                	0x935c
 16c:	5d04                	lw	s1,56(a0)
 16e:	04280493          	addi	s1,a6,66
 172:	0000                	unimp
 174:	0430                	addi	a2,sp,520
 176:	0000                	unimp
 178:	0006                	c.slli	zero,0x1
 17a:	935c                	0x935c
 17c:	5a04                	lw	s1,48(a2)
 17e:	04300493          	li	s1,67
 182:	0000                	unimp
 184:	0434                	addi	a3,sp,520
 186:	0000                	unimp
 188:	0006                	c.slli	zero,0x1
 18a:	935c                	0x935c
 18c:	5d04                	lw	s1,56(a0)
 18e:	00000493          	li	s1,0
 192:	0000                	unimp
 194:	0000                	unimp
 196:	0000                	unimp
 198:	0004                	0x4
 19a:	0000                	unimp
 19c:	0010                	0x10
 19e:	0000                	unimp
 1a0:	0006                	c.slli	zero,0x1
 1a2:	935a                	add	t1,t1,s6
 1a4:	5b04                	lw	s1,48(a4)
 1a6:	00100493          	li	s1,1
 1aa:	0000                	unimp
 1ac:	0058                	addi	a4,sp,4
 1ae:	0000                	unimp
 1b0:	0006                	c.slli	zero,0x1
 1b2:	9361                	srli	a4,a4,0x38
 1b4:	5b04                	lw	s1,48(a4)
 1b6:	00580493          	addi	s1,a6,5
 1ba:	0000                	unimp
 1bc:	006c                	addi	a1,sp,12
 1be:	0000                	unimp
 1c0:	0006                	c.slli	zero,0x1
 1c2:	9361                	srli	a4,a4,0x38
 1c4:	5f04                	lw	s1,56(a4)
 1c6:	00f80493          	addi	s1,a6,15
 1ca:	0000                	unimp
 1cc:	0150                	addi	a2,sp,132
 1ce:	0000                	unimp
 1d0:	0006                	c.slli	zero,0x1
 1d2:	9356                	add	t1,t1,s5
 1d4:	5b04                	lw	s1,48(a4)
 1d6:	01dc0493          	addi	s1,s8,29
 1da:	0000                	unimp
 1dc:	01fc                	addi	a5,sp,204
 1de:	0000                	unimp
 1e0:	0006                	c.slli	zero,0x1
 1e2:	9356                	add	t1,t1,s5
 1e4:	5b04                	lw	s1,48(a4)
 1e6:	01fc0493          	addi	s1,s8,31
 1ea:	0000                	unimp
 1ec:	0208                	addi	a0,sp,256
 1ee:	0000                	unimp
 1f0:	0006                	c.slli	zero,0x1
 1f2:	9361                	srli	a4,a4,0x38
 1f4:	5b04                	lw	s1,48(a4)
 1f6:	029c0493          	addi	s1,s8,41
 1fa:	0000                	unimp
 1fc:	02b0                	addi	a2,sp,328
 1fe:	0000                	unimp
 200:	0006                	c.slli	zero,0x1
 202:	9356                	add	t1,t1,s5
 204:	5b04                	lw	s1,48(a4)
 206:	02b00493          	li	s1,43
 20a:	0000                	unimp
 20c:	02ec                	addi	a1,sp,332
 20e:	0000                	unimp
 210:	0006                	c.slli	zero,0x1
 212:	9356                	add	t1,t1,s5
 214:	5f04                	lw	s1,56(a4)
 216:	02ec0493          	addi	s1,s8,46
 21a:	0000                	unimp
 21c:	02f4                	addi	a3,sp,332
 21e:	0000                	unimp
 220:	0006                	c.slli	zero,0x1
 222:	9356                	add	t1,t1,s5
 224:	5b04                	lw	s1,48(a4)
 226:	02f40493          	addi	s1,s0,47
 22a:	0000                	unimp
 22c:	031c                	addi	a5,sp,384
 22e:	0000                	unimp
 230:	0006                	c.slli	zero,0x1
 232:	9356                	add	t1,t1,s5
 234:	5f04                	lw	s1,56(a4)
 236:	04280493          	addi	s1,a6,66
 23a:	0000                	unimp
 23c:	042c                	addi	a1,sp,520
 23e:	0000                	unimp
 240:	0006                	c.slli	zero,0x1
 242:	9356                	add	t1,t1,s5
 244:	5b04                	lw	s1,48(a4)
 246:	042c0493          	addi	s1,s8,66
 24a:	0000                	unimp
 24c:	0434                	addi	a3,sp,520
 24e:	0000                	unimp
 250:	0006                	c.slli	zero,0x1
 252:	9356                	add	t1,t1,s5
 254:	5f04                	lw	s1,56(a4)
 256:	00000493          	li	s1,0
 25a:	0000                	unimp
 25c:	0000                	unimp
 25e:	0000                	unimp
 260:	000c                	0xc
 262:	0000                	unimp
 264:	0054                	addi	a3,sp,4
 266:	0000                	unimp
 268:	0001                	nop
 26a:	545c                	lw	a5,44(s0)
 26c:	0000                	unimp
 26e:	6000                	flw	fs0,0(s0)
 270:	0000                	unimp
 272:	0900                	addi	s0,sp,144
 274:	7c00                	flw	fs0,56(s0)
 276:	7d00                	flw	fs0,56(a0)
 278:	0800                	addi	s0,sp,16
 27a:	1aff                	0x1aff
 27c:	9f24                	0x9f24
 27e:	0060                	addi	s0,sp,12
 280:	0000                	unimp
 282:	00f0                	addi	a2,sp,76
 284:	0000                	unimp
 286:	0001                	nop
 288:	f860                	fsw	fs0,116(s0)
 28a:	0000                	unimp
 28c:	1400                	addi	s0,sp,544
 28e:	0001                	nop
 290:	0100                	addi	s0,sp,128
 292:	5c00                	lw	s0,56(s0)
 294:	0114                	addi	a3,sp,128
 296:	0000                	unimp
 298:	0118                	addi	a4,sp,128
 29a:	0000                	unimp
 29c:	f731000b          	0xf731000b
 2a0:	7c2c                	flw	fa1,120(s0)
 2a2:	f700                	fsw	fs0,40(a4)
 2a4:	1b2c                	addi	a1,sp,440
 2a6:	189f00f7          	0x189f00f7
 2aa:	0001                	nop
 2ac:	d800                	sw	s0,48(s0)
 2ae:	0001                	nop
 2b0:	0100                	addi	s0,sp,128
 2b2:	6000                	flw	fs0,0(s0)
 2b4:	01dc                	addi	a5,sp,196
 2b6:	0000                	unimp
 2b8:	01f0                	addi	a2,sp,204
 2ba:	0000                	unimp
 2bc:	0001                	nop
 2be:	f060                	fsw	fs0,100(s0)
 2c0:	0001                	nop
 2c2:	f400                	fsw	fs0,40(s0)
 2c4:	0001                	nop
 2c6:	0900                	addi	s0,sp,144
 2c8:	8000                	0x8000
 2ca:	7d00                	flw	fs0,56(a0)
 2cc:	0800                	addi	s0,sp,16
 2ce:	1aff                	0x1aff
 2d0:	9f24                	0x9f24
 2d2:	01f4                	addi	a3,sp,204
 2d4:	0000                	unimp
 2d6:	029c                	addi	a5,sp,320
 2d8:	0000                	unimp
 2da:	0001                	nop
 2dc:	9c60                	0x9c60
 2de:	0002                	c.slli64	zero
 2e0:	2400                	fld	fs0,8(s0)
 2e2:	01000003          	lb	zero,16(zero) # 10 <main-0x10064>
 2e6:	5c00                	lw	s0,56(s0)
 2e8:	0324                	addi	s1,sp,392
 2ea:	0000                	unimp
 2ec:	03c4                	addi	s1,sp,452
 2ee:	0000                	unimp
 2f0:	0001                	nop
 2f2:	2856                	fld	fa6,336(sp)
 2f4:	0004                	0x4
 2f6:	3400                	fld	fs0,40(s0)
 2f8:	0004                	0x4
 2fa:	0100                	addi	s0,sp,128
 2fc:	5c00                	lw	s0,56(s0)
	...
 306:	0010                	0x10
 308:	0000                	unimp
 30a:	001c                	0x1c
 30c:	0000                	unimp
 30e:	0001                	nop
 310:	1c5d                	addi	s8,s8,-9
 312:	0000                	unimp
 314:	3800                	fld	fs0,48(s0)
 316:	0000                	unimp
 318:	0100                	addi	s0,sp,128
 31a:	5a00                	lw	s0,48(a2)
 31c:	00f8                	addi	a4,sp,76
 31e:	0000                	unimp
 320:	00fc                	addi	a5,sp,76
 322:	0000                	unimp
 324:	0001                	nop
 326:	0c5a                	slli	s8,s8,0x16
 328:	0001                	nop
 32a:	2c00                	fld	fs0,24(s0)
 32c:	0001                	nop
 32e:	0100                	addi	s0,sp,128
 330:	5a00                	lw	s0,48(a2)
 332:	01dc                	addi	a5,sp,196
 334:	0000                	unimp
 336:	01e4                	addi	s1,sp,204
 338:	0000                	unimp
 33a:	0001                	nop
 33c:	9c5a                	add	s8,s8,s6
 33e:	0002                	c.slli64	zero
 340:	bc00                	fsd	fs0,56(s0)
 342:	0002                	c.slli64	zero
 344:	0100                	addi	s0,sp,128
 346:	5a00                	lw	s0,48(a2)
 348:	02bc                	addi	a5,sp,328
 34a:	0000                	unimp
 34c:	02ec                	addi	a1,sp,332
 34e:	0000                	unimp
 350:	0001                	nop
 352:	ec5d                	bnez	s0,410 <main-0xfc64>
 354:	0002                	c.slli64	zero
 356:	0000                	unimp
 358:	01000003          	lb	zero,16(zero) # 10 <main-0x10064>
 35c:	5a00                	lw	s0,48(a2)
 35e:	0300                	addi	s0,sp,384
 360:	0000                	unimp
 362:	0308                	addi	a0,sp,384
 364:	0000                	unimp
 366:	0001                	nop
 368:	0c5d                	addi	s8,s8,23
 36a:	b8000003          	lb	zero,-1152(zero) # fffffb80 <__BSS_END__+0xfffe8fd8>
 36e:	01000003          	lb	zero,16(zero) # 10 <main-0x10064>
 372:	6000                	flw	fs0,0(s0)
 374:	0428                	addi	a0,sp,520
 376:	0000                	unimp
 378:	0430                	addi	a2,sp,520
 37a:	0000                	unimp
 37c:	0001                	nop
 37e:	305a                	fld	ft0,432(sp)
 380:	0004                	0x4
 382:	3400                	fld	fs0,40(s0)
 384:	0004                	0x4
 386:	0100                	addi	s0,sp,128
 388:	5d00                	lw	s0,56(a0)
	...
 392:	0014                	0x14
 394:	0000                	unimp
 396:	0068                	addi	a0,sp,12
 398:	0000                	unimp
 39a:	0001                	nop
 39c:	6861                	lui	a6,0x18
 39e:	0000                	unimp
 3a0:	b800                	fsd	fs0,48(s0)
 3a2:	0000                	unimp
 3a4:	0100                	addi	s0,sp,128
 3a6:	5600                	lw	s0,40(a2)
 3a8:	00f8                	addi	a4,sp,76
 3aa:	0000                	unimp
 3ac:	01a0                	addi	s0,sp,200
 3ae:	0000                	unimp
 3b0:	0001                	nop
 3b2:	dc56                	sw	s5,56(sp)
 3b4:	0001                	nop
 3b6:	fc00                	fsw	fs0,56(s0)
 3b8:	0001                	nop
 3ba:	0100                	addi	s0,sp,128
 3bc:	5600                	lw	s0,40(a2)
 3be:	01fc                	addi	a5,sp,204
 3c0:	0000                	unimp
 3c2:	0208                	addi	a0,sp,256
 3c4:	0000                	unimp
 3c6:	0001                	nop
 3c8:	0c61                	addi	s8,s8,24
 3ca:	0002                	c.slli64	zero
 3cc:	2400                	fld	fs0,8(s0)
 3ce:	01000003          	lb	zero,16(zero) # 10 <main-0x10064>
 3d2:	5600                	lw	s0,40(a2)
 3d4:	0324                	addi	s1,sp,392
 3d6:	0000                	unimp
 3d8:	0328                	addi	a0,sp,392
 3da:	0000                	unimp
 3dc:	0001                	nop
 3de:	2861                	jal	476 <main-0xfbfe>
 3e0:	14000003          	lb	zero,320(zero) # 140 <main-0xff34>
 3e4:	0004                	0x4
 3e6:	0600                	addi	s0,sp,768
 3e8:	8100                	0x8100
 3ea:	7b00                	flw	fs0,48(a4)
 3ec:	2400                	fld	fs0,8(s0)
 3ee:	289f 0004 3400      	0x34000004289f
 3f4:	0004                	0x4
 3f6:	0100                	addi	s0,sp,128
 3f8:	5600                	lw	s0,40(a2)
	...
 402:	0014                	0x14
 404:	0000                	unimp
 406:	0058                	addi	a4,sp,4
 408:	0000                	unimp
 40a:	0001                	nop
 40c:	0000585b          	0x585b
 410:	6400                	flw	fs0,8(s0)
 412:	0000                	unimp
 414:	0100                	addi	s0,sp,128
 416:	5f00                	lw	s0,56(a4)
 418:	0064                	addi	s1,sp,12
 41a:	0000                	unimp
 41c:	0088                	addi	a0,sp,64
 41e:	0000                	unimp
 420:	0001                	nop
 422:	0000f85b          	0xf85b
 426:	4c00                	lw	s0,24(s0)
 428:	0001                	nop
 42a:	0100                	addi	s0,sp,128
 42c:	5b00                	lw	s0,48(a4)
 42e:	014c                	addi	a1,sp,132
 430:	0000                	unimp
 432:	0168                	addi	a0,sp,140
 434:	0000                	unimp
 436:	0001                	nop
 438:	dc5f 0001 0c00      	0xc000001dc5f
 43e:	0002                	c.slli64	zero
 440:	0100                	addi	s0,sp,128
 442:	5b00                	lw	s0,48(a4)
 444:	020c                	addi	a1,sp,256
 446:	0000                	unimp
 448:	0258                	addi	a4,sp,260
 44a:	0000                	unimp
 44c:	0001                	nop
 44e:	985c                	0x985c
 450:	0002                	c.slli64	zero
 452:	9c00                	0x9c00
 454:	0002                	c.slli64	zero
 456:	0100                	addi	s0,sp,128
 458:	5f00                	lw	s0,56(a4)
 45a:	029c                	addi	a5,sp,320
 45c:	0000                	unimp
 45e:	02b0                	addi	a2,sp,328
 460:	0000                	unimp
 462:	0001                	nop
 464:	0002b05b          	0x2b05b
 468:	ec00                	fsw	fs0,24(s0)
 46a:	0002                	c.slli64	zero
 46c:	0100                	addi	s0,sp,128
 46e:	5f00                	lw	s0,56(a4)
 470:	02ec                	addi	a1,sp,332
 472:	0000                	unimp
 474:	02f4                	addi	a3,sp,332
 476:	0000                	unimp
 478:	0001                	nop
 47a:	0002f45b          	0x2f45b
 47e:	1c00                	addi	s0,sp,560
 480:	01000003          	lb	zero,16(zero) # 10 <main-0x10064>
 484:	5f00                	lw	s0,56(a4)
 486:	0328                	addi	a0,sp,392
 488:	0000                	unimp
 48a:	0388                	addi	a0,sp,448
 48c:	0000                	unimp
 48e:	0001                	nop
 490:	c85c                	sw	a5,20(s0)
 492:	00000003          	lb	zero,0(zero) # 0 <main-0x10074>
 496:	0004                	0x4
 498:	0100                	addi	s0,sp,128
 49a:	5f00                	lw	s0,56(a4)
 49c:	0428                	addi	a0,sp,520
 49e:	0000                	unimp
 4a0:	042c                	addi	a1,sp,520
 4a2:	0000                	unimp
 4a4:	0001                	nop
 4a6:	00042c5b          	0x42c5b
 4aa:	3400                	fld	fs0,40(s0)
 4ac:	0004                	0x4
 4ae:	0100                	addi	s0,sp,128
 4b0:	5f00                	lw	s0,56(a4)
	...
 4ba:	01f8                	addi	a4,sp,204
 4bc:	0000                	unimp
 4be:	0220                	addi	s0,sp,264
 4c0:	0000                	unimp
 4c2:	0001                	nop
 4c4:	245a                	fld	fs0,400(sp)
 4c6:	38000003          	lb	zero,896(zero) # 380 <main-0xfcf4>
 4ca:	01000003          	lb	zero,16(zero) # 10 <main-0x10064>
 4ce:	6c00                	flw	fs0,24(s0)
	...
 4d8:	00f0                	addi	a2,sp,76
 4da:	0000                	unimp
 4dc:	00f8                	addi	a4,sp,76
 4de:	0000                	unimp
 4e0:	0001                	nop
 4e2:	c85a                	sw	s6,16(sp)
 4e4:	28000003          	lb	zero,640(zero) # 280 <main-0xfdf4>
 4e8:	0004                	0x4
 4ea:	0100                	addi	s0,sp,128
 4ec:	5a00                	lw	s0,48(a2)
	...
 4f6:	014c                	addi	a1,sp,132
 4f8:	0000                	unimp
 4fa:	0150                	addi	a2,sp,132
 4fc:	0000                	unimp
 4fe:	0002                	c.slli64	zero
 500:	9f31                	0x9f31
 502:	0150                	addi	a2,sp,132
 504:	0000                	unimp
 506:	01d8                	addi	a4,sp,196
 508:	0000                	unimp
 50a:	0001                	nop
 50c:	0002985b          	0x2985b
 510:	9c00                	0x9c00
 512:	0002                	c.slli64	zero
 514:	0100                	addi	s0,sp,128
 516:	5b00                	lw	s0,48(a4)
	...
 520:	01f0                	addi	a2,sp,204
 522:	0000                	unimp
 524:	0204                	addi	s1,sp,256
 526:	0000                	unimp
 528:	0001                	nop
 52a:	005e                	c.slli	zero,0x17
 52c:	20000003          	lb	zero,512(zero) # 200 <main-0xfe74>
 530:	01000003          	lb	zero,16(zero) # 10 <main-0x10064>
 534:	5e00                	lw	s0,56(a2)
	...
 53e:	0050                	addi	a2,sp,4
 540:	0000                	unimp
 542:	0070                	addi	a2,sp,12
 544:	0000                	unimp
 546:	0001                	nop
 548:	445d                	li	s0,23
 54a:	0001                	nop
 54c:	5000                	lw	s0,32(s0)
 54e:	0001                	nop
 550:	0100                	addi	s0,sp,128
 552:	5d00                	lw	s0,56(a0)
 554:	01f0                	addi	a2,sp,204
 556:	0000                	unimp
 558:	022c                	addi	a1,sp,264
 55a:	0000                	unimp
 55c:	0001                	nop
 55e:	d45d                	beqz	s0,50c <main-0xfb68>
 560:	0002                	c.slli64	zero
 562:	ec00                	fsw	fs0,24(s0)
 564:	0002                	c.slli64	zero
 566:	0100                	addi	s0,sp,128
 568:	5b00                	lw	s0,48(a4)
 56a:	0300                	addi	s0,sp,384
 56c:	0000                	unimp
 56e:	041c                	addi	a5,sp,512
 570:	0000                	unimp
 572:	0001                	nop
 574:	0000005b          	0x5b
 578:	0000                	unimp
 57a:	0000                	unimp
 57c:	2400                	fld	fs0,8(s0)
 57e:	0000                	unimp
 580:	5400                	lw	s0,40(s0)
 582:	0000                	unimp
 584:	0100                	addi	s0,sp,128
 586:	5c00                	lw	s0,56(s0)
 588:	0054                	addi	a3,sp,4
 58a:	0000                	unimp
 58c:	0060                	addi	s0,sp,12
 58e:	0000                	unimp
 590:	0009                	c.nop	2
 592:	007c                	addi	a5,sp,12
 594:	007d                	c.nop	31
 596:	ff08                	fsw	fa0,56(a4)
 598:	241a                	fld	fs0,384(sp)
 59a:	609f 0000 f000      	0xf0000000609f
 5a0:	0000                	unimp
 5a2:	0100                	addi	s0,sp,128
 5a4:	6000                	flw	fs0,0(s0)
 5a6:	00f8                	addi	a4,sp,76
 5a8:	0000                	unimp
 5aa:	010c                	addi	a1,sp,128
 5ac:	0000                	unimp
 5ae:	0001                	nop
 5b0:	005c                	addi	a5,sp,4
 5b2:	0000                	unimp
 5b4:	0000                	unimp
 5b6:	0000                	unimp
 5b8:	3800                	fld	fs0,48(s0)
 5ba:	0000                	unimp
 5bc:	4c00                	lw	s0,24(s0)
 5be:	0000                	unimp
 5c0:	0100                	addi	s0,sp,128
 5c2:	5e00                	lw	s0,56(a2)
	...
 5cc:	006c                	addi	a1,sp,12
 5ce:	0000                	unimp
 5d0:	00f0                	addi	a2,sp,76
 5d2:	0000                	unimp
 5d4:	0001                	nop
 5d6:	0061                	c.nop	24
 5d8:	0000                	unimp
 5da:	0000                	unimp
 5dc:	0000                	unimp
 5de:	7800                	flw	fs0,48(s0)
 5e0:	0000                	unimp
 5e2:	d000                	sw	s0,32(s0)
 5e4:	0000                	unimp
 5e6:	0100                	addi	s0,sp,128
 5e8:	5c00                	lw	s0,56(s0)
 5ea:	00d0                	addi	a2,sp,68
 5ec:	0000                	unimp
 5ee:	00f0                	addi	a2,sp,76
 5f0:	0000                	unimp
 5f2:	00800007          	0x800007
 5f6:	2440                	fld	fs0,136(s0)
 5f8:	2540                	fld	fs0,136(a0)
 5fa:	009f 0000 0000      	0x9f
 600:	0000                	unimp
 602:	8000                	0x8000
 604:	0000                	unimp
 606:	9c00                	0x9c00
 608:	0000                	unimp
 60a:	0100                	addi	s0,sp,128
 60c:	5d00                	lw	s0,56(a0)
 60e:	009c                	addi	a5,sp,64
 610:	0000                	unimp
 612:	00ec                	addi	a1,sp,76
 614:	0000                	unimp
 616:	0001                	nop
 618:	005a                	c.slli	zero,0x16
 61a:	0000                	unimp
 61c:	0000                	unimp
 61e:	0000                	unimp
 620:	c000                	sw	s0,0(s0)
 622:	0000                	unimp
 624:	dc00                	sw	s0,56(s0)
 626:	0000                	unimp
 628:	0100                	addi	s0,sp,128
 62a:	5f00                	lw	s0,56(a4)
 62c:	00dc                	addi	a5,sp,68
 62e:	0000                	unimp
 630:	00f0                	addi	a2,sp,76
 632:	0000                	unimp
 634:	0001                	nop
 636:	005c                	addi	a5,sp,4
 638:	0000                	unimp
 63a:	0000                	unimp
 63c:	0000                	unimp
 63e:	8000                	0x8000
 640:	0000                	unimp
 642:	8c00                	0x8c00
 644:	0000                	unimp
 646:	0100                	addi	s0,sp,128
 648:	5e00                	lw	s0,56(a2)
 64a:	0090                	addi	a2,sp,64
 64c:	0000                	unimp
 64e:	0098                	addi	a4,sp,64
 650:	0000                	unimp
 652:	0001                	nop
 654:	985f 0000 9c00      	0x9c000000985f
 65a:	0000                	unimp
 65c:	0800                	addi	s0,sp,16
 65e:	7600                	flw	fs0,40(a2)
 660:	4000                	lw	s0,0(s0)
 662:	7e25                	lui	t3,0xfffe9
 664:	2100                	fld	fs0,0(a0)
 666:	9c9f 0000 c000      	0xc00000009c9f
 66c:	0000                	unimp
 66e:	0100                	addi	s0,sp,128
 670:	5f00                	lw	s0,56(a4)
	...
 67a:	00b4                	addi	a3,sp,72
 67c:	0000                	unimp
 67e:	00c4                	addi	s1,sp,68
 680:	0000                	unimp
 682:	0001                	nop
 684:	cc5e                	sw	s7,24(sp)
 686:	0000                	unimp
 688:	d800                	sw	s0,48(s0)
 68a:	0000                	unimp
 68c:	0100                	addi	s0,sp,128
 68e:	5600                	lw	s0,40(a2)
	...
 698:	0088                	addi	a0,sp,64
 69a:	0000                	unimp
 69c:	00cc                	addi	a1,sp,68
 69e:	0000                	unimp
 6a0:	0001                	nop
 6a2:	0000cc5b          	0xcc5b
 6a6:	f000                	fsw	fs0,32(s0)
 6a8:	0000                	unimp
 6aa:	0100                	addi	s0,sp,128
 6ac:	5d00                	lw	s0,56(a0)
	...
 6b6:	03f4                	addi	a3,sp,460
 6b8:	0000                	unimp
 6ba:	0424                	addi	s1,sp,520
 6bc:	0000                	unimp
 6be:	0001                	nop
 6c0:	005c                	addi	a5,sp,4
 6c2:	0000                	unimp
 6c4:	0000                	unimp
 6c6:	0000                	unimp
 6c8:	f400                	fsw	fs0,40(s0)
 6ca:	08000003          	lb	zero,128(zero) # 80 <main-0xfff4>
 6ce:	0004                	0x4
 6d0:	1000                	addi	s0,sp,32
 6d2:	8c00                	0x8c00
 6d4:	0a00                	addi	s0,sp,272
 6d6:	ffff                	0xffff
 6d8:	7e1a                	flw	ft8,164(sp)
 6da:	0a00                	addi	s0,sp,272
 6dc:	ffff                	0xffff
 6de:	401a                	0x401a
 6e0:	2224                	fld	fs1,64(a2)
 6e2:	089f 0004 1000      	0x10000004089f
 6e8:	0004                	0x4
 6ea:	1500                	addi	s0,sp,672
 6ec:	8c00                	0x8c00
 6ee:	0a00                	addi	s0,sp,272
 6f0:	ffff                	0xffff
 6f2:	8c1a                	mv	s8,t1
 6f4:	4000                	lw	s0,0(s0)
 6f6:	8025                	srli	s0,s0,0x9
 6f8:	2200                	fld	fs0,0(a2)
 6fa:	ff0a                	fsw	ft2,188(sp)
 6fc:	1aff                	0x1aff
 6fe:	2440                	fld	fs0,136(s0)
 700:	9f22                	add	t5,t5,s0
	...
 70a:	0328                	addi	a0,sp,392
 70c:	0000                	unimp
 70e:	03ac                	addi	a1,sp,456
 710:	0000                	unimp
 712:	0001                	nop
 714:	ac6d                	j	9ce <main-0xf6a6>
 716:	b8000003          	lb	zero,-1152(zero) # fffffb80 <__BSS_END__+0xfffe8fd8>
 71a:	05000003          	lb	zero,80(zero) # 50 <main-0x10024>
 71e:	8000                	0x8000
 720:	4000                	lw	s0,0(s0)
 722:	9f25                	0x9f25
	...
 72c:	0330                	addi	a2,sp,392
 72e:	0000                	unimp
 730:	037c                	addi	a5,sp,396
 732:	0000                	unimp
 734:	0001                	nop
 736:	7c5f 0003 b800      	0xb80000037c5f
 73c:	07000003          	lb	zero,112(zero) # 70 <main-0x10004>
 740:	8000                	0x8000
 742:	4000                	lw	s0,0(s0)
 744:	4024                	lw	s1,64(s0)
 746:	9f25                	0x9f25
	...
 750:	0338                	addi	a4,sp,392
 752:	0000                	unimp
 754:	0354                	addi	a3,sp,388
 756:	0000                	unimp
 758:	0001                	nop
 75a:	546c                	lw	a1,108(s0)
 75c:	a8000003          	lb	zero,-1408(zero) # fffffa80 <__BSS_END__+0xfffe8ed8>
 760:	01000003          	lb	zero,16(zero) # 10 <main-0x10064>
 764:	5a00                	lw	s0,48(a2)
	...
 76e:	0370                	addi	a2,sp,396
 770:	0000                	unimp
 772:	0394                	addi	a3,sp,448
 774:	0000                	unimp
 776:	0001                	nop
 778:	945e                	add	s0,s0,s7
 77a:	bc000003          	lb	zero,-1088(zero) # fffffbc0 <__BSS_END__+0xfffe9018>
 77e:	01000003          	lb	zero,16(zero) # 10 <main-0x10064>
 782:	5c00                	lw	s0,56(s0)
	...
 78c:	0330                	addi	a2,sp,392
 78e:	0000                	unimp
 790:	033c                	addi	a5,sp,392
 792:	0000                	unimp
 794:	0001                	nop
 796:	445d                	li	s0,23
 798:	50000003          	lb	zero,1280(zero) # 500 <main-0xfb74>
 79c:	01000003          	lb	zero,16(zero) # 10 <main-0x10064>
 7a0:	5e00                	lw	s0,56(a2)
 7a2:	0350                	addi	a2,sp,388
 7a4:	0000                	unimp
 7a6:	0354                	addi	a3,sp,388
 7a8:	0000                	unimp
 7aa:	0008                	0x8
 7ac:	007c                	addi	a5,sp,12
 7ae:	2540                	fld	fs0,136(a0)
 7b0:	007d                	c.nop	31
 7b2:	9f21                	0x9f21
 7b4:	0354                	addi	a3,sp,388
 7b6:	0000                	unimp
 7b8:	0370                	addi	a2,sp,396
 7ba:	0000                	unimp
 7bc:	0001                	nop
 7be:	005e                	c.slli	zero,0x17
 7c0:	0000                	unimp
 7c2:	0000                	unimp
 7c4:	0000                	unimp
 7c6:	6c00                	flw	fs0,24(s0)
 7c8:	74000003          	lb	zero,1856(zero) # 740 <main-0xf934>
 7cc:	01000003          	lb	zero,16(zero) # 10 <main-0x10064>
 7d0:	5d00                	lw	s0,56(a0)
 7d2:	0384                	addi	s1,sp,448
 7d4:	0000                	unimp
 7d6:	0390                	addi	a2,sp,448
 7d8:	0000                	unimp
 7da:	0001                	nop
 7dc:	945f 0003 0000      	0x3945f
 7e2:	0004                	0x4
 7e4:	0100                	addi	s0,sp,128
 7e6:	5f00                	lw	s0,56(a4)
	...
 7f0:	0344                	addi	s1,sp,388
 7f2:	0000                	unimp
 7f4:	0378                	addi	a4,sp,396
 7f6:	0000                	unimp
 7f8:	0001                	nop
 7fa:	786e                	flw	fa6,248(sp)
 7fc:	cc000003          	lb	zero,-832(zero) # fffffcc0 <__BSS_END__+0xfffe9118>
 800:	01000003          	lb	zero,16(zero) # 10 <main-0x10064>
 804:	6c00                	flw	fs0,24(s0)
	...
 80e:	03cc                	addi	a1,sp,452
 810:	0000                	unimp
 812:	0410                	addi	a2,sp,512
 814:	0000                	unimp
 816:	0001                	nop
 818:	006c                	addi	a1,sp,12
 81a:	0000                	unimp
 81c:	0000                	unimp
 81e:	0000                	unimp
 820:	cc00                	sw	s0,24(s0)
 822:	d8000003          	lb	zero,-640(zero) # fffffd80 <__BSS_END__+0xfffe91d8>
 826:	06000003          	lb	zero,96(zero) # 60 <main-0x10014>
 82a:	8000                	0x8000
 82c:	7600                	flw	fs0,40(a2)
 82e:	1e00                	addi	s0,sp,816
 830:	d89f 0003 dc00      	0xdc000003d89f
 836:	01000003          	lb	zero,16(zero) # 10 <main-0x10064>
 83a:	6000                	flw	fs0,0(s0)
 83c:	03dc                	addi	a5,sp,452
 83e:	0000                	unimp
 840:	03e4                	addi	s1,sp,460
 842:	0000                	unimp
 844:	0009                	c.nop	2
 846:	7f8d                	lui	t6,0xfffe3
 848:	007a                	c.slli	zero,0x1e
 84a:	761a                	flw	fa2,164(sp)
 84c:	1e00                	addi	s0,sp,816
 84e:	e49f 0003 0800      	0x8000003e49f
 854:	0004                	0x4
 856:	0100                	addi	s0,sp,128
 858:	5e00                	lw	s0,56(a2)
 85a:	0408                	addi	a0,sp,512
 85c:	0000                	unimp
 85e:	0410                	addi	a2,sp,512
 860:	0000                	unimp
 862:	0008                	0x8
 864:	008c                	addi	a1,sp,64
 866:	2540                	fld	fs0,136(a0)
 868:	0080                	addi	s0,sp,64
 86a:	9f22                	add	t5,t5,s0
	...
 874:	03d0                	addi	a2,sp,452
 876:	0000                	unimp
 878:	03f0                	addi	a2,sp,460
 87a:	0000                	unimp
 87c:	0001                	nop
 87e:	005d                	c.nop	23
 880:	0000                	unimp
 882:	0000                	unimp
 884:	0000                	unimp
 886:	e400                	fsw	fs0,8(s0)
 888:	f4000003          	lb	zero,-192(zero) # ffffff40 <__BSS_END__+0xfffe9398>
 88c:	01000003          	lb	zero,16(zero) # 10 <main-0x10064>
 890:	5c00                	lw	s0,56(s0)
	...
 89a:	03c8                	addi	a0,sp,452
 89c:	0000                	unimp
 89e:	03d8                	addi	a4,sp,452
 8a0:	0000                	unimp
 8a2:	0001                	nop
 8a4:	d860                	sw	s0,116(s0)
 8a6:	04000003          	lb	zero,64(zero) # 40 <main-0x10034>
 8aa:	0004                	0x4
 8ac:	0600                	addi	s0,sp,768
 8ae:	8d00                	0x8d00
 8b0:	7a7f                	0x7a7f
 8b2:	1a00                	addi	s0,sp,304
 8b4:	049f 0004 2000      	0x20000004049f
 8ba:	0004                	0x4
 8bc:	0600                	addi	s0,sp,768
 8be:	7a00                	flw	fs0,48(a2)
 8c0:	7f00                	flw	fs0,56(a4)
 8c2:	1a00                	addi	s0,sp,304
 8c4:	209f 0004 2400      	0x24000004209f
 8ca:	0004                	0x4
 8cc:	0600                	addi	s0,sp,768
 8ce:	8d00                	0x8d00
 8d0:	7a7f                	0x7a7f
 8d2:	1a00                	addi	s0,sp,304
 8d4:	249f 0004 2800      	0x28000004249f
 8da:	0004                	0x4
 8dc:	0600                	addi	s0,sp,768
 8de:	7a00                	flw	fs0,48(a2)
 8e0:	8d01                	sub	a0,a0,s0
 8e2:	1a7f                	0x1a7f
 8e4:	009f 0000 0000      	0x9f
 8ea:	0000                	unimp
 8ec:	c800                	sw	s0,16(s0)
 8ee:	d0000003          	lb	zero,-768(zero) # fffffd00 <__BSS_END__+0xfffe9158>
 8f2:	01000003          	lb	zero,16(zero) # 10 <main-0x10064>
 8f6:	5d00                	lw	s0,56(a0)
	...
 900:	03c8                	addi	a0,sp,452
 902:	0000                	unimp
 904:	03e4                	addi	s1,sp,460
 906:	0000                	unimp
 908:	0001                	nop
 90a:	e45c                	fsw	fa5,12(s0)
 90c:	24000003          	lb	zero,576(zero) # 240 <main-0xfe34>
 910:	0004                	0x4
 912:	0500                	addi	s0,sp,640
 914:	7a00                	flw	fs0,48(a2)
 916:	4000                	lw	s0,0(s0)
 918:	9f25                	0x9f25
 91a:	0424                	addi	s1,sp,520
 91c:	0000                	unimp
 91e:	0428                	addi	a0,sp,520
 920:	0000                	unimp
 922:	0005                	c.nop	1
 924:	017a                	slli	sp,sp,0x1e
 926:	2540                	fld	fs0,136(a0)
 928:	009f 0000 0000      	0x9f
 92e:	0000                	unimp
 930:	c800                	sw	s0,16(s0)
 932:	28000003          	lb	zero,640(zero) # 280 <main-0xfdf4>
 936:	0004                	0x4
 938:	0100                	addi	s0,sp,128
 93a:	5600                	lw	s0,40(a2)
	...
 944:	0118                	addi	a4,sp,128
 946:	0000                	unimp
 948:	01d8                	addi	a4,sp,196
 94a:	0000                	unimp
 94c:	0001                	nop
 94e:	dc60                	sw	s0,124(s0)
 950:	0001                	nop
 952:	f000                	fsw	fs0,32(s0)
 954:	0001                	nop
 956:	0100                	addi	s0,sp,128
 958:	6000                	flw	fs0,0(s0)
 95a:	01f0                	addi	a2,sp,204
 95c:	0000                	unimp
 95e:	01f4                	addi	a3,sp,204
 960:	0000                	unimp
 962:	0009                	c.nop	2
 964:	0080                	addi	s0,sp,64
 966:	007d                	c.nop	31
 968:	ff08                	fsw	fa0,56(a4)
 96a:	241a                	fld	fs0,384(sp)
 96c:	f49f 0001 9c00      	0x9c000001f49f
 972:	0002                	c.slli64	zero
 974:	0100                	addi	s0,sp,128
 976:	6000                	flw	fs0,0(s0)
	...
 980:	012c                	addi	a1,sp,136
 982:	0000                	unimp
 984:	0150                	addi	a2,sp,132
 986:	0000                	unimp
 988:	0001                	nop
 98a:	f05a                	fsw	fs6,32(sp)
 98c:	0001                	nop
 98e:	f800                	fsw	fs0,48(s0)
 990:	0001                	nop
 992:	0100                	addi	s0,sp,128
 994:	5a00                	lw	s0,48(a2)
	...
 99e:	0154                	addi	a3,sp,132
 9a0:	0000                	unimp
 9a2:	01d8                	addi	a4,sp,196
 9a4:	0000                	unimp
 9a6:	0001                	nop
 9a8:	0061                	c.nop	24
 9aa:	0000                	unimp
 9ac:	0000                	unimp
 9ae:	0000                	unimp
 9b0:	5c00                	lw	s0,56(s0)
 9b2:	0001                	nop
 9b4:	b800                	fsd	fs0,48(s0)
 9b6:	0001                	nop
 9b8:	0100                	addi	s0,sp,128
 9ba:	5c00                	lw	s0,56(s0)
 9bc:	01b8                	addi	a4,sp,200
 9be:	0000                	unimp
 9c0:	01d8                	addi	a4,sp,196
 9c2:	0000                	unimp
 9c4:	00800007          	0x800007
 9c8:	2440                	fld	fs0,136(s0)
 9ca:	2540                	fld	fs0,136(a0)
 9cc:	009f 0000 0000      	0x9f
 9d2:	0000                	unimp
 9d4:	6800                	flw	fs0,16(s0)
 9d6:	0001                	nop
 9d8:	8400                	0x8400
 9da:	0001                	nop
 9dc:	0100                	addi	s0,sp,128
 9de:	5f00                	lw	s0,56(a4)
 9e0:	0184                	addi	s1,sp,192
 9e2:	0000                	unimp
 9e4:	01d4                	addi	a3,sp,196
 9e6:	0000                	unimp
 9e8:	0001                	nop
 9ea:	005a                	c.slli	zero,0x16
 9ec:	0000                	unimp
 9ee:	0000                	unimp
 9f0:	0000                	unimp
 9f2:	a800                	fsd	fs0,16(s0)
 9f4:	0001                	nop
 9f6:	c400                	sw	s0,8(s0)
 9f8:	0001                	nop
 9fa:	0100                	addi	s0,sp,128
 9fc:	5e00                	lw	s0,56(a2)
 9fe:	01c4                	addi	s1,sp,196
 a00:	0000                	unimp
 a02:	01d8                	addi	a4,sp,196
 a04:	0000                	unimp
 a06:	0001                	nop
 a08:	005c                	addi	a5,sp,4
 a0a:	0000                	unimp
 a0c:	0000                	unimp
 a0e:	0000                	unimp
 a10:	6400                	flw	fs0,8(s0)
 a12:	0001                	nop
 a14:	6c00                	flw	fs0,24(s0)
 a16:	0001                	nop
 a18:	0100                	addi	s0,sp,128
 a1a:	5d00                	lw	s0,56(a0)
 a1c:	0174                	addi	a3,sp,140
 a1e:	0000                	unimp
 a20:	0180                	addi	s0,sp,192
 a22:	0000                	unimp
 a24:	0001                	nop
 a26:	805e                	c.mv	zero,s7
 a28:	0001                	nop
 a2a:	8400                	0x8400
 a2c:	0001                	nop
 a2e:	0800                	addi	s0,sp,16
 a30:	7600                	flw	fs0,40(a2)
 a32:	4000                	lw	s0,0(s0)
 a34:	7d25                	lui	s10,0xfffe9
 a36:	2100                	fld	fs0,0(a0)
 a38:	849f 0001 a800      	0xa8000001849f
 a3e:	0001                	nop
 a40:	0100                	addi	s0,sp,128
 a42:	5e00                	lw	s0,56(a2)
	...
 a4c:	019c                	addi	a5,sp,192
 a4e:	0000                	unimp
 a50:	01ac                	addi	a1,sp,200
 a52:	0000                	unimp
 a54:	0001                	nop
 a56:	b45f 0001 c000      	0xc0000001b45f
 a5c:	0001                	nop
 a5e:	0100                	addi	s0,sp,128
 a60:	5600                	lw	s0,40(a2)
	...
 a6a:	0174                	addi	a3,sp,140
 a6c:	0000                	unimp
 a6e:	01b4                	addi	a3,sp,200
 a70:	0000                	unimp
 a72:	0001                	nop
 a74:	b46c                	fsd	fa1,232(s0)
 a76:	0001                	nop
 a78:	d800                	sw	s0,48(s0)
 a7a:	0001                	nop
 a7c:	0100                	addi	s0,sp,128
 a7e:	5d00                	lw	s0,56(a0)
	...
 a88:	020c                	addi	a1,sp,256
 a8a:	0000                	unimp
 a8c:	029c                	addi	a5,sp,320
 a8e:	0000                	unimp
 a90:	0001                	nop
 a92:	0061                	c.nop	24
 a94:	0000                	unimp
 a96:	0000                	unimp
 a98:	0000                	unimp
 a9a:	1800                	addi	s0,sp,48
 a9c:	0002                	c.slli64	zero
 a9e:	6c00                	flw	fs0,24(s0)
 aa0:	0002                	c.slli64	zero
 aa2:	0100                	addi	s0,sp,128
 aa4:	5f00                	lw	s0,56(a4)
 aa6:	026c                	addi	a1,sp,268
 aa8:	0000                	unimp
 aaa:	029c                	addi	a5,sp,320
 aac:	0000                	unimp
 aae:	00800007          	0x800007
 ab2:	2440                	fld	fs0,136(s0)
 ab4:	2540                	fld	fs0,136(a0)
 ab6:	009f 0000 0000      	0x9f
 abc:	0000                	unimp
 abe:	2000                	fld	fs0,0(s0)
 ac0:	0002                	c.slli64	zero
 ac2:	3c00                	fld	fs0,56(s0)
 ac4:	0002                	c.slli64	zero
 ac6:	0100                	addi	s0,sp,128
 ac8:	5a00                	lw	s0,48(a2)
 aca:	023c                	addi	a5,sp,264
 acc:	0000                	unimp
 ace:	0290                	addi	a2,sp,320
 ad0:	0000                	unimp
 ad2:	0001                	nop
 ad4:	0000005b          	0x5b
 ad8:	0000                	unimp
 ada:	0000                	unimp
 adc:	6000                	flw	fs0,0(s0)
 ade:	0002                	c.slli64	zero
 ae0:	7c00                	flw	fs0,56(s0)
 ae2:	0002                	c.slli64	zero
 ae4:	0100                	addi	s0,sp,128
 ae6:	5d00                	lw	s0,56(a0)
 ae8:	027c                	addi	a5,sp,268
 aea:	0000                	unimp
 aec:	029c                	addi	a5,sp,320
 aee:	0000                	unimp
 af0:	0001                	nop
 af2:	005e                	c.slli	zero,0x17
 af4:	0000                	unimp
 af6:	0000                	unimp
 af8:	0000                	unimp
 afa:	1800                	addi	s0,sp,48
 afc:	0002                	c.slli64	zero
 afe:	2400                	fld	fs0,8(s0)
 b00:	0002                	c.slli64	zero
 b02:	0100                	addi	s0,sp,128
 b04:	5e00                	lw	s0,56(a2)
 b06:	022c                	addi	a1,sp,264
 b08:	0000                	unimp
 b0a:	0238                	addi	a4,sp,264
 b0c:	0000                	unimp
 b0e:	0001                	nop
 b10:	3c5e                	fld	fs8,496(sp)
 b12:	0002                	c.slli64	zero
 b14:	5000                	lw	s0,32(s0)
 b16:	0002                	c.slli64	zero
 b18:	0100                	addi	s0,sp,128
 b1a:	5e00                	lw	s0,56(a2)
 b1c:	0250                	addi	a2,sp,260
 b1e:	0000                	unimp
 b20:	0260                	addi	s0,sp,268
 b22:	0000                	unimp
 b24:	0001                	nop
 b26:	005d                	c.nop	23
 b28:	0000                	unimp
 b2a:	0000                	unimp
 b2c:	0000                	unimp
 b2e:	5400                	lw	s0,40(s0)
 b30:	0002                	c.slli64	zero
 b32:	6400                	flw	fs0,8(s0)
 b34:	0002                	c.slli64	zero
 b36:	0100                	addi	s0,sp,128
 b38:	5e00                	lw	s0,56(a2)
 b3a:	026c                	addi	a1,sp,268
 b3c:	0000                	unimp
 b3e:	0278                	addi	a4,sp,268
 b40:	0000                	unimp
 b42:	0001                	nop
 b44:	7c5f 0002 9c00      	0x9c0000027c5f
 b4a:	0002                	c.slli64	zero
 b4c:	0100                	addi	s0,sp,128
 b4e:	5f00                	lw	s0,56(a4)
	...
 b58:	022c                	addi	a1,sp,264
 b5a:	0000                	unimp
 b5c:	0250                	addi	a2,sp,260
 b5e:	0000                	unimp
 b60:	0001                	nop
 b62:	505d                	c.li	zero,-9
 b64:	0002                	c.slli64	zero
 b66:	6800                	flw	fs0,16(s0)
 b68:	0002                	c.slli64	zero
 b6a:	0600                	addi	s0,sp,768
 b6c:	7f00                	flw	fs0,56(a4)
 b6e:	7a00                	flw	fs0,48(a2)
 b70:	1e00                	addi	s0,sp,816
 b72:	689f 0002 9c00      	0x9c000002689f
 b78:	0002                	c.slli64	zero
 b7a:	0100                	addi	s0,sp,128
 b7c:	5a00                	lw	s0,48(a2)
	...
 b86:	02a0                	addi	s0,sp,328
 b88:	0000                	unimp
 b8a:	02bc                	addi	a5,sp,328
 b8c:	0000                	unimp
 b8e:	0001                	nop
 b90:	bc5a                	fsd	fs6,56(sp)
 b92:	0002                	c.slli64	zero
 b94:	ec00                	fsw	fs0,24(s0)
 b96:	0002                	c.slli64	zero
 b98:	0100                	addi	s0,sp,128
 b9a:	5d00                	lw	s0,56(a0)
 b9c:	02ec                	addi	a1,sp,332
 b9e:	0000                	unimp
 ba0:	0300                	addi	s0,sp,384
 ba2:	0000                	unimp
 ba4:	0001                	nop
 ba6:	005a                	c.slli	zero,0x16
 ba8:	08000003          	lb	zero,128(zero) # 80 <main-0xfff4>
 bac:	01000003          	lb	zero,16(zero) # 10 <main-0x10064>
 bb0:	5d00                	lw	s0,56(a0)
	...
 bba:	02b4                	addi	a3,sp,328
 bbc:	0000                	unimp
 bbe:	02d4                	addi	a3,sp,324
 bc0:	0000                	unimp
 bc2:	0001                	nop
 bc4:	0000005b          	0x5b
 bc8:	0000                	unimp
 bca:	0000                	unimp
	...

Disassembly of section .debug_ranges:

00000000 <.debug_ranges>:
   0:	0004                	0x4
   2:	0000                	unimp
   4:	0004                	0x4
   6:	0000                	unimp
   8:	0008                	0x8
   a:	0000                	unimp
   c:	01d8                	addi	a4,sp,196
   e:	0000                	unimp
  10:	01dc                	addi	a5,sp,196
  12:	0000                	unimp
  14:	0424                	addi	s1,sp,520
  16:	0000                	unimp
  18:	0428                	addi	a0,sp,520
  1a:	0000                	unimp
  1c:	0434                	addi	a3,sp,520
	...
  26:	0000                	unimp
  28:	0024                	addi	s1,sp,8
  2a:	0000                	unimp
  2c:	0050                	addi	a2,sp,4
  2e:	0000                	unimp
  30:	00f8                	addi	a4,sp,76
  32:	0000                	unimp
  34:	010c                	addi	a1,sp,128
	...
  3e:	0000                	unimp
  40:	00f0                	addi	a2,sp,76
  42:	0000                	unimp
  44:	00f8                	addi	a4,sp,76
  46:	0000                	unimp
  48:	0300                	addi	s0,sp,384
  4a:	0000                	unimp
  4c:	0424                	addi	s1,sp,520
	...
  56:	0000                	unimp
  58:	0310                	addi	a2,sp,384
  5a:	0000                	unimp
  5c:	0318                	addi	a4,sp,384
  5e:	0000                	unimp
  60:	0328                	addi	a0,sp,392
  62:	0000                	unimp
  64:	03a8                	addi	a0,sp,456
  66:	0000                	unimp
  68:	03ac                	addi	a1,sp,456
  6a:	0000                	unimp
  6c:	03b0                	addi	a2,sp,456
  6e:	0000                	unimp
  70:	03c4                	addi	s1,sp,452
  72:	0000                	unimp
  74:	03c8                	addi	a0,sp,452
	...
  7e:	0000                	unimp
  80:	03a8                	addi	a0,sp,456
  82:	0000                	unimp
  84:	03ac                	addi	a1,sp,456
  86:	0000                	unimp
  88:	03b0                	addi	a2,sp,456
  8a:	0000                	unimp
  8c:	03c4                	addi	s1,sp,452
  8e:	0000                	unimp
  90:	03c8                	addi	a0,sp,452
  92:	0000                	unimp
  94:	03f4                	addi	a3,sp,460
  96:	0000                	unimp
  98:	03fc                	addi	a5,sp,460
  9a:	0000                	unimp
  9c:	0410                	addi	a2,sp,512
  9e:	0000                	unimp
  a0:	0414                	addi	a3,sp,512
  a2:	0000                	unimp
  a4:	0418                	addi	a4,sp,512
	...
  ae:	0000                	unimp
  b0:	0118                	addi	a4,sp,128
  b2:	0000                	unimp
  b4:	0144                	addi	s1,sp,132
  b6:	0000                	unimp
  b8:	01dc                	addi	a5,sp,196
  ba:	0000                	unimp
  bc:	01f0                	addi	a2,sp,204
	...
  c6:	0000                	unimp
  c8:	0204                	addi	s1,sp,256
  ca:	0000                	unimp
  cc:	0208                	addi	a0,sp,256
  ce:	0000                	unimp
  d0:	020c                	addi	a1,sp,256
  d2:	0000                	unimp
  d4:	029c                	addi	a5,sp,320
	...
  de:	0000                	unimp
  e0:	02a0                	addi	s0,sp,328
  e2:	0000                	unimp
  e4:	02d4                	addi	a3,sp,324
  e6:	0000                	unimp
  e8:	02ec                	addi	a1,sp,332
  ea:	0000                	unimp
  ec:	0300                	addi	s0,sp,384
	...
