
./miniterm.elf:     file format elf32-littleriscv
./miniterm.elf
architecture: riscv:rv32, flags 0x00000112:
EXEC_P, HAS_SYMS, D_PAGED
start address 0x00010628

Program Header:
    LOAD off    0x00000000 vaddr 0x00010000 paddr 0x00010000 align 2**12
         filesz 0x000041f8 memsz 0x000041f8 flags r-x
    LOAD off    0x000041f8 vaddr 0x000151f8 paddr 0x000151f8 align 2**12
         filesz 0x000007c0 memsz 0x00000ae8 flags rw-

Sections:
Idx Name          Size      VMA       LMA       File off  Algn
  0 .text         0000273c  00010074  00010074  00000074  2**2
                  CONTENTS, ALLOC, LOAD, READONLY, CODE
  1 .rodata       00001a48  000127b0  000127b0  000027b0  2**2
                  CONTENTS, ALLOC, LOAD, READONLY, DATA
  2 .eh_frame     00000340  000151f8  000151f8  000041f8  2**2
                  CONTENTS, ALLOC, LOAD, DATA
  3 .init_array   0000000c  00015538  00015538  00004538  2**2
                  CONTENTS, ALLOC, LOAD, DATA
  4 .fini_array   00000004  00015544  00015544  00004544  2**2
                  CONTENTS, ALLOC, LOAD, DATA
  5 .data         00000440  00015548  00015548  00004548  2**3
                  CONTENTS, ALLOC, LOAD, DATA
  6 .got          00000028  00015988  00015988  00004988  2**2
                  CONTENTS, ALLOC, LOAD, DATA
  7 .sdata        00000008  000159b0  000159b0  000049b0  2**2
                  CONTENTS, ALLOC, LOAD, DATA
  8 .bss          00000328  000159b8  000159b8  000049b8  2**2
                  ALLOC
  9 .comment      00000012  00000000  00000000  000049b8  2**0
                  CONTENTS, READONLY
 10 .riscv.attributes 0000002a  00000000  00000000  000049ca  2**0
                  CONTENTS, READONLY
 11 .debug_aranges 00000038  00000000  00000000  000049f4  2**0
                  CONTENTS, READONLY, DEBUGGING, OCTETS
 12 .debug_info   00000889  00000000  00000000  00004a2c  2**0
                  CONTENTS, READONLY, DEBUGGING, OCTETS
 13 .debug_abbrev 0000020d  00000000  00000000  000052b5  2**0
                  CONTENTS, READONLY, DEBUGGING, OCTETS
 14 .debug_line   000007a8  00000000  00000000  000054c2  2**0
                  CONTENTS, READONLY, DEBUGGING, OCTETS
 15 .debug_str    0000033f  00000000  00000000  00005c6a  2**0
                  CONTENTS, READONLY, DEBUGGING, OCTETS
 16 .debug_loc    00000bcd  00000000  00000000  00005fa9  2**0
                  CONTENTS, READONLY, DEBUGGING, OCTETS
 17 .debug_ranges 000000f8  00000000  00000000  00006b76  2**0
                  CONTENTS, READONLY, DEBUGGING, OCTETS
SYMBOL TABLE:
00010074 l    d  .text	00000000 .text
000127b0 l    d  .rodata	00000000 .rodata
000151f8 l    d  .eh_frame	00000000 .eh_frame
00015538 l    d  .init_array	00000000 .init_array
00015544 l    d  .fini_array	00000000 .fini_array
00015548 l    d  .data	00000000 .data
00015988 l    d  .got	00000000 .got
000159b0 l    d  .sdata	00000000 .sdata
000159b8 l    d  .bss	00000000 .bss
00000000 l    d  .comment	00000000 .comment
00000000 l    d  .riscv.attributes	00000000 .riscv.attributes
00000000 l    d  .debug_aranges	00000000 .debug_aranges
00000000 l    d  .debug_info	00000000 .debug_info
00000000 l    d  .debug_abbrev	00000000 .debug_abbrev
00000000 l    d  .debug_line	00000000 .debug_line
00000000 l    d  .debug_str	00000000 .debug_str
00000000 l    d  .debug_loc	00000000 .debug_loc
00000000 l    d  .debug_ranges	00000000 .debug_ranges
00000000 l    df *ABS*	00000000 miniterm.cpp
00000000 l    df *ABS*	00000000 gpu.cpp
000105f4 l     F .text	0000001c _GLOBAL__sub_I_gpu.cpp
00000000 l    df *ABS*	00000000 __call_atexit.c
00010610 l     F .text	00000018 register_fini
00000000 l    df *ABS*	00000000 crtstuff.c
000151f8 l     O .eh_frame	00000000 __EH_FRAME_BEGIN__
00010674 l     F .text	00000000 __do_global_dtors_aux
000159b8 l     O .bss	00000001 completed.1
00015544 l     O .fini_array	00000000 __do_global_dtors_aux_fini_array_entry
000106c0 l     F .text	00000000 frame_dummy
000159bc l     O .bss	00000018 object.0
0001553c l     O .init_array	00000000 __frame_dummy_init_array_entry
00000000 l    df *ABS*	00000000 uart.cpp
00000000 l    df *ABS*	00000000 core.cpp
00000000 l    df *ABS*	00000000 console.cpp
000159d4 l     O .bss	00000300 _ZL11consoleText
00015cd4 l     O .bss	00000004 _ZL7cursorx
00015cd8 l     O .bss	00000004 _ZL7cursory
00000000 l    df *ABS*	00000000 libgcc2.c
00000000 l    df *ABS*	00000000 errno.c
00000000 l    df *ABS*	00000000 exit.c
00000000 l    df *ABS*	00000000 init.c
00000000 l    df *ABS*	00000000 memcpy.c
00000000 l    df *ABS*	00000000 fini.c
00000000 l    df *ABS*	00000000 atexit.c
00000000 l    df *ABS*	00000000 __atexit.c
00000000 l    df *ABS*	00000000 sys_exit.c
00000000 l    df *ABS*	00000000 libgcc2.c
00000000 l    df *ABS*	00000000 debugger.cpp
00000000 l    df *ABS*	00000000 sdcard.cpp
00000000 l    df *ABS*	00000000 ff.c
00000000 l    df *ABS*	00000000 ffunicode.c
00000000 l    df *ABS*	00000000 diskio.c
00000000 l    df *ABS*	00000000 memtest.c
00000000 l    df *ABS*	00000000 nanojpeg.c
00000000 l    df *ABS*	00000000 micromod.c
00000000 l    df *ABS*	00000000 crtstuff.c
00015534 l     O .eh_frame	00000000 __FRAME_END__
00000000 l    df *ABS*	00000000 impure.c
00015560 l     O .data	00000428 impure_data
00000000 l    df *ABS*	00000000 
00015548 l       .fini_array	00000000 __fini_array_end
00015544 l       .fini_array	00000000 __fini_array_start
00015544 l       .init_array	00000000 __init_array_end
00015538 l       .init_array	00000000 __preinit_array_end
00015990 l     O .got	00000000 _GLOBAL_OFFSET_TABLE_
00015538 l       .init_array	00000000 __init_array_start
00015538 l       .init_array	00000000 __preinit_array_start
00011218 g     F .text	0000004c _Z11ClearScreenh
00015d48 g       *ABS*	00000000 __global_pointer$
0001555c g     O .data	00000004 IO_GPUCommandFIFO
00015558 g     O .data	00000004 GraphicsFontStart
00012280 g     F .text	00000008 __errno
00011298 g     F .text	00000344 _Z8PrintDMAiiPKcb
0001554c g     O .data	00000004 IO_UARTRX
000159b0 g       .sdata	00000000 __SDATA_BEGIN__
00015cdc g     O .bss	00000004 font
00012354 g     F .text	00000128 memcpy
000108f8 g     F .text	0000003c _Z16SetConsoleCursorii
000110d8 g     F .text	0000005c _Z11DrawConsolev
000108dc g     F .text	0000001c _Z15ClearConsoleRowv
000159b0 g     O .sdata	00000004 _global_impure_ptr
000122b8 g     F .text	0000009c __libc_init_array
00010848 g     F .text	00000014 _Z9ReadClockv
0001085c g     F .text	00000024 _Z9ClockToMsy
00011e4c g     F .text	00000434 .hidden __udivdi3
000108c4 g     F .text	00000018 _Z12ClearConsolev
00012678 g     F .text	0000005c __libc_fini_array
00011040 g     F .text	00000098 _Z18EchoConsoleHexBytel
00011134 g     F .text	000000e4 _Z18ConsoleStringAtRowPc
00012558 g     F .text	00000120 __call_exitprocs
00010628 g     F .text	0000004c _start
00010880 g     F .text	00000044 _Z12ClockMsToHMSmRmS_S_
000109b8 g     F .text	00000048 _Z21ConsoleCursorStepBackv
000126e8 g     F .text	00000098 __register_exitproc
00010934 g     F .text	00000070 _Z13ScrollConsolev
00015ce0 g       .bss	00000000 __BSS_END__
00010ec0 g     F .text	00000180 _Z14EchoConsoleHexl
000159b8 g       .bss	00000000 __bss_start
00010afc g     F .text	000003c4 _Z11EchoConsolel
00011264 g     F .text	00000034 _Z8InitFontv
0001247c g     F .text	000000dc memset
00010074 g     F .text	00000580 main
0001070c g     F .text	0000013c _Z7EchoHexm
000140f8 g     O .rodata	00000100 .hidden __clz_tab
000126d4 g     F .text	00000014 atexit
00015554 g     O .data	00000004 IO_UARTTX
000159b4 g     O .sdata	00000004 _impure_ptr
00011978 g     F .text	000000f8 _Z11PrintDMAHexiim
00015550 g     O .data	00000004 IO_UARTRXByteCount
00015548 g     O .data	00000004 branchaddress
00015548 g       .data	00000000 __DATA_BEGIN__
000106e0 g     F .text	0000002c _Z8EchoUARTPKc
000115dc g     F .text	0000039c _Z8PrintDMAiiiPKcb
000159b8 g       .sdata	00000000 _edata
00015ce0 g       .bss	00000000 _end
00012288 g     F .text	00000030 exit
00012780 g     F .text	00000030 _exit
000109a4 g     F .text	00000014 _Z16GetConsoleCursorRiS_
00011a70 g     F .text	000003dc _Z15PrintDMADecimaliiib
00010a00 g     F .text	000000fc _Z11EchoConsolePKc



Disassembly of section .text:

00010074 <main>:
   10074:	c4010113          	addi	sp,sp,-960
   10078:	3a112e23          	sw	ra,956(sp)
   1007c:	3a812c23          	sw	s0,952(sp)
   10080:	3a912a23          	sw	s1,948(sp)
   10084:	3b212823          	sw	s2,944(sp)
   10088:	3b312623          	sw	s3,940(sp)
   1008c:	00006917          	auipc	s2,0x6
   10090:	90892903          	lw	s2,-1784(s2) # 15994 <_GLOBAL_OFFSET_TABLE_+0x4>
   10094:	3b412423          	sw	s4,936(sp)
   10098:	3b512223          	sw	s5,932(sp)
   1009c:	3b612023          	sw	s6,928(sp)
   100a0:	39712e23          	sw	s7,924(sp)
   100a4:	39812c23          	sw	s8,920(sp)
   100a8:	39a12823          	sw	s10,912(sp)
   100ac:	39b12623          	sw	s11,908(sp)
   100b0:	39912a23          	sw	s9,916(sp)
   100b4:	1b0010ef          	jal	ra,11264 <_Z8InitFontv>
   100b8:	00092783          	lw	a5,0(s2)
   100bc:	30100713          	li	a4,769
   100c0:	36100493          	li	s1,865
   100c4:	00e7a023          	sw	a4,0(a5)
   100c8:	0097a023          	sw	s1,0(a5)
   100cc:	06700413          	li	s0,103
   100d0:	0087a023          	sw	s0,0(a5)
   100d4:	7f0000ef          	jal	ra,108c4 <_Z12ClearConsolev>
   100d8:	01a00513          	li	a0,26
   100dc:	13c010ef          	jal	ra,11218 <_Z11ClearScreenh>
   100e0:	00002517          	auipc	a0,0x2
   100e4:	6d050513          	addi	a0,a0,1744 # 127b0 <_exit+0x30>
   100e8:	119000ef          	jal	ra,10a00 <_Z11EchoConsolePKc>
   100ec:	00002517          	auipc	a0,0x2
   100f0:	70450513          	addi	a0,a0,1796 # 127f0 <_exit+0x70>
   100f4:	5ec000ef          	jal	ra,106e0 <_Z8EchoUARTPKc>
   100f8:	7e1000ef          	jal	ra,110d8 <_Z11DrawConsolev>
   100fc:	00006797          	auipc	a5,0x6
   10100:	89c7a783          	lw	a5,-1892(a5) # 15998 <_GLOBAL_OFFSET_TABLE_+0x8>
   10104:	00092683          	lw	a3,0(s2)
   10108:	0007a903          	lw	s2,0(a5)
   1010c:	70100793          	li	a5,1793
   10110:	00f6a023          	sw	a5,0(a3)
   10114:	fe090793          	addi	a5,s2,-32
   10118:	0167d713          	srli	a4,a5,0x16
   1011c:	00a79793          	slli	a5,a5,0xa
   10120:	0817e793          	ori	a5,a5,129
   10124:	00a71713          	slli	a4,a4,0xa
   10128:	00f12a23          	sw	a5,20(sp)
   1012c:	09176793          	ori	a5,a4,145
   10130:	00f12c23          	sw	a5,24(sp)
   10134:	04410793          	addi	a5,sp,68
   10138:	02f12623          	sw	a5,44(sp)
   1013c:	04010793          	addi	a5,sp,64
   10140:	00f12e23          	sw	a5,28(sp)
   10144:	03c10793          	addi	a5,sp,60
   10148:	0096a023          	sw	s1,0(a3)
   1014c:	02f12023          	sw	a5,32(sp)
   10150:	0a0007b7          	lui	a5,0xa000
   10154:	0086a023          	sw	s0,0(a3)
   10158:	10078793          	addi	a5,a5,256 # a000100 <__global_pointer$+0x9fea3b8>
   1015c:	fe092023          	sw	zero,-32(s2)
   10160:	00000993          	li	s3,0
   10164:	00000493          	li	s1,0
   10168:	00012823          	sw	zero,16(sp)
   1016c:	00012423          	sw	zero,8(sp)
   10170:	00012623          	sw	zero,12(sp)
   10174:	00100a13          	li	s4,1
   10178:	03810c13          	addi	s8,sp,56
   1017c:	03410b93          	addi	s7,sp,52
   10180:	03010b13          	addi	s6,sp,48
   10184:	00006a97          	auipc	s5,0x6
   10188:	824aaa83          	lw	s5,-2012(s5) # 159a8 <_GLOBAL_OFFSET_TABLE_+0x18>
   1018c:	00006d97          	auipc	s11,0x6
   10190:	810dad83          	lw	s11,-2032(s11) # 1599c <_GLOBAL_OFFSET_TABLE_+0xc>
   10194:	00006d17          	auipc	s10,0x6
   10198:	810d2d03          	lw	s10,-2032(s10) # 159a4 <_GLOBAL_OFFSET_TABLE_+0x14>
   1019c:	02f12423          	sw	a5,40(sp)
   101a0:	6a8000ef          	jal	ra,10848 <_Z9ReadClockv>
   101a4:	6b8000ef          	jal	ra,1085c <_Z9ClockToMsy>
   101a8:	000c0693          	mv	a3,s8
   101ac:	000b8613          	mv	a2,s7
   101b0:	000b0593          	mv	a1,s6
   101b4:	00050413          	mv	s0,a0
   101b8:	6c8000ef          	jal	ra,10880 <_Z12ClockMsToHMSmRmS_S_>
   101bc:	000aa783          	lw	a5,0(s5)
   101c0:	0007a783          	lw	a5,0(a5)
   101c4:	04078a63          	beqz	a5,10218 <main+0x1a4>
   101c8:	000da783          	lw	a5,0(s11)
   101cc:	0007c783          	lbu	a5,0(a5)
   101d0:	0ff7fc93          	andi	s9,a5,255
   101d4:	00800793          	li	a5,8
   101d8:	24fc8a63          	beq	s9,a5,1042c <main+0x3b8>
   101dc:	01b00793          	li	a5,27
   101e0:	18fc8263          	beq	s9,a5,10364 <main+0x2f0>
   101e4:	00d00793          	li	a5,13
   101e8:	0efc8463          	beq	s9,a5,102d0 <main+0x25c>
   101ec:	16098263          	beqz	s3,10350 <main+0x2dc>
   101f0:	00198993          	addi	s3,s3,1
   101f4:	00400793          	li	a5,4
   101f8:	24f98e63          	beq	s3,a5,10454 <main+0x3e0>
   101fc:	000d2703          	lw	a4,0(s10)
   10200:	00d00793          	li	a5,13
   10204:	01970023          	sb	s9,0(a4)
   10208:	00fc9863          	bne	s9,a5,10218 <main+0x1a4>
   1020c:	000d2783          	lw	a5,0(s10)
   10210:	00a00713          	li	a4,10
   10214:	00e78023          	sb	a4,0(a5)
   10218:	fe092783          	lw	a5,-32(s2)
   1021c:	f89792e3          	bne	a5,s1,101a0 <main+0x12c>
   10220:	01a00513          	li	a0,26
   10224:	7f5000ef          	jal	ra,11218 <_Z11ClearScreenh>
   10228:	6b1000ef          	jal	ra,110d8 <_Z11DrawConsolev>
   1022c:	00c12783          	lw	a5,12(sp)
   10230:	21200713          	li	a4,530
   10234:	00148493          	addi	s1,s1,1
   10238:	40f407b3          	sub	a5,s0,a5
   1023c:	00f77a63          	bgeu	a4,a5,10250 <main+0x1dc>
   10240:	00812783          	lw	a5,8(sp)
   10244:	00812623          	sw	s0,12(sp)
   10248:	00178793          	addi	a5,a5,1
   1024c:	00f12423          	sw	a5,8(sp)
   10250:	00812783          	lw	a5,8(sp)
   10254:	0017f793          	andi	a5,a5,1
   10258:	1a078263          	beqz	a5,103fc <main+0x388>
   1025c:	01012783          	lw	a5,16(sp)
   10260:	10079c63          	bnez	a5,10378 <main+0x304>
   10264:	00005797          	auipc	a5,0x5
   10268:	7307a783          	lw	a5,1840(a5) # 15994 <_GLOBAL_OFFSET_TABLE_+0x4>
   1026c:	0007a783          	lw	a5,0(a5)
   10270:	001a4a13          	xori	s4,s4,1
   10274:	00aa1713          	slli	a4,s4,0xa
   10278:	0007a023          	sw	zero,0(a5)
   1027c:	30176713          	ori	a4,a4,769
   10280:	00e7a023          	sw	a4,0(a5)
   10284:	36100713          	li	a4,865
   10288:	00e7a023          	sw	a4,0(a5)
   1028c:	06700713          	li	a4,103
   10290:	00e7a023          	sw	a4,0(a5)
   10294:	01412703          	lw	a4,20(sp)
   10298:	01812603          	lw	a2,24(sp)
   1029c:	00a49693          	slli	a3,s1,0xa
   102a0:	00e7a023          	sw	a4,0(a5)
   102a4:	0164d713          	srli	a4,s1,0x16
   102a8:	00c7a023          	sw	a2,0(a5)
   102ac:	1016e693          	ori	a3,a3,257
   102b0:	00a71713          	slli	a4,a4,0xa
   102b4:	00d7a023          	sw	a3,0(a5)
   102b8:	12176713          	ori	a4,a4,289
   102bc:	00e7a023          	sw	a4,0(a5)
   102c0:	0a600713          	li	a4,166
   102c4:	00e7a023          	sw	a4,0(a5)
   102c8:	fe092023          	sw	zero,-32(s2)
   102cc:	ed5ff06f          	j	101a0 <main+0x12c>
   102d0:	02c12503          	lw	a0,44(sp)
   102d4:	661000ef          	jal	ra,11134 <_Z18ConsoleStringAtRowPc>
   102d8:	00002517          	auipc	a0,0x2
   102dc:	54050513          	addi	a0,a0,1344 # 12818 <_exit+0x98>
   102e0:	720000ef          	jal	ra,10a00 <_Z11EchoConsolePKc>
   102e4:	04514703          	lbu	a4,69(sp)
   102e8:	06300693          	li	a3,99
   102ec:	04d10223          	sb	a3,68(sp)
   102f0:	06c00693          	li	a3,108
   102f4:	1ad70263          	beq	a4,a3,10498 <main+0x424>
   102f8:	06800613          	li	a2,104
   102fc:	04c10223          	sb	a2,68(sp)
   10300:	06500613          	li	a2,101
   10304:	1ac70663          	beq	a4,a2,104b0 <main+0x43c>
   10308:	06400693          	li	a3,100
   1030c:	04d10223          	sb	a3,68(sp)
   10310:	07500693          	li	a3,117
   10314:	1ed71263          	bne	a4,a3,104f8 <main+0x484>
   10318:	04614703          	lbu	a4,70(sp)
   1031c:	06d00693          	li	a3,109
   10320:	26d70a63          	beq	a4,a3,10594 <main+0x520>
   10324:	07200693          	li	a3,114
   10328:	04d10223          	sb	a3,68(sp)
   1032c:	06e00693          	li	a3,110
   10330:	ead71ee3          	bne	a4,a3,101ec <main+0x178>
   10334:	00005797          	auipc	a5,0x5
   10338:	6787a783          	lw	a5,1656(a5) # 159ac <_GLOBAL_OFFSET_TABLE_+0x1c>
   1033c:	0007a083          	lw	ra,0(a5)
   10340:	0ffff637          	lui	a2,0xffff
   10344:	00060113          	mv	sp,a2
   10348:	00008067          	ret
   1034c:	ea0992e3          	bnez	s3,101f0 <main+0x17c>
   10350:	01c12503          	lw	a0,28(sp)
   10354:	05910023          	sb	s9,64(sp)
   10358:	040100a3          	sb	zero,65(sp)
   1035c:	6a4000ef          	jal	ra,10a00 <_Z11EchoConsolePKc>
   10360:	e9dff06f          	j	101fc <main+0x188>
   10364:	000d2783          	lw	a5,0(s10)
   10368:	01b00713          	li	a4,27
   1036c:	00200993          	li	s3,2
   10370:	00e78023          	sb	a4,0(a5)
   10374:	ea5ff06f          	j	10218 <main+0x1a4>
   10378:	03012603          	lw	a2,48(sp)
   1037c:	00100693          	li	a3,1
   10380:	00000593          	li	a1,0
   10384:	00000513          	li	a0,0
   10388:	6e8010ef          	jal	ra,11a70 <_Z15PrintDMADecimaliiib>
   1038c:	00351c93          	slli	s9,a0,0x3
   10390:	00050413          	mv	s0,a0
   10394:	00100693          	li	a3,1
   10398:	000c8513          	mv	a0,s9
   1039c:	00002617          	auipc	a2,0x2
   103a0:	52060613          	addi	a2,a2,1312 # 128bc <_exit+0x13c>
   103a4:	00000593          	li	a1,0
   103a8:	6f1000ef          	jal	ra,11298 <_Z8PrintDMAiiPKcb>
   103ac:	03412603          	lw	a2,52(sp)
   103b0:	00100693          	li	a3,1
   103b4:	00000593          	li	a1,0
   103b8:	008c8513          	addi	a0,s9,8
   103bc:	6b4010ef          	jal	ra,11a70 <_Z15PrintDMADecimaliiib>
   103c0:	00140413          	addi	s0,s0,1
   103c4:	00a40433          	add	s0,s0,a0
   103c8:	00341413          	slli	s0,s0,0x3
   103cc:	00040513          	mv	a0,s0
   103d0:	00100693          	li	a3,1
   103d4:	00002617          	auipc	a2,0x2
   103d8:	4e860613          	addi	a2,a2,1256 # 128bc <_exit+0x13c>
   103dc:	00000593          	li	a1,0
   103e0:	6b9000ef          	jal	ra,11298 <_Z8PrintDMAiiPKcb>
   103e4:	03812603          	lw	a2,56(sp)
   103e8:	00100693          	li	a3,1
   103ec:	00000593          	li	a1,0
   103f0:	00840513          	addi	a0,s0,8
   103f4:	67c010ef          	jal	ra,11a70 <_Z15PrintDMADecimaliiib>
   103f8:	e6dff06f          	j	10264 <main+0x1f0>
   103fc:	01c12583          	lw	a1,28(sp)
   10400:	02012503          	lw	a0,32(sp)
   10404:	5a0000ef          	jal	ra,109a4 <_Z16GetConsoleCursorRiS_>
   10408:	04012583          	lw	a1,64(sp)
   1040c:	03c12503          	lw	a0,60(sp)
   10410:	00100693          	li	a3,1
   10414:	00002617          	auipc	a2,0x2
   10418:	4ac60613          	addi	a2,a2,1196 # 128c0 <_exit+0x140>
   1041c:	00359593          	slli	a1,a1,0x3
   10420:	00351513          	slli	a0,a0,0x3
   10424:	675000ef          	jal	ra,11298 <_Z8PrintDMAiiPKcb>
   10428:	e35ff06f          	j	1025c <main+0x1e8>
   1042c:	58c000ef          	jal	ra,109b8 <_Z21ConsoleCursorStepBackv>
   10430:	00002517          	auipc	a0,0x2
   10434:	3e450513          	addi	a0,a0,996 # 12814 <_exit+0x94>
   10438:	5c8000ef          	jal	ra,10a00 <_Z11EchoConsolePKc>
   1043c:	57c000ef          	jal	ra,109b8 <_Z21ConsoleCursorStepBackv>
   10440:	12099a63          	bnez	s3,10574 <main+0x500>
   10444:	000d2783          	lw	a5,0(s10)
   10448:	00800713          	li	a4,8
   1044c:	00e78023          	sb	a4,0(a5)
   10450:	dc9ff06f          	j	10218 <main+0x1a4>
   10454:	01c12583          	lw	a1,28(sp)
   10458:	02012503          	lw	a0,32(sp)
   1045c:	548000ef          	jal	ra,109a4 <_Z16GetConsoleCursorRiS_>
   10460:	04100713          	li	a4,65
   10464:	0eec8c63          	beq	s9,a4,1055c <main+0x4e8>
   10468:	04200713          	li	a4,66
   1046c:	0cec8c63          	beq	s9,a4,10544 <main+0x4d0>
   10470:	04300713          	li	a4,67
   10474:	0aec8c63          	beq	s9,a4,1052c <main+0x4b8>
   10478:	04400713          	li	a4,68
   1047c:	00ec9a63          	bne	s9,a4,10490 <main+0x41c>
   10480:	03c12503          	lw	a0,60(sp)
   10484:	04012583          	lw	a1,64(sp)
   10488:	fff50513          	addi	a0,a0,-1
   1048c:	46c000ef          	jal	ra,108f8 <_Z16SetConsoleCursorii>
   10490:	00000993          	li	s3,0
   10494:	d69ff06f          	j	101fc <main+0x188>
   10498:	04614683          	lbu	a3,70(sp)
   1049c:	07300713          	li	a4,115
   104a0:	14e68663          	beq	a3,a4,105ec <main+0x578>
   104a4:	07200713          	li	a4,114
   104a8:	04e10223          	sb	a4,68(sp)
   104ac:	d41ff06f          	j	101ec <main+0x178>
   104b0:	04614703          	lbu	a4,70(sp)
   104b4:	fed718e3          	bne	a4,a3,104a4 <main+0x430>
   104b8:	04714683          	lbu	a3,71(sp)
   104bc:	07000713          	li	a4,112
   104c0:	fee692e3          	bne	a3,a4,104a4 <main+0x430>
   104c4:	00002517          	auipc	a0,0x2
   104c8:	3f450513          	addi	a0,a0,1012 # 128b8 <_exit+0x138>
   104cc:	534000ef          	jal	ra,10a00 <_Z11EchoConsolePKc>
   104d0:	00002517          	auipc	a0,0x2
   104d4:	34c50513          	addi	a0,a0,844 # 1281c <_exit+0x9c>
   104d8:	528000ef          	jal	ra,10a00 <_Z11EchoConsolePKc>
   104dc:	00002517          	auipc	a0,0x2
   104e0:	3dc50513          	addi	a0,a0,988 # 128b8 <_exit+0x138>
   104e4:	1fc000ef          	jal	ra,106e0 <_Z8EchoUARTPKc>
   104e8:	00002517          	auipc	a0,0x2
   104ec:	33450513          	addi	a0,a0,820 # 1281c <_exit+0x9c>
   104f0:	1f0000ef          	jal	ra,106e0 <_Z8EchoUARTPKc>
   104f4:	cf9ff06f          	j	101ec <main+0x178>
   104f8:	07400693          	li	a3,116
   104fc:	04d10223          	sb	a3,68(sp)
   10500:	06900693          	li	a3,105
   10504:	fad710e3          	bne	a4,a3,104a4 <main+0x430>
   10508:	04614683          	lbu	a3,70(sp)
   1050c:	06d00713          	li	a4,109
   10510:	f8e69ae3          	bne	a3,a4,104a4 <main+0x430>
   10514:	04714703          	lbu	a4,71(sp)
   10518:	f8c716e3          	bne	a4,a2,104a4 <main+0x430>
   1051c:	01012783          	lw	a5,16(sp)
   10520:	0017c793          	xori	a5,a5,1
   10524:	00f12823          	sw	a5,16(sp)
   10528:	cc5ff06f          	j	101ec <main+0x178>
   1052c:	03c12503          	lw	a0,60(sp)
   10530:	04012583          	lw	a1,64(sp)
   10534:	00000993          	li	s3,0
   10538:	00150513          	addi	a0,a0,1
   1053c:	3bc000ef          	jal	ra,108f8 <_Z16SetConsoleCursorii>
   10540:	cbdff06f          	j	101fc <main+0x188>
   10544:	04012583          	lw	a1,64(sp)
   10548:	03c12503          	lw	a0,60(sp)
   1054c:	00000993          	li	s3,0
   10550:	00158593          	addi	a1,a1,1
   10554:	3a4000ef          	jal	ra,108f8 <_Z16SetConsoleCursorii>
   10558:	ca5ff06f          	j	101fc <main+0x188>
   1055c:	04012583          	lw	a1,64(sp)
   10560:	03c12503          	lw	a0,60(sp)
   10564:	00000993          	li	s3,0
   10568:	fff58593          	addi	a1,a1,-1
   1056c:	38c000ef          	jal	ra,108f8 <_Z16SetConsoleCursorii>
   10570:	c8dff06f          	j	101fc <main+0x188>
   10574:	00198993          	addi	s3,s3,1
   10578:	00400793          	li	a5,4
   1057c:	ecf994e3          	bne	s3,a5,10444 <main+0x3d0>
   10580:	01c12583          	lw	a1,28(sp)
   10584:	02012503          	lw	a0,32(sp)
   10588:	00000993          	li	s3,0
   1058c:	418000ef          	jal	ra,109a4 <_Z16GetConsoleCursorRiS_>
   10590:	c6dff06f          	j	101fc <main+0x188>
   10594:	04714683          	lbu	a3,71(sp)
   10598:	07000713          	li	a4,112
   1059c:	f0e694e3          	bne	a3,a4,104a4 <main+0x430>
   105a0:	0a000737          	lui	a4,0xa000
   105a4:	00070513          	mv	a0,a4
   105a8:	02e12223          	sw	a4,36(sp)
   105ac:	160000ef          	jal	ra,1070c <_Z7EchoHexm>
   105b0:	00002517          	auipc	a0,0x2
   105b4:	30c50513          	addi	a0,a0,780 # 128bc <_exit+0x13c>
   105b8:	128000ef          	jal	ra,106e0 <_Z8EchoUARTPKc>
   105bc:	02412703          	lw	a4,36(sp)
   105c0:	00072503          	lw	a0,0(a4) # a000000 <__global_pointer$+0x9fea2b8>
   105c4:	00470713          	addi	a4,a4,4
   105c8:	02e12223          	sw	a4,36(sp)
   105cc:	140000ef          	jal	ra,1070c <_Z7EchoHexm>
   105d0:	00002517          	auipc	a0,0x2
   105d4:	2e850513          	addi	a0,a0,744 # 128b8 <_exit+0x138>
   105d8:	108000ef          	jal	ra,106e0 <_Z8EchoUARTPKc>
   105dc:	02812783          	lw	a5,40(sp)
   105e0:	02412703          	lw	a4,36(sp)
   105e4:	fcf710e3          	bne	a4,a5,105a4 <main+0x530>
   105e8:	c05ff06f          	j	101ec <main+0x178>
   105ec:	2d8000ef          	jal	ra,108c4 <_Z12ClearConsolev>
   105f0:	bfdff06f          	j	101ec <main+0x178>

000105f4 <_GLOBAL__sub_I_gpu.cpp>:
   105f4:	00005797          	auipc	a5,0x5
   105f8:	3a47a783          	lw	a5,932(a5) # 15998 <_GLOBAL_OFFSET_TABLE_+0x8>
   105fc:	0007a703          	lw	a4,0(a5)
   10600:	00005797          	auipc	a5,0x5
   10604:	3a07a783          	lw	a5,928(a5) # 159a0 <_GLOBAL_OFFSET_TABLE_+0x10>
   10608:	00e7a023          	sw	a4,0(a5)
   1060c:	00008067          	ret

00010610 <register_fini>:
   10610:	00000793          	li	a5,0
   10614:	00078863          	beqz	a5,10624 <register_fini+0x14>
   10618:	00012537          	lui	a0,0x12
   1061c:	67850513          	addi	a0,a0,1656 # 12678 <__libc_fini_array>
   10620:	0b40206f          	j	126d4 <atexit>
   10624:	00008067          	ret

00010628 <_start>:
   10628:	00005197          	auipc	gp,0x5
   1062c:	72018193          	addi	gp,gp,1824 # 15d48 <__global_pointer$>
   10630:	c7018513          	addi	a0,gp,-912 # 159b8 <completed.1>
   10634:	f9818613          	addi	a2,gp,-104 # 15ce0 <__BSS_END__>
   10638:	40a60633          	sub	a2,a2,a0
   1063c:	00000593          	li	a1,0
   10640:	63d010ef          	jal	ra,1247c <memset>
   10644:	00002517          	auipc	a0,0x2
   10648:	09050513          	addi	a0,a0,144 # 126d4 <atexit>
   1064c:	00050863          	beqz	a0,1065c <_start+0x34>
   10650:	00002517          	auipc	a0,0x2
   10654:	02850513          	addi	a0,a0,40 # 12678 <__libc_fini_array>
   10658:	07c020ef          	jal	ra,126d4 <atexit>
   1065c:	45d010ef          	jal	ra,122b8 <__libc_init_array>
   10660:	00012503          	lw	a0,0(sp)
   10664:	00410593          	addi	a1,sp,4
   10668:	00000613          	li	a2,0
   1066c:	a09ff0ef          	jal	ra,10074 <main>
   10670:	4190106f          	j	12288 <exit>

00010674 <__do_global_dtors_aux>:
   10674:	c701c703          	lbu	a4,-912(gp) # 159b8 <completed.1>
   10678:	04071263          	bnez	a4,106bc <__do_global_dtors_aux+0x48>
   1067c:	ff010113          	addi	sp,sp,-16
   10680:	00812423          	sw	s0,8(sp)
   10684:	00078413          	mv	s0,a5
   10688:	00112623          	sw	ra,12(sp)
   1068c:	00000793          	li	a5,0
   10690:	00078a63          	beqz	a5,106a4 <__do_global_dtors_aux+0x30>
   10694:	00015537          	lui	a0,0x15
   10698:	1f850513          	addi	a0,a0,504 # 151f8 <__EH_FRAME_BEGIN__>
   1069c:	00000097          	auipc	ra,0x0
   106a0:	000000e7          	jalr	zero # 0 <main-0x10074>
   106a4:	00100793          	li	a5,1
   106a8:	00c12083          	lw	ra,12(sp)
   106ac:	c6f18823          	sb	a5,-912(gp) # 159b8 <completed.1>
   106b0:	00812403          	lw	s0,8(sp)
   106b4:	01010113          	addi	sp,sp,16
   106b8:	00008067          	ret
   106bc:	00008067          	ret

000106c0 <frame_dummy>:
   106c0:	00000793          	li	a5,0
   106c4:	00078c63          	beqz	a5,106dc <frame_dummy+0x1c>
   106c8:	00015537          	lui	a0,0x15
   106cc:	c7418593          	addi	a1,gp,-908 # 159bc <object.0>
   106d0:	1f850513          	addi	a0,a0,504 # 151f8 <__EH_FRAME_BEGIN__>
   106d4:	00000317          	auipc	t1,0x0
   106d8:	00000067          	jr	zero # 0 <main-0x10074>
   106dc:	00008067          	ret

000106e0 <_Z8EchoUARTPKc>:
   106e0:	00054783          	lbu	a5,0(a0)
   106e4:	02078263          	beqz	a5,10708 <_Z8EchoUARTPKc+0x28>
   106e8:	00150513          	addi	a0,a0,1
   106ec:	00005697          	auipc	a3,0x5
   106f0:	2b86a683          	lw	a3,696(a3) # 159a4 <_GLOBAL_OFFSET_TABLE_+0x14>
   106f4:	0006a703          	lw	a4,0(a3)
   106f8:	00150513          	addi	a0,a0,1
   106fc:	00f70023          	sb	a5,0(a4)
   10700:	fff54783          	lbu	a5,-1(a0)
   10704:	fe0798e3          	bnez	a5,106f4 <_Z8EchoUARTPKc+0x14>
   10708:	00008067          	ret

0001070c <_Z7EchoHexm>:
   1070c:	00002617          	auipc	a2,0x2
   10710:	1b860613          	addi	a2,a2,440 # 128c4 <_exit+0x144>
   10714:	00c62803          	lw	a6,12(a2)
   10718:	00062e03          	lw	t3,0(a2)
   1071c:	00462303          	lw	t1,4(a2)
   10720:	00862883          	lw	a7,8(a2)
   10724:	fd010113          	addi	sp,sp,-48
   10728:	00c55793          	srli	a5,a0,0xc
   1072c:	00855693          	srli	a3,a0,0x8
   10730:	01855713          	srli	a4,a0,0x18
   10734:	01012c23          	sw	a6,24(sp)
   10738:	01c55593          	srli	a1,a0,0x1c
   1073c:	02010813          	addi	a6,sp,32
   10740:	00f7f793          	andi	a5,a5,15
   10744:	00f6f693          	andi	a3,a3,15
   10748:	00f77713          	andi	a4,a4,15
   1074c:	02112623          	sw	ra,44(sp)
   10750:	01112a23          	sw	a7,20(sp)
   10754:	01c12623          	sw	t3,12(sp)
   10758:	00612823          	sw	t1,16(sp)
   1075c:	00d806b3          	add	a3,a6,a3
   10760:	00b805b3          	add	a1,a6,a1
   10764:	00e80733          	add	a4,a6,a4
   10768:	00f807b3          	add	a5,a6,a5
   1076c:	00455893          	srli	a7,a0,0x4
   10770:	01455813          	srli	a6,a0,0x14
   10774:	fec6ce83          	lbu	t4,-20(a3)
   10778:	fec74e03          	lbu	t3,-20(a4)
   1077c:	fec5c683          	lbu	a3,-20(a1)
   10780:	02010713          	addi	a4,sp,32
   10784:	fec7c783          	lbu	a5,-20(a5)
   10788:	00f8f893          	andi	a7,a7,15
   1078c:	00f87813          	andi	a6,a6,15
   10790:	011708b3          	add	a7,a4,a7
   10794:	01070833          	add	a6,a4,a6
   10798:	01055593          	srli	a1,a0,0x10
   1079c:	ffff0737          	lui	a4,0xffff0
   107a0:	fec8c303          	lbu	t1,-20(a7)
   107a4:	0ff70713          	addi	a4,a4,255 # ffff00ff <__global_pointer$+0xfffda3b7>
   107a8:	fec84883          	lbu	a7,-20(a6)
   107ac:	00f5f593          	andi	a1,a1,15
   107b0:	02010813          	addi	a6,sp,32
   107b4:	00f57513          	andi	a0,a0,15
   107b8:	008e9e93          	slli	t4,t4,0x8
   107bc:	00e7f7b3          	and	a5,a5,a4
   107c0:	00a80533          	add	a0,a6,a0
   107c4:	008e1e13          	slli	t3,t3,0x8
   107c8:	00e6f733          	and	a4,a3,a4
   107cc:	00b806b3          	add	a3,a6,a1
   107d0:	ff0105b7          	lui	a1,0xff010
   107d4:	fec54803          	lbu	a6,-20(a0)
   107d8:	fff58593          	addi	a1,a1,-1 # ff00ffff <__global_pointer$+0xfeffa2b7>
   107dc:	fec6c503          	lbu	a0,-20(a3)
   107e0:	01d7e7b3          	or	a5,a5,t4
   107e4:	01c76733          	or	a4,a4,t3
   107e8:	01031313          	slli	t1,t1,0x10
   107ec:	00b7f7b3          	and	a5,a5,a1
   107f0:	01089893          	slli	a7,a7,0x10
   107f4:	00b77733          	and	a4,a4,a1
   107f8:	010006b7          	lui	a3,0x1000
   107fc:	01064e03          	lbu	t3,16(a2)
   10800:	fff68693          	addi	a3,a3,-1 # ffffff <__global_pointer$+0xfea2b7>
   10804:	0067e7b3          	or	a5,a5,t1
   10808:	01176733          	or	a4,a4,a7
   1080c:	01851613          	slli	a2,a0,0x18
   10810:	01881593          	slli	a1,a6,0x18
   10814:	00d7f7b3          	and	a5,a5,a3
   10818:	00d77733          	and	a4,a4,a3
   1081c:	00b7e7b3          	or	a5,a5,a1
   10820:	00c76733          	or	a4,a4,a2
   10824:	00010513          	mv	a0,sp
   10828:	01c10e23          	sb	t3,28(sp)
   1082c:	00010423          	sb	zero,8(sp)
   10830:	00e12023          	sw	a4,0(sp)
   10834:	00f12223          	sw	a5,4(sp)
   10838:	ea9ff0ef          	jal	ra,106e0 <_Z8EchoUARTPKc>
   1083c:	02c12083          	lw	ra,44(sp)
   10840:	03010113          	addi	sp,sp,48
   10844:	00008067          	ret

00010848 <_Z9ReadClockv>:
   10848:	c81025f3          	rdtimeh	a1
   1084c:	c0102573          	rdtime	a0
   10850:	c81027f3          	rdtimeh	a5
   10854:	fef59ae3          	bne	a1,a5,10848 <_Z9ReadClockv>
   10858:	00008067          	ret

0001085c <_Z9ClockToMsy>:
   1085c:	00002637          	lui	a2,0x2
   10860:	ff010113          	addi	sp,sp,-16
   10864:	71060613          	addi	a2,a2,1808 # 2710 <main-0xd964>
   10868:	00000693          	li	a3,0
   1086c:	00112623          	sw	ra,12(sp)
   10870:	5dc010ef          	jal	ra,11e4c <__udivdi3>
   10874:	00c12083          	lw	ra,12(sp)
   10878:	01010113          	addi	sp,sp,16
   1087c:	00008067          	ret

00010880 <_Z12ClockMsToHMSmRmS_S_>:
   10880:	000587b7          	lui	a5,0x58
   10884:	e4078793          	addi	a5,a5,-448 # 57e40 <__global_pointer$+0x420f8>
   10888:	02f577b3          	remu	a5,a0,a5
   1088c:	0036f837          	lui	a6,0x36f
   10890:	e8080813          	addi	a6,a6,-384 # 36ee80 <__global_pointer$+0x359138>
   10894:	0000f737          	lui	a4,0xf
   10898:	a6070713          	addi	a4,a4,-1440 # ea60 <main-0x1614>
   1089c:	030578b3          	remu	a7,a0,a6
   108a0:	03055533          	divu	a0,a0,a6
   108a4:	02e7f7b3          	remu	a5,a5,a4
   108a8:	00a5a023          	sw	a0,0(a1)
   108ac:	3e800593          	li	a1,1000
   108b0:	02e8d733          	divu	a4,a7,a4
   108b4:	02b7d7b3          	divu	a5,a5,a1
   108b8:	00e62023          	sw	a4,0(a2)
   108bc:	00f6a023          	sw	a5,0(a3)
   108c0:	00008067          	ret

000108c4 <_Z12ClearConsolev>:
   108c4:	30000613          	li	a2,768
   108c8:	02000593          	li	a1,32
   108cc:	c8c18513          	addi	a0,gp,-884 # 159d4 <_ZL11consoleText>
   108d0:	f801a623          	sw	zero,-116(gp) # 15cd4 <_ZL7cursorx>
   108d4:	f801a823          	sw	zero,-112(gp) # 15cd8 <_ZL7cursory>
   108d8:	3a50106f          	j	1247c <memset>

000108dc <_Z15ClearConsoleRowv>:
   108dc:	f901a783          	lw	a5,-112(gp) # 15cd8 <_ZL7cursory>
   108e0:	00579793          	slli	a5,a5,0x5
   108e4:	c8c18513          	addi	a0,gp,-884 # 159d4 <_ZL11consoleText>
   108e8:	02000613          	li	a2,32
   108ec:	02000593          	li	a1,32
   108f0:	00f50533          	add	a0,a0,a5
   108f4:	3890106f          	j	1247c <memset>

000108f8 <_Z16SetConsoleCursorii>:
   108f8:	fff54793          	not	a5,a0
   108fc:	41f7d793          	srai	a5,a5,0x1f
   10900:	00f57533          	and	a0,a0,a5
   10904:	01f00793          	li	a5,31
   10908:	00a7d463          	bge	a5,a0,10910 <_Z16SetConsoleCursorii+0x18>
   1090c:	01f00513          	li	a0,31
   10910:	fff5c793          	not	a5,a1
   10914:	41f7d793          	srai	a5,a5,0x1f
   10918:	00f5f5b3          	and	a1,a1,a5
   1091c:	f8a1a623          	sw	a0,-116(gp) # 15cd4 <_ZL7cursorx>
   10920:	01700793          	li	a5,23
   10924:	00b7d463          	bge	a5,a1,1092c <_Z16SetConsoleCursorii+0x34>
   10928:	01700593          	li	a1,23
   1092c:	f8b1a823          	sw	a1,-112(gp) # 15cd8 <_ZL7cursory>
   10930:	00008067          	ret

00010934 <_Z13ScrollConsolev>:
   10934:	ff010113          	addi	sp,sp,-16
   10938:	00112623          	sw	ra,12(sp)
   1093c:	c8c18793          	addi	a5,gp,-884 # 159d4 <_ZL11consoleText>
   10940:	f6c18e13          	addi	t3,gp,-148 # 15cb4 <_ZL11consoleText+0x2e0>
   10944:	0207a303          	lw	t1,32(a5)
   10948:	0247a883          	lw	a7,36(a5)
   1094c:	0287a803          	lw	a6,40(a5)
   10950:	02c7a503          	lw	a0,44(a5)
   10954:	0307a583          	lw	a1,48(a5)
   10958:	0347a603          	lw	a2,52(a5)
   1095c:	0387a683          	lw	a3,56(a5)
   10960:	03c7a703          	lw	a4,60(a5)
   10964:	0067a023          	sw	t1,0(a5)
   10968:	0117a223          	sw	a7,4(a5)
   1096c:	0107a423          	sw	a6,8(a5)
   10970:	00a7a623          	sw	a0,12(a5)
   10974:	00b7a823          	sw	a1,16(a5)
   10978:	00c7aa23          	sw	a2,20(a5)
   1097c:	00d7ac23          	sw	a3,24(a5)
   10980:	00e7ae23          	sw	a4,28(a5)
   10984:	02078793          	addi	a5,a5,32
   10988:	fafe1ee3          	bne	t3,a5,10944 <_Z13ScrollConsolev+0x10>
   1098c:	01700593          	li	a1,23
   10990:	f8c1a503          	lw	a0,-116(gp) # 15cd4 <_ZL7cursorx>
   10994:	f65ff0ef          	jal	ra,108f8 <_Z16SetConsoleCursorii>
   10998:	00c12083          	lw	ra,12(sp)
   1099c:	01010113          	addi	sp,sp,16
   109a0:	f3dff06f          	j	108dc <_Z15ClearConsoleRowv>

000109a4 <_Z16GetConsoleCursorRiS_>:
   109a4:	f8c1a783          	lw	a5,-116(gp) # 15cd4 <_ZL7cursorx>
   109a8:	00f52023          	sw	a5,0(a0)
   109ac:	f901a783          	lw	a5,-112(gp) # 15cd8 <_ZL7cursory>
   109b0:	00f5a023          	sw	a5,0(a1)
   109b4:	00008067          	ret

000109b8 <_Z21ConsoleCursorStepBackv>:
   109b8:	f8c18713          	addi	a4,gp,-116 # 15cd4 <_ZL7cursorx>
   109bc:	00072783          	lw	a5,0(a4)
   109c0:	f9018613          	addi	a2,gp,-112 # 15cd8 <_ZL7cursory>
   109c4:	00062683          	lw	a3,0(a2)
   109c8:	fff78793          	addi	a5,a5,-1
   109cc:	00f72023          	sw	a5,0(a4)
   109d0:	0007cc63          	bltz	a5,109e8 <_Z21ConsoleCursorStepBackv+0x30>
   109d4:	0006c463          	bltz	a3,109dc <_Z21ConsoleCursorStepBackv+0x24>
   109d8:	00008067          	ret
   109dc:	f801a623          	sw	zero,-116(gp) # 15cd4 <_ZL7cursorx>
   109e0:	f801a823          	sw	zero,-112(gp) # 15cd8 <_ZL7cursory>
   109e4:	00008067          	ret
   109e8:	fff68693          	addi	a3,a3,-1
   109ec:	01f00793          	li	a5,31
   109f0:	00f72023          	sw	a5,0(a4)
   109f4:	00d62023          	sw	a3,0(a2)
   109f8:	fe06d0e3          	bgez	a3,109d8 <_Z21ConsoleCursorStepBackv+0x20>
   109fc:	fe1ff06f          	j	109dc <_Z21ConsoleCursorStepBackv+0x24>

00010a00 <_Z11EchoConsolePKc>:
   10a00:	00054703          	lbu	a4,0(a0)
   10a04:	0e070a63          	beqz	a4,10af8 <_Z11EchoConsolePKc+0xf8>
   10a08:	fd010113          	addi	sp,sp,-48
   10a0c:	02812423          	sw	s0,40(sp)
   10a10:	02912223          	sw	s1,36(sp)
   10a14:	03212023          	sw	s2,32(sp)
   10a18:	01312e23          	sw	s3,28(sp)
   10a1c:	01412c23          	sw	s4,24(sp)
   10a20:	01512a23          	sw	s5,20(sp)
   10a24:	01612823          	sw	s6,16(sp)
   10a28:	01712623          	sw	s7,12(sp)
   10a2c:	02112623          	sw	ra,44(sp)
   10a30:	00050413          	mv	s0,a0
   10a34:	f9018493          	addi	s1,gp,-112 # 15cd8 <_ZL7cursory>
   10a38:	00d00a13          	li	s4,13
   10a3c:	f8c18993          	addi	s3,gp,-116 # 15cd4 <_ZL7cursorx>
   10a40:	00a00b93          	li	s7,10
   10a44:	01f00b13          	li	s6,31
   10a48:	c8c18a93          	addi	s5,gp,-884 # 159d4 <_ZL11consoleText>
   10a4c:	01700913          	li	s2,23
   10a50:	0004a783          	lw	a5,0(s1)
   10a54:	09470863          	beq	a4,s4,10ae4 <_Z11EchoConsolePKc+0xe4>
   10a58:	0009a683          	lw	a3,0(s3)
   10a5c:	09770863          	beq	a4,s7,10aec <_Z11EchoConsolePKc+0xec>
   10a60:	00579613          	slli	a2,a5,0x5
   10a64:	00ca8633          	add	a2,s5,a2
   10a68:	00d60633          	add	a2,a2,a3
   10a6c:	00168693          	addi	a3,a3,1
   10a70:	00e60023          	sb	a4,0(a2)
   10a74:	00d9a023          	sw	a3,0(s3)
   10a78:	00db5863          	bge	s6,a3,10a88 <_Z11EchoConsolePKc+0x88>
   10a7c:	00178793          	addi	a5,a5,1
   10a80:	f801a623          	sw	zero,-116(gp) # 15cd4 <_ZL7cursorx>
   10a84:	00f4a023          	sw	a5,0(s1)
   10a88:	02f94e63          	blt	s2,a5,10ac4 <_Z11EchoConsolePKc+0xc4>
   10a8c:	00144703          	lbu	a4,1(s0)
   10a90:	00140413          	addi	s0,s0,1
   10a94:	fa071ee3          	bnez	a4,10a50 <_Z11EchoConsolePKc+0x50>
   10a98:	02c12083          	lw	ra,44(sp)
   10a9c:	02812403          	lw	s0,40(sp)
   10aa0:	02412483          	lw	s1,36(sp)
   10aa4:	02012903          	lw	s2,32(sp)
   10aa8:	01c12983          	lw	s3,28(sp)
   10aac:	01812a03          	lw	s4,24(sp)
   10ab0:	01412a83          	lw	s5,20(sp)
   10ab4:	01012b03          	lw	s6,16(sp)
   10ab8:	00c12b83          	lw	s7,12(sp)
   10abc:	03010113          	addi	sp,sp,48
   10ac0:	00008067          	ret
   10ac4:	00140413          	addi	s0,s0,1
   10ac8:	0124a023          	sw	s2,0(s1)
   10acc:	f801a623          	sw	zero,-116(gp) # 15cd4 <_ZL7cursorx>
   10ad0:	e65ff0ef          	jal	ra,10934 <_Z13ScrollConsolev>
   10ad4:	00044703          	lbu	a4,0(s0)
   10ad8:	fc0700e3          	beqz	a4,10a98 <_Z11EchoConsolePKc+0x98>
   10adc:	0004a783          	lw	a5,0(s1)
   10ae0:	f7471ce3          	bne	a4,s4,10a58 <_Z11EchoConsolePKc+0x58>
   10ae4:	f801a623          	sw	zero,-116(gp) # 15cd4 <_ZL7cursorx>
   10ae8:	fa1ff06f          	j	10a88 <_Z11EchoConsolePKc+0x88>
   10aec:	00178793          	addi	a5,a5,1
   10af0:	00f4a023          	sw	a5,0(s1)
   10af4:	f85ff06f          	j	10a78 <_Z11EchoConsolePKc+0x78>
   10af8:	00008067          	ret

00010afc <_Z11EchoConsolel>:
   10afc:	00002797          	auipc	a5,0x2
   10b00:	ddc78793          	addi	a5,a5,-548 # 128d8 <_exit+0x158>
   10b04:	00002717          	auipc	a4,0x2
   10b08:	de870713          	addi	a4,a4,-536 # 128ec <_exit+0x16c>
   10b0c:	0047a603          	lw	a2,4(a5)
   10b10:	00072e03          	lw	t3,0(a4)
   10b14:	00472303          	lw	t1,4(a4)
   10b18:	00875883          	lhu	a7,8(a4)
   10b1c:	00a74803          	lbu	a6,10(a4)
   10b20:	0007a583          	lw	a1,0(a5)
   10b24:	0087a683          	lw	a3,8(a5)
   10b28:	00c7a703          	lw	a4,12(a5)
   10b2c:	0107a783          	lw	a5,16(a5)
   10b30:	fd010113          	addi	sp,sp,-48
   10b34:	00c12823          	sw	a2,16(sp)
   10b38:	00f12e23          	sw	a5,28(sp)
   10b3c:	02112623          	sw	ra,44(sp)
   10b40:	01c12023          	sw	t3,0(sp)
   10b44:	00612223          	sw	t1,4(sp)
   10b48:	01111423          	sh	a7,8(sp)
   10b4c:	01010523          	sb	a6,10(sp)
   10b50:	00b12623          	sw	a1,12(sp)
   10b54:	00d12a23          	sw	a3,20(sp)
   10b58:	00e12c23          	sw	a4,24(sp)
   10b5c:	02d00613          	li	a2,45
   10b60:	00100793          	li	a5,1
   10b64:	00054663          	bltz	a0,10b70 <_Z11EchoConsolel+0x74>
   10b68:	02000613          	li	a2,32
   10b6c:	00000793          	li	a5,0
   10b70:	3b9ad737          	lui	a4,0x3b9ad
   10b74:	a0070693          	addi	a3,a4,-1536 # 3b9aca00 <__global_pointer$+0x3b996cb8>
   10b78:	02d546b3          	div	a3,a0,a3
   10b7c:	9ff70713          	addi	a4,a4,-1537
   10b80:	00c10623          	sb	a2,12(sp)
   10b84:	77359637          	lui	a2,0x77359
   10b88:	00e50733          	add	a4,a0,a4
   10b8c:	3fe60613          	addi	a2,a2,1022 # 773593fe <__global_pointer$+0x773436b6>
   10b90:	41f6d593          	srai	a1,a3,0x1f
   10b94:	00d5c6b3          	xor	a3,a1,a3
   10b98:	40b686b3          	sub	a3,a3,a1
   10b9c:	12e66c63          	bltu	a2,a4,10cd4 <_Z11EchoConsolel+0x1d8>
   10ba0:	05f5e737          	lui	a4,0x5f5e
   10ba4:	10070713          	addi	a4,a4,256 # 5f5e100 <__global_pointer$+0x5f483b8>
   10ba8:	02e54733          	div	a4,a0,a4
   10bac:	00a00613          	li	a2,10
   10bb0:	41f75593          	srai	a1,a4,0x1f
   10bb4:	00e5c6b3          	xor	a3,a1,a4
   10bb8:	40b686b3          	sub	a3,a3,a1
   10bbc:	02c6e6b3          	rem	a3,a3,a2
   10bc0:	14069863          	bnez	a3,10d10 <_Z11EchoConsolel+0x214>
   10bc4:	00989737          	lui	a4,0x989
   10bc8:	68070713          	addi	a4,a4,1664 # 989680 <__global_pointer$+0x973938>
   10bcc:	02e54733          	div	a4,a0,a4
   10bd0:	41f75593          	srai	a1,a4,0x1f
   10bd4:	00e5c6b3          	xor	a3,a1,a4
   10bd8:	40b686b3          	sub	a3,a3,a1
   10bdc:	02c6e6b3          	rem	a3,a3,a2
   10be0:	16069663          	bnez	a3,10d4c <_Z11EchoConsolel+0x250>
   10be4:	000f4737          	lui	a4,0xf4
   10be8:	24070713          	addi	a4,a4,576 # f4240 <__global_pointer$+0xde4f8>
   10bec:	02e54733          	div	a4,a0,a4
   10bf0:	41f75593          	srai	a1,a4,0x1f
   10bf4:	00e5c6b3          	xor	a3,a1,a4
   10bf8:	40b686b3          	sub	a3,a3,a1
   10bfc:	02c6e6b3          	rem	a3,a3,a2
   10c00:	18069463          	bnez	a3,10d88 <_Z11EchoConsolel+0x28c>
   10c04:	00018737          	lui	a4,0x18
   10c08:	6a070713          	addi	a4,a4,1696 # 186a0 <__global_pointer$+0x2958>
   10c0c:	02e54733          	div	a4,a0,a4
   10c10:	41f75593          	srai	a1,a4,0x1f
   10c14:	00e5c6b3          	xor	a3,a1,a4
   10c18:	40b686b3          	sub	a3,a3,a1
   10c1c:	02c6e6b3          	rem	a3,a3,a2
   10c20:	1a069263          	bnez	a3,10dc4 <_Z11EchoConsolel+0x2c8>
   10c24:	00002737          	lui	a4,0x2
   10c28:	71070713          	addi	a4,a4,1808 # 2710 <main-0xd964>
   10c2c:	02e54733          	div	a4,a0,a4
   10c30:	41f75693          	srai	a3,a4,0x1f
   10c34:	00e6c733          	xor	a4,a3,a4
   10c38:	40d70733          	sub	a4,a4,a3
   10c3c:	02c76733          	rem	a4,a4,a2
   10c40:	1c071063          	bnez	a4,10e00 <_Z11EchoConsolel+0x304>
   10c44:	3e800713          	li	a4,1000
   10c48:	02e54733          	div	a4,a0,a4
   10c4c:	41f75593          	srai	a1,a4,0x1f
   10c50:	00e5c6b3          	xor	a3,a1,a4
   10c54:	40b686b3          	sub	a3,a3,a1
   10c58:	02c6e6b3          	rem	a3,a3,a2
   10c5c:	1c069e63          	bnez	a3,10e38 <_Z11EchoConsolel+0x33c>
   10c60:	06400713          	li	a4,100
   10c64:	02e54733          	div	a4,a0,a4
   10c68:	41f75693          	srai	a3,a4,0x1f
   10c6c:	00e6c733          	xor	a4,a3,a4
   10c70:	40d70733          	sub	a4,a4,a3
   10c74:	02c76733          	rem	a4,a4,a2
   10c78:	1e071c63          	bnez	a4,10e70 <_Z11EchoConsolel+0x374>
   10c7c:	02c54733          	div	a4,a0,a2
   10c80:	41f75693          	srai	a3,a4,0x1f
   10c84:	00e6c733          	xor	a4,a3,a4
   10c88:	40d70733          	sub	a4,a4,a3
   10c8c:	02c76633          	rem	a2,a4,a2
   10c90:	20061a63          	bnez	a2,10ea4 <_Z11EchoConsolel+0x3a8>
   10c94:	41f55693          	srai	a3,a0,0x1f
   10c98:	00a6c733          	xor	a4,a3,a0
   10c9c:	40d70733          	sub	a4,a4,a3
   10ca0:	00a00513          	li	a0,10
   10ca4:	02a76733          	rem	a4,a4,a0
   10ca8:	02010693          	addi	a3,sp,32
   10cac:	00f687b3          	add	a5,a3,a5
   10cb0:	00c10513          	addi	a0,sp,12
   10cb4:	fe0786a3          	sb	zero,-19(a5)
   10cb8:	00e68733          	add	a4,a3,a4
   10cbc:	fe074703          	lbu	a4,-32(a4)
   10cc0:	fee78623          	sb	a4,-20(a5)
   10cc4:	d3dff0ef          	jal	ra,10a00 <_Z11EchoConsolePKc>
   10cc8:	02c12083          	lw	ra,44(sp)
   10ccc:	03010113          	addi	sp,sp,48
   10cd0:	00008067          	ret
   10cd4:	05f5e737          	lui	a4,0x5f5e
   10cd8:	10070713          	addi	a4,a4,256 # 5f5e100 <__global_pointer$+0x5f483b8>
   10cdc:	02e54733          	div	a4,a0,a4
   10ce0:	02010613          	addi	a2,sp,32
   10ce4:	00d606b3          	add	a3,a2,a3
   10ce8:	fe06c603          	lbu	a2,-32(a3)
   10cec:	02010693          	addi	a3,sp,32
   10cf0:	00f686b3          	add	a3,a3,a5
   10cf4:	fec68623          	sb	a2,-20(a3)
   10cf8:	00178793          	addi	a5,a5,1
   10cfc:	41f75613          	srai	a2,a4,0x1f
   10d00:	00e646b3          	xor	a3,a2,a4
   10d04:	40c686b3          	sub	a3,a3,a2
   10d08:	00a00713          	li	a4,10
   10d0c:	02e6e6b3          	rem	a3,a3,a4
   10d10:	00989737          	lui	a4,0x989
   10d14:	68070713          	addi	a4,a4,1664 # 989680 <__global_pointer$+0x973938>
   10d18:	02010613          	addi	a2,sp,32
   10d1c:	00d606b3          	add	a3,a2,a3
   10d20:	fe06c603          	lbu	a2,-32(a3)
   10d24:	02010693          	addi	a3,sp,32
   10d28:	00f686b3          	add	a3,a3,a5
   10d2c:	fec68623          	sb	a2,-20(a3)
   10d30:	00178793          	addi	a5,a5,1
   10d34:	02e54733          	div	a4,a0,a4
   10d38:	41f75613          	srai	a2,a4,0x1f
   10d3c:	00e646b3          	xor	a3,a2,a4
   10d40:	40c686b3          	sub	a3,a3,a2
   10d44:	00a00713          	li	a4,10
   10d48:	02e6e6b3          	rem	a3,a3,a4
   10d4c:	000f4737          	lui	a4,0xf4
   10d50:	24070713          	addi	a4,a4,576 # f4240 <__global_pointer$+0xde4f8>
   10d54:	02010613          	addi	a2,sp,32
   10d58:	00d606b3          	add	a3,a2,a3
   10d5c:	fe06c603          	lbu	a2,-32(a3)
   10d60:	02010693          	addi	a3,sp,32
   10d64:	00f686b3          	add	a3,a3,a5
   10d68:	fec68623          	sb	a2,-20(a3)
   10d6c:	00178793          	addi	a5,a5,1
   10d70:	02e54733          	div	a4,a0,a4
   10d74:	41f75613          	srai	a2,a4,0x1f
   10d78:	00e646b3          	xor	a3,a2,a4
   10d7c:	40c686b3          	sub	a3,a3,a2
   10d80:	00a00713          	li	a4,10
   10d84:	02e6e6b3          	rem	a3,a3,a4
   10d88:	00018737          	lui	a4,0x18
   10d8c:	6a070713          	addi	a4,a4,1696 # 186a0 <__global_pointer$+0x2958>
   10d90:	02010613          	addi	a2,sp,32
   10d94:	00d606b3          	add	a3,a2,a3
   10d98:	fe06c603          	lbu	a2,-32(a3)
   10d9c:	02010693          	addi	a3,sp,32
   10da0:	00f686b3          	add	a3,a3,a5
   10da4:	fec68623          	sb	a2,-20(a3)
   10da8:	00178793          	addi	a5,a5,1
   10dac:	02e54733          	div	a4,a0,a4
   10db0:	41f75613          	srai	a2,a4,0x1f
   10db4:	00e646b3          	xor	a3,a2,a4
   10db8:	40c686b3          	sub	a3,a3,a2
   10dbc:	00a00713          	li	a4,10
   10dc0:	02e6e6b3          	rem	a3,a3,a4
   10dc4:	00002737          	lui	a4,0x2
   10dc8:	71070713          	addi	a4,a4,1808 # 2710 <main-0xd964>
   10dcc:	02010613          	addi	a2,sp,32
   10dd0:	00d606b3          	add	a3,a2,a3
   10dd4:	fe06c603          	lbu	a2,-32(a3)
   10dd8:	02010693          	addi	a3,sp,32
   10ddc:	00f686b3          	add	a3,a3,a5
   10de0:	fec68623          	sb	a2,-20(a3)
   10de4:	00178793          	addi	a5,a5,1
   10de8:	02e54733          	div	a4,a0,a4
   10dec:	41f75693          	srai	a3,a4,0x1f
   10df0:	00e6c733          	xor	a4,a3,a4
   10df4:	40d70733          	sub	a4,a4,a3
   10df8:	00a00693          	li	a3,10
   10dfc:	02d76733          	rem	a4,a4,a3
   10e00:	3e800693          	li	a3,1000
   10e04:	02010613          	addi	a2,sp,32
   10e08:	00e60733          	add	a4,a2,a4
   10e0c:	fe074603          	lbu	a2,-32(a4)
   10e10:	02010713          	addi	a4,sp,32
   10e14:	00f70733          	add	a4,a4,a5
   10e18:	fec70623          	sb	a2,-20(a4)
   10e1c:	00178793          	addi	a5,a5,1
   10e20:	02d546b3          	div	a3,a0,a3
   10e24:	41f6d713          	srai	a4,a3,0x1f
   10e28:	00d746b3          	xor	a3,a4,a3
   10e2c:	40e686b3          	sub	a3,a3,a4
   10e30:	00a00713          	li	a4,10
   10e34:	02e6e6b3          	rem	a3,a3,a4
   10e38:	06400713          	li	a4,100
   10e3c:	02010613          	addi	a2,sp,32
   10e40:	00d606b3          	add	a3,a2,a3
   10e44:	fe06c603          	lbu	a2,-32(a3)
   10e48:	02010693          	addi	a3,sp,32
   10e4c:	00f686b3          	add	a3,a3,a5
   10e50:	fec68623          	sb	a2,-20(a3)
   10e54:	00178793          	addi	a5,a5,1
   10e58:	02e54733          	div	a4,a0,a4
   10e5c:	41f75693          	srai	a3,a4,0x1f
   10e60:	00e6c733          	xor	a4,a3,a4
   10e64:	40d70733          	sub	a4,a4,a3
   10e68:	00a00693          	li	a3,10
   10e6c:	02d76733          	rem	a4,a4,a3
   10e70:	00a00593          	li	a1,10
   10e74:	02010613          	addi	a2,sp,32
   10e78:	00e60733          	add	a4,a2,a4
   10e7c:	fe074603          	lbu	a2,-32(a4)
   10e80:	02010713          	addi	a4,sp,32
   10e84:	00f70733          	add	a4,a4,a5
   10e88:	fec70623          	sb	a2,-20(a4)
   10e8c:	00178793          	addi	a5,a5,1
   10e90:	02b546b3          	div	a3,a0,a1
   10e94:	41f6d713          	srai	a4,a3,0x1f
   10e98:	00d74633          	xor	a2,a4,a3
   10e9c:	40e60633          	sub	a2,a2,a4
   10ea0:	02b66633          	rem	a2,a2,a1
   10ea4:	02010713          	addi	a4,sp,32
   10ea8:	00c70633          	add	a2,a4,a2
   10eac:	fe064683          	lbu	a3,-32(a2)
   10eb0:	00f70733          	add	a4,a4,a5
   10eb4:	00178793          	addi	a5,a5,1
   10eb8:	fed70623          	sb	a3,-20(a4)
   10ebc:	dd9ff06f          	j	10c94 <_Z11EchoConsolel+0x198>

00010ec0 <_Z14EchoConsoleHexl>:
   10ec0:	00002897          	auipc	a7,0x2
   10ec4:	a0488893          	addi	a7,a7,-1532 # 128c4 <_exit+0x144>
   10ec8:	41f55793          	srai	a5,a0,0x1f
   10ecc:	01c7d793          	srli	a5,a5,0x1c
   10ed0:	00c8a603          	lw	a2,12(a7)
   10ed4:	40c55713          	srai	a4,a0,0xc
   10ed8:	41855313          	srai	t1,a0,0x18
   10edc:	0048af03          	lw	t5,4(a7)
   10ee0:	0088ae83          	lw	t4,8(a7)
   10ee4:	0008af83          	lw	t6,0(a7)
   10ee8:	40855693          	srai	a3,a0,0x8
   10eec:	00f70733          	add	a4,a4,a5
   10ef0:	00f30333          	add	t1,t1,a5
   10ef4:	fd010113          	addi	sp,sp,-48
   10ef8:	00f686b3          	add	a3,a3,a5
   10efc:	40455813          	srai	a6,a0,0x4
   10f00:	41455593          	srai	a1,a0,0x14
   10f04:	00f77713          	andi	a4,a4,15
   10f08:	00f37313          	andi	t1,t1,15
   10f0c:	00c12c23          	sw	a2,24(sp)
   10f10:	40f70733          	sub	a4,a4,a5
   10f14:	02010613          	addi	a2,sp,32
   10f18:	00f80833          	add	a6,a6,a5
   10f1c:	40f30333          	sub	t1,t1,a5
   10f20:	00f585b3          	add	a1,a1,a5
   10f24:	00f6f693          	andi	a3,a3,15
   10f28:	02112623          	sw	ra,44(sp)
   10f2c:	01f12623          	sw	t6,12(sp)
   10f30:	01e12823          	sw	t5,16(sp)
   10f34:	01d12a23          	sw	t4,20(sp)
   10f38:	00660333          	add	t1,a2,t1
   10f3c:	40f686b3          	sub	a3,a3,a5
   10f40:	41c55e13          	srai	t3,a0,0x1c
   10f44:	00e60733          	add	a4,a2,a4
   10f48:	00f87813          	andi	a6,a6,15
   10f4c:	00f5f593          	andi	a1,a1,15
   10f50:	fec74703          	lbu	a4,-20(a4)
   10f54:	fec34e83          	lbu	t4,-20(t1) # 106c0 <frame_dummy>
   10f58:	00d606b3          	add	a3,a2,a3
   10f5c:	02010313          	addi	t1,sp,32
   10f60:	01c60e33          	add	t3,a2,t3
   10f64:	40f80833          	sub	a6,a6,a5
   10f68:	41055613          	srai	a2,a0,0x10
   10f6c:	40f585b3          	sub	a1,a1,a5
   10f70:	fec6cf03          	lbu	t5,-20(a3)
   10f74:	01030833          	add	a6,t1,a6
   10f78:	fece4683          	lbu	a3,-20(t3)
   10f7c:	00b305b3          	add	a1,t1,a1
   10f80:	00f50533          	add	a0,a0,a5
   10f84:	00f60633          	add	a2,a2,a5
   10f88:	ffff0337          	lui	t1,0xffff0
   10f8c:	0ff30313          	addi	t1,t1,255 # ffff00ff <__global_pointer$+0xfffda3b7>
   10f90:	00f57513          	andi	a0,a0,15
   10f94:	00f67613          	andi	a2,a2,15
   10f98:	40f60633          	sub	a2,a2,a5
   10f9c:	40f50533          	sub	a0,a0,a5
   10fa0:	006777b3          	and	a5,a4,t1
   10fa4:	02010713          	addi	a4,sp,32
   10fa8:	fec84e03          	lbu	t3,-20(a6)
   10fac:	00a70533          	add	a0,a4,a0
   10fb0:	fec5c803          	lbu	a6,-20(a1)
   10fb4:	0066f733          	and	a4,a3,t1
   10fb8:	02010693          	addi	a3,sp,32
   10fbc:	00c686b3          	add	a3,a3,a2
   10fc0:	008f1f13          	slli	t5,t5,0x8
   10fc4:	008e9e93          	slli	t4,t4,0x8
   10fc8:	ff010637          	lui	a2,0xff010
   10fcc:	fec6c583          	lbu	a1,-20(a3)
   10fd0:	fff60613          	addi	a2,a2,-1 # ff00ffff <__global_pointer$+0xfeffa2b7>
   10fd4:	fec54503          	lbu	a0,-20(a0)
   10fd8:	01e7e7b3          	or	a5,a5,t5
   10fdc:	01d76733          	or	a4,a4,t4
   10fe0:	010e1313          	slli	t1,t3,0x10
   10fe4:	00c7f7b3          	and	a5,a5,a2
   10fe8:	01081813          	slli	a6,a6,0x10
   10fec:	00c77733          	and	a4,a4,a2
   10ff0:	010006b7          	lui	a3,0x1000
   10ff4:	fff68693          	addi	a3,a3,-1 # ffffff <__global_pointer$+0xfea2b7>
   10ff8:	0108c883          	lbu	a7,16(a7)
   10ffc:	0067e7b3          	or	a5,a5,t1
   11000:	01076733          	or	a4,a4,a6
   11004:	01851513          	slli	a0,a0,0x18
   11008:	00d7f7b3          	and	a5,a5,a3
   1100c:	01859613          	slli	a2,a1,0x18
   11010:	00d77733          	and	a4,a4,a3
   11014:	00a7e7b3          	or	a5,a5,a0
   11018:	00c76733          	or	a4,a4,a2
   1101c:	00010513          	mv	a0,sp
   11020:	01110e23          	sb	a7,28(sp)
   11024:	00010423          	sb	zero,8(sp)
   11028:	00e12023          	sw	a4,0(sp)
   1102c:	00f12223          	sw	a5,4(sp)
   11030:	9d1ff0ef          	jal	ra,10a00 <_Z11EchoConsolePKc>
   11034:	02c12083          	lw	ra,44(sp)
   11038:	03010113          	addi	sp,sp,48
   1103c:	00008067          	ret

00011040 <_Z18EchoConsoleHexBytel>:
   11040:	41f55793          	srai	a5,a0,0x1f
   11044:	01c7d713          	srli	a4,a5,0x1c
   11048:	00002697          	auipc	a3,0x2
   1104c:	87c68693          	addi	a3,a3,-1924 # 128c4 <_exit+0x144>
   11050:	40455793          	srai	a5,a0,0x4
   11054:	00c6a603          	lw	a2,12(a3)
   11058:	0006a883          	lw	a7,0(a3)
   1105c:	0046a803          	lw	a6,4(a3)
   11060:	0086a583          	lw	a1,8(a3)
   11064:	00e50533          	add	a0,a0,a4
   11068:	00e787b3          	add	a5,a5,a4
   1106c:	fd010113          	addi	sp,sp,-48
   11070:	00f57513          	andi	a0,a0,15
   11074:	00f7f793          	andi	a5,a5,15
   11078:	40e50533          	sub	a0,a0,a4
   1107c:	40e787b3          	sub	a5,a5,a4
   11080:	02010713          	addi	a4,sp,32
   11084:	02112623          	sw	ra,44(sp)
   11088:	00c12c23          	sw	a2,24(sp)
   1108c:	01112623          	sw	a7,12(sp)
   11090:	01012823          	sw	a6,16(sp)
   11094:	00b12a23          	sw	a1,20(sp)
   11098:	02010613          	addi	a2,sp,32
   1109c:	00a70533          	add	a0,a4,a0
   110a0:	fec54703          	lbu	a4,-20(a0)
   110a4:	00f607b3          	add	a5,a2,a5
   110a8:	fec7c783          	lbu	a5,-20(a5)
   110ac:	0106c683          	lbu	a3,16(a3)
   110b0:	00871713          	slli	a4,a4,0x8
   110b4:	00e7e7b3          	or	a5,a5,a4
   110b8:	00810513          	addi	a0,sp,8
   110bc:	00d10e23          	sb	a3,28(sp)
   110c0:	00010523          	sb	zero,10(sp)
   110c4:	00f11423          	sh	a5,8(sp)
   110c8:	939ff0ef          	jal	ra,10a00 <_Z11EchoConsolePKc>
   110cc:	02c12083          	lw	ra,44(sp)
   110d0:	03010113          	addi	sp,sp,48
   110d4:	00008067          	ret

000110d8 <_Z11DrawConsolev>:
   110d8:	ff010113          	addi	sp,sp,-16
   110dc:	00812423          	sw	s0,8(sp)
   110e0:	00912223          	sw	s1,4(sp)
   110e4:	01212023          	sw	s2,0(sp)
   110e8:	00112623          	sw	ra,12(sp)
   110ec:	c8c18413          	addi	s0,gp,-884 # 159d4 <_ZL11consoleText>
   110f0:	f8c18913          	addi	s2,gp,-116 # 15cd4 <_ZL7cursorx>
   110f4:	00000493          	li	s1,0
   110f8:	00040693          	mv	a3,s0
   110fc:	00048593          	mv	a1,s1
   11100:	00100713          	li	a4,1
   11104:	02000613          	li	a2,32
   11108:	00000513          	li	a0,0
   1110c:	02040413          	addi	s0,s0,32
   11110:	4cc000ef          	jal	ra,115dc <_Z8PrintDMAiiiPKcb>
   11114:	00848493          	addi	s1,s1,8
   11118:	ff2410e3          	bne	s0,s2,110f8 <_Z11DrawConsolev+0x20>
   1111c:	00c12083          	lw	ra,12(sp)
   11120:	00812403          	lw	s0,8(sp)
   11124:	00412483          	lw	s1,4(sp)
   11128:	00012903          	lw	s2,0(sp)
   1112c:	01010113          	addi	sp,sp,16
   11130:	00008067          	ret

00011134 <_Z18ConsoleStringAtRowPc>:
   11134:	f8c1a803          	lw	a6,-116(gp) # 15cd4 <_ZL7cursorx>
   11138:	0b005c63          	blez	a6,111f0 <_Z18ConsoleStringAtRowPc+0xbc>
   1113c:	fff80793          	addi	a5,a6,-1
   11140:	00357713          	andi	a4,a0,3
   11144:	0087b793          	sltiu	a5,a5,8
   11148:	0017c793          	xori	a5,a5,1
   1114c:	00173713          	seqz	a4,a4
   11150:	00f77733          	and	a4,a4,a5
   11154:	f901a783          	lw	a5,-112(gp) # 15cd8 <_ZL7cursory>
   11158:	00579893          	slli	a7,a5,0x5
   1115c:	c8c18693          	addi	a3,gp,-884 # 159d4 <_ZL11consoleText>
   11160:	08070c63          	beqz	a4,111f8 <_Z18ConsoleStringAtRowPc+0xc4>
   11164:	00188713          	addi	a4,a7,1
   11168:	00e68733          	add	a4,a3,a4
   1116c:	40e50733          	sub	a4,a0,a4
   11170:	00373713          	sltiu	a4,a4,3
   11174:	08071263          	bnez	a4,111f8 <_Z18ConsoleStringAtRowPc+0xc4>
   11178:	011687b3          	add	a5,a3,a7
   1117c:	ffc87593          	andi	a1,a6,-4
   11180:	00050713          	mv	a4,a0
   11184:	00f585b3          	add	a1,a1,a5
   11188:	0007a603          	lw	a2,0(a5)
   1118c:	00478793          	addi	a5,a5,4
   11190:	00470713          	addi	a4,a4,4
   11194:	fec72e23          	sw	a2,-4(a4)
   11198:	feb798e3          	bne	a5,a1,11188 <_Z18ConsoleStringAtRowPc+0x54>
   1119c:	ffc87713          	andi	a4,a6,-4
   111a0:	01050633          	add	a2,a0,a6
   111a4:	04e80463          	beq	a6,a4,111ec <_Z18ConsoleStringAtRowPc+0xb8>
   111a8:	011687b3          	add	a5,a3,a7
   111ac:	00e786b3          	add	a3,a5,a4
   111b0:	0006c883          	lbu	a7,0(a3)
   111b4:	00e505b3          	add	a1,a0,a4
   111b8:	00170693          	addi	a3,a4,1
   111bc:	01158023          	sb	a7,0(a1)
   111c0:	0306d663          	bge	a3,a6,111ec <_Z18ConsoleStringAtRowPc+0xb8>
   111c4:	00d785b3          	add	a1,a5,a3
   111c8:	0005c583          	lbu	a1,0(a1)
   111cc:	00d506b3          	add	a3,a0,a3
   111d0:	00270713          	addi	a4,a4,2
   111d4:	00b68023          	sb	a1,0(a3)
   111d8:	01075a63          	bge	a4,a6,111ec <_Z18ConsoleStringAtRowPc+0xb8>
   111dc:	00e787b3          	add	a5,a5,a4
   111e0:	0007c783          	lbu	a5,0(a5)
   111e4:	00e50733          	add	a4,a0,a4
   111e8:	00f70023          	sb	a5,0(a4)
   111ec:	00060513          	mv	a0,a2
   111f0:	00050023          	sb	zero,0(a0)
   111f4:	00008067          	ret
   111f8:	011687b3          	add	a5,a3,a7
   111fc:	01050633          	add	a2,a0,a6
   11200:	0007c703          	lbu	a4,0(a5)
   11204:	00150513          	addi	a0,a0,1
   11208:	00178793          	addi	a5,a5,1
   1120c:	fee50fa3          	sb	a4,-1(a0)
   11210:	fea618e3          	bne	a2,a0,11200 <_Z18ConsoleStringAtRowPc+0xcc>
   11214:	fd9ff06f          	j	111ec <_Z18ConsoleStringAtRowPc+0xb8>

00011218 <_Z11ClearScreenh>:
   11218:	01051713          	slli	a4,a0,0x10
   1121c:	01851793          	slli	a5,a0,0x18
   11220:	00e7e7b3          	or	a5,a5,a4
   11224:	00a7e7b3          	or	a5,a5,a0
   11228:	00004717          	auipc	a4,0x4
   1122c:	76c72703          	lw	a4,1900(a4) # 15994 <_GLOBAL_OFFSET_TABLE_+0x4>
   11230:	00851513          	slli	a0,a0,0x8
   11234:	00072703          	lw	a4,0(a4)
   11238:	00a7e533          	or	a0,a5,a0
   1123c:	00a51793          	slli	a5,a0,0xa
   11240:	01655513          	srli	a0,a0,0x16
   11244:	0817e793          	ori	a5,a5,129
   11248:	00a51513          	slli	a0,a0,0xa
   1124c:	00f72023          	sw	a5,0(a4)
   11250:	09156513          	ori	a0,a0,145
   11254:	00a72023          	sw	a0,0(a4)
   11258:	01300793          	li	a5,19
   1125c:	00f72023          	sw	a5,0(a4)
   11260:	00008067          	ret

00011264 <_Z8InitFontv>:
   11264:	00004797          	auipc	a5,0x4
   11268:	73c7a783          	lw	a5,1852(a5) # 159a0 <_GLOBAL_OFFSET_TABLE_+0x10>
   1126c:	0007a503          	lw	a0,0(a5)
   11270:	00002637          	lui	a2,0x2
   11274:	ff010113          	addi	sp,sp,-16
   11278:	80060613          	addi	a2,a2,-2048 # 1800 <main-0xe874>
   1127c:	00001597          	auipc	a1,0x1
   11280:	67c58593          	addi	a1,a1,1660 # 128f8 <_exit+0x178>
   11284:	00112623          	sw	ra,12(sp)
   11288:	0cc010ef          	jal	ra,12354 <memcpy>
   1128c:	00c12083          	lw	ra,12(sp)
   11290:	01010113          	addi	sp,sp,16
   11294:	00008067          	ret

00011298 <_Z8PrintDMAiiPKcb>:
   11298:	00064703          	lbu	a4,0(a2)
   1129c:	32070e63          	beqz	a4,115d8 <_Z8PrintDMAiiPKcb+0x340>
   112a0:	00004797          	auipc	a5,0x4
   112a4:	7007a783          	lw	a5,1792(a5) # 159a0 <_GLOBAL_OFFSET_TABLE_+0x10>
   112a8:	0007a303          	lw	t1,0(a5)
   112ac:	00004797          	auipc	a5,0x4
   112b0:	6e87a783          	lw	a5,1768(a5) # 15994 <_GLOBAL_OFFSET_TABLE_+0x4>
   112b4:	00001fb7          	lui	t6,0x1
   112b8:	00d03833          	snez	a6,a3
   112bc:	0007a783          	lw	a5,0(a5)
   112c0:	ac4f8893          	addi	a7,t6,-1340 # ac4 <main-0xf5b0>
   112c4:	01981813          	slli	a6,a6,0x19
   112c8:	00959593          	slli	a1,a1,0x9
   112cc:	01186833          	or	a6,a6,a7
   112d0:	00a585b3          	add	a1,a1,a0
   112d4:	00160893          	addi	a7,a2,1
   112d8:	800f8f13          	addi	t5,t6,-2048
   112dc:	a00f8e93          	addi	t4,t6,-1536
   112e0:	c00f8e13          	addi	t3,t6,-1024
   112e4:	e00f8513          	addi	a0,t6,-512
   112e8:	fe070713          	addi	a4,a4,-32
   112ec:	00068463          	beqz	a3,112f4 <_Z8PrintDMAiiPKcb+0x5c>
   112f0:	2c070c63          	beqz	a4,115c8 <_Z8PrintDMAiiPKcb+0x330>
   112f4:	2c074a63          	bltz	a4,115c8 <_Z8PrintDMAiiPKcb+0x330>
   112f8:	ff010113          	addi	sp,sp,-16
   112fc:	00812623          	sw	s0,12(sp)
   11300:	40575393          	srai	t2,a4,0x5
   11304:	01f77713          	andi	a4,a4,31
   11308:	00371613          	slli	a2,a4,0x3
   1130c:	00b39f93          	slli	t6,t2,0xb
   11310:	00cf8fb3          	add	t6,t6,a2
   11314:	01f30fb3          	add	t6,t1,t6
   11318:	00af9413          	slli	s0,t6,0xa
   1131c:	016fdf93          	srli	t6,t6,0x16
   11320:	4025d293          	srai	t0,a1,0x2
   11324:	20146413          	ori	s0,s0,513
   11328:	00b39713          	slli	a4,t2,0xb
   1132c:	00af9f93          	slli	t6,t6,0xa
   11330:	0087a023          	sw	s0,0(a5)
   11334:	10070713          	addi	a4,a4,256
   11338:	241fef93          	ori	t6,t6,577
   1133c:	00a29393          	slli	t2,t0,0xa
   11340:	0162d293          	srli	t0,t0,0x16
   11344:	01f7a023          	sw	t6,0(a5)
   11348:	2813e393          	ori	t2,t2,641
   1134c:	00e60fb3          	add	t6,a2,a4
   11350:	00a29293          	slli	t0,t0,0xa
   11354:	0077a023          	sw	t2,0(a5)
   11358:	01f30fb3          	add	t6,t1,t6
   1135c:	2d12e293          	ori	t0,t0,721
   11360:	0057a023          	sw	t0,0(a5)
   11364:	016fd393          	srli	t2,t6,0x16
   11368:	00af9293          	slli	t0,t6,0xa
   1136c:	20058f93          	addi	t6,a1,512
   11370:	0107a023          	sw	a6,0(a5)
   11374:	402fdf93          	srai	t6,t6,0x2
   11378:	2012e293          	ori	t0,t0,513
   1137c:	00a39393          	slli	t2,t2,0xa
   11380:	0057a023          	sw	t0,0(a5)
   11384:	00af9413          	slli	s0,t6,0xa
   11388:	2413e393          	ori	t2,t2,577
   1138c:	016fd293          	srli	t0,t6,0x16
   11390:	10070f93          	addi	t6,a4,256
   11394:	0077a023          	sw	t2,0(a5)
   11398:	00cf8fb3          	add	t6,t6,a2
   1139c:	28146393          	ori	t2,s0,641
   113a0:	00a29293          	slli	t0,t0,0xa
   113a4:	0077a023          	sw	t2,0(a5)
   113a8:	01f30fb3          	add	t6,t1,t6
   113ac:	2d12e293          	ori	t0,t0,721
   113b0:	0057a023          	sw	t0,0(a5)
   113b4:	016fd393          	srli	t2,t6,0x16
   113b8:	00af9293          	slli	t0,t6,0xa
   113bc:	40058f93          	addi	t6,a1,1024
   113c0:	0107a023          	sw	a6,0(a5)
   113c4:	402fdf93          	srai	t6,t6,0x2
   113c8:	2012e293          	ori	t0,t0,513
   113cc:	00a39393          	slli	t2,t2,0xa
   113d0:	0057a023          	sw	t0,0(a5)
   113d4:	00af9413          	slli	s0,t6,0xa
   113d8:	2413e393          	ori	t2,t2,577
   113dc:	016fd293          	srli	t0,t6,0x16
   113e0:	20070f93          	addi	t6,a4,512
   113e4:	0077a023          	sw	t2,0(a5)
   113e8:	00cf8fb3          	add	t6,t6,a2
   113ec:	28146393          	ori	t2,s0,641
   113f0:	00a29293          	slli	t0,t0,0xa
   113f4:	0077a023          	sw	t2,0(a5)
   113f8:	01f30fb3          	add	t6,t1,t6
   113fc:	2d12e293          	ori	t0,t0,721
   11400:	0057a023          	sw	t0,0(a5)
   11404:	016fd393          	srli	t2,t6,0x16
   11408:	00af9293          	slli	t0,t6,0xa
   1140c:	60058f93          	addi	t6,a1,1536
   11410:	0107a023          	sw	a6,0(a5)
   11414:	402fdf93          	srai	t6,t6,0x2
   11418:	2012e293          	ori	t0,t0,513
   1141c:	00a39393          	slli	t2,t2,0xa
   11420:	0057a023          	sw	t0,0(a5)
   11424:	00af9413          	slli	s0,t6,0xa
   11428:	2413e393          	ori	t2,t2,577
   1142c:	016fd293          	srli	t0,t6,0x16
   11430:	30070f93          	addi	t6,a4,768
   11434:	0077a023          	sw	t2,0(a5)
   11438:	00cf8fb3          	add	t6,t6,a2
   1143c:	28146393          	ori	t2,s0,641
   11440:	00a29293          	slli	t0,t0,0xa
   11444:	0077a023          	sw	t2,0(a5)
   11448:	01f30fb3          	add	t6,t1,t6
   1144c:	2d12e293          	ori	t0,t0,721
   11450:	0057a023          	sw	t0,0(a5)
   11454:	016fd393          	srli	t2,t6,0x16
   11458:	00af9293          	slli	t0,t6,0xa
   1145c:	01e58fb3          	add	t6,a1,t5
   11460:	0107a023          	sw	a6,0(a5)
   11464:	402fdf93          	srai	t6,t6,0x2
   11468:	2012e293          	ori	t0,t0,513
   1146c:	00a39393          	slli	t2,t2,0xa
   11470:	0057a023          	sw	t0,0(a5)
   11474:	00af9413          	slli	s0,t6,0xa
   11478:	2413e393          	ori	t2,t2,577
   1147c:	016fd293          	srli	t0,t6,0x16
   11480:	40070f93          	addi	t6,a4,1024
   11484:	0077a023          	sw	t2,0(a5)
   11488:	00cf8fb3          	add	t6,t6,a2
   1148c:	28146393          	ori	t2,s0,641
   11490:	00a29293          	slli	t0,t0,0xa
   11494:	0077a023          	sw	t2,0(a5)
   11498:	01f30fb3          	add	t6,t1,t6
   1149c:	2d12e293          	ori	t0,t0,721
   114a0:	0057a023          	sw	t0,0(a5)
   114a4:	016fd393          	srli	t2,t6,0x16
   114a8:	00af9293          	slli	t0,t6,0xa
   114ac:	01d58fb3          	add	t6,a1,t4
   114b0:	0107a023          	sw	a6,0(a5)
   114b4:	402fdf93          	srai	t6,t6,0x2
   114b8:	2012e293          	ori	t0,t0,513
   114bc:	00a39393          	slli	t2,t2,0xa
   114c0:	0057a023          	sw	t0,0(a5)
   114c4:	00af9413          	slli	s0,t6,0xa
   114c8:	2413e393          	ori	t2,t2,577
   114cc:	016fd293          	srli	t0,t6,0x16
   114d0:	50070f93          	addi	t6,a4,1280
   114d4:	0077a023          	sw	t2,0(a5)
   114d8:	00cf8fb3          	add	t6,t6,a2
   114dc:	28146393          	ori	t2,s0,641
   114e0:	00a29293          	slli	t0,t0,0xa
   114e4:	0077a023          	sw	t2,0(a5)
   114e8:	01f30fb3          	add	t6,t1,t6
   114ec:	2d12e293          	ori	t0,t0,721
   114f0:	01c583b3          	add	t2,a1,t3
   114f4:	0057a023          	sw	t0,0(a5)
   114f8:	00af9413          	slli	s0,t6,0xa
   114fc:	4023d293          	srai	t0,t2,0x2
   11500:	016fdf93          	srli	t6,t6,0x16
   11504:	0107a023          	sw	a6,0(a5)
   11508:	0162d393          	srli	t2,t0,0x16
   1150c:	20146413          	ori	s0,s0,513
   11510:	00af9f93          	slli	t6,t6,0xa
   11514:	60070713          	addi	a4,a4,1536
   11518:	0087a023          	sw	s0,0(a5)
   1151c:	241fef93          	ori	t6,t6,577
   11520:	00c70733          	add	a4,a4,a2
   11524:	00a29293          	slli	t0,t0,0xa
   11528:	00a39393          	slli	t2,t2,0xa
   1152c:	00e30733          	add	a4,t1,a4
   11530:	01f7a023          	sw	t6,0(a5)
   11534:	2d13e613          	ori	a2,t2,721
   11538:	2812e293          	ori	t0,t0,641
   1153c:	0057a023          	sw	t0,0(a5)
   11540:	00a71f93          	slli	t6,a4,0xa
   11544:	00c7a023          	sw	a2,0(a5)
   11548:	01675713          	srli	a4,a4,0x16
   1154c:	00a58633          	add	a2,a1,a0
   11550:	0107a023          	sw	a6,0(a5)
   11554:	40265613          	srai	a2,a2,0x2
   11558:	201fef93          	ori	t6,t6,513
   1155c:	00a71713          	slli	a4,a4,0xa
   11560:	01f7a023          	sw	t6,0(a5)
   11564:	24176713          	ori	a4,a4,577
   11568:	00a61f93          	slli	t6,a2,0xa
   1156c:	01665613          	srli	a2,a2,0x16
   11570:	00e7a023          	sw	a4,0(a5)
   11574:	00a61613          	slli	a2,a2,0xa
   11578:	281fe713          	ori	a4,t6,641
   1157c:	00e7a023          	sw	a4,0(a5)
   11580:	2d166613          	ori	a2,a2,721
   11584:	00c7a023          	sw	a2,0(a5)
   11588:	0107a023          	sw	a6,0(a5)
   1158c:	0008c703          	lbu	a4,0(a7)
   11590:	00858593          	addi	a1,a1,8
   11594:	00188893          	addi	a7,a7,1
   11598:	02070263          	beqz	a4,115bc <_Z8PrintDMAiiPKcb+0x324>
   1159c:	fe070713          	addi	a4,a4,-32
   115a0:	00068463          	beqz	a3,115a8 <_Z8PrintDMAiiPKcb+0x310>
   115a4:	fe0704e3          	beqz	a4,1158c <_Z8PrintDMAiiPKcb+0x2f4>
   115a8:	d4075ce3          	bgez	a4,11300 <_Z8PrintDMAiiPKcb+0x68>
   115ac:	0008c703          	lbu	a4,0(a7)
   115b0:	00858593          	addi	a1,a1,8
   115b4:	00188893          	addi	a7,a7,1
   115b8:	fe0712e3          	bnez	a4,1159c <_Z8PrintDMAiiPKcb+0x304>
   115bc:	00c12403          	lw	s0,12(sp)
   115c0:	01010113          	addi	sp,sp,16
   115c4:	00008067          	ret
   115c8:	0008c703          	lbu	a4,0(a7)
   115cc:	00858593          	addi	a1,a1,8
   115d0:	00188893          	addi	a7,a7,1
   115d4:	d0071ae3          	bnez	a4,112e8 <_Z8PrintDMAiiPKcb+0x50>
   115d8:	00008067          	ret

000115dc <_Z8PrintDMAiiiPKcb>:
   115dc:	38c05c63          	blez	a2,11974 <_Z8PrintDMAiiiPKcb+0x398>
   115e0:	000012b7          	lui	t0,0x1
   115e4:	00004797          	auipc	a5,0x4
   115e8:	3bc7a783          	lw	a5,956(a5) # 159a0 <_GLOBAL_OFFSET_TABLE_+0x10>
   115ec:	00e03833          	snez	a6,a4
   115f0:	ac428e13          	addi	t3,t0,-1340 # ac4 <main-0xf5b0>
   115f4:	0007a883          	lw	a7,0(a5)
   115f8:	01981813          	slli	a6,a6,0x19
   115fc:	00959593          	slli	a1,a1,0x9
   11600:	00004797          	auipc	a5,0x4
   11604:	3947a783          	lw	a5,916(a5) # 15994 <_GLOBAL_OFFSET_TABLE_+0x4>
   11608:	01c86833          	or	a6,a6,t3
   1160c:	00a585b3          	add	a1,a1,a0
   11610:	0007a783          	lw	a5,0(a5)
   11614:	00068313          	mv	t1,a3
   11618:	00c68633          	add	a2,a3,a2
   1161c:	07f00f93          	li	t6,127
   11620:	80028f13          	addi	t5,t0,-2048
   11624:	a0028e93          	addi	t4,t0,-1536
   11628:	c0028e13          	addi	t3,t0,-1024
   1162c:	e0028513          	addi	a0,t0,-512
   11630:	0100006f          	j	11640 <_Z8PrintDMAiiiPKcb+0x64>
   11634:	00130313          	addi	t1,t1,1
   11638:	00858593          	addi	a1,a1,8
   1163c:	32c30c63          	beq	t1,a2,11974 <_Z8PrintDMAiiiPKcb+0x398>
   11640:	00034683          	lbu	a3,0(t1)
   11644:	32068863          	beqz	a3,11974 <_Z8PrintDMAiiiPKcb+0x398>
   11648:	fe068693          	addi	a3,a3,-32
   1164c:	00070463          	beqz	a4,11654 <_Z8PrintDMAiiiPKcb+0x78>
   11650:	fe0682e3          	beqz	a3,11634 <_Z8PrintDMAiiiPKcb+0x58>
   11654:	fe010113          	addi	sp,sp,-32
   11658:	00812e23          	sw	s0,28(sp)
   1165c:	00912c23          	sw	s1,24(sp)
   11660:	01212a23          	sw	s2,20(sp)
   11664:	01312823          	sw	s3,16(sp)
   11668:	01412623          	sw	s4,12(sp)
   1166c:	01512423          	sw	s5,8(sp)
   11670:	01612223          	sw	s6,4(sp)
   11674:	2cdfee63          	bltu	t6,a3,11950 <_Z8PrintDMAiiiPKcb+0x374>
   11678:	4056d393          	srai	t2,a3,0x5
   1167c:	01f6f693          	andi	a3,a3,31
   11680:	00b39a13          	slli	s4,t2,0xb
   11684:	00369293          	slli	t0,a3,0x3
   11688:	005a06b3          	add	a3,s4,t0
   1168c:	200a0993          	addi	s3,s4,512
   11690:	300a0913          	addi	s2,s4,768
   11694:	400a0493          	addi	s1,s4,1024
   11698:	500a0413          	addi	s0,s4,1280
   1169c:	600a0393          	addi	t2,s4,1536
   116a0:	700a0a93          	addi	s5,s4,1792
   116a4:	100a0a13          	addi	s4,s4,256
   116a8:	01428a33          	add	s4,t0,s4
   116ac:	005989b3          	add	s3,s3,t0
   116b0:	00590933          	add	s2,s2,t0
   116b4:	005484b3          	add	s1,s1,t0
   116b8:	00540433          	add	s0,s0,t0
   116bc:	005383b3          	add	t2,t2,t0
   116c0:	00d886b3          	add	a3,a7,a3
   116c4:	005a82b3          	add	t0,s5,t0
   116c8:	00a69b13          	slli	s6,a3,0xa
   116cc:	0166da93          	srli	s5,a3,0x16
   116d0:	201b6b13          	ori	s6,s6,513
   116d4:	4025d693          	srai	a3,a1,0x2
   116d8:	00aa9a93          	slli	s5,s5,0xa
   116dc:	0167a023          	sw	s6,0(a5)
   116e0:	241aea93          	ori	s5,s5,577
   116e4:	00a69b13          	slli	s6,a3,0xa
   116e8:	0166d693          	srli	a3,a3,0x16
   116ec:	0157a023          	sw	s5,0(a5)
   116f0:	00a69693          	slli	a3,a3,0xa
   116f4:	281b6a93          	ori	s5,s6,641
   116f8:	0157a023          	sw	s5,0(a5)
   116fc:	01488a33          	add	s4,a7,s4
   11700:	2d16e693          	ori	a3,a3,721
   11704:	00d7a023          	sw	a3,0(a5)
   11708:	00aa1a93          	slli	s5,s4,0xa
   1170c:	20058693          	addi	a3,a1,512
   11710:	016a5a13          	srli	s4,s4,0x16
   11714:	0107a023          	sw	a6,0(a5)
   11718:	4026d693          	srai	a3,a3,0x2
   1171c:	201aea93          	ori	s5,s5,513
   11720:	00aa1a13          	slli	s4,s4,0xa
   11724:	0157a023          	sw	s5,0(a5)
   11728:	241a6a13          	ori	s4,s4,577
   1172c:	00a69a93          	slli	s5,a3,0xa
   11730:	0166d693          	srli	a3,a3,0x16
   11734:	0147a023          	sw	s4,0(a5)
   11738:	00a69693          	slli	a3,a3,0xa
   1173c:	281aea13          	ori	s4,s5,641
   11740:	0147a023          	sw	s4,0(a5)
   11744:	013889b3          	add	s3,a7,s3
   11748:	2d16e693          	ori	a3,a3,721
   1174c:	00d7a023          	sw	a3,0(a5)
   11750:	00a99a13          	slli	s4,s3,0xa
   11754:	40058693          	addi	a3,a1,1024
   11758:	0169d993          	srli	s3,s3,0x16
   1175c:	0107a023          	sw	a6,0(a5)
   11760:	4026d693          	srai	a3,a3,0x2
   11764:	201a6a13          	ori	s4,s4,513
   11768:	00a99993          	slli	s3,s3,0xa
   1176c:	0147a023          	sw	s4,0(a5)
   11770:	2419e993          	ori	s3,s3,577
   11774:	00a69a13          	slli	s4,a3,0xa
   11778:	0166d693          	srli	a3,a3,0x16
   1177c:	0137a023          	sw	s3,0(a5)
   11780:	00a69693          	slli	a3,a3,0xa
   11784:	281a6993          	ori	s3,s4,641
   11788:	0137a023          	sw	s3,0(a5)
   1178c:	01288933          	add	s2,a7,s2
   11790:	2d16e693          	ori	a3,a3,721
   11794:	00d7a023          	sw	a3,0(a5)
   11798:	00a91993          	slli	s3,s2,0xa
   1179c:	60058693          	addi	a3,a1,1536
   117a0:	01695913          	srli	s2,s2,0x16
   117a4:	0107a023          	sw	a6,0(a5)
   117a8:	4026d693          	srai	a3,a3,0x2
   117ac:	2019e993          	ori	s3,s3,513
   117b0:	00a91913          	slli	s2,s2,0xa
   117b4:	0137a023          	sw	s3,0(a5)
   117b8:	24196913          	ori	s2,s2,577
   117bc:	00a69993          	slli	s3,a3,0xa
   117c0:	0166d693          	srli	a3,a3,0x16
   117c4:	0127a023          	sw	s2,0(a5)
   117c8:	00a69693          	slli	a3,a3,0xa
   117cc:	2819e913          	ori	s2,s3,641
   117d0:	0127a023          	sw	s2,0(a5)
   117d4:	009884b3          	add	s1,a7,s1
   117d8:	2d16e693          	ori	a3,a3,721
   117dc:	00d7a023          	sw	a3,0(a5)
   117e0:	00a49913          	slli	s2,s1,0xa
   117e4:	01e586b3          	add	a3,a1,t5
   117e8:	0164d493          	srli	s1,s1,0x16
   117ec:	0107a023          	sw	a6,0(a5)
   117f0:	4026d693          	srai	a3,a3,0x2
   117f4:	20196913          	ori	s2,s2,513
   117f8:	00a49493          	slli	s1,s1,0xa
   117fc:	0127a023          	sw	s2,0(a5)
   11800:	2414e493          	ori	s1,s1,577
   11804:	00a69913          	slli	s2,a3,0xa
   11808:	0166d693          	srli	a3,a3,0x16
   1180c:	0097a023          	sw	s1,0(a5)
   11810:	00a69693          	slli	a3,a3,0xa
   11814:	28196493          	ori	s1,s2,641
   11818:	0097a023          	sw	s1,0(a5)
   1181c:	00888433          	add	s0,a7,s0
   11820:	2d16e693          	ori	a3,a3,721
   11824:	00d7a023          	sw	a3,0(a5)
   11828:	00a41493          	slli	s1,s0,0xa
   1182c:	01d586b3          	add	a3,a1,t4
   11830:	01645413          	srli	s0,s0,0x16
   11834:	0107a023          	sw	a6,0(a5)
   11838:	4026d693          	srai	a3,a3,0x2
   1183c:	2014e493          	ori	s1,s1,513
   11840:	00a41413          	slli	s0,s0,0xa
   11844:	0097a023          	sw	s1,0(a5)
   11848:	24146413          	ori	s0,s0,577
   1184c:	00a69493          	slli	s1,a3,0xa
   11850:	0166d693          	srli	a3,a3,0x16
   11854:	0087a023          	sw	s0,0(a5)
   11858:	00a69693          	slli	a3,a3,0xa
   1185c:	2814e413          	ori	s0,s1,641
   11860:	0087a023          	sw	s0,0(a5)
   11864:	007883b3          	add	t2,a7,t2
   11868:	01c58433          	add	s0,a1,t3
   1186c:	2d16e693          	ori	a3,a3,721
   11870:	00d7a023          	sw	a3,0(a5)
   11874:	00a39493          	slli	s1,t2,0xa
   11878:	40245693          	srai	a3,s0,0x2
   1187c:	0163d393          	srli	t2,t2,0x16
   11880:	0107a023          	sw	a6,0(a5)
   11884:	0166d413          	srli	s0,a3,0x16
   11888:	2014e493          	ori	s1,s1,513
   1188c:	00a39393          	slli	t2,t2,0xa
   11890:	0097a023          	sw	s1,0(a5)
   11894:	2413e393          	ori	t2,t2,577
   11898:	00a41413          	slli	s0,s0,0xa
   1189c:	00a69693          	slli	a3,a3,0xa
   118a0:	005882b3          	add	t0,a7,t0
   118a4:	0077a023          	sw	t2,0(a5)
   118a8:	2816e693          	ori	a3,a3,641
   118ac:	2d146393          	ori	t2,s0,721
   118b0:	00d7a023          	sw	a3,0(a5)
   118b4:	00a29413          	slli	s0,t0,0xa
   118b8:	0077a023          	sw	t2,0(a5)
   118bc:	00a586b3          	add	a3,a1,a0
   118c0:	0162d293          	srli	t0,t0,0x16
   118c4:	0107a023          	sw	a6,0(a5)
   118c8:	4026d693          	srai	a3,a3,0x2
   118cc:	20146393          	ori	t2,s0,513
   118d0:	00a29293          	slli	t0,t0,0xa
   118d4:	0077a023          	sw	t2,0(a5)
   118d8:	2412e293          	ori	t0,t0,577
   118dc:	00a69393          	slli	t2,a3,0xa
   118e0:	0166d693          	srli	a3,a3,0x16
   118e4:	0057a023          	sw	t0,0(a5)
   118e8:	00a69693          	slli	a3,a3,0xa
   118ec:	2813e293          	ori	t0,t2,641
   118f0:	0057a023          	sw	t0,0(a5)
   118f4:	2d16e693          	ori	a3,a3,721
   118f8:	00d7a023          	sw	a3,0(a5)
   118fc:	0107a023          	sw	a6,0(a5)
   11900:	00130313          	addi	t1,t1,1
   11904:	00858593          	addi	a1,a1,8
   11908:	02c30263          	beq	t1,a2,1192c <_Z8PrintDMAiiiPKcb+0x350>
   1190c:	00034683          	lbu	a3,0(t1)
   11910:	00068e63          	beqz	a3,1192c <_Z8PrintDMAiiiPKcb+0x350>
   11914:	fe068693          	addi	a3,a3,-32
   11918:	d4070ee3          	beqz	a4,11674 <_Z8PrintDMAiiiPKcb+0x98>
   1191c:	d4069ce3          	bnez	a3,11674 <_Z8PrintDMAiiiPKcb+0x98>
   11920:	00130313          	addi	t1,t1,1
   11924:	00858593          	addi	a1,a1,8
   11928:	fec312e3          	bne	t1,a2,1190c <_Z8PrintDMAiiiPKcb+0x330>
   1192c:	01c12403          	lw	s0,28(sp)
   11930:	01812483          	lw	s1,24(sp)
   11934:	01412903          	lw	s2,20(sp)
   11938:	01012983          	lw	s3,16(sp)
   1193c:	00c12a03          	lw	s4,12(sp)
   11940:	00812a83          	lw	s5,8(sp)
   11944:	00412b03          	lw	s6,4(sp)
   11948:	02010113          	addi	sp,sp,32
   1194c:	00008067          	ret
   11950:	00088693          	mv	a3,a7
   11954:	70000293          	li	t0,1792
   11958:	60000393          	li	t2,1536
   1195c:	50000413          	li	s0,1280
   11960:	40000493          	li	s1,1024
   11964:	30000913          	li	s2,768
   11968:	20000993          	li	s3,512
   1196c:	10000a13          	li	s4,256
   11970:	d59ff06f          	j	116c8 <_Z8PrintDMAiiiPKcb+0xec>
   11974:	00008067          	ret

00011978 <_Z11PrintDMAHexiim>:
   11978:	00001e17          	auipc	t3,0x1
   1197c:	f4ce0e13          	addi	t3,t3,-180 # 128c4 <_exit+0x144>
   11980:	00ce2f03          	lw	t5,12(t3)
   11984:	008e2f83          	lw	t6,8(t3)
   11988:	000e2383          	lw	t2,0(t3)
   1198c:	004e2283          	lw	t0,4(t3)
   11990:	fd010113          	addi	sp,sp,-48
   11994:	01865313          	srli	t1,a2,0x18
   11998:	01465893          	srli	a7,a2,0x14
   1199c:	01065813          	srli	a6,a2,0x10
   119a0:	00c65693          	srli	a3,a2,0xc
   119a4:	00865713          	srli	a4,a2,0x8
   119a8:	00465793          	srli	a5,a2,0x4
   119ac:	01e12c23          	sw	t5,24(sp)
   119b0:	01c65e93          	srli	t4,a2,0x1c
   119b4:	02010f13          	addi	t5,sp,32
   119b8:	00f37313          	andi	t1,t1,15
   119bc:	00f8f893          	andi	a7,a7,15
   119c0:	00f87813          	andi	a6,a6,15
   119c4:	00f6f693          	andi	a3,a3,15
   119c8:	00f77713          	andi	a4,a4,15
   119cc:	00f7f793          	andi	a5,a5,15
   119d0:	00f67613          	andi	a2,a2,15
   119d4:	02112623          	sw	ra,44(sp)
   119d8:	01f12a23          	sw	t6,20(sp)
   119dc:	00712623          	sw	t2,12(sp)
   119e0:	00512823          	sw	t0,16(sp)
   119e4:	006f0333          	add	t1,t5,t1
   119e8:	011f08b3          	add	a7,t5,a7
   119ec:	010f0833          	add	a6,t5,a6
   119f0:	00df06b3          	add	a3,t5,a3
   119f4:	00ef0733          	add	a4,t5,a4
   119f8:	00ff07b3          	add	a5,t5,a5
   119fc:	00cf0633          	add	a2,t5,a2
   11a00:	01df0eb3          	add	t4,t5,t4
   11a04:	010e4f83          	lbu	t6,16(t3)
   11a08:	fececf03          	lbu	t5,-20(t4)
   11a0c:	fec8ce03          	lbu	t3,-20(a7)
   11a10:	fec34e83          	lbu	t4,-20(t1)
   11a14:	fec6c883          	lbu	a7,-20(a3)
   11a18:	fec84303          	lbu	t1,-20(a6)
   11a1c:	fec74803          	lbu	a6,-20(a4)
   11a20:	fec7c703          	lbu	a4,-20(a5)
   11a24:	fec64783          	lbu	a5,-20(a2)
   11a28:	02e00693          	li	a3,46
   11a2c:	00d11423          	sh	a3,8(sp)
   11a30:	00010613          	mv	a2,sp
   11a34:	00100693          	li	a3,1
   11a38:	01f10e23          	sb	t6,28(sp)
   11a3c:	01e10023          	sb	t5,0(sp)
   11a40:	01d100a3          	sb	t4,1(sp)
   11a44:	01c10123          	sb	t3,2(sp)
   11a48:	006101a3          	sb	t1,3(sp)
   11a4c:	01110223          	sb	a7,4(sp)
   11a50:	010102a3          	sb	a6,5(sp)
   11a54:	00e10323          	sb	a4,6(sp)
   11a58:	00f103a3          	sb	a5,7(sp)
   11a5c:	00010423          	sb	zero,8(sp)
   11a60:	839ff0ef          	jal	ra,11298 <_Z8PrintDMAiiPKcb>
   11a64:	02c12083          	lw	ra,44(sp)
   11a68:	03010113          	addi	sp,sp,48
   11a6c:	00008067          	ret

00011a70 <_Z15PrintDMADecimaliiib>:
   11a70:	00001797          	auipc	a5,0x1
   11a74:	e6878793          	addi	a5,a5,-408 # 128d8 <_exit+0x158>
   11a78:	00001717          	auipc	a4,0x1
   11a7c:	e7470713          	addi	a4,a4,-396 # 128ec <_exit+0x16c>
   11a80:	0047a883          	lw	a7,4(a5)
   11a84:	00072f83          	lw	t6,0(a4)
   11a88:	00472f03          	lw	t5,4(a4)
   11a8c:	00875e83          	lhu	t4,8(a4)
   11a90:	00a74e03          	lbu	t3,10(a4)
   11a94:	0007a303          	lw	t1,0(a5)
   11a98:	0087a803          	lw	a6,8(a5)
   11a9c:	00c7a703          	lw	a4,12(a5)
   11aa0:	0107a783          	lw	a5,16(a5)
   11aa4:	fd010113          	addi	sp,sp,-48
   11aa8:	01112823          	sw	a7,16(sp)
   11aac:	00f12e23          	sw	a5,28(sp)
   11ab0:	02112623          	sw	ra,44(sp)
   11ab4:	02812423          	sw	s0,40(sp)
   11ab8:	01f12023          	sw	t6,0(sp)
   11abc:	01e12223          	sw	t5,4(sp)
   11ac0:	01d11423          	sh	t4,8(sp)
   11ac4:	01c10523          	sb	t3,10(sp)
   11ac8:	00612623          	sw	t1,12(sp)
   11acc:	01012a23          	sw	a6,20(sp)
   11ad0:	00e12c23          	sw	a4,24(sp)
   11ad4:	02d00893          	li	a7,45
   11ad8:	00100793          	li	a5,1
   11adc:	00064663          	bltz	a2,11ae8 <_Z15PrintDMADecimaliiib+0x78>
   11ae0:	02000893          	li	a7,32
   11ae4:	00000793          	li	a5,0
   11ae8:	3b9ad737          	lui	a4,0x3b9ad
   11aec:	a0070813          	addi	a6,a4,-1536 # 3b9aca00 <__global_pointer$+0x3b996cb8>
   11af0:	03064833          	div	a6,a2,a6
   11af4:	9ff70713          	addi	a4,a4,-1537
   11af8:	01110623          	sb	a7,12(sp)
   11afc:	773598b7          	lui	a7,0x77359
   11b00:	00e60733          	add	a4,a2,a4
   11b04:	3fe88893          	addi	a7,a7,1022 # 773593fe <__global_pointer$+0x773436b6>
   11b08:	41f85313          	srai	t1,a6,0x1f
   11b0c:	01034833          	xor	a6,t1,a6
   11b10:	40680833          	sub	a6,a6,t1
   11b14:	14e8e663          	bltu	a7,a4,11c60 <_Z15PrintDMADecimaliiib+0x1f0>
   11b18:	05f5e737          	lui	a4,0x5f5e
   11b1c:	10070713          	addi	a4,a4,256 # 5f5e100 <__global_pointer$+0x5f483b8>
   11b20:	02e64733          	div	a4,a2,a4
   11b24:	00a00893          	li	a7,10
   11b28:	41f75313          	srai	t1,a4,0x1f
   11b2c:	00e34833          	xor	a6,t1,a4
   11b30:	40680833          	sub	a6,a6,t1
   11b34:	03186833          	rem	a6,a6,a7
   11b38:	16081263          	bnez	a6,11c9c <_Z15PrintDMADecimaliiib+0x22c>
   11b3c:	00989737          	lui	a4,0x989
   11b40:	68070713          	addi	a4,a4,1664 # 989680 <__global_pointer$+0x973938>
   11b44:	02e64733          	div	a4,a2,a4
   11b48:	41f75313          	srai	t1,a4,0x1f
   11b4c:	00e34833          	xor	a6,t1,a4
   11b50:	40680833          	sub	a6,a6,t1
   11b54:	03186833          	rem	a6,a6,a7
   11b58:	18081063          	bnez	a6,11cd8 <_Z15PrintDMADecimaliiib+0x268>
   11b5c:	000f4737          	lui	a4,0xf4
   11b60:	24070713          	addi	a4,a4,576 # f4240 <__global_pointer$+0xde4f8>
   11b64:	02e64733          	div	a4,a2,a4
   11b68:	41f75313          	srai	t1,a4,0x1f
   11b6c:	00e34833          	xor	a6,t1,a4
   11b70:	40680833          	sub	a6,a6,t1
   11b74:	03186833          	rem	a6,a6,a7
   11b78:	18081e63          	bnez	a6,11d14 <_Z15PrintDMADecimaliiib+0x2a4>
   11b7c:	00018737          	lui	a4,0x18
   11b80:	6a070713          	addi	a4,a4,1696 # 186a0 <__global_pointer$+0x2958>
   11b84:	02e64733          	div	a4,a2,a4
   11b88:	41f75313          	srai	t1,a4,0x1f
   11b8c:	00e34833          	xor	a6,t1,a4
   11b90:	40680833          	sub	a6,a6,t1
   11b94:	03186833          	rem	a6,a6,a7
   11b98:	1a081c63          	bnez	a6,11d50 <_Z15PrintDMADecimaliiib+0x2e0>
   11b9c:	00002737          	lui	a4,0x2
   11ba0:	71070713          	addi	a4,a4,1808 # 2710 <main-0xd964>
   11ba4:	02e64733          	div	a4,a2,a4
   11ba8:	41f75813          	srai	a6,a4,0x1f
   11bac:	00e84733          	xor	a4,a6,a4
   11bb0:	41070733          	sub	a4,a4,a6
   11bb4:	03176733          	rem	a4,a4,a7
   11bb8:	1c071a63          	bnez	a4,11d8c <_Z15PrintDMADecimaliiib+0x31c>
   11bbc:	3e800713          	li	a4,1000
   11bc0:	02e64733          	div	a4,a2,a4
   11bc4:	41f75313          	srai	t1,a4,0x1f
   11bc8:	00e34833          	xor	a6,t1,a4
   11bcc:	40680833          	sub	a6,a6,t1
   11bd0:	03186833          	rem	a6,a6,a7
   11bd4:	1e081863          	bnez	a6,11dc4 <_Z15PrintDMADecimaliiib+0x354>
   11bd8:	06400713          	li	a4,100
   11bdc:	02e64733          	div	a4,a2,a4
   11be0:	41f75813          	srai	a6,a4,0x1f
   11be4:	00e84733          	xor	a4,a6,a4
   11be8:	41070733          	sub	a4,a4,a6
   11bec:	03176733          	rem	a4,a4,a7
   11bf0:	20071663          	bnez	a4,11dfc <_Z15PrintDMADecimaliiib+0x38c>
   11bf4:	03164733          	div	a4,a2,a7
   11bf8:	41f75813          	srai	a6,a4,0x1f
   11bfc:	00e84733          	xor	a4,a6,a4
   11c00:	41070733          	sub	a4,a4,a6
   11c04:	031768b3          	rem	a7,a4,a7
   11c08:	22089463          	bnez	a7,11e30 <_Z15PrintDMADecimaliiib+0x3c0>
   11c0c:	41f65813          	srai	a6,a2,0x1f
   11c10:	00c84733          	xor	a4,a6,a2
   11c14:	41070733          	sub	a4,a4,a6
   11c18:	00a00613          	li	a2,10
   11c1c:	02c76733          	rem	a4,a4,a2
   11c20:	02010893          	addi	a7,sp,32
   11c24:	02010613          	addi	a2,sp,32
   11c28:	00178413          	addi	s0,a5,1
   11c2c:	00f607b3          	add	a5,a2,a5
   11c30:	00860833          	add	a6,a2,s0
   11c34:	00c10613          	addi	a2,sp,12
   11c38:	00e88733          	add	a4,a7,a4
   11c3c:	fe074703          	lbu	a4,-32(a4)
   11c40:	fee78623          	sb	a4,-20(a5)
   11c44:	fe080623          	sb	zero,-20(a6)
   11c48:	e50ff0ef          	jal	ra,11298 <_Z8PrintDMAiiPKcb>
   11c4c:	02c12083          	lw	ra,44(sp)
   11c50:	00040513          	mv	a0,s0
   11c54:	02812403          	lw	s0,40(sp)
   11c58:	03010113          	addi	sp,sp,48
   11c5c:	00008067          	ret
   11c60:	05f5e737          	lui	a4,0x5f5e
   11c64:	10070713          	addi	a4,a4,256 # 5f5e100 <__global_pointer$+0x5f483b8>
   11c68:	02e64733          	div	a4,a2,a4
   11c6c:	02010893          	addi	a7,sp,32
   11c70:	01088833          	add	a6,a7,a6
   11c74:	fe084883          	lbu	a7,-32(a6)
   11c78:	02010813          	addi	a6,sp,32
   11c7c:	00f80833          	add	a6,a6,a5
   11c80:	ff180623          	sb	a7,-20(a6)
   11c84:	00178793          	addi	a5,a5,1
   11c88:	41f75893          	srai	a7,a4,0x1f
   11c8c:	00e8c833          	xor	a6,a7,a4
   11c90:	41180833          	sub	a6,a6,a7
   11c94:	00a00713          	li	a4,10
   11c98:	02e86833          	rem	a6,a6,a4
   11c9c:	00989737          	lui	a4,0x989
   11ca0:	68070713          	addi	a4,a4,1664 # 989680 <__global_pointer$+0x973938>
   11ca4:	02010893          	addi	a7,sp,32
   11ca8:	01088833          	add	a6,a7,a6
   11cac:	fe084883          	lbu	a7,-32(a6)
   11cb0:	02010813          	addi	a6,sp,32
   11cb4:	00f80833          	add	a6,a6,a5
   11cb8:	ff180623          	sb	a7,-20(a6)
   11cbc:	00178793          	addi	a5,a5,1
   11cc0:	02e64733          	div	a4,a2,a4
   11cc4:	41f75893          	srai	a7,a4,0x1f
   11cc8:	00e8c833          	xor	a6,a7,a4
   11ccc:	41180833          	sub	a6,a6,a7
   11cd0:	00a00713          	li	a4,10
   11cd4:	02e86833          	rem	a6,a6,a4
   11cd8:	000f4737          	lui	a4,0xf4
   11cdc:	24070713          	addi	a4,a4,576 # f4240 <__global_pointer$+0xde4f8>
   11ce0:	02010893          	addi	a7,sp,32
   11ce4:	01088833          	add	a6,a7,a6
   11ce8:	fe084883          	lbu	a7,-32(a6)
   11cec:	02010813          	addi	a6,sp,32
   11cf0:	00f80833          	add	a6,a6,a5
   11cf4:	ff180623          	sb	a7,-20(a6)
   11cf8:	00178793          	addi	a5,a5,1
   11cfc:	02e64733          	div	a4,a2,a4
   11d00:	41f75893          	srai	a7,a4,0x1f
   11d04:	00e8c833          	xor	a6,a7,a4
   11d08:	41180833          	sub	a6,a6,a7
   11d0c:	00a00713          	li	a4,10
   11d10:	02e86833          	rem	a6,a6,a4
   11d14:	00018737          	lui	a4,0x18
   11d18:	6a070713          	addi	a4,a4,1696 # 186a0 <__global_pointer$+0x2958>
   11d1c:	02010893          	addi	a7,sp,32
   11d20:	01088833          	add	a6,a7,a6
   11d24:	fe084883          	lbu	a7,-32(a6)
   11d28:	02010813          	addi	a6,sp,32
   11d2c:	00f80833          	add	a6,a6,a5
   11d30:	ff180623          	sb	a7,-20(a6)
   11d34:	00178793          	addi	a5,a5,1
   11d38:	02e64733          	div	a4,a2,a4
   11d3c:	41f75893          	srai	a7,a4,0x1f
   11d40:	00e8c833          	xor	a6,a7,a4
   11d44:	41180833          	sub	a6,a6,a7
   11d48:	00a00713          	li	a4,10
   11d4c:	02e86833          	rem	a6,a6,a4
   11d50:	00002737          	lui	a4,0x2
   11d54:	71070713          	addi	a4,a4,1808 # 2710 <main-0xd964>
   11d58:	02010893          	addi	a7,sp,32
   11d5c:	01088833          	add	a6,a7,a6
   11d60:	fe084883          	lbu	a7,-32(a6)
   11d64:	02010813          	addi	a6,sp,32
   11d68:	00f80833          	add	a6,a6,a5
   11d6c:	ff180623          	sb	a7,-20(a6)
   11d70:	00178793          	addi	a5,a5,1
   11d74:	02e64733          	div	a4,a2,a4
   11d78:	41f75813          	srai	a6,a4,0x1f
   11d7c:	00e84733          	xor	a4,a6,a4
   11d80:	41070733          	sub	a4,a4,a6
   11d84:	00a00813          	li	a6,10
   11d88:	03076733          	rem	a4,a4,a6
   11d8c:	3e800813          	li	a6,1000
   11d90:	02010893          	addi	a7,sp,32
   11d94:	00e88733          	add	a4,a7,a4
   11d98:	fe074883          	lbu	a7,-32(a4)
   11d9c:	02010713          	addi	a4,sp,32
   11da0:	00f70733          	add	a4,a4,a5
   11da4:	ff170623          	sb	a7,-20(a4)
   11da8:	00178793          	addi	a5,a5,1
   11dac:	03064833          	div	a6,a2,a6
   11db0:	41f85713          	srai	a4,a6,0x1f
   11db4:	01074833          	xor	a6,a4,a6
   11db8:	40e80833          	sub	a6,a6,a4
   11dbc:	00a00713          	li	a4,10
   11dc0:	02e86833          	rem	a6,a6,a4
   11dc4:	06400713          	li	a4,100
   11dc8:	02010893          	addi	a7,sp,32
   11dcc:	01088833          	add	a6,a7,a6
   11dd0:	fe084883          	lbu	a7,-32(a6)
   11dd4:	02010813          	addi	a6,sp,32
   11dd8:	00f80833          	add	a6,a6,a5
   11ddc:	ff180623          	sb	a7,-20(a6)
   11de0:	00178793          	addi	a5,a5,1
   11de4:	02e64733          	div	a4,a2,a4
   11de8:	41f75813          	srai	a6,a4,0x1f
   11dec:	00e84733          	xor	a4,a6,a4
   11df0:	41070733          	sub	a4,a4,a6
   11df4:	00a00813          	li	a6,10
   11df8:	03076733          	rem	a4,a4,a6
   11dfc:	00a00313          	li	t1,10
   11e00:	02010893          	addi	a7,sp,32
   11e04:	00e88733          	add	a4,a7,a4
   11e08:	fe074883          	lbu	a7,-32(a4)
   11e0c:	02010713          	addi	a4,sp,32
   11e10:	00f70733          	add	a4,a4,a5
   11e14:	ff170623          	sb	a7,-20(a4)
   11e18:	00178793          	addi	a5,a5,1
   11e1c:	02664833          	div	a6,a2,t1
   11e20:	41f85713          	srai	a4,a6,0x1f
   11e24:	010748b3          	xor	a7,a4,a6
   11e28:	40e888b3          	sub	a7,a7,a4
   11e2c:	0268e8b3          	rem	a7,a7,t1
   11e30:	02010713          	addi	a4,sp,32
   11e34:	011708b3          	add	a7,a4,a7
   11e38:	fe08c803          	lbu	a6,-32(a7)
   11e3c:	00f70733          	add	a4,a4,a5
   11e40:	00178793          	addi	a5,a5,1
   11e44:	ff070623          	sb	a6,-20(a4)
   11e48:	dc5ff06f          	j	11c0c <_Z15PrintDMADecimaliiib+0x19c>

00011e4c <__udivdi3>:
#endif

#ifdef L_udivdi3
UDWtype
__udivdi3 (UDWtype n, UDWtype d)
{
   11e4c:	00050893          	mv	a7,a0
   11e50:	00058793          	mv	a5,a1
  d0 = dd.s.low;
   11e54:	00060813          	mv	a6,a2
  d1 = dd.s.high;
   11e58:	00068513          	mv	a0,a3
  n0 = nn.s.low;
   11e5c:	00088313          	mv	t1,a7
  if (d1 == 0)
   11e60:	28069463          	bnez	a3,120e8 <__udivdi3+0x29c>
      if (d0 > n1)
   11e64:	000146b7          	lui	a3,0x14
   11e68:	0f868693          	addi	a3,a3,248 # 140f8 <__clz_tab>
   11e6c:	0ec5f663          	bgeu	a1,a2,11f58 <__udivdi3+0x10c>
	  count_leading_zeros (bm, d0);
   11e70:	00010737          	lui	a4,0x10
   11e74:	0ce67863          	bgeu	a2,a4,11f44 <__udivdi3+0xf8>
   11e78:	0ff00713          	li	a4,255
   11e7c:	00c73733          	sltu	a4,a4,a2
   11e80:	00371713          	slli	a4,a4,0x3
   11e84:	00e65533          	srl	a0,a2,a4
   11e88:	00a686b3          	add	a3,a3,a0
   11e8c:	0006c683          	lbu	a3,0(a3)
   11e90:	02000513          	li	a0,32
   11e94:	00e68733          	add	a4,a3,a4
   11e98:	40e506b3          	sub	a3,a0,a4
	  if (bm != 0)
   11e9c:	00e50c63          	beq	a0,a4,11eb4 <__udivdi3+0x68>
	      n1 = (n1 << bm) | (n0 >> (W_TYPE_SIZE - bm));
   11ea0:	00d795b3          	sll	a1,a5,a3
   11ea4:	00e8d733          	srl	a4,a7,a4
	      d0 = d0 << bm;
   11ea8:	00d61833          	sll	a6,a2,a3
	      n1 = (n1 << bm) | (n0 >> (W_TYPE_SIZE - bm));
   11eac:	00b765b3          	or	a1,a4,a1
	      n0 = n0 << bm;
   11eb0:	00d89333          	sll	t1,a7,a3
	  udiv_qrnnd (q0, n0, n1, n0, d0);
   11eb4:	01085893          	srli	a7,a6,0x10
   11eb8:	0315d6b3          	divu	a3,a1,a7
   11ebc:	01081613          	slli	a2,a6,0x10
   11ec0:	01065613          	srli	a2,a2,0x10
   11ec4:	01035793          	srli	a5,t1,0x10
   11ec8:	0315f733          	remu	a4,a1,a7
   11ecc:	00068513          	mv	a0,a3
   11ed0:	02d605b3          	mul	a1,a2,a3
   11ed4:	01071713          	slli	a4,a4,0x10
   11ed8:	00f767b3          	or	a5,a4,a5
   11edc:	00b7fe63          	bgeu	a5,a1,11ef8 <__udivdi3+0xac>
   11ee0:	010787b3          	add	a5,a5,a6
   11ee4:	fff68513          	addi	a0,a3,-1
   11ee8:	0107e863          	bltu	a5,a6,11ef8 <__udivdi3+0xac>
   11eec:	00b7f663          	bgeu	a5,a1,11ef8 <__udivdi3+0xac>
   11ef0:	ffe68513          	addi	a0,a3,-2
   11ef4:	010787b3          	add	a5,a5,a6
   11ef8:	40b787b3          	sub	a5,a5,a1
   11efc:	0317f733          	remu	a4,a5,a7
   11f00:	01031313          	slli	t1,t1,0x10
   11f04:	01035313          	srli	t1,t1,0x10
   11f08:	0317d7b3          	divu	a5,a5,a7
   11f0c:	01071713          	slli	a4,a4,0x10
   11f10:	00676333          	or	t1,a4,t1
   11f14:	02f606b3          	mul	a3,a2,a5
   11f18:	00078613          	mv	a2,a5
   11f1c:	00d37c63          	bgeu	t1,a3,11f34 <__udivdi3+0xe8>
   11f20:	00680333          	add	t1,a6,t1
   11f24:	fff78613          	addi	a2,a5,-1
   11f28:	01036663          	bltu	t1,a6,11f34 <__udivdi3+0xe8>
   11f2c:	00d37463          	bgeu	t1,a3,11f34 <__udivdi3+0xe8>
   11f30:	ffe78613          	addi	a2,a5,-2
   11f34:	01051513          	slli	a0,a0,0x10
   11f38:	00c56533          	or	a0,a0,a2
	      q1 = 0;
   11f3c:	00000593          	li	a1,0
   11f40:	0e40006f          	j	12024 <__udivdi3+0x1d8>
	  count_leading_zeros (bm, d0);
   11f44:	01000537          	lui	a0,0x1000
   11f48:	01000713          	li	a4,16
   11f4c:	f2a66ce3          	bltu	a2,a0,11e84 <__udivdi3+0x38>
   11f50:	01800713          	li	a4,24
   11f54:	f31ff06f          	j	11e84 <__udivdi3+0x38>
	  if (d0 == 0)
   11f58:	00061663          	bnez	a2,11f64 <__udivdi3+0x118>
	    d0 = 1 / d0;	/* Divide intentionally by zero.  */
   11f5c:	00100713          	li	a4,1
   11f60:	02c75833          	divu	a6,a4,a2
	  count_leading_zeros (bm, d0);
   11f64:	00010737          	lui	a4,0x10
   11f68:	0ce87063          	bgeu	a6,a4,12028 <__udivdi3+0x1dc>
   11f6c:	0ff00713          	li	a4,255
   11f70:	01077463          	bgeu	a4,a6,11f78 <__udivdi3+0x12c>
   11f74:	00800513          	li	a0,8
   11f78:	00a85733          	srl	a4,a6,a0
   11f7c:	00e686b3          	add	a3,a3,a4
   11f80:	0006c703          	lbu	a4,0(a3)
   11f84:	02000613          	li	a2,32
   11f88:	00a70733          	add	a4,a4,a0
   11f8c:	40e606b3          	sub	a3,a2,a4
	  if (bm == 0)
   11f90:	0ae61663          	bne	a2,a4,1203c <__udivdi3+0x1f0>
	      n1 -= d0;
   11f94:	410787b3          	sub	a5,a5,a6
	      q1 = 1;
   11f98:	00100593          	li	a1,1
	  udiv_qrnnd (q0, n0, n1, n0, d0);
   11f9c:	01085893          	srli	a7,a6,0x10
   11fa0:	01081613          	slli	a2,a6,0x10
   11fa4:	01065613          	srli	a2,a2,0x10
   11fa8:	01035713          	srli	a4,t1,0x10
   11fac:	0317f6b3          	remu	a3,a5,a7
   11fb0:	0317d7b3          	divu	a5,a5,a7
   11fb4:	01069693          	slli	a3,a3,0x10
   11fb8:	00e6e733          	or	a4,a3,a4
   11fbc:	02f60e33          	mul	t3,a2,a5
   11fc0:	00078513          	mv	a0,a5
   11fc4:	01c77e63          	bgeu	a4,t3,11fe0 <__udivdi3+0x194>
   11fc8:	01070733          	add	a4,a4,a6
   11fcc:	fff78513          	addi	a0,a5,-1
   11fd0:	01076863          	bltu	a4,a6,11fe0 <__udivdi3+0x194>
   11fd4:	01c77663          	bgeu	a4,t3,11fe0 <__udivdi3+0x194>
   11fd8:	ffe78513          	addi	a0,a5,-2
   11fdc:	01070733          	add	a4,a4,a6
   11fe0:	41c70733          	sub	a4,a4,t3
   11fe4:	031777b3          	remu	a5,a4,a7
   11fe8:	01031313          	slli	t1,t1,0x10
   11fec:	01035313          	srli	t1,t1,0x10
   11ff0:	03175733          	divu	a4,a4,a7
   11ff4:	01079793          	slli	a5,a5,0x10
   11ff8:	0067e333          	or	t1,a5,t1
   11ffc:	02e606b3          	mul	a3,a2,a4
   12000:	00070613          	mv	a2,a4
   12004:	00d37c63          	bgeu	t1,a3,1201c <__udivdi3+0x1d0>
   12008:	00680333          	add	t1,a6,t1
   1200c:	fff70613          	addi	a2,a4,-1 # ffff <main-0x75>
   12010:	01036663          	bltu	t1,a6,1201c <__udivdi3+0x1d0>
   12014:	00d37463          	bgeu	t1,a3,1201c <__udivdi3+0x1d0>
   12018:	ffe70613          	addi	a2,a4,-2
   1201c:	01051513          	slli	a0,a0,0x10
   12020:	00c56533          	or	a0,a0,a2
  return __udivmoddi4 (n, d, (UDWtype *) 0);
}
   12024:	00008067          	ret
	  count_leading_zeros (bm, d0);
   12028:	01000737          	lui	a4,0x1000
   1202c:	01000513          	li	a0,16
   12030:	f4e864e3          	bltu	a6,a4,11f78 <__udivdi3+0x12c>
   12034:	01800513          	li	a0,24
   12038:	f41ff06f          	j	11f78 <__udivdi3+0x12c>
	      d0 = d0 << bm;
   1203c:	00d81833          	sll	a6,a6,a3
	      n2 = n1 >> b;
   12040:	00e7d533          	srl	a0,a5,a4
	      n0 = n0 << bm;
   12044:	00d89333          	sll	t1,a7,a3
	      n1 = (n1 << bm) | (n0 >> b);
   12048:	00d797b3          	sll	a5,a5,a3
   1204c:	00e8d733          	srl	a4,a7,a4
	      udiv_qrnnd (q1, n1, n2, n1, d0);
   12050:	01085893          	srli	a7,a6,0x10
	      n1 = (n1 << bm) | (n0 >> b);
   12054:	00f76633          	or	a2,a4,a5
	      udiv_qrnnd (q1, n1, n2, n1, d0);
   12058:	03157733          	remu	a4,a0,a7
   1205c:	01081793          	slli	a5,a6,0x10
   12060:	0107d793          	srli	a5,a5,0x10
   12064:	01065593          	srli	a1,a2,0x10
   12068:	03155533          	divu	a0,a0,a7
   1206c:	01071713          	slli	a4,a4,0x10
   12070:	00b76733          	or	a4,a4,a1
   12074:	02a786b3          	mul	a3,a5,a0
   12078:	00050593          	mv	a1,a0
   1207c:	00d77e63          	bgeu	a4,a3,12098 <__udivdi3+0x24c>
   12080:	01070733          	add	a4,a4,a6
   12084:	fff50593          	addi	a1,a0,-1 # ffffff <__global_pointer$+0xfea2b7>
   12088:	01076863          	bltu	a4,a6,12098 <__udivdi3+0x24c>
   1208c:	00d77663          	bgeu	a4,a3,12098 <__udivdi3+0x24c>
   12090:	ffe50593          	addi	a1,a0,-2
   12094:	01070733          	add	a4,a4,a6
   12098:	40d706b3          	sub	a3,a4,a3
   1209c:	0316f733          	remu	a4,a3,a7
   120a0:	01061613          	slli	a2,a2,0x10
   120a4:	01065613          	srli	a2,a2,0x10
   120a8:	0316d6b3          	divu	a3,a3,a7
   120ac:	01071713          	slli	a4,a4,0x10
   120b0:	02d78533          	mul	a0,a5,a3
   120b4:	00c767b3          	or	a5,a4,a2
   120b8:	00068713          	mv	a4,a3
   120bc:	00a7fe63          	bgeu	a5,a0,120d8 <__udivdi3+0x28c>
   120c0:	010787b3          	add	a5,a5,a6
   120c4:	fff68713          	addi	a4,a3,-1
   120c8:	0107e863          	bltu	a5,a6,120d8 <__udivdi3+0x28c>
   120cc:	00a7f663          	bgeu	a5,a0,120d8 <__udivdi3+0x28c>
   120d0:	ffe68713          	addi	a4,a3,-2
   120d4:	010787b3          	add	a5,a5,a6
   120d8:	01059593          	slli	a1,a1,0x10
   120dc:	40a787b3          	sub	a5,a5,a0
   120e0:	00e5e5b3          	or	a1,a1,a4
   120e4:	eb9ff06f          	j	11f9c <__udivdi3+0x150>
      if (d1 > n1)
   120e8:	18d5e663          	bltu	a1,a3,12274 <__udivdi3+0x428>
	  count_leading_zeros (bm, d1);
   120ec:	00010737          	lui	a4,0x10
   120f0:	04e6f463          	bgeu	a3,a4,12138 <__udivdi3+0x2ec>
   120f4:	0ff00713          	li	a4,255
   120f8:	00d735b3          	sltu	a1,a4,a3
   120fc:	00359593          	slli	a1,a1,0x3
   12100:	00014737          	lui	a4,0x14
   12104:	00b6d533          	srl	a0,a3,a1
   12108:	0f870713          	addi	a4,a4,248 # 140f8 <__clz_tab>
   1210c:	00a70733          	add	a4,a4,a0
   12110:	00074703          	lbu	a4,0(a4)
   12114:	02000513          	li	a0,32
   12118:	00b70733          	add	a4,a4,a1
   1211c:	40e505b3          	sub	a1,a0,a4
	  if (bm == 0)
   12120:	02e51663          	bne	a0,a4,1214c <__udivdi3+0x300>
		  q0 = 1;
   12124:	00100513          	li	a0,1
	      if (n1 > d1 || n0 >= d0)
   12128:	eef6eee3          	bltu	a3,a5,12024 <__udivdi3+0x1d8>
   1212c:	00c8b533          	sltu	a0,a7,a2
   12130:	00154513          	xori	a0,a0,1
   12134:	ef1ff06f          	j	12024 <__udivdi3+0x1d8>
	  count_leading_zeros (bm, d1);
   12138:	01000737          	lui	a4,0x1000
   1213c:	01000593          	li	a1,16
   12140:	fce6e0e3          	bltu	a3,a4,12100 <__udivdi3+0x2b4>
   12144:	01800593          	li	a1,24
   12148:	fb9ff06f          	j	12100 <__udivdi3+0x2b4>
	      d1 = (d1 << bm) | (d0 >> b);
   1214c:	00e65833          	srl	a6,a2,a4
   12150:	00b696b3          	sll	a3,a3,a1
   12154:	00d86833          	or	a6,a6,a3
	      n2 = n1 >> b;
   12158:	00e7de33          	srl	t3,a5,a4
	      udiv_qrnnd (q0, n1, n2, n1, d1);
   1215c:	01085e93          	srli	t4,a6,0x10
   12160:	03de76b3          	remu	a3,t3,t4
	      n1 = (n1 << bm) | (n0 >> b);
   12164:	00b797b3          	sll	a5,a5,a1
   12168:	00e8d733          	srl	a4,a7,a4
	      d0 = d0 << bm;
   1216c:	00b61333          	sll	t1,a2,a1
	      n1 = (n1 << bm) | (n0 >> b);
   12170:	00f76633          	or	a2,a4,a5
	      udiv_qrnnd (q0, n1, n2, n1, d1);
   12174:	01081793          	slli	a5,a6,0x10
   12178:	0107d793          	srli	a5,a5,0x10
   1217c:	01065713          	srli	a4,a2,0x10
   12180:	03de5e33          	divu	t3,t3,t4
   12184:	01069693          	slli	a3,a3,0x10
   12188:	00e6e733          	or	a4,a3,a4
   1218c:	03c78f33          	mul	t5,a5,t3
   12190:	000e0513          	mv	a0,t3
   12194:	01e77e63          	bgeu	a4,t5,121b0 <__udivdi3+0x364>
   12198:	01070733          	add	a4,a4,a6
   1219c:	fffe0513          	addi	a0,t3,-1
   121a0:	01076863          	bltu	a4,a6,121b0 <__udivdi3+0x364>
   121a4:	01e77663          	bgeu	a4,t5,121b0 <__udivdi3+0x364>
   121a8:	ffee0513          	addi	a0,t3,-2
   121ac:	01070733          	add	a4,a4,a6
   121b0:	41e70733          	sub	a4,a4,t5
   121b4:	03d776b3          	remu	a3,a4,t4
   121b8:	03d75733          	divu	a4,a4,t4
   121bc:	01069693          	slli	a3,a3,0x10
   121c0:	02e78e33          	mul	t3,a5,a4
   121c4:	01061793          	slli	a5,a2,0x10
   121c8:	0107d793          	srli	a5,a5,0x10
   121cc:	00f6e7b3          	or	a5,a3,a5
   121d0:	00070613          	mv	a2,a4
   121d4:	01c7fe63          	bgeu	a5,t3,121f0 <__udivdi3+0x3a4>
   121d8:	010787b3          	add	a5,a5,a6
   121dc:	fff70613          	addi	a2,a4,-1 # ffffff <__global_pointer$+0xfea2b7>
   121e0:	0107e863          	bltu	a5,a6,121f0 <__udivdi3+0x3a4>
   121e4:	01c7f663          	bgeu	a5,t3,121f0 <__udivdi3+0x3a4>
   121e8:	ffe70613          	addi	a2,a4,-2
   121ec:	010787b3          	add	a5,a5,a6
   121f0:	01051513          	slli	a0,a0,0x10
	      umul_ppmm (m1, m0, q0, d0);
   121f4:	00010eb7          	lui	t4,0x10
	      udiv_qrnnd (q0, n1, n2, n1, d1);
   121f8:	00c56533          	or	a0,a0,a2
	      umul_ppmm (m1, m0, q0, d0);
   121fc:	fffe8693          	addi	a3,t4,-1 # ffff <main-0x75>
   12200:	00d57833          	and	a6,a0,a3
   12204:	01055613          	srli	a2,a0,0x10
   12208:	00d376b3          	and	a3,t1,a3
   1220c:	01035313          	srli	t1,t1,0x10
	      udiv_qrnnd (q0, n1, n2, n1, d1);
   12210:	41c787b3          	sub	a5,a5,t3
	      umul_ppmm (m1, m0, q0, d0);
   12214:	02d80e33          	mul	t3,a6,a3
   12218:	02d606b3          	mul	a3,a2,a3
   1221c:	010e5713          	srli	a4,t3,0x10
   12220:	02680833          	mul	a6,a6,t1
   12224:	00d80833          	add	a6,a6,a3
   12228:	01070733          	add	a4,a4,a6
   1222c:	02660633          	mul	a2,a2,t1
   12230:	00d77463          	bgeu	a4,a3,12238 <__udivdi3+0x3ec>
   12234:	01d60633          	add	a2,a2,t4
   12238:	01075693          	srli	a3,a4,0x10
   1223c:	00c68633          	add	a2,a3,a2
	      if (m1 > n1 || (m1 == n1 && m0 > n0))
   12240:	02c7e663          	bltu	a5,a2,1226c <__udivdi3+0x420>
   12244:	cec79ce3          	bne	a5,a2,11f3c <__udivdi3+0xf0>
	      umul_ppmm (m1, m0, q0, d0);
   12248:	000107b7          	lui	a5,0x10
   1224c:	fff78793          	addi	a5,a5,-1 # ffff <main-0x75>
   12250:	00f77733          	and	a4,a4,a5
   12254:	01071713          	slli	a4,a4,0x10
   12258:	00fe7e33          	and	t3,t3,a5
	      n0 = n0 << bm;
   1225c:	00b898b3          	sll	a7,a7,a1
	      umul_ppmm (m1, m0, q0, d0);
   12260:	01c70733          	add	a4,a4,t3
	      q1 = 0;
   12264:	00000593          	li	a1,0
	      if (m1 > n1 || (m1 == n1 && m0 > n0))
   12268:	dae8fee3          	bgeu	a7,a4,12024 <__udivdi3+0x1d8>
		  q0--;
   1226c:	fff50513          	addi	a0,a0,-1
		  sub_ddmmss (m1, m0, m1, m0, d1, d0);
   12270:	ccdff06f          	j	11f3c <__udivdi3+0xf0>
	  q1 = 0;
   12274:	00000593          	li	a1,0
	  q0 = 0;
   12278:	00000513          	li	a0,0
   1227c:	da9ff06f          	j	12024 <__udivdi3+0x1d8>

00012280 <__errno>:
   12280:	c6c1a503          	lw	a0,-916(gp) # 159b4 <_impure_ptr>
   12284:	00008067          	ret

00012288 <exit>:
   12288:	ff010113          	addi	sp,sp,-16
   1228c:	00000593          	li	a1,0
   12290:	00812423          	sw	s0,8(sp)
   12294:	00112623          	sw	ra,12(sp)
   12298:	00050413          	mv	s0,a0
   1229c:	2bc000ef          	jal	ra,12558 <__call_exitprocs>
   122a0:	c681a503          	lw	a0,-920(gp) # 159b0 <_global_impure_ptr>
   122a4:	03c52783          	lw	a5,60(a0)
   122a8:	00078463          	beqz	a5,122b0 <exit+0x28>
   122ac:	000780e7          	jalr	a5
   122b0:	00040513          	mv	a0,s0
   122b4:	4cc000ef          	jal	ra,12780 <_exit>

000122b8 <__libc_init_array>:
   122b8:	ff010113          	addi	sp,sp,-16
   122bc:	00812423          	sw	s0,8(sp)
   122c0:	01212023          	sw	s2,0(sp)
   122c4:	00015437          	lui	s0,0x15
   122c8:	00015937          	lui	s2,0x15
   122cc:	53840793          	addi	a5,s0,1336 # 15538 <__init_array_start>
   122d0:	53890913          	addi	s2,s2,1336 # 15538 <__init_array_start>
   122d4:	40f90933          	sub	s2,s2,a5
   122d8:	00112623          	sw	ra,12(sp)
   122dc:	00912223          	sw	s1,4(sp)
   122e0:	40295913          	srai	s2,s2,0x2
   122e4:	02090063          	beqz	s2,12304 <__libc_init_array+0x4c>
   122e8:	53840413          	addi	s0,s0,1336
   122ec:	00000493          	li	s1,0
   122f0:	00042783          	lw	a5,0(s0)
   122f4:	00148493          	addi	s1,s1,1
   122f8:	00440413          	addi	s0,s0,4
   122fc:	000780e7          	jalr	a5
   12300:	fe9918e3          	bne	s2,s1,122f0 <__libc_init_array+0x38>
   12304:	00015437          	lui	s0,0x15
   12308:	00015937          	lui	s2,0x15
   1230c:	53840793          	addi	a5,s0,1336 # 15538 <__init_array_start>
   12310:	54490913          	addi	s2,s2,1348 # 15544 <__do_global_dtors_aux_fini_array_entry>
   12314:	40f90933          	sub	s2,s2,a5
   12318:	40295913          	srai	s2,s2,0x2
   1231c:	02090063          	beqz	s2,1233c <__libc_init_array+0x84>
   12320:	53840413          	addi	s0,s0,1336
   12324:	00000493          	li	s1,0
   12328:	00042783          	lw	a5,0(s0)
   1232c:	00148493          	addi	s1,s1,1
   12330:	00440413          	addi	s0,s0,4
   12334:	000780e7          	jalr	a5
   12338:	fe9918e3          	bne	s2,s1,12328 <__libc_init_array+0x70>
   1233c:	00c12083          	lw	ra,12(sp)
   12340:	00812403          	lw	s0,8(sp)
   12344:	00412483          	lw	s1,4(sp)
   12348:	00012903          	lw	s2,0(sp)
   1234c:	01010113          	addi	sp,sp,16
   12350:	00008067          	ret

00012354 <memcpy>:
   12354:	00a5c7b3          	xor	a5,a1,a0
   12358:	0037f793          	andi	a5,a5,3
   1235c:	00c508b3          	add	a7,a0,a2
   12360:	06079663          	bnez	a5,123cc <memcpy+0x78>
   12364:	00300793          	li	a5,3
   12368:	06c7f263          	bgeu	a5,a2,123cc <memcpy+0x78>
   1236c:	00357793          	andi	a5,a0,3
   12370:	00050713          	mv	a4,a0
   12374:	0c079a63          	bnez	a5,12448 <memcpy+0xf4>
   12378:	ffc8f613          	andi	a2,a7,-4
   1237c:	40e606b3          	sub	a3,a2,a4
   12380:	02000793          	li	a5,32
   12384:	02000293          	li	t0,32
   12388:	06d7c263          	blt	a5,a3,123ec <memcpy+0x98>
   1238c:	00058693          	mv	a3,a1
   12390:	00070793          	mv	a5,a4
   12394:	02c77863          	bgeu	a4,a2,123c4 <memcpy+0x70>
   12398:	0006a803          	lw	a6,0(a3)
   1239c:	00478793          	addi	a5,a5,4
   123a0:	00468693          	addi	a3,a3,4
   123a4:	ff07ae23          	sw	a6,-4(a5)
   123a8:	fec7e8e3          	bltu	a5,a2,12398 <memcpy+0x44>
   123ac:	fff60793          	addi	a5,a2,-1
   123b0:	40e787b3          	sub	a5,a5,a4
   123b4:	ffc7f793          	andi	a5,a5,-4
   123b8:	00478793          	addi	a5,a5,4
   123bc:	00f70733          	add	a4,a4,a5
   123c0:	00f585b3          	add	a1,a1,a5
   123c4:	01176863          	bltu	a4,a7,123d4 <memcpy+0x80>
   123c8:	00008067          	ret
   123cc:	00050713          	mv	a4,a0
   123d0:	ff157ce3          	bgeu	a0,a7,123c8 <memcpy+0x74>
   123d4:	0005c783          	lbu	a5,0(a1)
   123d8:	00170713          	addi	a4,a4,1
   123dc:	00158593          	addi	a1,a1,1
   123e0:	fef70fa3          	sb	a5,-1(a4)
   123e4:	ff1768e3          	bltu	a4,a7,123d4 <memcpy+0x80>
   123e8:	00008067          	ret
   123ec:	0045a683          	lw	a3,4(a1)
   123f0:	01c5a783          	lw	a5,28(a1)
   123f4:	0005af83          	lw	t6,0(a1)
   123f8:	0085af03          	lw	t5,8(a1)
   123fc:	00c5ae83          	lw	t4,12(a1)
   12400:	0105ae03          	lw	t3,16(a1)
   12404:	0145a303          	lw	t1,20(a1)
   12408:	0185a803          	lw	a6,24(a1)
   1240c:	00d72223          	sw	a3,4(a4)
   12410:	0205a683          	lw	a3,32(a1)
   12414:	01f72023          	sw	t6,0(a4)
   12418:	01e72423          	sw	t5,8(a4)
   1241c:	01d72623          	sw	t4,12(a4)
   12420:	01c72823          	sw	t3,16(a4)
   12424:	00672a23          	sw	t1,20(a4)
   12428:	01072c23          	sw	a6,24(a4)
   1242c:	00f72e23          	sw	a5,28(a4)
   12430:	02470713          	addi	a4,a4,36
   12434:	40e607b3          	sub	a5,a2,a4
   12438:	fed72e23          	sw	a3,-4(a4)
   1243c:	02458593          	addi	a1,a1,36
   12440:	faf2c6e3          	blt	t0,a5,123ec <memcpy+0x98>
   12444:	f49ff06f          	j	1238c <memcpy+0x38>
   12448:	0005c683          	lbu	a3,0(a1)
   1244c:	00170713          	addi	a4,a4,1
   12450:	00377793          	andi	a5,a4,3
   12454:	fed70fa3          	sb	a3,-1(a4)
   12458:	00158593          	addi	a1,a1,1
   1245c:	f0078ee3          	beqz	a5,12378 <memcpy+0x24>
   12460:	0005c683          	lbu	a3,0(a1)
   12464:	00170713          	addi	a4,a4,1
   12468:	00377793          	andi	a5,a4,3
   1246c:	fed70fa3          	sb	a3,-1(a4)
   12470:	00158593          	addi	a1,a1,1
   12474:	fc079ae3          	bnez	a5,12448 <memcpy+0xf4>
   12478:	f01ff06f          	j	12378 <memcpy+0x24>

0001247c <memset>:
   1247c:	00f00313          	li	t1,15
   12480:	00050713          	mv	a4,a0
   12484:	02c37e63          	bgeu	t1,a2,124c0 <memset+0x44>
   12488:	00f77793          	andi	a5,a4,15
   1248c:	0a079063          	bnez	a5,1252c <memset+0xb0>
   12490:	08059263          	bnez	a1,12514 <memset+0x98>
   12494:	ff067693          	andi	a3,a2,-16
   12498:	00f67613          	andi	a2,a2,15
   1249c:	00e686b3          	add	a3,a3,a4
   124a0:	00b72023          	sw	a1,0(a4)
   124a4:	00b72223          	sw	a1,4(a4)
   124a8:	00b72423          	sw	a1,8(a4)
   124ac:	00b72623          	sw	a1,12(a4)
   124b0:	01070713          	addi	a4,a4,16
   124b4:	fed766e3          	bltu	a4,a3,124a0 <memset+0x24>
   124b8:	00061463          	bnez	a2,124c0 <memset+0x44>
   124bc:	00008067          	ret
   124c0:	40c306b3          	sub	a3,t1,a2
   124c4:	00269693          	slli	a3,a3,0x2
   124c8:	00000297          	auipc	t0,0x0
   124cc:	005686b3          	add	a3,a3,t0
   124d0:	00c68067          	jr	12(a3)
   124d4:	00b70723          	sb	a1,14(a4)
   124d8:	00b706a3          	sb	a1,13(a4)
   124dc:	00b70623          	sb	a1,12(a4)
   124e0:	00b705a3          	sb	a1,11(a4)
   124e4:	00b70523          	sb	a1,10(a4)
   124e8:	00b704a3          	sb	a1,9(a4)
   124ec:	00b70423          	sb	a1,8(a4)
   124f0:	00b703a3          	sb	a1,7(a4)
   124f4:	00b70323          	sb	a1,6(a4)
   124f8:	00b702a3          	sb	a1,5(a4)
   124fc:	00b70223          	sb	a1,4(a4)
   12500:	00b701a3          	sb	a1,3(a4)
   12504:	00b70123          	sb	a1,2(a4)
   12508:	00b700a3          	sb	a1,1(a4)
   1250c:	00b70023          	sb	a1,0(a4)
   12510:	00008067          	ret
   12514:	0ff5f593          	andi	a1,a1,255
   12518:	00859693          	slli	a3,a1,0x8
   1251c:	00d5e5b3          	or	a1,a1,a3
   12520:	01059693          	slli	a3,a1,0x10
   12524:	00d5e5b3          	or	a1,a1,a3
   12528:	f6dff06f          	j	12494 <memset+0x18>
   1252c:	00279693          	slli	a3,a5,0x2
   12530:	00000297          	auipc	t0,0x0
   12534:	005686b3          	add	a3,a3,t0
   12538:	00008293          	mv	t0,ra
   1253c:	fa0680e7          	jalr	-96(a3)
   12540:	00028093          	mv	ra,t0
   12544:	ff078793          	addi	a5,a5,-16
   12548:	40f70733          	sub	a4,a4,a5
   1254c:	00f60633          	add	a2,a2,a5
   12550:	f6c378e3          	bgeu	t1,a2,124c0 <memset+0x44>
   12554:	f3dff06f          	j	12490 <memset+0x14>

00012558 <__call_exitprocs>:
   12558:	fd010113          	addi	sp,sp,-48
   1255c:	01412c23          	sw	s4,24(sp)
   12560:	c681aa03          	lw	s4,-920(gp) # 159b0 <_global_impure_ptr>
   12564:	03212023          	sw	s2,32(sp)
   12568:	02112623          	sw	ra,44(sp)
   1256c:	148a2903          	lw	s2,328(s4)
   12570:	02812423          	sw	s0,40(sp)
   12574:	02912223          	sw	s1,36(sp)
   12578:	01312e23          	sw	s3,28(sp)
   1257c:	01512a23          	sw	s5,20(sp)
   12580:	01612823          	sw	s6,16(sp)
   12584:	01712623          	sw	s7,12(sp)
   12588:	01812423          	sw	s8,8(sp)
   1258c:	04090063          	beqz	s2,125cc <__call_exitprocs+0x74>
   12590:	00050b13          	mv	s6,a0
   12594:	00058b93          	mv	s7,a1
   12598:	00100a93          	li	s5,1
   1259c:	fff00993          	li	s3,-1
   125a0:	00492483          	lw	s1,4(s2)
   125a4:	fff48413          	addi	s0,s1,-1
   125a8:	02044263          	bltz	s0,125cc <__call_exitprocs+0x74>
   125ac:	00249493          	slli	s1,s1,0x2
   125b0:	009904b3          	add	s1,s2,s1
   125b4:	040b8463          	beqz	s7,125fc <__call_exitprocs+0xa4>
   125b8:	1044a783          	lw	a5,260(s1)
   125bc:	05778063          	beq	a5,s7,125fc <__call_exitprocs+0xa4>
   125c0:	fff40413          	addi	s0,s0,-1
   125c4:	ffc48493          	addi	s1,s1,-4
   125c8:	ff3416e3          	bne	s0,s3,125b4 <__call_exitprocs+0x5c>
   125cc:	02c12083          	lw	ra,44(sp)
   125d0:	02812403          	lw	s0,40(sp)
   125d4:	02412483          	lw	s1,36(sp)
   125d8:	02012903          	lw	s2,32(sp)
   125dc:	01c12983          	lw	s3,28(sp)
   125e0:	01812a03          	lw	s4,24(sp)
   125e4:	01412a83          	lw	s5,20(sp)
   125e8:	01012b03          	lw	s6,16(sp)
   125ec:	00c12b83          	lw	s7,12(sp)
   125f0:	00812c03          	lw	s8,8(sp)
   125f4:	03010113          	addi	sp,sp,48
   125f8:	00008067          	ret
   125fc:	00492783          	lw	a5,4(s2)
   12600:	0044a683          	lw	a3,4(s1)
   12604:	fff78793          	addi	a5,a5,-1
   12608:	04878e63          	beq	a5,s0,12664 <__call_exitprocs+0x10c>
   1260c:	0004a223          	sw	zero,4(s1)
   12610:	fa0688e3          	beqz	a3,125c0 <__call_exitprocs+0x68>
   12614:	18892783          	lw	a5,392(s2)
   12618:	008a9733          	sll	a4,s5,s0
   1261c:	00492c03          	lw	s8,4(s2)
   12620:	00f777b3          	and	a5,a4,a5
   12624:	02079263          	bnez	a5,12648 <__call_exitprocs+0xf0>
   12628:	000680e7          	jalr	a3
   1262c:	00492703          	lw	a4,4(s2)
   12630:	148a2783          	lw	a5,328(s4)
   12634:	01871463          	bne	a4,s8,1263c <__call_exitprocs+0xe4>
   12638:	f92784e3          	beq	a5,s2,125c0 <__call_exitprocs+0x68>
   1263c:	f80788e3          	beqz	a5,125cc <__call_exitprocs+0x74>
   12640:	00078913          	mv	s2,a5
   12644:	f5dff06f          	j	125a0 <__call_exitprocs+0x48>
   12648:	18c92783          	lw	a5,396(s2)
   1264c:	0844a583          	lw	a1,132(s1)
   12650:	00f77733          	and	a4,a4,a5
   12654:	00071c63          	bnez	a4,1266c <__call_exitprocs+0x114>
   12658:	000b0513          	mv	a0,s6
   1265c:	000680e7          	jalr	a3
   12660:	fcdff06f          	j	1262c <__call_exitprocs+0xd4>
   12664:	00892223          	sw	s0,4(s2)
   12668:	fa9ff06f          	j	12610 <__call_exitprocs+0xb8>
   1266c:	00058513          	mv	a0,a1
   12670:	000680e7          	jalr	a3
   12674:	fb9ff06f          	j	1262c <__call_exitprocs+0xd4>

00012678 <__libc_fini_array>:
   12678:	ff010113          	addi	sp,sp,-16
   1267c:	00812423          	sw	s0,8(sp)
   12680:	000157b7          	lui	a5,0x15
   12684:	00015437          	lui	s0,0x15
   12688:	54440413          	addi	s0,s0,1348 # 15544 <__do_global_dtors_aux_fini_array_entry>
   1268c:	54878793          	addi	a5,a5,1352 # 15548 <branchaddress>
   12690:	408787b3          	sub	a5,a5,s0
   12694:	00912223          	sw	s1,4(sp)
   12698:	00112623          	sw	ra,12(sp)
   1269c:	4027d493          	srai	s1,a5,0x2
   126a0:	02048063          	beqz	s1,126c0 <__libc_fini_array+0x48>
   126a4:	ffc78793          	addi	a5,a5,-4
   126a8:	00878433          	add	s0,a5,s0
   126ac:	00042783          	lw	a5,0(s0)
   126b0:	fff48493          	addi	s1,s1,-1
   126b4:	ffc40413          	addi	s0,s0,-4
   126b8:	000780e7          	jalr	a5
   126bc:	fe0498e3          	bnez	s1,126ac <__libc_fini_array+0x34>
   126c0:	00c12083          	lw	ra,12(sp)
   126c4:	00812403          	lw	s0,8(sp)
   126c8:	00412483          	lw	s1,4(sp)
   126cc:	01010113          	addi	sp,sp,16
   126d0:	00008067          	ret

000126d4 <atexit>:
   126d4:	00050593          	mv	a1,a0
   126d8:	00000693          	li	a3,0
   126dc:	00000613          	li	a2,0
   126e0:	00000513          	li	a0,0
   126e4:	0040006f          	j	126e8 <__register_exitproc>

000126e8 <__register_exitproc>:
   126e8:	c681a703          	lw	a4,-920(gp) # 159b0 <_global_impure_ptr>
   126ec:	14872783          	lw	a5,328(a4)
   126f0:	04078c63          	beqz	a5,12748 <__register_exitproc+0x60>
   126f4:	0047a703          	lw	a4,4(a5)
   126f8:	01f00813          	li	a6,31
   126fc:	06e84e63          	blt	a6,a4,12778 <__register_exitproc+0x90>
   12700:	00271813          	slli	a6,a4,0x2
   12704:	02050663          	beqz	a0,12730 <__register_exitproc+0x48>
   12708:	01078333          	add	t1,a5,a6
   1270c:	08c32423          	sw	a2,136(t1)
   12710:	1887a883          	lw	a7,392(a5)
   12714:	00100613          	li	a2,1
   12718:	00e61633          	sll	a2,a2,a4
   1271c:	00c8e8b3          	or	a7,a7,a2
   12720:	1917a423          	sw	a7,392(a5)
   12724:	10d32423          	sw	a3,264(t1)
   12728:	00200693          	li	a3,2
   1272c:	02d50463          	beq	a0,a3,12754 <__register_exitproc+0x6c>
   12730:	00170713          	addi	a4,a4,1
   12734:	00e7a223          	sw	a4,4(a5)
   12738:	010787b3          	add	a5,a5,a6
   1273c:	00b7a423          	sw	a1,8(a5)
   12740:	00000513          	li	a0,0
   12744:	00008067          	ret
   12748:	14c70793          	addi	a5,a4,332
   1274c:	14f72423          	sw	a5,328(a4)
   12750:	fa5ff06f          	j	126f4 <__register_exitproc+0xc>
   12754:	18c7a683          	lw	a3,396(a5)
   12758:	00170713          	addi	a4,a4,1
   1275c:	00e7a223          	sw	a4,4(a5)
   12760:	00c6e633          	or	a2,a3,a2
   12764:	18c7a623          	sw	a2,396(a5)
   12768:	010787b3          	add	a5,a5,a6
   1276c:	00b7a423          	sw	a1,8(a5)
   12770:	00000513          	li	a0,0
   12774:	00008067          	ret
   12778:	fff00513          	li	a0,-1
   1277c:	00008067          	ret

00012780 <_exit>:
   12780:	05d00893          	li	a7,93
   12784:	00000073          	ecall
   12788:	00054463          	bltz	a0,12790 <_exit+0x10>
   1278c:	0000006f          	j	1278c <_exit+0xc>
   12790:	ff010113          	addi	sp,sp,-16
   12794:	00812423          	sw	s0,8(sp)
   12798:	00050413          	mv	s0,a0
   1279c:	00112623          	sw	ra,12(sp)
   127a0:	40800433          	neg	s0,s0
   127a4:	addff0ef          	jal	ra,12280 <__errno>
   127a8:	00852023          	sw	s0,0(a0)
   127ac:	0000006f          	j	127ac <_exit+0x2c>

Disassembly of section .rodata:

000127b0 <__clz_tab-0x1948>:
   127b0:	694d                	lui	s2,0x13
   127b2:	696e                	flw	fs2,216(sp)
   127b4:	6554                	flw	fa3,12(a0)
   127b6:	6d72                	flw	fs10,28(sp)
   127b8:	2820                	fld	fs0,80(s0)
   127ba:	30322963          	0x30322963
   127be:	3132                	fld	ft2,296(sp)
   127c0:	4520                	lw	s0,72(a0)
   127c2:	676e                	flw	fa4,216(sp)
   127c4:	6e69                	lui	t3,0x1a
   127c6:	4320                	lw	s0,64(a4)
   127c8:	6c69                	lui	s8,0x1a
   127ca:	7361                	lui	t1,0xffff8
   127cc:	6e75                	lui	t3,0x1d
   127ce:	0a0d                	addi	s4,s4,3
   127d0:	5520                	lw	s0,104(a0)
   127d2:	27206573          	csrrsi	a0,0x272,0
   127d6:	6568                	flw	fa0,76(a0)
   127d8:	706c                	flw	fa1,100(s0)
   127da:	6f662027          	fsw	fs6,1760(a2)
   127de:	2072                	fld	ft0,280(sp)
   127e0:	7361                	lui	t1,0xffff8
   127e2:	74736973          	csrrsi	s2,0x747,6
   127e6:	6e61                	lui	t3,0x18
   127e8:	0a0d6563          	bltu	s10,zero,12892 <_exit+0x112>
   127ec:	0000                	unimp
   127ee:	0000                	unimp
   127f0:	694d                	lui	s2,0x13
   127f2:	696e                	flw	fs2,216(sp)
   127f4:	6554                	flw	fa3,12(a0)
   127f6:	6d72                	flw	fs10,28(sp)
   127f8:	2820                	fld	fs0,80(s0)
   127fa:	30322963          	0x30322963
   127fe:	3132                	fld	ft2,296(sp)
   12800:	4520                	lw	s0,72(a0)
   12802:	676e                	flw	fa4,216(sp)
   12804:	6e69                	lui	t3,0x1a
   12806:	4320                	lw	s0,64(a4)
   12808:	6c69                	lui	s8,0x1a
   1280a:	7361                	lui	t1,0xffff8
   1280c:	6e75                	lui	t3,0x1d
   1280e:	0a0d                	addi	s4,s4,3
   12810:	0000                	unimp
   12812:	0000                	unimp
   12814:	0020                	addi	s0,sp,8
   12816:	0000                	unimp
   12818:	000a                	c.slli	zero,0x2
   1281a:	0000                	unimp
   1281c:	0a0d                	addi	s4,s4,3
   1281e:	694d                	lui	s2,0x13
   12820:	696e                	flw	fs2,216(sp)
   12822:	6554                	flw	fa3,12(a0)
   12824:	6d72                	flw	fs10,28(sp)
   12826:	7620                	flw	fs0,104(a2)
   12828:	7265                	lui	tp,0xffff9
   1282a:	6e6f6973          	csrrsi	s2,0x6e6,30
   1282e:	3020                	fld	fs0,96(s0)
   12830:	312e                	fld	ft2,232(sp)
   12832:	0a0d                	addi	s4,s4,3
   12834:	6328                	flw	fa0,64(a4)
   12836:	3229                	jal	12140 <__udivdi3+0x2f4>
   12838:	3230                	fld	fa2,96(a2)
   1283a:	2031                	jal	12846 <_exit+0xc6>
   1283c:	6e45                	lui	t3,0x11
   1283e:	206e6967          	0x206e6967
   12842:	616c6943          	fmadd.s	fs2,fs8,fs6,fa2,unknown
   12846:	0d6e7573          	csrrci	a0,0xd6,28
   1284a:	630a                	flw	ft6,128(sp)
   1284c:	736c                	flw	fa1,100(a4)
   1284e:	203a                	fld	ft0,392(sp)
   12850:	61656c63          	bltu	a0,s6,12e68 <_exit+0x6e8>
   12854:	2072                	fld	ft0,280(sp)
   12856:	65726373          	csrrsi	t1,0x657,4
   1285a:	6e65                	lui	t3,0x19
   1285c:	0a0d                	addi	s4,s4,3
   1285e:	6568                	flw	fa0,76(a0)
   12860:	706c                	flw	fa1,100(s0)
   12862:	203a                	fld	ft0,392(sp)
   12864:	6568                	flw	fa0,76(a0)
   12866:	706c                	flw	fa1,100(s0)
   12868:	7320                	flw	fs0,96(a4)
   1286a:	65657263          	bgeu	a0,s6,12eae <_exit+0x72e>
   1286e:	0d6e                	slli	s10,s10,0x1b
   12870:	740a                	flw	fs0,160(sp)
   12872:	6d69                	lui	s10,0x1a
   12874:	3a65                	jal	1222c <__udivdi3+0x3e0>
   12876:	6520                	flw	fs0,72(a0)
   12878:	616c                	flw	fa1,68(a0)
   1287a:	7370                	flw	fa2,100(a4)
   1287c:	6465                	lui	s0,0x19
   1287e:	7420                	flw	fs0,104(s0)
   12880:	6d69                	lui	s10,0x1a
   12882:	0d65                	addi	s10,s10,25
   12884:	720a                	flw	ft4,160(sp)
   12886:	6e75                	lui	t3,0x1d
   12888:	623a                	flw	ft4,140(sp)
   1288a:	6172                	flw	ft2,28(sp)
   1288c:	636e                	flw	ft6,216(sp)
   1288e:	2068                	fld	fa0,192(s0)
   12890:	6f74                	flw	fa3,92(a4)
   12892:	4520                	lw	s0,72(a0)
   12894:	464c                	lw	a1,12(a2)
   12896:	0a0d                	addi	s4,s4,3
   12898:	7564                	flw	fs1,108(a0)
   1289a:	706d                	c.lui	zero,0xffffb
   1289c:	643a                	flw	fs0,140(sp)
   1289e:	6d75                	lui	s10,0x1d
   128a0:	2070                	fld	fa2,192(s0)
   128a2:	6966                	flw	fs2,88(sp)
   128a4:	7372                	flw	ft6,60(sp)
   128a6:	2074                	fld	fa3,192(s0)
   128a8:	3532                	fld	fa0,296(sp)
   128aa:	2036                	fld	ft0,328(sp)
   128ac:	7962                	flw	fs2,56(sp)
   128ae:	6574                	flw	fa3,76(a0)
   128b0:	666f2073          	csrs	0x666,t5
   128b4:	4520                	lw	s0,72(a0)
   128b6:	464c                	lw	a1,12(a2)
   128b8:	0a0d                	addi	s4,s4,3
   128ba:	0000                	unimp
   128bc:	003a                	c.slli	zero,0xe
   128be:	0000                	unimp
   128c0:	005f 0000 3130      	0x31300000005f
   128c6:	3332                	fld	ft6,296(sp)
   128c8:	3534                	fld	fa3,104(a0)
   128ca:	3736                	fld	fa4,360(sp)
   128cc:	3938                	fld	fa4,112(a0)
   128ce:	4241                	li	tp,16
   128d0:	46454443          	fmadd.q	fs0,fa0,ft4,fs0,rmm
   128d4:	0000                	unimp
   128d6:	0000                	unimp
   128d8:	2020                	fld	fs0,64(s0)
   128da:	2020                	fld	fs0,64(s0)
   128dc:	2020                	fld	fs0,64(s0)
   128de:	2020                	fld	fs0,64(s0)
   128e0:	2020                	fld	fs0,64(s0)
   128e2:	2020                	fld	fs0,64(s0)
   128e4:	2020                	fld	fs0,64(s0)
   128e6:	2020                	fld	fs0,64(s0)
   128e8:	2020                	fld	fs0,64(s0)
   128ea:	0020                	addi	s0,sp,8
   128ec:	3130                	fld	fa2,96(a0)
   128ee:	3332                	fld	ft6,296(sp)
   128f0:	3534                	fld	fa3,104(a0)
   128f2:	3736                	fld	fa4,360(sp)
   128f4:	3938                	fld	fa4,112(a0)
	...
   12902:	00ff                	0xff
   12904:	0000                	unimp
   12906:	0000                	unimp
   12908:	ff00                	fsw	fs0,56(a4)
   1290a:	ff00                	fsw	fs0,56(a4)
   1290c:	0000                	unimp
   1290e:	0000                	unimp
   12910:	0000                	unimp
   12912:	00ff                	0xff
   12914:	00ff                	0xff
   12916:	0000                	unimp
   12918:	ff00                	fsw	fs0,56(a4)
   1291a:	ffff                	0xffff
   1291c:	0000                	unimp
   1291e:	0000                	unimp
   12920:	ff00                	fsw	fs0,56(a4)
   12922:	ffff                	0xffff
   12924:	00ff                	0xff
   12926:	0000                	unimp
   12928:	0000                	unimp
   1292a:	00ff                	0xff
   1292c:	0000                	unimp
   1292e:	0000                	unimp
   12930:	0000                	unimp
   12932:	00ff                	0xff
   12934:	0000                	unimp
   12936:	0000                	unimp
   12938:	0000                	unimp
   1293a:	ff00                	fsw	fs0,56(a4)
   1293c:	0000                	unimp
   1293e:	0000                	unimp
   12940:	ff00                	fsw	fs0,56(a4)
	...
   1294a:	00ff                	0xff
	...
   12974:	00ff                	0xff
   12976:	0000                	unimp
   12978:	ff00                	fsw	fs0,56(a4)
   1297a:	ffff                	0xffff
   1297c:	0000                	unimp
   1297e:	0000                	unimp
   12980:	0000                	unimp
   12982:	00ff                	0xff
   12984:	0000                	unimp
   12986:	0000                	unimp
   12988:	ff00                	fsw	fs0,56(a4)
   1298a:	ffff                	0xffff
   1298c:	0000                	unimp
   1298e:	0000                	unimp
   12990:	ffff                	0xffff
   12992:	ffff                	0xffff
   12994:	00ff                	0xff
   12996:	0000                	unimp
   12998:	0000                	unimp
   1299a:	ff00                	fsw	fs0,56(a4)
   1299c:	0000                	unimp
   1299e:	0000                	unimp
   129a0:	ffff                	0xffff
   129a2:	ffff                	0xffff
   129a4:	00ff                	0xff
   129a6:	0000                	unimp
   129a8:	0000                	unimp
   129aa:	ffff                	0xffff
   129ac:	0000                	unimp
   129ae:	0000                	unimp
   129b0:	ffff                	0xffff
   129b2:	ffff                	0xffff
   129b4:	00ff                	0xff
   129b6:	0000                	unimp
   129b8:	ff00                	fsw	fs0,56(a4)
   129ba:	ffff                	0xffff
   129bc:	0000                	unimp
   129be:	0000                	unimp
   129c0:	ff00                	fsw	fs0,56(a4)
   129c2:	ffff                	0xffff
	...
   129f0:	0000                	unimp
   129f2:	ffff                	0xffff
	...
   12a00:	0000                	unimp
   12a02:	00ff                	0xff
   12a04:	0000                	unimp
   12a06:	0000                	unimp
   12a08:	ff00                	fsw	fs0,56(a4)
   12a0a:	ff00                	fsw	fs0,56(a4)
   12a0c:	0000                	unimp
   12a0e:	0000                	unimp
   12a10:	ffff                	0xffff
   12a12:	ffff                	0xffff
   12a14:	00ff                	0xff
   12a16:	0000                	unimp
   12a18:	00ff                	0xff
   12a1a:	00ff                	0xff
   12a1c:	00ff                	0xff
   12a1e:	0000                	unimp
   12a20:	00ff                	0xff
   12a22:	00ff                	0xff
   12a24:	00ff                	0xff
   12a26:	0000                	unimp
   12a28:	ff00                	fsw	fs0,56(a4)
   12a2a:	ff00                	fsw	fs0,56(a4)
   12a2c:	0000                	unimp
   12a2e:	0000                	unimp
   12a30:	0000                	unimp
   12a32:	00ff                	0xff
   12a34:	0000                	unimp
   12a36:	0000                	unimp
   12a38:	0000                	unimp
   12a3a:	00ff                	0xff
   12a3c:	0000                	unimp
   12a3e:	0000                	unimp
   12a40:	0000                	unimp
   12a42:	00ff                	0xff
   12a44:	0000                	unimp
   12a46:	0000                	unimp
   12a48:	00ff                	0xff
   12a4a:	00ff                	0xff
   12a4c:	00ff                	0xff
   12a4e:	0000                	unimp
   12a50:	0000                	unimp
   12a52:	00ff                	0xff
	...
   12a74:	00ff                	0xff
   12a76:	0000                	unimp
   12a78:	00ff                	0xff
   12a7a:	0000                	unimp
   12a7c:	00ff                	0xff
   12a7e:	0000                	unimp
   12a80:	ff00                	fsw	fs0,56(a4)
   12a82:	00ff                	0xff
   12a84:	0000                	unimp
   12a86:	0000                	unimp
   12a88:	00ff                	0xff
   12a8a:	0000                	unimp
   12a8c:	00ff                	0xff
   12a8e:	0000                	unimp
   12a90:	0000                	unimp
   12a92:	ff00                	fsw	fs0,56(a4)
   12a94:	0000                	unimp
   12a96:	0000                	unimp
   12a98:	0000                	unimp
   12a9a:	ffff                	0xffff
   12a9c:	0000                	unimp
   12a9e:	0000                	unimp
   12aa0:	00ff                	0xff
   12aa2:	0000                	unimp
   12aa4:	0000                	unimp
   12aa6:	0000                	unimp
   12aa8:	ff00                	fsw	fs0,56(a4)
	...
   12ab2:	0000                	unimp
   12ab4:	00ff                	0xff
   12ab6:	0000                	unimp
   12ab8:	00ff                	0xff
   12aba:	0000                	unimp
   12abc:	00ff                	0xff
   12abe:	0000                	unimp
   12ac0:	00ff                	0xff
   12ac2:	0000                	unimp
   12ac4:	00ff                	0xff
	...
   12ada:	ff00                	fsw	fs0,56(a4)
	...
   12ae8:	ff00                	fsw	fs0,56(a4)
   12aea:	0000                	unimp
   12aec:	0000                	unimp
   12aee:	0000                	unimp
   12af0:	ff00                	fsw	fs0,56(a4)
   12af2:	0000                	unimp
   12af4:	00ff                	0xff
	...
   12b02:	00ff                	0xff
	...
   12b10:	ff00                	fsw	fs0,56(a4)
   12b12:	ff00                	fsw	fs0,56(a4)
   12b14:	0000                	unimp
   12b16:	0000                	unimp
   12b18:	00ff                	0xff
   12b1a:	00ff                	0xff
   12b1c:	0000                	unimp
   12b1e:	0000                	unimp
   12b20:	00ff                	0xff
   12b22:	ffff                	0xffff
   12b24:	0000                	unimp
   12b26:	0000                	unimp
   12b28:	0000                	unimp
   12b2a:	00ff                	0xff
	...
   12b38:	ff00                	fsw	fs0,56(a4)
	...
   12b42:	ff00                	fsw	fs0,56(a4)
   12b44:	0000                	unimp
   12b46:	0000                	unimp
   12b48:	ff00                	fsw	fs0,56(a4)
   12b4a:	ffff                	0xffff
   12b4c:	0000                	unimp
   12b4e:	0000                	unimp
   12b50:	0000                	unimp
   12b52:	00ff                	0xff
	...
   12b70:	0000                	unimp
   12b72:	ff00                	fsw	fs0,56(a4)
   12b74:	0000                	unimp
   12b76:	0000                	unimp
   12b78:	00ff                	0xff
   12b7a:	ff00                	fsw	fs0,56(a4)
   12b7c:	00ff                	0xff
   12b7e:	0000                	unimp
   12b80:	0000                	unimp
   12b82:	00ff                	0xff
	...
   12b8c:	00ff                	0xff
   12b8e:	0000                	unimp
   12b90:	0000                	unimp
   12b92:	00ff                	0xff
   12b94:	0000                	unimp
   12b96:	0000                	unimp
   12b98:	ff00                	fsw	fs0,56(a4)
   12b9a:	ff00                	fsw	fs0,56(a4)
   12b9c:	0000                	unimp
   12b9e:	0000                	unimp
   12ba0:	ffff                	0xffff
   12ba2:	ffff                	0xffff
   12ba4:	0000                	unimp
   12ba6:	0000                	unimp
   12ba8:	00ff                	0xff
	...
   12bb2:	ff00                	fsw	fs0,56(a4)
   12bb4:	0000                	unimp
   12bb6:	0000                	unimp
   12bb8:	00ff                	0xff
   12bba:	0000                	unimp
   12bbc:	00ff                	0xff
   12bbe:	0000                	unimp
   12bc0:	00ff                	0xff
   12bc2:	0000                	unimp
   12bc4:	00ff                	0xff
   12bc6:	0000                	unimp
   12bc8:	0000                	unimp
   12bca:	00ff                	0xff
   12bcc:	0000                	unimp
   12bce:	0000                	unimp
   12bd0:	0000                	unimp
   12bd2:	00ff                	0xff
   12bd4:	0000                	unimp
   12bd6:	0000                	unimp
   12bd8:	0000                	unimp
   12bda:	00ff                	0xff
   12bdc:	0000                	unimp
   12bde:	0000                	unimp
   12be0:	ffff                	0xffff
   12be2:	ffff                	0xffff
   12be4:	00ff                	0xff
   12be6:	0000                	unimp
   12be8:	0000                	unimp
   12bea:	00ff                	0xff
	...
   12bf4:	00ff                	0xff
	...
   12c02:	00ff                	0xff
	...
   12c10:	ffff                	0xffff
   12c12:	ffff                	0xffff
   12c14:	00ff                	0xff
   12c16:	0000                	unimp
   12c18:	ff00                	fsw	fs0,56(a4)
   12c1a:	ffff                	0xffff
   12c1c:	0000                	unimp
   12c1e:	0000                	unimp
   12c20:	ff00                	fsw	fs0,56(a4)
   12c22:	ffff                	0xffff
   12c24:	00ff                	0xff
   12c26:	0000                	unimp
   12c28:	ff00                	fsw	fs0,56(a4)
   12c2a:	ff00                	fsw	fs0,56(a4)
   12c2c:	ff00                	fsw	fs0,56(a4)
	...
   12c36:	0000                	unimp
   12c38:	ff00                	fsw	fs0,56(a4)
	...
   12c42:	ff00                	fsw	fs0,56(a4)
   12c44:	0000                	unimp
   12c46:	0000                	unimp
   12c48:	ff00                	fsw	fs0,56(a4)
   12c4a:	ff00                	fsw	fs0,56(a4)
   12c4c:	0000                	unimp
   12c4e:	0000                	unimp
   12c50:	ffff                	0xffff
   12c52:	ffff                	0xffff
   12c54:	00ff                	0xff
	...
   12c5e:	0000                	unimp
   12c60:	ff00                	fsw	fs0,56(a4)
   12c62:	ffff                	0xffff
   12c64:	00ff                	0xff
	...
   12c72:	ff00                	fsw	fs0,56(a4)
   12c74:	0000                	unimp
   12c76:	0000                	unimp
   12c78:	00ff                	0xff
   12c7a:	00ff                	0xff
   12c7c:	00ff                	0xff
   12c7e:	0000                	unimp
   12c80:	0000                	unimp
   12c82:	00ff                	0xff
   12c84:	0000                	unimp
   12c86:	0000                	unimp
   12c88:	0000                	unimp
   12c8a:	ff00                	fsw	fs0,56(a4)
   12c8c:	0000                	unimp
   12c8e:	0000                	unimp
   12c90:	ff00                	fsw	fs0,56(a4)
   12c92:	ffff                	0xffff
   12c94:	0000                	unimp
   12c96:	0000                	unimp
   12c98:	00ff                	0xff
   12c9a:	ff00                	fsw	fs0,56(a4)
	...
   12ca4:	00ff                	0xff
   12ca6:	0000                	unimp
   12ca8:	ffff                	0xffff
   12caa:	ffff                	0xffff
   12cac:	0000                	unimp
   12cae:	0000                	unimp
   12cb0:	0000                	unimp
   12cb2:	ff00                	fsw	fs0,56(a4)
   12cb4:	0000                	unimp
   12cb6:	0000                	unimp
   12cb8:	ff00                	fsw	fs0,56(a4)
   12cba:	ffff                	0xffff
   12cbc:	0000                	unimp
   12cbe:	0000                	unimp
   12cc0:	ff00                	fsw	fs0,56(a4)
   12cc2:	ffff                	0xffff
   12cc4:	00ff                	0xff
	...
   12cd6:	0000                	unimp
   12cd8:	ff00                	fsw	fs0,56(a4)
	...
   12cea:	ff00                	fsw	fs0,56(a4)
   12cec:	0000                	unimp
   12cee:	0000                	unimp
   12cf0:	0000                	unimp
   12cf2:	ff00                	fsw	fs0,56(a4)
	...
   12d00:	0000                	unimp
   12d02:	00ff                	0xff
	...
   12d10:	00ff                	0xff
   12d12:	00ff                	0xff
   12d14:	0000                	unimp
   12d16:	0000                	unimp
   12d18:	0000                	unimp
   12d1a:	00ff                	0xff
   12d1c:	00ff                	0xff
   12d1e:	0000                	unimp
   12d20:	0000                	unimp
   12d22:	ffff                	0xffff
   12d24:	ff00                	fsw	fs0,56(a4)
   12d26:	0000                	unimp
   12d28:	00ff                	0xff
   12d2a:	0000                	unimp
   12d2c:	00ff                	0xff
	...
   12d36:	0000                	unimp
   12d38:	ff00                	fsw	fs0,56(a4)
	...
   12d42:	ff00                	fsw	fs0,56(a4)
   12d44:	0000                	unimp
   12d46:	0000                	unimp
   12d48:	00ff                	0xff
   12d4a:	0000                	unimp
   12d4c:	00ff                	0xff
   12d4e:	0000                	unimp
   12d50:	0000                	unimp
   12d52:	00ff                	0xff
	...
   12d70:	0000                	unimp
   12d72:	00ff                	0xff
   12d74:	0000                	unimp
   12d76:	0000                	unimp
   12d78:	ffff                	0xffff
   12d7a:	0000                	unimp
   12d7c:	00ff                	0xff
   12d7e:	0000                	unimp
   12d80:	0000                	unimp
   12d82:	00ff                	0xff
   12d84:	0000                	unimp
   12d86:	0000                	unimp
   12d88:	0000                	unimp
   12d8a:	00ff                	0xff
	...
   12d94:	00ff                	0xff
   12d96:	0000                	unimp
   12d98:	ffff                	0xffff
   12d9a:	ffff                	0xffff
   12d9c:	00ff                	0xff
   12d9e:	0000                	unimp
   12da0:	0000                	unimp
   12da2:	0000                	unimp
   12da4:	00ff                	0xff
   12da6:	0000                	unimp
   12da8:	00ff                	0xff
   12daa:	0000                	unimp
   12dac:	00ff                	0xff
   12dae:	0000                	unimp
   12db0:	0000                	unimp
   12db2:	00ff                	0xff
   12db4:	0000                	unimp
   12db6:	0000                	unimp
   12db8:	00ff                	0xff
   12dba:	0000                	unimp
   12dbc:	00ff                	0xff
   12dbe:	0000                	unimp
   12dc0:	0000                	unimp
   12dc2:	0000                	unimp
   12dc4:	00ff                	0xff
	...
   12dda:	00ff                	0xff
   12ddc:	0000                	unimp
   12dde:	0000                	unimp
   12de0:	ffff                	0xffff
   12de2:	ffff                	0xffff
   12de4:	00ff                	0xff
   12de6:	0000                	unimp
   12de8:	0000                	unimp
   12dea:	00ff                	0xff
   12dec:	0000                	unimp
   12dee:	0000                	unimp
   12df0:	0000                	unimp
   12df2:	00ff                	0xff
	...
   12e18:	00ff                	0xff
   12e1a:	00ff                	0xff
   12e1c:	00ff                	0xff
   12e1e:	0000                	unimp
   12e20:	ff00                	fsw	fs0,56(a4)
   12e22:	ff00                	fsw	fs0,56(a4)
   12e24:	ff00                	fsw	fs0,56(a4)
   12e26:	0000                	unimp
   12e28:	00ff                	0xff
   12e2a:	0000                	unimp
   12e2c:	00ff                	0xff
	...
   12e36:	0000                	unimp
   12e38:	ff00                	fsw	fs0,56(a4)
	...
   12e42:	ff00                	fsw	fs0,56(a4)
	...
   12e50:	0000                	unimp
   12e52:	00ff                	0xff
   12e54:	0000                	unimp
   12e56:	0000                	unimp
   12e58:	0000                	unimp
   12e5a:	00ff                	0xff
	...
   12e70:	0000                	unimp
   12e72:	00ff                	0xff
   12e74:	0000                	unimp
   12e76:	0000                	unimp
   12e78:	00ff                	0xff
   12e7a:	0000                	unimp
   12e7c:	00ff                	0xff
   12e7e:	0000                	unimp
   12e80:	0000                	unimp
   12e82:	00ff                	0xff
   12e84:	0000                	unimp
   12e86:	0000                	unimp
   12e88:	ff00                	fsw	fs0,56(a4)
   12e8a:	0000                	unimp
   12e8c:	0000                	unimp
   12e8e:	0000                	unimp
   12e90:	00ff                	0xff
   12e92:	0000                	unimp
   12e94:	00ff                	0xff
   12e96:	0000                	unimp
   12e98:	0000                	unimp
   12e9a:	ff00                	fsw	fs0,56(a4)
   12e9c:	0000                	unimp
   12e9e:	0000                	unimp
   12ea0:	00ff                	0xff
   12ea2:	0000                	unimp
   12ea4:	00ff                	0xff
   12ea6:	0000                	unimp
   12ea8:	00ff                	0xff
   12eaa:	0000                	unimp
   12eac:	00ff                	0xff
   12eae:	0000                	unimp
   12eb0:	0000                	unimp
   12eb2:	00ff                	0xff
   12eb4:	0000                	unimp
   12eb6:	0000                	unimp
   12eb8:	00ff                	0xff
   12eba:	0000                	unimp
   12ebc:	00ff                	0xff
   12ebe:	0000                	unimp
   12ec0:	0000                	unimp
   12ec2:	ff00                	fsw	fs0,56(a4)
	...
   12ed0:	0000                	unimp
   12ed2:	00ff                	0xff
   12ed4:	0000                	unimp
   12ed6:	0000                	unimp
   12ed8:	0000                	unimp
   12eda:	ff00                	fsw	fs0,56(a4)
	...
   12ee8:	ff00                	fsw	fs0,56(a4)
	...
   12f02:	00ff                	0xff
	...
   12f18:	ff00                	fsw	fs0,56(a4)
   12f1a:	ffff                	0xffff
   12f1c:	0000                	unimp
   12f1e:	0000                	unimp
   12f20:	ff00                	fsw	fs0,56(a4)
   12f22:	0000                	unimp
   12f24:	00ff                	0xff
   12f26:	0000                	unimp
   12f28:	ff00                	fsw	fs0,56(a4)
   12f2a:	ffff                	0xffff
   12f2c:	ff00                	fsw	fs0,56(a4)
	...
   12f3a:	00ff                	0xff
   12f3c:	0000                	unimp
   12f3e:	0000                	unimp
   12f40:	0000                	unimp
   12f42:	00ff                	0xff
	...
   12f58:	0000                	unimp
   12f5a:	00ff                	0xff
	...
   12f68:	0000                	unimp
   12f6a:	00ff                	0xff
   12f6c:	0000                	unimp
   12f6e:	0000                	unimp
   12f70:	ff00                	fsw	fs0,56(a4)
   12f72:	0000                	unimp
   12f74:	0000                	unimp
   12f76:	0000                	unimp
   12f78:	ff00                	fsw	fs0,56(a4)
   12f7a:	ffff                	0xffff
   12f7c:	0000                	unimp
   12f7e:	0000                	unimp
   12f80:	0000                	unimp
   12f82:	00ff                	0xff
   12f84:	0000                	unimp
   12f86:	0000                	unimp
   12f88:	ffff                	0xffff
   12f8a:	ffff                	0xffff
   12f8c:	00ff                	0xff
   12f8e:	0000                	unimp
   12f90:	ff00                	fsw	fs0,56(a4)
   12f92:	ffff                	0xffff
   12f94:	0000                	unimp
   12f96:	0000                	unimp
   12f98:	0000                	unimp
   12f9a:	ff00                	fsw	fs0,56(a4)
   12f9c:	0000                	unimp
   12f9e:	0000                	unimp
   12fa0:	ff00                	fsw	fs0,56(a4)
   12fa2:	ffff                	0xffff
   12fa4:	0000                	unimp
   12fa6:	0000                	unimp
   12fa8:	ff00                	fsw	fs0,56(a4)
   12faa:	ffff                	0xffff
   12fac:	0000                	unimp
   12fae:	0000                	unimp
   12fb0:	0000                	unimp
   12fb2:	00ff                	0xff
   12fb4:	0000                	unimp
   12fb6:	0000                	unimp
   12fb8:	ff00                	fsw	fs0,56(a4)
   12fba:	ffff                	0xffff
   12fbc:	0000                	unimp
   12fbe:	0000                	unimp
   12fc0:	ff00                	fsw	fs0,56(a4)
   12fc2:	00ff                	0xff
   12fc4:	0000                	unimp
   12fc6:	0000                	unimp
   12fc8:	0000                	unimp
   12fca:	00ff                	0xff
   12fcc:	0000                	unimp
   12fce:	0000                	unimp
   12fd0:	0000                	unimp
   12fd2:	00ff                	0xff
	...
   12ff0:	0000                	unimp
   12ff2:	00ff                	0xff
	...
   13018:	0000                	unimp
   1301a:	00ff                	0xff
	...
   13038:	0000                	unimp
   1303a:	ff00                	fsw	fs0,56(a4)
   1303c:	0000                	unimp
   1303e:	0000                	unimp
   13040:	ff00                	fsw	fs0,56(a4)
	...
   13056:	0000                	unimp
   13058:	ff00                	fsw	fs0,56(a4)
	...
   1306e:	0000                	unimp
   13070:	ff00                	fsw	fs0,56(a4)
	...
   130ce:	0000                	unimp
   130d0:	ff00                	fsw	fs0,56(a4)
	...
   130fa:	ffff                	0xffff
   130fc:	0000                	unimp
   130fe:	0000                	unimp
   13100:	0000                	unimp
   13102:	00ff                	0xff
   13104:	0000                	unimp
   13106:	0000                	unimp
   13108:	ffff                	0xffff
   1310a:	ffff                	0xffff
   1310c:	0000                	unimp
   1310e:	0000                	unimp
   13110:	ff00                	fsw	fs0,56(a4)
   13112:	ffff                	0xffff
   13114:	0000                	unimp
   13116:	0000                	unimp
   13118:	ffff                	0xffff
   1311a:	00ff                	0xff
   1311c:	0000                	unimp
   1311e:	0000                	unimp
   13120:	ff00                	fsw	fs0,56(a4)
   13122:	ffff                	0xffff
   13124:	00ff                	0xff
   13126:	0000                	unimp
   13128:	ff00                	fsw	fs0,56(a4)
   1312a:	ffff                	0xffff
   1312c:	00ff                	0xff
   1312e:	0000                	unimp
   13130:	ff00                	fsw	fs0,56(a4)
   13132:	ffff                	0xffff
   13134:	0000                	unimp
   13136:	0000                	unimp
   13138:	00ff                	0xff
   1313a:	0000                	unimp
   1313c:	00ff                	0xff
   1313e:	0000                	unimp
   13140:	0000                	unimp
   13142:	00ff                	0xff
	...
   1314c:	00ff                	0xff
   1314e:	0000                	unimp
   13150:	00ff                	0xff
   13152:	0000                	unimp
   13154:	00ff                	0xff
   13156:	0000                	unimp
   13158:	ff00                	fsw	fs0,56(a4)
   1315a:	0000                	unimp
   1315c:	0000                	unimp
   1315e:	0000                	unimp
   13160:	00ff                	0xff
   13162:	0000                	unimp
   13164:	00ff                	0xff
   13166:	0000                	unimp
   13168:	ffff                	0xffff
   1316a:	0000                	unimp
   1316c:	00ff                	0xff
   1316e:	0000                	unimp
   13170:	ff00                	fsw	fs0,56(a4)
   13172:	ffff                	0xffff
   13174:	0000                	unimp
   13176:	0000                	unimp
   13178:	ffff                	0xffff
   1317a:	ffff                	0xffff
   1317c:	0000                	unimp
   1317e:	0000                	unimp
   13180:	ff00                	fsw	fs0,56(a4)
   13182:	ffff                	0xffff
   13184:	0000                	unimp
   13186:	0000                	unimp
   13188:	ffff                	0xffff
   1318a:	ffff                	0xffff
   1318c:	0000                	unimp
   1318e:	0000                	unimp
   13190:	ff00                	fsw	fs0,56(a4)
   13192:	ffff                	0xffff
   13194:	0000                	unimp
   13196:	0000                	unimp
   13198:	ffff                	0xffff
   1319a:	ffff                	0xffff
   1319c:	00ff                	0xff
   1319e:	0000                	unimp
   131a0:	00ff                	0xff
   131a2:	0000                	unimp
   131a4:	00ff                	0xff
   131a6:	0000                	unimp
   131a8:	00ff                	0xff
   131aa:	0000                	unimp
   131ac:	00ff                	0xff
   131ae:	0000                	unimp
   131b0:	00ff                	0xff
   131b2:	0000                	unimp
   131b4:	00ff                	0xff
   131b6:	0000                	unimp
   131b8:	00ff                	0xff
   131ba:	0000                	unimp
   131bc:	00ff                	0xff
   131be:	0000                	unimp
   131c0:	00ff                	0xff
   131c2:	0000                	unimp
   131c4:	00ff                	0xff
   131c6:	0000                	unimp
   131c8:	ff00                	fsw	fs0,56(a4)
   131ca:	ffff                	0xffff
   131cc:	00ff                	0xff
   131ce:	0000                	unimp
   131d0:	0000                	unimp
   131d2:	ffff                	0xffff
   131d4:	0000                	unimp
   131d6:	0000                	unimp
   131d8:	ff00                	fsw	fs0,56(a4)
   131da:	0000                	unimp
   131dc:	0000                	unimp
   131de:	0000                	unimp
   131e0:	ff00                	fsw	fs0,56(a4)
   131e2:	00ff                	0xff
   131e4:	0000                	unimp
   131e6:	0000                	unimp
   131e8:	0000                	unimp
   131ea:	00ff                	0xff
	...
   131f8:	ff00                	fsw	fs0,56(a4)
   131fa:	0000                	unimp
   131fc:	00ff                	0xff
   131fe:	0000                	unimp
   13200:	0000                	unimp
   13202:	00ff                	0xff
   13204:	0000                	unimp
   13206:	0000                	unimp
   13208:	00ff                	0xff
   1320a:	0000                	unimp
   1320c:	00ff                	0xff
   1320e:	0000                	unimp
   13210:	00ff                	0xff
   13212:	0000                	unimp
   13214:	00ff                	0xff
   13216:	0000                	unimp
   13218:	00ff                	0xff
   1321a:	ff00                	fsw	fs0,56(a4)
   1321c:	0000                	unimp
   1321e:	0000                	unimp
   13220:	ff00                	fsw	fs0,56(a4)
   13222:	0000                	unimp
   13224:	0000                	unimp
   13226:	0000                	unimp
   13228:	ff00                	fsw	fs0,56(a4)
   1322a:	0000                	unimp
   1322c:	0000                	unimp
   1322e:	0000                	unimp
   13230:	00ff                	0xff
   13232:	0000                	unimp
   13234:	00ff                	0xff
   13236:	0000                	unimp
   13238:	00ff                	0xff
   1323a:	0000                	unimp
   1323c:	00ff                	0xff
   1323e:	0000                	unimp
   13240:	0000                	unimp
   13242:	00ff                	0xff
	...
   1324c:	00ff                	0xff
   1324e:	0000                	unimp
   13250:	00ff                	0xff
   13252:	ff00                	fsw	fs0,56(a4)
   13254:	0000                	unimp
   13256:	0000                	unimp
   13258:	ff00                	fsw	fs0,56(a4)
   1325a:	0000                	unimp
   1325c:	0000                	unimp
   1325e:	0000                	unimp
   13260:	ffff                	0xffff
   13262:	ff00                	fsw	fs0,56(a4)
   13264:	00ff                	0xff
   13266:	0000                	unimp
   13268:	ffff                	0xffff
   1326a:	0000                	unimp
   1326c:	00ff                	0xff
   1326e:	0000                	unimp
   13270:	00ff                	0xff
   13272:	0000                	unimp
   13274:	00ff                	0xff
   13276:	0000                	unimp
   13278:	00ff                	0xff
   1327a:	0000                	unimp
   1327c:	00ff                	0xff
   1327e:	0000                	unimp
   13280:	00ff                	0xff
   13282:	0000                	unimp
   13284:	00ff                	0xff
   13286:	0000                	unimp
   13288:	00ff                	0xff
   1328a:	0000                	unimp
   1328c:	00ff                	0xff
   1328e:	0000                	unimp
   13290:	00ff                	0xff
   13292:	0000                	unimp
   13294:	00ff                	0xff
   13296:	0000                	unimp
   13298:	0000                	unimp
   1329a:	00ff                	0xff
   1329c:	0000                	unimp
   1329e:	0000                	unimp
   132a0:	00ff                	0xff
   132a2:	0000                	unimp
   132a4:	00ff                	0xff
   132a6:	0000                	unimp
   132a8:	00ff                	0xff
   132aa:	0000                	unimp
   132ac:	00ff                	0xff
   132ae:	0000                	unimp
   132b0:	00ff                	0xff
   132b2:	0000                	unimp
   132b4:	00ff                	0xff
   132b6:	0000                	unimp
   132b8:	00ff                	0xff
   132ba:	0000                	unimp
   132bc:	00ff                	0xff
   132be:	0000                	unimp
   132c0:	00ff                	0xff
   132c2:	0000                	unimp
   132c4:	00ff                	0xff
   132c6:	0000                	unimp
   132c8:	0000                	unimp
   132ca:	0000                	unimp
   132cc:	00ff                	0xff
   132ce:	0000                	unimp
   132d0:	0000                	unimp
   132d2:	00ff                	0xff
   132d4:	0000                	unimp
   132d6:	0000                	unimp
   132d8:	ff00                	fsw	fs0,56(a4)
	...
   132e2:	00ff                	0xff
   132e4:	0000                	unimp
   132e6:	0000                	unimp
   132e8:	ff00                	fsw	fs0,56(a4)
   132ea:	ff00                	fsw	fs0,56(a4)
	...
   132f8:	00ff                	0xff
   132fa:	ffff                	0xffff
   132fc:	ff00                	fsw	fs0,56(a4)
   132fe:	0000                	unimp
   13300:	ff00                	fsw	fs0,56(a4)
   13302:	ff00                	fsw	fs0,56(a4)
   13304:	0000                	unimp
   13306:	0000                	unimp
   13308:	00ff                	0xff
   1330a:	0000                	unimp
   1330c:	00ff                	0xff
   1330e:	0000                	unimp
   13310:	00ff                	0xff
   13312:	0000                	unimp
   13314:	0000                	unimp
   13316:	0000                	unimp
   13318:	00ff                	0xff
   1331a:	0000                	unimp
   1331c:	00ff                	0xff
   1331e:	0000                	unimp
   13320:	ff00                	fsw	fs0,56(a4)
   13322:	0000                	unimp
   13324:	0000                	unimp
   13326:	0000                	unimp
   13328:	ff00                	fsw	fs0,56(a4)
   1332a:	0000                	unimp
   1332c:	0000                	unimp
   1332e:	0000                	unimp
   13330:	00ff                	0xff
   13332:	0000                	unimp
   13334:	0000                	unimp
   13336:	0000                	unimp
   13338:	00ff                	0xff
   1333a:	0000                	unimp
   1333c:	00ff                	0xff
   1333e:	0000                	unimp
   13340:	0000                	unimp
   13342:	00ff                	0xff
	...
   1334c:	00ff                	0xff
   1334e:	0000                	unimp
   13350:	00ff                	0xff
   13352:	00ff                	0xff
   13354:	0000                	unimp
   13356:	0000                	unimp
   13358:	ff00                	fsw	fs0,56(a4)
   1335a:	0000                	unimp
   1335c:	0000                	unimp
   1335e:	0000                	unimp
   13360:	00ff                	0xff
   13362:	00ff                	0xff
   13364:	00ff                	0xff
   13366:	0000                	unimp
   13368:	00ff                	0xff
   1336a:	00ff                	0xff
   1336c:	00ff                	0xff
   1336e:	0000                	unimp
   13370:	00ff                	0xff
   13372:	0000                	unimp
   13374:	00ff                	0xff
   13376:	0000                	unimp
   13378:	00ff                	0xff
   1337a:	0000                	unimp
   1337c:	00ff                	0xff
   1337e:	0000                	unimp
   13380:	00ff                	0xff
   13382:	0000                	unimp
   13384:	00ff                	0xff
   13386:	0000                	unimp
   13388:	00ff                	0xff
   1338a:	0000                	unimp
   1338c:	00ff                	0xff
   1338e:	0000                	unimp
   13390:	00ff                	0xff
	...
   1339a:	00ff                	0xff
   1339c:	0000                	unimp
   1339e:	0000                	unimp
   133a0:	00ff                	0xff
   133a2:	0000                	unimp
   133a4:	00ff                	0xff
   133a6:	0000                	unimp
   133a8:	00ff                	0xff
   133aa:	0000                	unimp
   133ac:	00ff                	0xff
   133ae:	0000                	unimp
   133b0:	00ff                	0xff
   133b2:	00ff                	0xff
   133b4:	00ff                	0xff
   133b6:	0000                	unimp
   133b8:	ff00                	fsw	fs0,56(a4)
   133ba:	ff00                	fsw	fs0,56(a4)
   133bc:	0000                	unimp
   133be:	0000                	unimp
   133c0:	ff00                	fsw	fs0,56(a4)
   133c2:	ff00                	fsw	fs0,56(a4)
   133c4:	0000                	unimp
   133c6:	0000                	unimp
   133c8:	0000                	unimp
   133ca:	ff00                	fsw	fs0,56(a4)
   133cc:	0000                	unimp
   133ce:	0000                	unimp
   133d0:	0000                	unimp
   133d2:	00ff                	0xff
   133d4:	0000                	unimp
   133d6:	0000                	unimp
   133d8:	0000                	unimp
   133da:	00ff                	0xff
   133dc:	0000                	unimp
   133de:	0000                	unimp
   133e0:	0000                	unimp
   133e2:	00ff                	0xff
	...
   133f8:	ffff                	0xffff
   133fa:	ff00                	fsw	fs0,56(a4)
   133fc:	ff00                	fsw	fs0,56(a4)
   133fe:	0000                	unimp
   13400:	ff00                	fsw	fs0,56(a4)
   13402:	ff00                	fsw	fs0,56(a4)
   13404:	0000                	unimp
   13406:	0000                	unimp
   13408:	ffff                	0xffff
   1340a:	ffff                	0xffff
   1340c:	0000                	unimp
   1340e:	0000                	unimp
   13410:	00ff                	0xff
   13412:	0000                	unimp
   13414:	0000                	unimp
   13416:	0000                	unimp
   13418:	00ff                	0xff
   1341a:	0000                	unimp
   1341c:	00ff                	0xff
   1341e:	0000                	unimp
   13420:	ff00                	fsw	fs0,56(a4)
   13422:	ffff                	0xffff
   13424:	0000                	unimp
   13426:	0000                	unimp
   13428:	ff00                	fsw	fs0,56(a4)
   1342a:	ffff                	0xffff
   1342c:	0000                	unimp
   1342e:	0000                	unimp
   13430:	00ff                	0xff
   13432:	ff00                	fsw	fs0,56(a4)
   13434:	00ff                	0xff
   13436:	0000                	unimp
   13438:	ffff                	0xffff
   1343a:	ffff                	0xffff
   1343c:	00ff                	0xff
   1343e:	0000                	unimp
   13440:	0000                	unimp
   13442:	00ff                	0xff
	...
   1344c:	00ff                	0xff
   1344e:	0000                	unimp
   13450:	ffff                	0xffff
   13452:	0000                	unimp
   13454:	0000                	unimp
   13456:	0000                	unimp
   13458:	ff00                	fsw	fs0,56(a4)
   1345a:	0000                	unimp
   1345c:	0000                	unimp
   1345e:	0000                	unimp
   13460:	00ff                	0xff
   13462:	0000                	unimp
   13464:	00ff                	0xff
   13466:	0000                	unimp
   13468:	00ff                	0xff
   1346a:	00ff                	0xff
   1346c:	00ff                	0xff
   1346e:	0000                	unimp
   13470:	00ff                	0xff
   13472:	0000                	unimp
   13474:	00ff                	0xff
   13476:	0000                	unimp
   13478:	ffff                	0xffff
   1347a:	ffff                	0xffff
   1347c:	0000                	unimp
   1347e:	0000                	unimp
   13480:	00ff                	0xff
   13482:	0000                	unimp
   13484:	00ff                	0xff
   13486:	0000                	unimp
   13488:	ffff                	0xffff
   1348a:	ffff                	0xffff
   1348c:	0000                	unimp
   1348e:	0000                	unimp
   13490:	ff00                	fsw	fs0,56(a4)
   13492:	ffff                	0xffff
   13494:	0000                	unimp
   13496:	0000                	unimp
   13498:	0000                	unimp
   1349a:	00ff                	0xff
   1349c:	0000                	unimp
   1349e:	0000                	unimp
   134a0:	00ff                	0xff
   134a2:	0000                	unimp
   134a4:	00ff                	0xff
   134a6:	0000                	unimp
   134a8:	ff00                	fsw	fs0,56(a4)
   134aa:	ff00                	fsw	fs0,56(a4)
   134ac:	0000                	unimp
   134ae:	0000                	unimp
   134b0:	00ff                	0xff
   134b2:	00ff                	0xff
   134b4:	00ff                	0xff
   134b6:	0000                	unimp
   134b8:	0000                	unimp
   134ba:	00ff                	0xff
   134bc:	0000                	unimp
   134be:	0000                	unimp
   134c0:	0000                	unimp
   134c2:	00ff                	0xff
   134c4:	0000                	unimp
   134c6:	0000                	unimp
   134c8:	0000                	unimp
   134ca:	00ff                	0xff
   134cc:	0000                	unimp
   134ce:	0000                	unimp
   134d0:	0000                	unimp
   134d2:	00ff                	0xff
   134d4:	0000                	unimp
   134d6:	0000                	unimp
   134d8:	0000                	unimp
   134da:	00ff                	0xff
   134dc:	0000                	unimp
   134de:	0000                	unimp
   134e0:	0000                	unimp
   134e2:	00ff                	0xff
	...
   134f8:	ffff                	0xffff
   134fa:	ff00                	fsw	fs0,56(a4)
   134fc:	ff00                	fsw	fs0,56(a4)
   134fe:	0000                	unimp
   13500:	ffff                	0xffff
   13502:	ffff                	0xffff
   13504:	00ff                	0xff
   13506:	0000                	unimp
   13508:	00ff                	0xff
   1350a:	0000                	unimp
   1350c:	00ff                	0xff
   1350e:	0000                	unimp
   13510:	00ff                	0xff
   13512:	0000                	unimp
   13514:	0000                	unimp
   13516:	0000                	unimp
   13518:	00ff                	0xff
   1351a:	0000                	unimp
   1351c:	00ff                	0xff
   1351e:	0000                	unimp
   13520:	ff00                	fsw	fs0,56(a4)
   13522:	0000                	unimp
   13524:	0000                	unimp
   13526:	0000                	unimp
   13528:	ff00                	fsw	fs0,56(a4)
   1352a:	0000                	unimp
   1352c:	0000                	unimp
   1352e:	0000                	unimp
   13530:	00ff                	0xff
   13532:	0000                	unimp
   13534:	00ff                	0xff
   13536:	0000                	unimp
   13538:	00ff                	0xff
   1353a:	0000                	unimp
   1353c:	00ff                	0xff
   1353e:	0000                	unimp
   13540:	0000                	unimp
   13542:	00ff                	0xff
   13544:	0000                	unimp
   13546:	0000                	unimp
   13548:	00ff                	0xff
   1354a:	0000                	unimp
   1354c:	00ff                	0xff
   1354e:	0000                	unimp
   13550:	00ff                	0xff
   13552:	00ff                	0xff
   13554:	0000                	unimp
   13556:	0000                	unimp
   13558:	ff00                	fsw	fs0,56(a4)
   1355a:	0000                	unimp
   1355c:	0000                	unimp
   1355e:	0000                	unimp
   13560:	00ff                	0xff
   13562:	0000                	unimp
   13564:	00ff                	0xff
   13566:	0000                	unimp
   13568:	00ff                	0xff
   1356a:	ff00                	fsw	fs0,56(a4)
   1356c:	00ff                	0xff
   1356e:	0000                	unimp
   13570:	00ff                	0xff
   13572:	0000                	unimp
   13574:	00ff                	0xff
   13576:	0000                	unimp
   13578:	00ff                	0xff
   1357a:	0000                	unimp
   1357c:	0000                	unimp
   1357e:	0000                	unimp
   13580:	00ff                	0xff
   13582:	0000                	unimp
   13584:	00ff                	0xff
   13586:	0000                	unimp
   13588:	00ff                	0xff
   1358a:	00ff                	0xff
	...
   13594:	00ff                	0xff
   13596:	0000                	unimp
   13598:	0000                	unimp
   1359a:	00ff                	0xff
   1359c:	0000                	unimp
   1359e:	0000                	unimp
   135a0:	00ff                	0xff
   135a2:	0000                	unimp
   135a4:	00ff                	0xff
   135a6:	0000                	unimp
   135a8:	ff00                	fsw	fs0,56(a4)
   135aa:	ff00                	fsw	fs0,56(a4)
   135ac:	0000                	unimp
   135ae:	0000                	unimp
   135b0:	ff00                	fsw	fs0,56(a4)
   135b2:	ff00                	fsw	fs0,56(a4)
   135b4:	0000                	unimp
   135b6:	0000                	unimp
   135b8:	ff00                	fsw	fs0,56(a4)
   135ba:	ff00                	fsw	fs0,56(a4)
   135bc:	0000                	unimp
   135be:	0000                	unimp
   135c0:	0000                	unimp
   135c2:	00ff                	0xff
   135c4:	0000                	unimp
   135c6:	0000                	unimp
   135c8:	ff00                	fsw	fs0,56(a4)
	...
   135d2:	00ff                	0xff
   135d4:	0000                	unimp
   135d6:	0000                	unimp
   135d8:	0000                	unimp
   135da:	ff00                	fsw	fs0,56(a4)
   135dc:	0000                	unimp
   135de:	0000                	unimp
   135e0:	0000                	unimp
   135e2:	00ff                	0xff
	...
   135f8:	00ff                	0xff
   135fa:	ffff                	0xffff
   135fc:	00ff                	0xff
   135fe:	0000                	unimp
   13600:	00ff                	0xff
   13602:	0000                	unimp
   13604:	00ff                	0xff
   13606:	0000                	unimp
   13608:	00ff                	0xff
   1360a:	0000                	unimp
   1360c:	00ff                	0xff
   1360e:	0000                	unimp
   13610:	00ff                	0xff
   13612:	0000                	unimp
   13614:	00ff                	0xff
   13616:	0000                	unimp
   13618:	00ff                	0xff
   1361a:	ff00                	fsw	fs0,56(a4)
   1361c:	0000                	unimp
   1361e:	0000                	unimp
   13620:	ff00                	fsw	fs0,56(a4)
   13622:	0000                	unimp
   13624:	0000                	unimp
   13626:	0000                	unimp
   13628:	ff00                	fsw	fs0,56(a4)
   1362a:	0000                	unimp
   1362c:	0000                	unimp
   1362e:	0000                	unimp
   13630:	00ff                	0xff
   13632:	0000                	unimp
   13634:	00ff                	0xff
   13636:	0000                	unimp
   13638:	00ff                	0xff
   1363a:	0000                	unimp
   1363c:	00ff                	0xff
   1363e:	0000                	unimp
   13640:	0000                	unimp
   13642:	00ff                	0xff
   13644:	0000                	unimp
   13646:	0000                	unimp
   13648:	00ff                	0xff
   1364a:	0000                	unimp
   1364c:	00ff                	0xff
   1364e:	0000                	unimp
   13650:	00ff                	0xff
   13652:	ff00                	fsw	fs0,56(a4)
   13654:	0000                	unimp
   13656:	0000                	unimp
   13658:	ff00                	fsw	fs0,56(a4)
   1365a:	0000                	unimp
   1365c:	0000                	unimp
   1365e:	0000                	unimp
   13660:	00ff                	0xff
   13662:	0000                	unimp
   13664:	00ff                	0xff
   13666:	0000                	unimp
   13668:	00ff                	0xff
   1366a:	ff00                	fsw	fs0,56(a4)
   1366c:	00ff                	0xff
   1366e:	0000                	unimp
   13670:	00ff                	0xff
   13672:	0000                	unimp
   13674:	00ff                	0xff
   13676:	0000                	unimp
   13678:	00ff                	0xff
   1367a:	0000                	unimp
   1367c:	0000                	unimp
   1367e:	0000                	unimp
   13680:	00ff                	0xff
   13682:	00ff                	0xff
   13684:	00ff                	0xff
   13686:	0000                	unimp
   13688:	00ff                	0xff
   1368a:	ff00                	fsw	fs0,56(a4)
   1368c:	0000                	unimp
   1368e:	0000                	unimp
   13690:	00ff                	0xff
   13692:	0000                	unimp
   13694:	00ff                	0xff
   13696:	0000                	unimp
   13698:	0000                	unimp
   1369a:	00ff                	0xff
   1369c:	0000                	unimp
   1369e:	0000                	unimp
   136a0:	00ff                	0xff
   136a2:	0000                	unimp
   136a4:	00ff                	0xff
   136a6:	0000                	unimp
   136a8:	0000                	unimp
   136aa:	00ff                	0xff
   136ac:	0000                	unimp
   136ae:	0000                	unimp
   136b0:	ff00                	fsw	fs0,56(a4)
   136b2:	ff00                	fsw	fs0,56(a4)
   136b4:	0000                	unimp
   136b6:	0000                	unimp
   136b8:	00ff                	0xff
   136ba:	0000                	unimp
   136bc:	00ff                	0xff
   136be:	0000                	unimp
   136c0:	0000                	unimp
   136c2:	00ff                	0xff
   136c4:	0000                	unimp
   136c6:	0000                	unimp
   136c8:	ff00                	fsw	fs0,56(a4)
	...
   136d2:	00ff                	0xff
   136d4:	0000                	unimp
   136d6:	0000                	unimp
   136d8:	0000                	unimp
   136da:	ff00                	fsw	fs0,56(a4)
   136dc:	0000                	unimp
   136de:	0000                	unimp
   136e0:	0000                	unimp
   136e2:	00ff                	0xff
	...
   136f8:	ff00                	fsw	fs0,56(a4)
   136fa:	0000                	unimp
   136fc:	0000                	unimp
   136fe:	0000                	unimp
   13700:	00ff                	0xff
   13702:	0000                	unimp
   13704:	00ff                	0xff
   13706:	0000                	unimp
   13708:	ffff                	0xffff
   1370a:	ffff                	0xffff
   1370c:	0000                	unimp
   1370e:	0000                	unimp
   13710:	ff00                	fsw	fs0,56(a4)
   13712:	ffff                	0xffff
   13714:	0000                	unimp
   13716:	0000                	unimp
   13718:	ffff                	0xffff
   1371a:	00ff                	0xff
   1371c:	0000                	unimp
   1371e:	0000                	unimp
   13720:	ff00                	fsw	fs0,56(a4)
   13722:	ffff                	0xffff
   13724:	00ff                	0xff
   13726:	0000                	unimp
   13728:	ff00                	fsw	fs0,56(a4)
   1372a:	0000                	unimp
   1372c:	0000                	unimp
   1372e:	0000                	unimp
   13730:	ff00                	fsw	fs0,56(a4)
   13732:	ffff                	0xffff
   13734:	0000                	unimp
   13736:	0000                	unimp
   13738:	00ff                	0xff
   1373a:	0000                	unimp
   1373c:	00ff                	0xff
   1373e:	0000                	unimp
   13740:	0000                	unimp
   13742:	00ff                	0xff
   13744:	0000                	unimp
   13746:	0000                	unimp
   13748:	ff00                	fsw	fs0,56(a4)
   1374a:	ffff                	0xffff
   1374c:	0000                	unimp
   1374e:	0000                	unimp
   13750:	00ff                	0xff
   13752:	0000                	unimp
   13754:	00ff                	0xff
   13756:	0000                	unimp
   13758:	ff00                	fsw	fs0,56(a4)
   1375a:	ffff                	0xffff
   1375c:	00ff                	0xff
   1375e:	0000                	unimp
   13760:	00ff                	0xff
   13762:	0000                	unimp
   13764:	00ff                	0xff
   13766:	0000                	unimp
   13768:	00ff                	0xff
   1376a:	0000                	unimp
   1376c:	00ff                	0xff
   1376e:	0000                	unimp
   13770:	ff00                	fsw	fs0,56(a4)
   13772:	ffff                	0xffff
   13774:	0000                	unimp
   13776:	0000                	unimp
   13778:	00ff                	0xff
   1377a:	0000                	unimp
   1377c:	0000                	unimp
   1377e:	0000                	unimp
   13780:	ff00                	fsw	fs0,56(a4)
   13782:	ffff                	0xffff
   13784:	0000                	unimp
   13786:	0000                	unimp
   13788:	00ff                	0xff
   1378a:	0000                	unimp
   1378c:	00ff                	0xff
   1378e:	0000                	unimp
   13790:	ff00                	fsw	fs0,56(a4)
   13792:	ffff                	0xffff
   13794:	0000                	unimp
   13796:	0000                	unimp
   13798:	0000                	unimp
   1379a:	00ff                	0xff
   1379c:	0000                	unimp
   1379e:	0000                	unimp
   137a0:	ff00                	fsw	fs0,56(a4)
   137a2:	ffff                	0xffff
   137a4:	0000                	unimp
   137a6:	0000                	unimp
   137a8:	0000                	unimp
   137aa:	00ff                	0xff
   137ac:	0000                	unimp
   137ae:	0000                	unimp
   137b0:	ff00                	fsw	fs0,56(a4)
   137b2:	ff00                	fsw	fs0,56(a4)
   137b4:	0000                	unimp
   137b6:	0000                	unimp
   137b8:	00ff                	0xff
   137ba:	0000                	unimp
   137bc:	00ff                	0xff
   137be:	0000                	unimp
   137c0:	0000                	unimp
   137c2:	00ff                	0xff
   137c4:	0000                	unimp
   137c6:	0000                	unimp
   137c8:	ff00                	fsw	fs0,56(a4)
   137ca:	ffff                	0xffff
   137cc:	00ff                	0xff
   137ce:	0000                	unimp
   137d0:	0000                	unimp
   137d2:	00ff                	0xff
	...
   137dc:	00ff                	0xff
   137de:	0000                	unimp
   137e0:	0000                	unimp
   137e2:	00ff                	0xff
	...
   137f8:	0000                	unimp
   137fa:	ffff                	0xffff
	...
   13880:	0000                	unimp
   13882:	ff00                	fsw	fs0,56(a4)
	...
   138d0:	0000                	unimp
   138d2:	ffff                	0xffff
	...
   138dc:	00ff                	0xff
   138de:	0000                	unimp
   138e0:	ff00                	fsw	fs0,56(a4)
   138e2:	00ff                	0xff
	...
   138f0:	ffff                	0xffff
   138f2:	ffff                	0xffff
   138f4:	ffff                	0xffff
   138f6:	0000                	unimp
   138f8:	0000                	unimp
   138fa:	ffff                	0xffff
	...
   13908:	ff00                	fsw	fs0,56(a4)
	...
   1391a:	0000                	unimp
   1391c:	00ff                	0xff
	...
   1392a:	ff00                	fsw	fs0,56(a4)
   1392c:	00ff                	0xff
	...
   13936:	0000                	unimp
   13938:	ff00                	fsw	fs0,56(a4)
	...
   13942:	00ff                	0xff
   13944:	0000                	unimp
   13946:	0000                	unimp
   13948:	0000                	unimp
   1394a:	ff00                	fsw	fs0,56(a4)
   1394c:	0000                	unimp
   1394e:	0000                	unimp
   13950:	ff00                	fsw	fs0,56(a4)
	...
   1395a:	00ff                	0xff
	...
   13998:	0000                	unimp
   1399a:	00ff                	0xff
	...
   139d0:	0000                	unimp
   139d2:	ff00                	fsw	fs0,56(a4)
   139d4:	0000                	unimp
   139d6:	0000                	unimp
   139d8:	0000                	unimp
   139da:	00ff                	0xff
   139dc:	0000                	unimp
   139de:	0000                	unimp
   139e0:	ff00                	fsw	fs0,56(a4)
   139e2:	0000                	unimp
   139e4:	0000                	unimp
   139e6:	0000                	unimp
   139e8:	ff00                	fsw	fs0,56(a4)
   139ea:	00ff                	0xff
   139ec:	00ff                	0xff
   139ee:	0000                	unimp
   139f0:	0000                	unimp
   139f2:	ffff                	0xffff
   139f4:	0000                	unimp
   139f6:	0000                	unimp
   139f8:	ff00                	fsw	fs0,56(a4)
	...
   13a06:	0000                	unimp
   13a08:	ff00                	fsw	fs0,56(a4)
	...
   13a1a:	0000                	unimp
   13a1c:	00ff                	0xff
	...
   13a2a:	00ff                	0xff
	...
   13a38:	ff00                	fsw	fs0,56(a4)
	...
   13a4e:	0000                	unimp
   13a50:	ff00                	fsw	fs0,56(a4)
	...
   13a5a:	00ff                	0xff
	...
   13a98:	0000                	unimp
   13a9a:	00ff                	0xff
	...
   13ad0:	0000                	unimp
   13ad2:	00ff                	0xff
   13ad4:	0000                	unimp
   13ad6:	0000                	unimp
   13ad8:	0000                	unimp
   13ada:	00ff                	0xff
   13adc:	0000                	unimp
   13ade:	0000                	unimp
   13ae0:	0000                	unimp
   13ae2:	00ff                	0xff
   13ae4:	0000                	unimp
   13ae6:	0000                	unimp
   13ae8:	00ff                	0xff
   13aea:	ffff                	0xffff
   13aec:	0000                	unimp
   13aee:	0000                	unimp
   13af0:	ff00                	fsw	fs0,56(a4)
   13af2:	0000                	unimp
   13af4:	00ff                	0xff
   13af6:	0000                	unimp
   13af8:	ff00                	fsw	fs0,56(a4)
	...
   13b02:	ffff                	0xffff
   13b04:	0000                	unimp
   13b06:	0000                	unimp
   13b08:	ff00                	fsw	fs0,56(a4)
   13b0a:	ffff                	0xffff
   13b0c:	0000                	unimp
   13b0e:	0000                	unimp
   13b10:	0000                	unimp
   13b12:	ffff                	0xffff
   13b14:	0000                	unimp
   13b16:	0000                	unimp
   13b18:	0000                	unimp
   13b1a:	ffff                	0xffff
   13b1c:	00ff                	0xff
   13b1e:	0000                	unimp
   13b20:	0000                	unimp
   13b22:	ffff                	0xffff
   13b24:	0000                	unimp
   13b26:	0000                	unimp
   13b28:	ff00                	fsw	fs0,56(a4)
   13b2a:	ffff                	0xffff
   13b2c:	0000                	unimp
   13b2e:	0000                	unimp
   13b30:	0000                	unimp
   13b32:	ffff                	0xffff
   13b34:	00ff                	0xff
   13b36:	0000                	unimp
   13b38:	ff00                	fsw	fs0,56(a4)
   13b3a:	ffff                	0xffff
   13b3c:	0000                	unimp
   13b3e:	0000                	unimp
   13b40:	0000                	unimp
   13b42:	00ff                	0xff
   13b44:	0000                	unimp
   13b46:	0000                	unimp
   13b48:	0000                	unimp
   13b4a:	ff00                	fsw	fs0,56(a4)
   13b4c:	0000                	unimp
   13b4e:	0000                	unimp
   13b50:	ff00                	fsw	fs0,56(a4)
   13b52:	0000                	unimp
   13b54:	00ff                	0xff
   13b56:	0000                	unimp
   13b58:	0000                	unimp
   13b5a:	00ff                	0xff
   13b5c:	0000                	unimp
   13b5e:	0000                	unimp
   13b60:	ffff                	0xffff
   13b62:	ff00                	fsw	fs0,56(a4)
   13b64:	0000                	unimp
   13b66:	0000                	unimp
   13b68:	ff00                	fsw	fs0,56(a4)
   13b6a:	ffff                	0xffff
   13b6c:	0000                	unimp
   13b6e:	0000                	unimp
   13b70:	0000                	unimp
   13b72:	ffff                	0xffff
   13b74:	0000                	unimp
   13b76:	0000                	unimp
   13b78:	ff00                	fsw	fs0,56(a4)
   13b7a:	ffff                	0xffff
   13b7c:	0000                	unimp
   13b7e:	0000                	unimp
   13b80:	0000                	unimp
   13b82:	ffff                	0xffff
   13b84:	00ff                	0xff
   13b86:	0000                	unimp
   13b88:	ff00                	fsw	fs0,56(a4)
   13b8a:	ff00                	fsw	fs0,56(a4)
   13b8c:	00ff                	0xff
   13b8e:	0000                	unimp
   13b90:	0000                	unimp
   13b92:	ffff                	0xffff
   13b94:	00ff                	0xff
   13b96:	0000                	unimp
   13b98:	ff00                	fsw	fs0,56(a4)
   13b9a:	ffff                	0xffff
   13b9c:	0000                	unimp
   13b9e:	0000                	unimp
   13ba0:	ff00                	fsw	fs0,56(a4)
   13ba2:	0000                	unimp
   13ba4:	00ff                	0xff
   13ba6:	0000                	unimp
   13ba8:	00ff                	0xff
   13baa:	0000                	unimp
   13bac:	00ff                	0xff
   13bae:	0000                	unimp
   13bb0:	00ff                	0xff
   13bb2:	0000                	unimp
   13bb4:	00ff                	0xff
   13bb6:	0000                	unimp
   13bb8:	00ff                	0xff
   13bba:	0000                	unimp
   13bbc:	00ff                	0xff
   13bbe:	0000                	unimp
   13bc0:	00ff                	0xff
   13bc2:	0000                	unimp
   13bc4:	00ff                	0xff
   13bc6:	0000                	unimp
   13bc8:	ff00                	fsw	fs0,56(a4)
   13bca:	ffff                	0xffff
   13bcc:	00ff                	0xff
   13bce:	0000                	unimp
   13bd0:	0000                	unimp
   13bd2:	00ff                	0xff
   13bd4:	0000                	unimp
   13bd6:	0000                	unimp
   13bd8:	0000                	unimp
   13bda:	00ff                	0xff
   13bdc:	0000                	unimp
   13bde:	0000                	unimp
   13be0:	0000                	unimp
   13be2:	00ff                	0xff
	...
   13bf0:	00ff                	0xff
   13bf2:	ffff                	0xffff
   13bf4:	ff00                	fsw	fs0,56(a4)
   13bf6:	0000                	unimp
   13bf8:	ffff                	0xffff
   13bfa:	00ff                	0xff
	...
   13c04:	00ff                	0xff
   13c06:	0000                	unimp
   13c08:	ff00                	fsw	fs0,56(a4)
   13c0a:	0000                	unimp
   13c0c:	00ff                	0xff
   13c0e:	0000                	unimp
   13c10:	ff00                	fsw	fs0,56(a4)
   13c12:	0000                	unimp
   13c14:	00ff                	0xff
   13c16:	0000                	unimp
   13c18:	ff00                	fsw	fs0,56(a4)
   13c1a:	0000                	unimp
   13c1c:	00ff                	0xff
   13c1e:	0000                	unimp
   13c20:	ff00                	fsw	fs0,56(a4)
   13c22:	0000                	unimp
   13c24:	00ff                	0xff
   13c26:	0000                	unimp
   13c28:	0000                	unimp
   13c2a:	00ff                	0xff
   13c2c:	0000                	unimp
   13c2e:	0000                	unimp
   13c30:	ff00                	fsw	fs0,56(a4)
   13c32:	0000                	unimp
   13c34:	00ff                	0xff
   13c36:	0000                	unimp
   13c38:	ff00                	fsw	fs0,56(a4)
   13c3a:	0000                	unimp
   13c3c:	00ff                	0xff
   13c3e:	0000                	unimp
   13c40:	0000                	unimp
   13c42:	00ff                	0xff
   13c44:	0000                	unimp
   13c46:	0000                	unimp
   13c48:	0000                	unimp
   13c4a:	ff00                	fsw	fs0,56(a4)
   13c4c:	0000                	unimp
   13c4e:	0000                	unimp
   13c50:	ff00                	fsw	fs0,56(a4)
   13c52:	ff00                	fsw	fs0,56(a4)
   13c54:	0000                	unimp
   13c56:	0000                	unimp
   13c58:	0000                	unimp
   13c5a:	00ff                	0xff
   13c5c:	0000                	unimp
   13c5e:	0000                	unimp
   13c60:	00ff                	0xff
   13c62:	00ff                	0xff
   13c64:	00ff                	0xff
   13c66:	0000                	unimp
   13c68:	ff00                	fsw	fs0,56(a4)
   13c6a:	0000                	unimp
   13c6c:	00ff                	0xff
   13c6e:	0000                	unimp
   13c70:	ff00                	fsw	fs0,56(a4)
   13c72:	0000                	unimp
   13c74:	00ff                	0xff
   13c76:	0000                	unimp
   13c78:	ff00                	fsw	fs0,56(a4)
   13c7a:	0000                	unimp
   13c7c:	00ff                	0xff
   13c7e:	0000                	unimp
   13c80:	ff00                	fsw	fs0,56(a4)
   13c82:	0000                	unimp
   13c84:	00ff                	0xff
   13c86:	0000                	unimp
   13c88:	ff00                	fsw	fs0,56(a4)
   13c8a:	00ff                	0xff
   13c8c:	0000                	unimp
   13c8e:	0000                	unimp
   13c90:	ff00                	fsw	fs0,56(a4)
	...
   13c9a:	00ff                	0xff
   13c9c:	0000                	unimp
   13c9e:	0000                	unimp
   13ca0:	ff00                	fsw	fs0,56(a4)
   13ca2:	0000                	unimp
   13ca4:	00ff                	0xff
   13ca6:	0000                	unimp
   13ca8:	ff00                	fsw	fs0,56(a4)
   13caa:	ff00                	fsw	fs0,56(a4)
   13cac:	0000                	unimp
   13cae:	0000                	unimp
   13cb0:	00ff                	0xff
   13cb2:	0000                	unimp
   13cb4:	00ff                	0xff
   13cb6:	0000                	unimp
   13cb8:	ff00                	fsw	fs0,56(a4)
   13cba:	ff00                	fsw	fs0,56(a4)
   13cbc:	0000                	unimp
   13cbe:	0000                	unimp
   13cc0:	ff00                	fsw	fs0,56(a4)
   13cc2:	ff00                	fsw	fs0,56(a4)
   13cc4:	0000                	unimp
   13cc6:	0000                	unimp
   13cc8:	0000                	unimp
   13cca:	ff00                	fsw	fs0,56(a4)
   13ccc:	0000                	unimp
   13cce:	0000                	unimp
   13cd0:	ff00                	fsw	fs0,56(a4)
	...
   13ce2:	ff00                	fsw	fs0,56(a4)
	...
   13cf0:	ffff                	0xffff
   13cf2:	0000                	unimp
   13cf4:	ff00                	fsw	fs0,56(a4)
   13cf6:	0000                	unimp
   13cf8:	ff00                	fsw	fs0,56(a4)
	...
   13d02:	ffff                	0xffff
   13d04:	00ff                	0xff
   13d06:	0000                	unimp
   13d08:	ff00                	fsw	fs0,56(a4)
   13d0a:	0000                	unimp
   13d0c:	00ff                	0xff
   13d0e:	0000                	unimp
   13d10:	ff00                	fsw	fs0,56(a4)
   13d12:	0000                	unimp
   13d14:	0000                	unimp
   13d16:	0000                	unimp
   13d18:	ff00                	fsw	fs0,56(a4)
   13d1a:	0000                	unimp
   13d1c:	00ff                	0xff
   13d1e:	0000                	unimp
   13d20:	ff00                	fsw	fs0,56(a4)
   13d22:	ffff                	0xffff
   13d24:	00ff                	0xff
   13d26:	0000                	unimp
   13d28:	0000                	unimp
   13d2a:	00ff                	0xff
   13d2c:	0000                	unimp
   13d2e:	0000                	unimp
   13d30:	ff00                	fsw	fs0,56(a4)
   13d32:	0000                	unimp
   13d34:	00ff                	0xff
   13d36:	0000                	unimp
   13d38:	ff00                	fsw	fs0,56(a4)
   13d3a:	0000                	unimp
   13d3c:	00ff                	0xff
   13d3e:	0000                	unimp
   13d40:	0000                	unimp
   13d42:	00ff                	0xff
   13d44:	0000                	unimp
   13d46:	0000                	unimp
   13d48:	0000                	unimp
   13d4a:	ff00                	fsw	fs0,56(a4)
   13d4c:	0000                	unimp
   13d4e:	0000                	unimp
   13d50:	ff00                	fsw	fs0,56(a4)
   13d52:	00ff                	0xff
   13d54:	0000                	unimp
   13d56:	0000                	unimp
   13d58:	0000                	unimp
   13d5a:	00ff                	0xff
   13d5c:	0000                	unimp
   13d5e:	0000                	unimp
   13d60:	00ff                	0xff
   13d62:	00ff                	0xff
   13d64:	00ff                	0xff
   13d66:	0000                	unimp
   13d68:	ff00                	fsw	fs0,56(a4)
   13d6a:	0000                	unimp
   13d6c:	00ff                	0xff
   13d6e:	0000                	unimp
   13d70:	ff00                	fsw	fs0,56(a4)
   13d72:	0000                	unimp
   13d74:	00ff                	0xff
   13d76:	0000                	unimp
   13d78:	ff00                	fsw	fs0,56(a4)
   13d7a:	0000                	unimp
   13d7c:	00ff                	0xff
   13d7e:	0000                	unimp
   13d80:	ff00                	fsw	fs0,56(a4)
   13d82:	0000                	unimp
   13d84:	00ff                	0xff
   13d86:	0000                	unimp
   13d88:	ff00                	fsw	fs0,56(a4)
	...
   13d92:	ffff                	0xffff
   13d94:	0000                	unimp
   13d96:	0000                	unimp
   13d98:	0000                	unimp
   13d9a:	00ff                	0xff
   13d9c:	0000                	unimp
   13d9e:	0000                	unimp
   13da0:	ff00                	fsw	fs0,56(a4)
   13da2:	0000                	unimp
   13da4:	00ff                	0xff
   13da6:	0000                	unimp
   13da8:	ff00                	fsw	fs0,56(a4)
   13daa:	ff00                	fsw	fs0,56(a4)
   13dac:	0000                	unimp
   13dae:	0000                	unimp
   13db0:	00ff                	0xff
   13db2:	00ff                	0xff
   13db4:	00ff                	0xff
   13db6:	0000                	unimp
   13db8:	0000                	unimp
   13dba:	00ff                	0xff
   13dbc:	0000                	unimp
   13dbe:	0000                	unimp
   13dc0:	ff00                	fsw	fs0,56(a4)
   13dc2:	ff00                	fsw	fs0,56(a4)
   13dc4:	0000                	unimp
   13dc6:	0000                	unimp
   13dc8:	0000                	unimp
   13dca:	00ff                	0xff
   13dcc:	0000                	unimp
   13dce:	0000                	unimp
   13dd0:	0000                	unimp
   13dd2:	00ff                	0xff
	...
   13de0:	0000                	unimp
   13de2:	00ff                	0xff
	...
   13df0:	ffff                	0xffff
   13df2:	0000                	unimp
   13df4:	ff00                	fsw	fs0,56(a4)
   13df6:	0000                	unimp
   13df8:	ff00                	fsw	fs0,56(a4)
   13dfa:	0000                	unimp
   13dfc:	00ff                	0xff
   13dfe:	0000                	unimp
   13e00:	ff00                	fsw	fs0,56(a4)
   13e02:	0000                	unimp
   13e04:	00ff                	0xff
   13e06:	0000                	unimp
   13e08:	ff00                	fsw	fs0,56(a4)
   13e0a:	0000                	unimp
   13e0c:	00ff                	0xff
   13e0e:	0000                	unimp
   13e10:	ff00                	fsw	fs0,56(a4)
   13e12:	0000                	unimp
   13e14:	00ff                	0xff
   13e16:	0000                	unimp
   13e18:	ff00                	fsw	fs0,56(a4)
   13e1a:	0000                	unimp
   13e1c:	00ff                	0xff
   13e1e:	0000                	unimp
   13e20:	ff00                	fsw	fs0,56(a4)
	...
   13e2a:	00ff                	0xff
   13e2c:	0000                	unimp
   13e2e:	0000                	unimp
   13e30:	0000                	unimp
   13e32:	ffff                	0xffff
   13e34:	00ff                	0xff
   13e36:	0000                	unimp
   13e38:	ff00                	fsw	fs0,56(a4)
   13e3a:	0000                	unimp
   13e3c:	00ff                	0xff
   13e3e:	0000                	unimp
   13e40:	0000                	unimp
   13e42:	00ff                	0xff
   13e44:	0000                	unimp
   13e46:	0000                	unimp
   13e48:	0000                	unimp
   13e4a:	ff00                	fsw	fs0,56(a4)
   13e4c:	0000                	unimp
   13e4e:	0000                	unimp
   13e50:	ff00                	fsw	fs0,56(a4)
   13e52:	ff00                	fsw	fs0,56(a4)
   13e54:	0000                	unimp
   13e56:	0000                	unimp
   13e58:	0000                	unimp
   13e5a:	00ff                	0xff
   13e5c:	0000                	unimp
   13e5e:	0000                	unimp
   13e60:	00ff                	0xff
   13e62:	00ff                	0xff
   13e64:	00ff                	0xff
   13e66:	0000                	unimp
   13e68:	ff00                	fsw	fs0,56(a4)
   13e6a:	0000                	unimp
   13e6c:	00ff                	0xff
   13e6e:	0000                	unimp
   13e70:	ff00                	fsw	fs0,56(a4)
   13e72:	0000                	unimp
   13e74:	00ff                	0xff
   13e76:	0000                	unimp
   13e78:	ff00                	fsw	fs0,56(a4)
   13e7a:	ffff                	0xffff
   13e7c:	0000                	unimp
   13e7e:	0000                	unimp
   13e80:	0000                	unimp
   13e82:	ffff                	0xffff
   13e84:	00ff                	0xff
   13e86:	0000                	unimp
   13e88:	ff00                	fsw	fs0,56(a4)
	...
   13e92:	0000                	unimp
   13e94:	00ff                	0xff
   13e96:	0000                	unimp
   13e98:	0000                	unimp
   13e9a:	00ff                	0xff
   13e9c:	0000                	unimp
   13e9e:	0000                	unimp
   13ea0:	ff00                	fsw	fs0,56(a4)
   13ea2:	0000                	unimp
   13ea4:	00ff                	0xff
   13ea6:	0000                	unimp
   13ea8:	0000                	unimp
   13eaa:	00ff                	0xff
   13eac:	0000                	unimp
   13eae:	0000                	unimp
   13eb0:	ff00                	fsw	fs0,56(a4)
   13eb2:	ff00                	fsw	fs0,56(a4)
   13eb4:	0000                	unimp
   13eb6:	0000                	unimp
   13eb8:	ff00                	fsw	fs0,56(a4)
   13eba:	ff00                	fsw	fs0,56(a4)
   13ebc:	0000                	unimp
   13ebe:	0000                	unimp
   13ec0:	0000                	unimp
   13ec2:	00ff                	0xff
   13ec4:	0000                	unimp
   13ec6:	0000                	unimp
   13ec8:	ff00                	fsw	fs0,56(a4)
	...
   13ed2:	00ff                	0xff
   13ed4:	0000                	unimp
   13ed6:	0000                	unimp
   13ed8:	0000                	unimp
   13eda:	00ff                	0xff
   13edc:	0000                	unimp
   13ede:	0000                	unimp
   13ee0:	0000                	unimp
   13ee2:	00ff                	0xff
	...
   13ef0:	00ff                	0xff
   13ef2:	ffff                	0xffff
   13ef4:	ff00                	fsw	fs0,56(a4)
   13ef6:	0000                	unimp
   13ef8:	ffff                	0xffff
   13efa:	ffff                	0xffff
   13efc:	0000                	unimp
   13efe:	0000                	unimp
   13f00:	0000                	unimp
   13f02:	ffff                	0xffff
   13f04:	00ff                	0xff
   13f06:	0000                	unimp
   13f08:	ff00                	fsw	fs0,56(a4)
   13f0a:	ffff                	0xffff
   13f0c:	0000                	unimp
   13f0e:	0000                	unimp
   13f10:	0000                	unimp
   13f12:	ffff                	0xffff
   13f14:	0000                	unimp
   13f16:	0000                	unimp
   13f18:	0000                	unimp
   13f1a:	ffff                	0xffff
   13f1c:	00ff                	0xff
   13f1e:	0000                	unimp
   13f20:	0000                	unimp
   13f22:	ffff                	0xffff
   13f24:	0000                	unimp
   13f26:	0000                	unimp
   13f28:	0000                	unimp
   13f2a:	00ff                	0xff
	...
   13f34:	00ff                	0xff
   13f36:	0000                	unimp
   13f38:	ff00                	fsw	fs0,56(a4)
   13f3a:	0000                	unimp
   13f3c:	00ff                	0xff
   13f3e:	0000                	unimp
   13f40:	0000                	unimp
   13f42:	00ff                	0xff
   13f44:	0000                	unimp
   13f46:	0000                	unimp
   13f48:	0000                	unimp
   13f4a:	ff00                	fsw	fs0,56(a4)
   13f4c:	0000                	unimp
   13f4e:	0000                	unimp
   13f50:	ff00                	fsw	fs0,56(a4)
   13f52:	0000                	unimp
   13f54:	00ff                	0xff
   13f56:	0000                	unimp
   13f58:	0000                	unimp
   13f5a:	ff00                	fsw	fs0,56(a4)
   13f5c:	0000                	unimp
   13f5e:	0000                	unimp
   13f60:	00ff                	0xff
   13f62:	00ff                	0xff
   13f64:	00ff                	0xff
   13f66:	0000                	unimp
   13f68:	ff00                	fsw	fs0,56(a4)
   13f6a:	0000                	unimp
   13f6c:	00ff                	0xff
   13f6e:	0000                	unimp
   13f70:	0000                	unimp
   13f72:	ffff                	0xffff
   13f74:	0000                	unimp
   13f76:	0000                	unimp
   13f78:	ff00                	fsw	fs0,56(a4)
	...
   13f82:	0000                	unimp
   13f84:	00ff                	0xff
   13f86:	0000                	unimp
   13f88:	ff00                	fsw	fs0,56(a4)
   13f8a:	0000                	unimp
   13f8c:	0000                	unimp
   13f8e:	0000                	unimp
   13f90:	ff00                	fsw	fs0,56(a4)
   13f92:	ffff                	0xffff
   13f94:	0000                	unimp
   13f96:	0000                	unimp
   13f98:	0000                	unimp
   13f9a:	ff00                	fsw	fs0,56(a4)
   13f9c:	0000                	unimp
   13f9e:	0000                	unimp
   13fa0:	0000                	unimp
   13fa2:	ffff                	0xffff
   13fa4:	0000                	unimp
   13fa6:	0000                	unimp
   13fa8:	0000                	unimp
   13faa:	00ff                	0xff
   13fac:	0000                	unimp
   13fae:	0000                	unimp
   13fb0:	ff00                	fsw	fs0,56(a4)
   13fb2:	ff00                	fsw	fs0,56(a4)
   13fb4:	0000                	unimp
   13fb6:	0000                	unimp
   13fb8:	00ff                	0xff
   13fba:	0000                	unimp
   13fbc:	00ff                	0xff
   13fbe:	0000                	unimp
   13fc0:	0000                	unimp
   13fc2:	00ff                	0xff
   13fc4:	0000                	unimp
   13fc6:	0000                	unimp
   13fc8:	ff00                	fsw	fs0,56(a4)
   13fca:	ffff                	0xffff
   13fcc:	00ff                	0xff
   13fce:	0000                	unimp
   13fd0:	0000                	unimp
   13fd2:	00ff                	0xff
   13fd4:	0000                	unimp
   13fd6:	0000                	unimp
   13fd8:	0000                	unimp
   13fda:	00ff                	0xff
   13fdc:	0000                	unimp
   13fde:	0000                	unimp
   13fe0:	0000                	unimp
   13fe2:	00ff                	0xff
	...
   13ff0:	ff00                	fsw	fs0,56(a4)
   13ff2:	0000                	unimp
   13ff4:	00ff                	0xff
	...
   14032:	ffff                	0xffff
	...
   14048:	ff00                	fsw	fs0,56(a4)
   1404a:	00ff                	0xff
	...
   14078:	ff00                	fsw	fs0,56(a4)
	...
   14082:	0000                	unimp
   14084:	00ff                	0xff
	...
   140be:	0000                	unimp
   140c0:	ffff                	0xffff
	...
   140d2:	ff00                	fsw	fs0,56(a4)
   140d4:	0000                	unimp
   140d6:	0000                	unimp
   140d8:	0000                	unimp
   140da:	00ff                	0xff
   140dc:	0000                	unimp
   140de:	0000                	unimp
   140e0:	ff00                	fsw	fs0,56(a4)
	...
   140f2:	ffff                	0xffff
   140f4:	0000                	unimp
	...

000140f8 <__clz_tab>:
   140f8:	0100                	addi	s0,sp,128
   140fa:	0202                	c.slli64	tp
   140fc:	03030303          	lb	t1,48(t1) # ffff8030 <__global_pointer$+0xfffe22e8>
   14100:	0404                	addi	s1,sp,512
   14102:	0404                	addi	s1,sp,512
   14104:	0404                	addi	s1,sp,512
   14106:	0404                	addi	s1,sp,512
   14108:	0505                	addi	a0,a0,1
   1410a:	0505                	addi	a0,a0,1
   1410c:	0505                	addi	a0,a0,1
   1410e:	0505                	addi	a0,a0,1
   14110:	0505                	addi	a0,a0,1
   14112:	0505                	addi	a0,a0,1
   14114:	0505                	addi	a0,a0,1
   14116:	0505                	addi	a0,a0,1
   14118:	0606                	slli	a2,a2,0x1
   1411a:	0606                	slli	a2,a2,0x1
   1411c:	0606                	slli	a2,a2,0x1
   1411e:	0606                	slli	a2,a2,0x1
   14120:	0606                	slli	a2,a2,0x1
   14122:	0606                	slli	a2,a2,0x1
   14124:	0606                	slli	a2,a2,0x1
   14126:	0606                	slli	a2,a2,0x1
   14128:	0606                	slli	a2,a2,0x1
   1412a:	0606                	slli	a2,a2,0x1
   1412c:	0606                	slli	a2,a2,0x1
   1412e:	0606                	slli	a2,a2,0x1
   14130:	0606                	slli	a2,a2,0x1
   14132:	0606                	slli	a2,a2,0x1
   14134:	0606                	slli	a2,a2,0x1
   14136:	0606                	slli	a2,a2,0x1
   14138:	07070707          	0x7070707
   1413c:	07070707          	0x7070707
   14140:	07070707          	0x7070707
   14144:	07070707          	0x7070707
   14148:	07070707          	0x7070707
   1414c:	07070707          	0x7070707
   14150:	07070707          	0x7070707
   14154:	07070707          	0x7070707
   14158:	07070707          	0x7070707
   1415c:	07070707          	0x7070707
   14160:	07070707          	0x7070707
   14164:	07070707          	0x7070707
   14168:	07070707          	0x7070707
   1416c:	07070707          	0x7070707
   14170:	07070707          	0x7070707
   14174:	07070707          	0x7070707
   14178:	0808                	addi	a0,sp,16
   1417a:	0808                	addi	a0,sp,16
   1417c:	0808                	addi	a0,sp,16
   1417e:	0808                	addi	a0,sp,16
   14180:	0808                	addi	a0,sp,16
   14182:	0808                	addi	a0,sp,16
   14184:	0808                	addi	a0,sp,16
   14186:	0808                	addi	a0,sp,16
   14188:	0808                	addi	a0,sp,16
   1418a:	0808                	addi	a0,sp,16
   1418c:	0808                	addi	a0,sp,16
   1418e:	0808                	addi	a0,sp,16
   14190:	0808                	addi	a0,sp,16
   14192:	0808                	addi	a0,sp,16
   14194:	0808                	addi	a0,sp,16
   14196:	0808                	addi	a0,sp,16
   14198:	0808                	addi	a0,sp,16
   1419a:	0808                	addi	a0,sp,16
   1419c:	0808                	addi	a0,sp,16
   1419e:	0808                	addi	a0,sp,16
   141a0:	0808                	addi	a0,sp,16
   141a2:	0808                	addi	a0,sp,16
   141a4:	0808                	addi	a0,sp,16
   141a6:	0808                	addi	a0,sp,16
   141a8:	0808                	addi	a0,sp,16
   141aa:	0808                	addi	a0,sp,16
   141ac:	0808                	addi	a0,sp,16
   141ae:	0808                	addi	a0,sp,16
   141b0:	0808                	addi	a0,sp,16
   141b2:	0808                	addi	a0,sp,16
   141b4:	0808                	addi	a0,sp,16
   141b6:	0808                	addi	a0,sp,16
   141b8:	0808                	addi	a0,sp,16
   141ba:	0808                	addi	a0,sp,16
   141bc:	0808                	addi	a0,sp,16
   141be:	0808                	addi	a0,sp,16
   141c0:	0808                	addi	a0,sp,16
   141c2:	0808                	addi	a0,sp,16
   141c4:	0808                	addi	a0,sp,16
   141c6:	0808                	addi	a0,sp,16
   141c8:	0808                	addi	a0,sp,16
   141ca:	0808                	addi	a0,sp,16
   141cc:	0808                	addi	a0,sp,16
   141ce:	0808                	addi	a0,sp,16
   141d0:	0808                	addi	a0,sp,16
   141d2:	0808                	addi	a0,sp,16
   141d4:	0808                	addi	a0,sp,16
   141d6:	0808                	addi	a0,sp,16
   141d8:	0808                	addi	a0,sp,16
   141da:	0808                	addi	a0,sp,16
   141dc:	0808                	addi	a0,sp,16
   141de:	0808                	addi	a0,sp,16
   141e0:	0808                	addi	a0,sp,16
   141e2:	0808                	addi	a0,sp,16
   141e4:	0808                	addi	a0,sp,16
   141e6:	0808                	addi	a0,sp,16
   141e8:	0808                	addi	a0,sp,16
   141ea:	0808                	addi	a0,sp,16
   141ec:	0808                	addi	a0,sp,16
   141ee:	0808                	addi	a0,sp,16
   141f0:	0808                	addi	a0,sp,16
   141f2:	0808                	addi	a0,sp,16
   141f4:	0808                	addi	a0,sp,16
   141f6:	0808                	addi	a0,sp,16

Disassembly of section .eh_frame:

000151f8 <__EH_FRAME_BEGIN__>:
   151f8:	0010                	0x10
   151fa:	0000                	unimp
   151fc:	0000                	unimp
   151fe:	0000                	unimp
   15200:	00527a03          	0x527a03
   15204:	7c01                	lui	s8,0xfffe0
   15206:	0101                	addi	sp,sp,0
   15208:	00020d1b          	0x20d1b
   1520c:	0030                	addi	a2,sp,8
   1520e:	0000                	unimp
   15210:	0018                	0x18
   15212:	0000                	unimp
   15214:	ae60                	fsd	fs0,216(a2)
   15216:	ffff                	0xffff
   15218:	0580                	addi	s0,sp,704
   1521a:	0000                	unimp
   1521c:	4400                	lw	s0,8(s0)
   1521e:	c00e                	sw	gp,0(sp)
   15220:	01815407          	0x1815407
   15224:	0288                	addi	a0,sp,320
   15226:	0389                	addi	t2,t2,2
   15228:	0492                	slli	s1,s1,0x4
   1522a:	94680593          	addi	a1,a6,-1722
   1522e:	9506                	add	a0,a0,ra
   15230:	97089607          	0x97089607
   15234:	9809                	andi	s0,s0,-30
   15236:	9a0a                	add	s4,s4,sp
   15238:	9b0c                	0x9b0c
   1523a:	990d                	andi	a0,a0,-29
   1523c:	0000000b          	0xb
   15240:	0010                	0x10
   15242:	0000                	unimp
   15244:	004c                	addi	a1,sp,4
   15246:	0000                	unimp
   15248:	b498                	fsd	fa4,40(s1)
   1524a:	ffff                	0xffff
   1524c:	002c                	addi	a1,sp,8
   1524e:	0000                	unimp
   15250:	0000                	unimp
   15252:	0000                	unimp
   15254:	001c                	0x1c
   15256:	0000                	unimp
   15258:	0060                	addi	s0,sp,12
   1525a:	0000                	unimp
   1525c:	b4b0                	fsd	fa2,104(s1)
   1525e:	ffff                	0xffff
   15260:	013c                	addi	a5,sp,136
   15262:	0000                	unimp
   15264:	5c00                	lw	s0,56(s0)
   15266:	300e                	fld	ft0,224(sp)
   15268:	8168                	0x8168
   1526a:	0201                	addi	tp,tp,0
   1526c:	c1f0                	sw	a2,68(a1)
   1526e:	0e44                	addi	s1,sp,788
   15270:	0000                	unimp
   15272:	0000                	unimp
   15274:	0010                	0x10
   15276:	0000                	unimp
   15278:	0080                	addi	s0,sp,64
   1527a:	0000                	unimp
   1527c:	b5cc                	fsd	fa1,168(a1)
   1527e:	ffff                	0xffff
   15280:	0014                	0x14
   15282:	0000                	unimp
   15284:	0000                	unimp
   15286:	0000                	unimp
   15288:	0018                	0x18
   1528a:	0000                	unimp
   1528c:	0094                	addi	a3,sp,64
   1528e:	0000                	unimp
   15290:	b5cc                	fsd	fa1,168(a1)
   15292:	ffff                	0xffff
   15294:	0024                	addi	s1,sp,8
   15296:	0000                	unimp
   15298:	4800                	lw	s0,16(s0)
   1529a:	100e                	c.slli	zero,0x23
   1529c:	814c                	0x814c
   1529e:	4801                	li	a6,0
   152a0:	44c1                	li	s1,16
   152a2:	000e                	c.slli	zero,0x3
   152a4:	0010                	0x10
   152a6:	0000                	unimp
   152a8:	00b0                	addi	a2,sp,72
   152aa:	0000                	unimp
   152ac:	b5d4                	fsd	fa3,168(a1)
   152ae:	ffff                	0xffff
   152b0:	0044                	addi	s1,sp,4
   152b2:	0000                	unimp
   152b4:	0000                	unimp
   152b6:	0000                	unimp
   152b8:	0010                	0x10
   152ba:	0000                	unimp
   152bc:	00c4                	addi	s1,sp,68
   152be:	0000                	unimp
   152c0:	b604                	fsd	fs1,40(a2)
   152c2:	ffff                	0xffff
   152c4:	0018                	0x18
   152c6:	0000                	unimp
   152c8:	0000                	unimp
   152ca:	0000                	unimp
   152cc:	0010                	0x10
   152ce:	0000                	unimp
   152d0:	00d8                	addi	a4,sp,68
   152d2:	0000                	unimp
   152d4:	b608                	fsd	fa0,40(a2)
   152d6:	ffff                	0xffff
   152d8:	001c                	0x1c
   152da:	0000                	unimp
   152dc:	0000                	unimp
   152de:	0000                	unimp
   152e0:	0010                	0x10
   152e2:	0000                	unimp
   152e4:	00ec                	addi	a1,sp,76
   152e6:	0000                	unimp
   152e8:	b610                	fsd	fa2,40(a2)
   152ea:	ffff                	0xffff
   152ec:	003c                	addi	a5,sp,8
   152ee:	0000                	unimp
   152f0:	0000                	unimp
   152f2:	0000                	unimp
   152f4:	001c                	0x1c
   152f6:	0000                	unimp
   152f8:	0100                	addi	s0,sp,128
   152fa:	0000                	unimp
   152fc:	b638                	fsd	fa4,104(a2)
   152fe:	ffff                	0xffff
   15300:	0070                	addi	a2,sp,12
   15302:	0000                	unimp
   15304:	4400                	lw	s0,8(s0)
   15306:	100e                	c.slli	zero,0x23
   15308:	8144                	0x8144
   1530a:	0201                	addi	tp,tp,0
   1530c:	c160                	sw	s0,68(a0)
   1530e:	0e44                	addi	s1,sp,788
   15310:	0000                	unimp
   15312:	0000                	unimp
   15314:	0010                	0x10
   15316:	0000                	unimp
   15318:	0120                	addi	s0,sp,136
   1531a:	0000                	unimp
   1531c:	b688                	fsd	fa0,40(a3)
   1531e:	ffff                	0xffff
   15320:	0014                	0x14
   15322:	0000                	unimp
   15324:	0000                	unimp
   15326:	0000                	unimp
   15328:	0010                	0x10
   1532a:	0000                	unimp
   1532c:	0134                	addi	a3,sp,136
   1532e:	0000                	unimp
   15330:	b688                	fsd	fa0,40(a3)
   15332:	ffff                	0xffff
   15334:	0048                	addi	a0,sp,4
   15336:	0000                	unimp
   15338:	0000                	unimp
   1533a:	0000                	unimp
   1533c:	004c                	addi	a1,sp,4
   1533e:	0000                	unimp
   15340:	0148                	addi	a0,sp,132
   15342:	0000                	unimp
   15344:	b6bc                	fsd	fa5,104(a3)
   15346:	ffff                	0xffff
   15348:	00fc                	addi	a5,sp,76
   1534a:	0000                	unimp
   1534c:	4c00                	lw	s0,24(s0)
   1534e:	300e                	fld	ft0,224(sp)
   15350:	8864                	0x8864
   15352:	8902                	jr	s2
   15354:	93049203          	lh	tp,-1744(s1)
   15358:	9405                	srai	s0,s0,0x21
   1535a:	9506                	add	a0,a0,ra
   1535c:	97089607          	0x97089607
   15360:	8109                	srli	a0,a0,0x2
   15362:	0201                	addi	tp,tp,0
   15364:	0a6c                	addi	a1,sp,284
   15366:	44c1                	li	s1,16
   15368:	44c8                	lw	a0,12(s1)
   1536a:	44c9                	li	s1,18
   1536c:	44d2                	lw	s1,20(sp)
   1536e:	44d444d3          	0x44d444d3
   15372:	44d5                	li	s1,21
   15374:	44d6                	lw	s1,84(sp)
   15376:	000e44d7          	0xe44d7
   1537a:	0b44                	addi	s1,sp,404
   1537c:	3402                	fld	fs0,32(sp)
   1537e:	000e                	c.slli	zero,0x3
   15380:	c8c1                	beqz	s1,15410 <__EH_FRAME_BEGIN__+0x218>
   15382:	d2c9                	beqz	a3,15304 <__EH_FRAME_BEGIN__+0x10c>
   15384:	d6d5d4d3          	0xd6d5d4d3
   15388:	000000d7          	0xd7
   1538c:	0020                	addi	s0,sp,8
   1538e:	0000                	unimp
   15390:	0198                	addi	a4,sp,192
   15392:	0000                	unimp
   15394:	b768                	fsd	fa0,232(a4)
   15396:	ffff                	0xffff
   15398:	03c4                	addi	s1,sp,452
   1539a:	0000                	unimp
   1539c:	7800                	flw	fs0,48(s0)
   1539e:	300e                	fld	ft0,224(sp)
   153a0:	814c                	0x814c
   153a2:	0301                	addi	t1,t1,0
   153a4:	018c                	addi	a1,sp,192
   153a6:	c10a                	sw	sp,128(sp)
   153a8:	0e44                	addi	s1,sp,788
   153aa:	4400                	lw	s0,8(s0)
   153ac:	0000000b          	0xb
   153b0:	001c                	0x1c
   153b2:	0000                	unimp
   153b4:	01bc                	addi	a5,sp,200
   153b6:	0000                	unimp
   153b8:	bb08                	fsd	fa0,48(a4)
   153ba:	ffff                	0xffff
   153bc:	0180                	addi	s0,sp,192
   153be:	0000                	unimp
   153c0:	7800                	flw	fs0,48(s0)
   153c2:	300e                	fld	ft0,224(sp)
   153c4:	8174                	0x8174
   153c6:	0301                	addi	t1,t1,0
   153c8:	010c                	addi	a1,sp,128
   153ca:	44c1                	li	s1,16
   153cc:	000e                	c.slli	zero,0x3
   153ce:	0000                	unimp
   153d0:	001c                	0x1c
   153d2:	0000                	unimp
   153d4:	01dc                	addi	a5,sp,196
   153d6:	0000                	unimp
   153d8:	bc68                	fsd	fa0,248(s0)
   153da:	ffff                	0xffff
   153dc:	0098                	addi	a4,sp,64
   153de:	0000                	unimp
   153e0:	7000                	flw	fs0,32(s0)
   153e2:	300e                	fld	ft0,224(sp)
   153e4:	8158                	0x8158
   153e6:	0201                	addi	tp,tp,0
   153e8:	c148                	sw	a0,4(a0)
   153ea:	0e44                	addi	s1,sp,788
   153ec:	0000                	unimp
   153ee:	0000                	unimp
   153f0:	0028                	addi	a0,sp,8
   153f2:	0000                	unimp
   153f4:	01fc                	addi	a5,sp,204
   153f6:	0000                	unimp
   153f8:	bce0                	fsd	fs0,248(s1)
   153fa:	ffff                	0xffff
   153fc:	005c                	addi	a5,sp,4
   153fe:	0000                	unimp
   15400:	4400                	lw	s0,8(s0)
   15402:	100e                	c.slli	zero,0x23
   15404:	8850                	0x8850
   15406:	8902                	jr	s2
   15408:	81049203          	lh	tp,-2032(s1)
   1540c:	0201                	addi	tp,tp,0
   1540e:	c134                	sw	a3,64(a0)
   15410:	c844                	sw	s1,20(s0)
   15412:	c944                	sw	s1,20(a0)
   15414:	d244                	sw	s1,36(a2)
   15416:	0e44                	addi	s1,sp,788
   15418:	0000                	unimp
   1541a:	0000                	unimp
   1541c:	0010                	0x10
   1541e:	0000                	unimp
   15420:	0228                	addi	a0,sp,264
   15422:	0000                	unimp
   15424:	bd10                	fsd	fa2,56(a0)
   15426:	ffff                	0xffff
   15428:	00e4                	addi	s1,sp,76
   1542a:	0000                	unimp
   1542c:	0000                	unimp
   1542e:	0000                	unimp
   15430:	0010                	0x10
   15432:	0000                	unimp
   15434:	023c                	addi	a5,sp,264
   15436:	0000                	unimp
   15438:	bde0                	fsd	fs0,248(a1)
   1543a:	ffff                	0xffff
   1543c:	004c                	addi	a1,sp,4
   1543e:	0000                	unimp
   15440:	0000                	unimp
   15442:	0000                	unimp
   15444:	0018                	0x18
   15446:	0000                	unimp
   15448:	0250                	addi	a2,sp,260
   1544a:	0000                	unimp
   1544c:	be18                	fsd	fa4,56(a2)
   1544e:	ffff                	0xffff
   15450:	0034                	addi	a3,sp,8
   15452:	0000                	unimp
   15454:	5400                	lw	s0,40(s0)
   15456:	100e                	c.slli	zero,0x23
   15458:	8150                	0x8150
   1545a:	4801                	li	a6,0
   1545c:	44c1                	li	s1,16
   1545e:	000e                	c.slli	zero,0x3
   15460:	001c                	0x1c
   15462:	0000                	unimp
   15464:	026c                	addi	a1,sp,268
   15466:	0000                	unimp
   15468:	be30                	fsd	fa2,120(a2)
   1546a:	ffff                	0xffff
   1546c:	0344                	addi	s1,sp,388
   1546e:	0000                	unimp
   15470:	0200                	addi	s0,sp,256
   15472:	0e64                	addi	s1,sp,796
   15474:	4410                	lw	a2,8(s0)
   15476:	0188                	addi	a0,sp,192
   15478:	c802c003          	lbu	zero,-896(t0) # 121b0 <__udivdi3+0x364>
   1547c:	0e44                	addi	s1,sp,788
   1547e:	0000                	unimp
   15480:	0040                	addi	s0,sp,4
   15482:	0000                	unimp
   15484:	028c                	addi	a1,sp,320
   15486:	0000                	unimp
   15488:	c154                	sw	a3,4(a0)
   1548a:	ffff                	0xffff
   1548c:	039c                	addi	a5,sp,448
   1548e:	0000                	unimp
   15490:	0200                	addi	s0,sp,256
   15492:	0e7c                	addi	a5,sp,796
   15494:	5c20                	lw	s0,120(s0)
   15496:	0188                	addi	a0,sp,192
   15498:	0289                	addi	t0,t0,2
   1549a:	0392                	slli	t2,t2,0x4
   1549c:	05940493          	addi	s1,s0,89 # 19059 <__global_pointer$+0x3311>
   154a0:	0695                	addi	a3,a3,5
   154a2:	0796                	slli	a5,a5,0x5
   154a4:	0a02bc03          	0xa02bc03
   154a8:	44c8                	lw	a0,12(s1)
   154aa:	44c9                	li	s1,18
   154ac:	44d2                	lw	s1,20(sp)
   154ae:	44d444d3          	0x44d444d3
   154b2:	44d5                	li	s1,21
   154b4:	44d6                	lw	s1,84(sp)
   154b6:	000e                	c.slli	zero,0x3
   154b8:	0b44                	addi	s1,sp,404
   154ba:	0e64                	addi	s1,sp,796
   154bc:	c800                	sw	s0,16(s0)
   154be:	d2c9                	beqz	a3,15440 <__EH_FRAME_BEGIN__+0x248>
   154c0:	d6d5d4d3          	0xd6d5d4d3
   154c4:	001c                	0x1c
   154c6:	0000                	unimp
   154c8:	02d0                	addi	a2,sp,324
   154ca:	0000                	unimp
   154cc:	c4ac                	sw	a1,72(s1)
   154ce:	ffff                	0xffff
   154d0:	00f8                	addi	a4,sp,76
   154d2:	0000                	unimp
   154d4:	5c00                	lw	s0,56(s0)
   154d6:	300e                	fld	ft0,224(sp)
   154d8:	4402                	lw	s0,0(sp)
   154da:	0181                	addi	gp,gp,0
   154dc:	9002                	ebreak
   154de:	44c1                	li	s1,16
   154e0:	000e                	c.slli	zero,0x3
   154e2:	0000                	unimp
   154e4:	0024                	addi	s1,sp,8
   154e6:	0000                	unimp
   154e8:	02f0                	addi	a2,sp,332
   154ea:	0000                	unimp
   154ec:	c584                	sw	s1,8(a1)
   154ee:	ffff                	0xffff
   154f0:	03dc                	addi	a5,sp,452
   154f2:	0000                	unimp
   154f4:	7800                	flw	fs0,48(s0)
   154f6:	300e                	fld	ft0,224(sp)
   154f8:	8150                	0x8150
   154fa:	8801                	andi	s0,s0,0
   154fc:	0302                	c.slli64	t1
   154fe:	0198                	addi	a4,sp,192
   15500:	c10a                	sw	sp,128(sp)
   15502:	c848                	sw	a0,20(s0)
   15504:	0e44                	addi	s1,sp,788
   15506:	4400                	lw	s0,8(s0)
   15508:	0000000b          	0xb
   1550c:	0010                	0x10
   1550e:	0000                	unimp
   15510:	0318                	addi	a4,sp,384
   15512:	0000                	unimp
   15514:	b0e0                	fsd	fs0,224(s1)
   15516:	ffff                	0xffff
   15518:	001c                	0x1c
   1551a:	0000                	unimp
   1551c:	0000                	unimp
   1551e:	0000                	unimp
   15520:	0010                	0x10
   15522:	0000                	unimp
   15524:	032c                	addi	a1,sp,392
   15526:	0000                	unimp
   15528:	c924                	sw	s1,80(a0)
   1552a:	ffff                	0xffff
   1552c:	0434                	addi	a3,sp,520
   1552e:	0000                	unimp
   15530:	0000                	unimp
	...

00015534 <__FRAME_END__>:
   15534:	0000                	unimp
	...

Disassembly of section .init_array:

00015538 <__init_array_start>:
   15538:	0610                	addi	a2,sp,768
   1553a:	0001                	nop

0001553c <__frame_dummy_init_array_entry>:
   1553c:	06c0                	addi	s0,sp,836
   1553e:	0001                	nop
   15540:	05f4                	addi	a3,sp,716
   15542:	0001                	nop

Disassembly of section .fini_array:

00015544 <__do_global_dtors_aux_fini_array_entry>:
   15544:	0674                	addi	a3,sp,780
   15546:	0001                	nop

Disassembly of section .data:

00015548 <branchaddress>:
   15548:	0000                	unimp
   1554a:	0001                	nop

0001554c <IO_UARTRX>:
   1554c:	0008                	0x8
   1554e:	8000                	0x8000

00015550 <IO_UARTRXByteCount>:
   15550:	0004                	0x4
   15552:	8000                	0x8000

00015554 <IO_UARTTX>:
   15554:	000c                	0xc
   15556:	8000                	0x8000

00015558 <GraphicsFontStart>:
   15558:	e800                	fsw	fs0,16(s0)
   1555a:	1001                	c.nop	-32

0001555c <IO_GPUCommandFIFO>:
   1555c:	0000                	unimp
   1555e:	8000                	0x8000

00015560 <impure_data>:
   15560:	0000                	unimp
   15562:	0000                	unimp
   15564:	584c                	lw	a1,52(s0)
   15566:	0001                	nop
   15568:	58b4                	lw	a3,112(s1)
   1556a:	0001                	nop
   1556c:	591c                	lw	a5,48(a0)
   1556e:	0001                	nop
	...
   15608:	0001                	nop
   1560a:	0000                	unimp
   1560c:	0000                	unimp
   1560e:	0000                	unimp
   15610:	330e                	fld	ft6,224(sp)
   15612:	abcd                	j	15c04 <_ZL11consoleText+0x230>
   15614:	1234                	addi	a3,sp,296
   15616:	e66d                	bnez	a2,15700 <impure_data+0x1a0>
   15618:	deec                	sw	a1,124(a3)
   1561a:	0005                	c.nop	1
   1561c:	0000000b          	0xb
	...

Disassembly of section .got:

00015988 <.got>:
   15988:	ffff                	0xffff
   1598a:	ffff                	0xffff
   1598c:	0000                	unimp
	...

00015990 <_GLOBAL_OFFSET_TABLE_>:
   15990:	0000                	unimp
   15992:	0000                	unimp
   15994:	555c                	lw	a5,44(a0)
   15996:	0001                	nop
   15998:	5558                	lw	a4,44(a0)
   1599a:	0001                	nop
   1599c:	554c                	lw	a1,44(a0)
   1599e:	0001                	nop
   159a0:	5cdc                	lw	a5,60(s1)
   159a2:	0001                	nop
   159a4:	5554                	lw	a3,44(a0)
   159a6:	0001                	nop
   159a8:	5550                	lw	a2,44(a0)
   159aa:	0001                	nop
   159ac:	5548                	lw	a0,44(a0)
   159ae:	0001                	nop

Disassembly of section .sdata:

000159b0 <_global_impure_ptr>:
   159b0:	5560                	lw	s0,108(a0)
   159b2:	0001                	nop

000159b4 <_impure_ptr>:
   159b4:	5560                	lw	s0,108(a0)
   159b6:	0001                	nop

Disassembly of section .bss:

000159b8 <completed.1>:
   159b8:	0000                	unimp
	...

000159bc <object.0>:
	...

000159d4 <_ZL11consoleText>:
	...

00015cd4 <_ZL7cursorx>:
   15cd4:	0000                	unimp
	...

00015cd8 <_ZL7cursory>:
   15cd8:	0000                	unimp
	...

00015cdc <font>:
   15cdc:	0000                	unimp
	...

Disassembly of section .comment:

00000000 <.comment>:
   0:	3a434347          	fmsub.d	ft6,ft6,ft4,ft7,rmm
   4:	2820                	fld	fs0,80(s0)
   6:	29554e47          	fmsub.s	ft8,fa0,fs5,ft5,rmm
   a:	3120                	fld	fs0,96(a0)
   c:	2e30                	fld	fa2,88(a2)
   e:	2e32                	fld	ft8,264(sp)
  10:	0030                	addi	a2,sp,8

Disassembly of section .riscv.attributes:

00000000 <.riscv.attributes>:
   0:	2941                	jal	490 <main-0xfbe4>
   2:	0000                	unimp
   4:	7200                	flw	fs0,32(a2)
   6:	7369                	lui	t1,0xffffa
   8:	01007663          	bgeu	zero,a6,14 <main-0x10060>
   c:	001f 0000 1004      	0x10040000001f
  12:	7205                	lui	tp,0xfffe1
  14:	3376                	fld	ft6,376(sp)
  16:	6932                	flw	fs2,12(sp)
  18:	7032                	flw	ft0,44(sp)
  1a:	5f30                	lw	a2,120(a4)
  1c:	326d                	jal	fffff9c6 <__global_pointer$+0xfffe9c7e>
  1e:	3070                	fld	fa2,224(s0)
  20:	665f 7032 0030      	0x307032665f
  26:	0108                	addi	a0,sp,128
  28:	0b0a                	slli	s6,s6,0x2

Disassembly of section .debug_aranges:

00000000 <.debug_aranges>:
   0:	001c                	0x1c
   2:	0000                	unimp
   4:	0002                	c.slli64	zero
   6:	0000                	unimp
   8:	0000                	unimp
   a:	0004                	0x4
   c:	0000                	unimp
   e:	0000                	unimp
  10:	1e4c                	addi	a1,sp,820
  12:	0001                	nop
  14:	0434                	addi	a3,sp,520
	...
  1e:	0000                	unimp
  20:	0014                	0x14
  22:	0000                	unimp
  24:	0002                	c.slli64	zero
  26:	07b2                	slli	a5,a5,0xc
  28:	0000                	unimp
  2a:	0004                	0x4
	...

Disassembly of section .debug_info:

00000000 <.debug_info>:
   0:	07ae                	slli	a5,a5,0xb
   2:	0000                	unimp
   4:	0004                	0x4
   6:	0000                	unimp
   8:	0000                	unimp
   a:	0104                	addi	s1,sp,128
   c:	0000008f          	0x8f
  10:	200c                	fld	fa1,0(s0)
  12:	0000                	unimp
  14:	0000                	unimp
  16:	0002                	c.slli64	zero
  18:	4c00                	lw	s0,24(s0)
  1a:	011e                	slli	sp,sp,0x7
  1c:	3400                	fld	fs0,40(s0)
  1e:	0004                	0x4
  20:	0000                	unimp
  22:	0000                	unimp
  24:	0200                	addi	s0,sp,256
  26:	0708                	addi	a0,sp,896
  28:	0078                	addi	a4,sp,12
  2a:	0000                	unimp
  2c:	0402                	c.slli64	s0
  2e:	00008207          	0x8207
  32:	0300                	addi	s0,sp,384
  34:	0504                	addi	s1,sp,640
  36:	6e69                	lui	t3,0x1a
  38:	0074                	addi	a3,sp,12
  3a:	0802                	c.slli64	a6
  3c:	6a05                	lui	s4,0x1
  3e:	0000                	unimp
  40:	0200                	addi	s0,sp,256
  42:	0410                	addi	a2,sp,512
  44:	01f4                	addi	a3,sp,204
  46:	0000                	unimp
  48:	0102                	c.slli64	sp
  4a:	7506                	flw	fa0,96(sp)
  4c:	0001                	nop
  4e:	0200                	addi	s0,sp,256
  50:	0801                	addi	a6,a6,0
  52:	00000173          	0x173
  56:	0202                	c.slli64	tp
  58:	5605                	li	a2,-31
  5a:	0000                	unimp
  5c:	0200                	addi	s0,sp,256
  5e:	0702                	c.slli64	a4
  60:	01a6                	slli	gp,gp,0x9
  62:	0000                	unimp
  64:	0402                	c.slli64	s0
  66:	6f05                	lui	t5,0x1
  68:	0000                	unimp
  6a:	0200                	addi	s0,sp,256
  6c:	0704                	addi	s1,sp,896
  6e:	007d                	c.nop	31
  70:	0000                	unimp
  72:	0102                	c.slli64	sp
  74:	7c08                	flw	fa0,56(s0)
  76:	0001                	nop
  78:	0400                	addi	s0,sp,512
  7a:	0195                	addi	gp,gp,5
  7c:	0000                	unimp
  7e:	7b02                	flw	fs6,32(sp)
  80:	4f16                	lw	t5,68(sp)
  82:	0000                	unimp
  84:	0500                	addi	s0,sp,640
  86:	0079                	c.nop	30
  88:	0000                	unimp
  8a:	7204                	flw	fs1,32(a2)
  8c:	0002                	c.slli64	zero
  8e:	0200                	addi	s0,sp,256
  90:	0f80                	addi	s0,sp,976
  92:	00000033          	add	zero,zero,zero
  96:	7104                	flw	fs1,32(a0)
  98:	0002                	c.slli64	zero
  9a:	0200                	addi	s0,sp,256
  9c:	1681                	addi	a3,a3,-32
  9e:	002c                	addi	a1,sp,8
  a0:	0000                	unimp
  a2:	ba04                	fsd	fs1,48(a2)
  a4:	0001                	nop
  a6:	0200                	addi	s0,sp,256
  a8:	0f84                	addi	s1,sp,976
  aa:	003a                	c.slli	zero,0xe
  ac:	0000                	unimp
  ae:	b904                	fsd	fs1,48(a0)
  b0:	0001                	nop
  b2:	0200                	addi	s0,sp,256
  b4:	1685                	addi	a3,a3,-31
  b6:	0025                	c.nop	9
  b8:	0000                	unimp
  ba:	0402                	c.slli64	s0
  bc:	1a04                	addi	s1,sp,304
  be:	0000                	unimp
  c0:	0200                	addi	s0,sp,256
  c2:	0308                	addi	a0,sp,384
  c4:	0012                	c.slli	zero,0x4
  c6:	0000                	unimp
  c8:	0802                	c.slli64	a6
  ca:	f904                	fsw	fs1,48(a0)
  cc:	0001                	nop
  ce:	0200                	addi	s0,sp,256
  d0:	0310                	addi	a2,sp,384
  d2:	000001cb          	fnmsub.s	ft3,ft0,ft0,ft0,rne
  d6:	2002                	fld	ft0,0(sp)
  d8:	0001ec03          	0x1ec03
  dc:	0600                	addi	s0,sp,768
  de:	019d                	addi	gp,gp,7
  e0:	0000                	unimp
  e2:	0208                	addi	a0,sp,256
  e4:	01ed                	addi	gp,gp,27
  e6:	080a                	slli	a6,a6,0x2
  e8:	0001                	nop
  ea:	0700                	addi	s0,sp,896
  ec:	6f6c                	flw	fa1,92(a4)
  ee:	ed020077          	0xed020077
  f2:	1a01                	addi	s4,s4,-32
  f4:	008a                	slli	ra,ra,0x2
  f6:	0000                	unimp
  f8:	0800                	addi	s0,sp,16
  fa:	0164                	addi	s1,sp,140
  fc:	0000                	unimp
  fe:	ed02                	fsw	ft0,152(sp)
 100:	1f01                	addi	t5,t5,-32
 102:	008a                	slli	ra,ra,0x2
 104:	0000                	unimp
 106:	0004                	0x4
 108:	0809                	addi	a6,a6,2
 10a:	f402                	fsw	ft0,40(sp)
 10c:	0901                	addi	s2,s2,0
 10e:	012a                	slli	sp,sp,0xa
 110:	0000                	unimp
 112:	730a                	flw	ft6,160(sp)
 114:	0200                	addi	s0,sp,256
 116:	01f6                	slli	gp,gp,0x1d
 118:	0000dd13          	srli	s10,ra,0x0
 11c:	0a00                	addi	s0,sp,272
 11e:	6c6c                	flw	fa1,92(s0)
 120:	0200                	addi	s0,sp,256
 122:	a20a01f7          	0xa20a01f7
 126:	0000                	unimp
 128:	0000                	unimp
 12a:	0000000b          	0xb
 12e:	0200                	addi	s0,sp,256
 130:	01f8                	addi	a4,sp,204
 132:	00010803          	lb	a6,0(sp)
 136:	0500                	addi	s0,sp,640
 138:	012a                	slli	sp,sp,0xa
 13a:	0000                	unimp
 13c:	850c                	0x850c
 13e:	0000                	unimp
 140:	4c00                	lw	s0,24(s0)
 142:	0001                	nop
 144:	0d00                	addi	s0,sp,656
 146:	002c                	addi	a1,sp,8
 148:	0000                	unimp
 14a:	00ff                	0xff
 14c:	3c05                	jal	fffffb7c <__global_pointer$+0xfffe9e34>
 14e:	0001                	nop
 150:	0e00                	addi	s0,sp,784
 152:	0169                	addi	sp,sp,26
 154:	0000                	unimp
 156:	0202                	c.slli64	tp
 158:	1602                	slli	a2,a2,0x20
 15a:	014c                	addi	a1,sp,132
 15c:	0000                	unimp
 15e:	0000080f          	0x80f
 162:	0100                	addi	s0,sp,128
 164:	0526                	slli	a0,a0,0x9
 166:	ae01                	j	476 <main-0xfbfe>
 168:	0000                	unimp
 16a:	4c00                	lw	s0,24(s0)
 16c:	011e                	slli	sp,sp,0x7
 16e:	3400                	fld	fs0,40(s0)
 170:	0004                	0x4
 172:	0100                	addi	s0,sp,128
 174:	3a9c                	fld	fa5,48(a3)
 176:	0004                	0x4
 178:	1000                	addi	s0,sp,32
 17a:	006e                	c.slli	zero,0x1b
 17c:	2601                	jal	47c <main-0xfbf8>
 17e:	1405                	addi	s0,s0,-31
 180:	00ae                	slli	ra,ra,0xb
 182:	0000                	unimp
 184:	0000                	unimp
 186:	0000                	unimp
 188:	6410                	flw	fa2,8(s0)
 18a:	0100                	addi	s0,sp,128
 18c:	0526                	slli	a0,a0,0x9
 18e:	ae1f 0000 2800      	0x28000000ae1f
 194:	0000                	unimp
 196:	1100                	addi	s0,sp,160
 198:	043a                	slli	s0,s0,0xe
 19a:	0000                	unimp
 19c:	1e50                	addi	a2,sp,820
 19e:	0001                	nop
 1a0:	0000                	unimp
 1a2:	0000                	unimp
 1a4:	2801                	jal	1b4 <main-0xfec0>
 1a6:	0a05                	addi	s4,s4,1
 1a8:	6212                	flw	ft4,4(sp)
 1aa:	0004                	0x4
 1ac:	c000                	sw	s0,0(s0)
 1ae:	0000                	unimp
 1b0:	1200                	addi	s0,sp,288
 1b2:	00000457          	0x457
 1b6:	00e0                	addi	s0,sp,76
 1b8:	0000                	unimp
 1ba:	4c12                	lw	s8,4(sp)
 1bc:	0004                	0x4
 1be:	9800                	0x9800
 1c0:	0001                	nop
 1c2:	1300                	addi	s0,sp,416
 1c4:	0000                	unimp
 1c6:	0000                	unimp
 1c8:	6e14                	flw	fa3,24(a2)
 1ca:	0004                	0x4
 1cc:	1400                	addi	s0,sp,544
 1ce:	047a                	slli	s0,s0,0x1e
 1d0:	0000                	unimp
 1d2:	8614                	0x8614
 1d4:	0004                	0x4
 1d6:	1500                	addi	s0,sp,672
 1d8:	0492                	slli	s1,s1,0x4
 1da:	0000                	unimp
 1dc:	0260                	addi	s0,sp,268
 1de:	0000                	unimp
 1e0:	9e15                	0x9e15
 1e2:	0004                	0x4
 1e4:	0600                	addi	s0,sp,768
 1e6:	15000003          	lb	zero,336(zero) # 150 <main-0xff24>
 1ea:	04aa                	slli	s1,s1,0xa
 1ec:	0000                	unimp
 1ee:	0392                	slli	t2,t2,0x4
 1f0:	0000                	unimp
 1f2:	b615                	j	fffffd16 <__global_pointer$+0xfffe9fce>
 1f4:	0004                	0x4
 1f6:	0200                	addi	s0,sp,256
 1f8:	0004                	0x4
 1fa:	1500                	addi	s0,sp,672
 1fc:	04c2                	slli	s1,s1,0x10
 1fe:	0000                	unimp
 200:	04ba                	slli	s1,s1,0xe
 202:	0000                	unimp
 204:	ce15                	beqz	a2,240 <main-0xfe34>
 206:	0004                	0x4
 208:	d800                	sw	s0,48(s0)
 20a:	0004                	0x4
 20c:	1500                	addi	s0,sp,672
 20e:	04da                	slli	s1,s1,0x16
 210:	0000                	unimp
 212:	04f6                	slli	s1,s1,0x1d
 214:	0000                	unimp
 216:	e615                	bnez	a2,242 <main-0xfe32>
 218:	0004                	0x4
 21a:	2000                	fld	fs0,0(s0)
 21c:	0005                	c.nop	1
 21e:	1500                	addi	s0,sp,672
 220:	04f1                	addi	s1,s1,28
 222:	0000                	unimp
 224:	053e                	slli	a0,a0,0xf
 226:	0000                	unimp
 228:	fd14                	fsw	fa3,56(a0)
 22a:	0004                	0x4
 22c:	1600                	addi	s0,sp,800
 22e:	0509                	addi	a0,a0,2
 230:	0000                	unimp
 232:	0028                	addi	a0,sp,8
 234:	0000                	unimp
 236:	024d                	addi	tp,tp,19
 238:	0000                	unimp
 23a:	0e15                	addi	t3,t3,5
 23c:	0005                	c.nop	1
 23e:	7d00                	flw	fs0,56(a0)
 240:	0005                	c.nop	1
 242:	1500                	addi	s0,sp,672
 244:	0000051b          	0x51b
 248:	05b9                	addi	a1,a1,14
 24a:	0000                	unimp
 24c:	1700                	addi	s0,sp,928
 24e:	0529                	addi	a0,a0,10
 250:	0000                	unimp
 252:	1eb4                	addi	a3,sp,888
 254:	0001                	nop
 256:	0088                	addi	a0,sp,64
 258:	0000                	unimp
 25a:	029e                	slli	t0,t0,0x7
 25c:	0000                	unimp
 25e:	2e15                	jal	592 <main-0xfae2>
 260:	0005                	c.nop	1
 262:	cc00                	sw	s0,24(s0)
 264:	0005                	c.nop	1
 266:	1500                	addi	s0,sp,672
 268:	0000053b          	0x53b
 26c:	05df 0000 4815      	0x4815000005df
 272:	0005                	c.nop	1
 274:	0300                	addi	s0,sp,384
 276:	0006                	c.slli	zero,0x1
 278:	1500                	addi	s0,sp,672
 27a:	0555                	addi	a0,a0,21
 27c:	0000                	unimp
 27e:	0621                	addi	a2,a2,8
 280:	0000                	unimp
 282:	6215                	lui	tp,0x5
 284:	0005                	c.nop	1
 286:	3f00                	fld	fs0,56(a4)
 288:	0006                	c.slli	zero,0x1
 28a:	1500                	addi	s0,sp,672
 28c:	0000056f          	jal	a0,28c <main-0xfde8>
 290:	067a                	slli	a2,a2,0x1e
 292:	0000                	unimp
 294:	7c15                	lui	s8,0xfffe5
 296:	0005                	c.nop	1
 298:	9800                	0x9800
 29a:	0006                	c.slli	zero,0x1
 29c:	0000                	unimp
 29e:	9f16                	add	t5,t5,t0
 2a0:	0006                	c.slli	zero,0x1
 2a2:	4000                	lw	s0,0(s0)
 2a4:	0000                	unimp
 2a6:	5d00                	lw	s0,56(a0)
 2a8:	15000003          	lb	zero,336(zero) # 150 <main-0xff24>
 2ac:	06a0                	addi	s0,sp,840
 2ae:	0000                	unimp
 2b0:	06b6                	slli	a3,a3,0xd
 2b2:	0000                	unimp
 2b4:	ac15                	j	4e8 <main-0xfb8c>
 2b6:	0006                	c.slli	zero,0x1
 2b8:	c900                	sw	s0,16(a0)
 2ba:	0006                	c.slli	zero,0x1
 2bc:	1600                	addi	s0,sp,800
 2be:	06b8                	addi	a4,sp,840
 2c0:	0000                	unimp
 2c2:	0058                	addi	a4,sp,4
 2c4:	0000                	unimp
 2c6:	030a                	slli	t1,t1,0x2
 2c8:	0000                	unimp
 2ca:	bd15                	j	fe <main-0xff76>
 2cc:	0006                	c.slli	zero,0x1
 2ce:	0a00                	addi	s0,sp,272
 2d0:	15000007          	0x15000007
 2d4:	06ca                	slli	a3,a3,0x12
 2d6:	0000                	unimp
 2d8:	072c                	addi	a1,sp,904
 2da:	0000                	unimp
 2dc:	d715                	beqz	a4,208 <main-0xfe6c>
 2de:	0006                	c.slli	zero,0x1
 2e0:	5000                	lw	s0,32(s0)
 2e2:	15000007          	0x15000007
 2e6:	06e4                	addi	s1,sp,844
 2e8:	0000                	unimp
 2ea:	076e                	slli	a4,a4,0x1b
 2ec:	0000                	unimp
 2ee:	f115                	bnez	a0,212 <main-0xfe62>
 2f0:	0006                	c.slli	zero,0x1
 2f2:	8c00                	0x8c00
 2f4:	15000007          	0x15000007
 2f8:	06fe                	slli	a3,a3,0x1f
 2fa:	0000                	unimp
 2fc:	000007c7          	fmsub.s	fa5,ft0,ft0,ft0,rne
 300:	0b15                	addi	s6,s6,5
 302:	f0000007          	0xf0000007
 306:	00000007          	0x7
 30a:	1918                	addi	a4,sp,176
 30c:	80000007          	0x80000007
 310:	0000                	unimp
 312:	1500                	addi	s0,sp,672
 314:	071e                	slli	a4,a4,0x7
 316:	0000                	unimp
 318:	080e                	slli	a6,a6,0x3
 31a:	0000                	unimp
 31c:	2b15                	jal	850 <main-0xf824>
 31e:	21000007          	0x21000007
 322:	0008                	0x8
 324:	1500                	addi	s0,sp,672
 326:	0738                	addi	a4,sp,904
 328:	0000                	unimp
 32a:	0874                	addi	a3,sp,28
 32c:	0000                	unimp
 32e:	4515                	li	a0,5
 330:	87000007          	0x87000007
 334:	0008                	0x8
 336:	1500                	addi	s0,sp,672
 338:	0752                	slli	a4,a4,0x14
 33a:	0000                	unimp
 33c:	089a                	slli	a7,a7,0x6
 33e:	0000                	unimp
 340:	5f15                	li	t5,-27
 342:	ed000007          	0xed000007
 346:	0008                	0x8
 348:	1500                	addi	s0,sp,672
 34a:	076c                	addi	a1,sp,908
 34c:	0000                	unimp
 34e:	0900                	addi	s0,sp,144
 350:	0000                	unimp
 352:	7915                	lui	s2,0xfffe5
 354:	31000007          	0x31000007
 358:	0009                	c.nop	2
 35a:	0000                	unimp
 35c:	1600                	addi	s0,sp,800
 35e:	058a                	slli	a1,a1,0x2
 360:	0000                	unimp
 362:	00b0                	addi	a2,sp,72
 364:	0000                	unimp
 366:	037d                	addi	t1,t1,31
 368:	0000                	unimp
 36a:	8f15                	sub	a4,a4,a3
 36c:	0005                	c.nop	1
 36e:	4400                	lw	s0,8(s0)
 370:	0009                	c.nop	2
 372:	1500                	addi	s0,sp,672
 374:	059c                	addi	a5,sp,704
 376:	0000                	unimp
 378:	0980                	addi	s0,sp,208
 37a:	0000                	unimp
 37c:	1700                	addi	s0,sp,928
 37e:	0000060b          	0x60b
 382:	1f9c                	addi	a5,sp,1008
 384:	0001                	nop
 386:	0088                	addi	a0,sp,64
 388:	0000                	unimp
 38a:	03ce                	slli	t2,t2,0x13
 38c:	0000                	unimp
 38e:	1015                	c.nop	-27
 390:	0006                	c.slli	zero,0x1
 392:	9e00                	0x9e00
 394:	0009                	c.nop	2
 396:	1500                	addi	s0,sp,672
 398:	061d                	addi	a2,a2,7
 39a:	0000                	unimp
 39c:	09b1                	addi	s3,s3,12
 39e:	0000                	unimp
 3a0:	2a15                	jal	4d4 <main-0xfba0>
 3a2:	0006                	c.slli	zero,0x1
 3a4:	d500                	sw	s0,40(a0)
 3a6:	0009                	c.nop	2
 3a8:	1500                	addi	s0,sp,672
 3aa:	00000637          	lui	a2,0x0
 3ae:	000009f3          	0x9f3
 3b2:	4415                	li	s0,5
 3b4:	0006                	c.slli	zero,0x1
 3b6:	1100                	addi	s0,sp,160
 3b8:	000a                	c.slli	zero,0x2
 3ba:	1500                	addi	s0,sp,672
 3bc:	0651                	addi	a2,a2,20
 3be:	0000                	unimp
 3c0:	0a4c                	addi	a1,sp,276
 3c2:	0000                	unimp
 3c4:	5e15                	li	t3,-27
 3c6:	0006                	c.slli	zero,0x1
 3c8:	6a00                	flw	fs0,16(a2)
 3ca:	000a                	c.slli	zero,0x2
 3cc:	0000                	unimp
 3ce:	aa16                	fsd	ft5,272(sp)
 3d0:	0005                	c.nop	1
 3d2:	c800                	sw	s0,16(s0)
 3d4:	0000                	unimp
 3d6:	1b00                	addi	s0,sp,432
 3d8:	0004                	0x4
 3da:	1500                	addi	s0,sp,672
 3dc:	000005af          	0x5af
 3e0:	0a88                	addi	a0,sp,336
 3e2:	0000                	unimp
 3e4:	bc15                	j	fffffe18 <__global_pointer$+0xfffea0d0>
 3e6:	0005                	c.nop	1
 3e8:	9b00                	0x9b00
 3ea:	000a                	c.slli	zero,0x2
 3ec:	1500                	addi	s0,sp,672
 3ee:	05c9                	addi	a1,a1,18
 3f0:	0000                	unimp
 3f2:	00000abf 0005d615 	0x5d61500000abf
 3fa:	dd00                	sw	s0,56(a0)
 3fc:	000a                	c.slli	zero,0x2
 3fe:	1500                	addi	s0,sp,672
 400:	000005e3          	beqz	zero,c0a <main-0xf46a>
 404:	00000afb          	0xafb
 408:	f015                	bnez	s0,32c <main-0xfd48>
 40a:	0005                	c.nop	1
 40c:	2f00                	fld	fs0,24(a4)
 40e:	1500000b          	0x1500000b
 412:	05fd                	addi	a1,a1,31
 414:	0000                	unimp
 416:	0b58                	addi	a4,sp,404
 418:	0000                	unimp
 41a:	1800                	addi	s0,sp,48
 41c:	066c                	addi	a1,sp,780
 41e:	0000                	unimp
 420:	00e0                	addi	s0,sp,76
 422:	0000                	unimp
 424:	7115                	addi	sp,sp,-224
 426:	0006                	c.slli	zero,0x1
 428:	8600                	0x8600
 42a:	1500000b          	0x1500000b
 42e:	067e                	slli	a2,a2,0x1f
 430:	0000                	unimp
 432:	0bba                	slli	s7,s7,0xe
 434:	0000                	unimp
 436:	0000                	unimp
 438:	0000                	unimp
 43a:	df19                	beqz	a4,358 <main-0xfd1c>
 43c:	0001                	nop
 43e:	0100                	addi	s0,sp,128
 440:	ae0103f7          	0xae0103f7
 444:	0000                	unimp
 446:	0300                	addi	s0,sp,384
 448:	000007ab          	0x7ab
 44c:	6e1a                	flw	ft8,132(sp)
 44e:	0100                	addi	s0,sp,128
 450:	ae1703f7          	0xae1703f7
 454:	0000                	unimp
 456:	1a00                	addi	s0,sp,304
 458:	0064                	addi	s1,sp,12
 45a:	f701                	bnez	a4,362 <main-0xfd12>
 45c:	00ae2203          	lw	tp,10(t3) # 1a00a <__global_pointer$+0x42c2>
 460:	0000                	unimp
 462:	721a                	flw	ft4,164(sp)
 464:	0070                	addi	a2,sp,12
 466:	f701                	bnez	a4,36e <main-0xfd06>
 468:	07ab2e03          	lw	t3,122(s6)
 46c:	0000                	unimp
 46e:	006e6e1b          	0x6e6e1b
 472:	f901                	bnez	a0,382 <main-0xfcf2>
 474:	01371103          	lh	sp,19(a4)
 478:	0000                	unimp
 47a:	0064641b          	0x64641b
 47e:	fa01                	bnez	a2,38e <main-0xfce6>
 480:	01371103          	lh	sp,19(a4)
 484:	0000                	unimp
 486:	0072721b          	0x72721b
 48a:	fb01                	bnez	a4,39a <main-0xfcda>
 48c:	012a0b03          	lb	s6,18(s4) # 1012 <main-0xf062>
 490:	0000                	unimp
 492:	0030641b          	0x30641b
 496:	fc01                	bnez	s0,3ae <main-0xfcc6>
 498:	00960a03          	lb	s4,9(a2) # 9 <main-0x1006b>
 49c:	0000                	unimp
 49e:	0031641b          	0x31641b
 4a2:	fc01                	bnez	s0,3ba <main-0xfcba>
 4a4:	00960e03          	lb	t3,9(a2)
 4a8:	0000                	unimp
 4aa:	00306e1b          	0x306e1b
 4ae:	fc01                	bnez	s0,3c6 <main-0xfcae>
 4b0:	00961203          	lh	tp,9(a2)
 4b4:	0000                	unimp
 4b6:	00316e1b          	0x316e1b
 4ba:	fc01                	bnez	s0,3d2 <main-0xfca2>
 4bc:	00961603          	lh	a2,9(a2)
 4c0:	0000                	unimp
 4c2:	00326e1b          	0x326e1b
 4c6:	fc01                	bnez	s0,3de <main-0xfc96>
 4c8:	00961a03          	lh	s4,9(a2)
 4cc:	0000                	unimp
 4ce:	0030711b          	0x30711b
 4d2:	fd01                	bnez	a0,3ea <main-0xfc8a>
 4d4:	00960a03          	lb	s4,9(a2)
 4d8:	0000                	unimp
 4da:	0031711b          	0x31711b
 4de:	fd01                	bnez	a0,3f6 <main-0xfc7e>
 4e0:	00960e03          	lb	t3,9(a2)
 4e4:	0000                	unimp
 4e6:	0100621b          	0x100621b
 4ea:	03fe                	slli	t2,t2,0x1f
 4ec:	960a                	add	a2,a2,sp
 4ee:	0000                	unimp
 4f0:	1b00                	addi	s0,sp,432
 4f2:	6d62                	flw	fs10,24(sp)
 4f4:	0100                	addi	s0,sp,128
 4f6:	03fe                	slli	t2,t2,0x1f
 4f8:	960d                	srai	a2,a2,0x23
 4fa:	0000                	unimp
 4fc:	1b00                	addi	s0,sp,432
 4fe:	01007777          	0x1007777
 502:	371104c7          	fmsub.q	fs1,ft2,fa7,ft6,rne
 506:	0001                	nop
 508:	1c00                	addi	s0,sp,560
 50a:	0529                	addi	a0,a0,10
 50c:	0000                	unimp
 50e:	da1d                	beqz	a2,444 <main-0xfc30>
 510:	0001                	nop
 512:	0100                	addi	s0,sp,128
 514:	042e                	slli	s0,s0,0xb
 516:	9604                	0x9604
 518:	0000                	unimp
 51a:	1b00                	addi	s0,sp,432
 51c:	5f5f 0061 2e01      	0x2e0100615f5f
 522:	0404                	addi	s1,sp,512
 524:	0096                	slli	ra,ra,0x5
 526:	0000                	unimp
 528:	1c00                	addi	s0,sp,560
 52a:	058a                	slli	a1,a1,0x2
 52c:	0000                	unimp
 52e:	511d                	li	sp,-25
 530:	0000                	unimp
 532:	0100                	addi	s0,sp,128
 534:	043a                	slli	s0,s0,0xe
 536:	9604                	0x9604
 538:	0000                	unimp
 53a:	1d00                	addi	s0,sp,688
 53c:	004c                	addi	a1,sp,4
 53e:	0000                	unimp
 540:	3a01                	jal	fffffe50 <__global_pointer$+0xfffea108>
 542:	0404                	addi	s1,sp,512
 544:	0096                	slli	ra,ra,0x5
 546:	0000                	unimp
 548:	c61d                	beqz	a2,576 <main-0xfafe>
 54a:	0001                	nop
 54c:	0100                	addi	s0,sp,128
 54e:	043a                	slli	s0,s0,0xe
 550:	9604                	0x9604
 552:	0000                	unimp
 554:	1d00                	addi	s0,sp,688
 556:	01c1                	addi	gp,gp,16
 558:	0000                	unimp
 55a:	3a01                	jal	fffffe6a <__global_pointer$+0xfffea122>
 55c:	0404                	addi	s1,sp,512
 55e:	0096                	slli	ra,ra,0x5
 560:	0000                	unimp
 562:	7e1d                	lui	t3,0xfffe7
 564:	0002                	c.slli64	zero
 566:	0100                	addi	s0,sp,128
 568:	043a                	slli	s0,s0,0xe
 56a:	9604                	0x9604
 56c:	0000                	unimp
 56e:	1d00                	addi	s0,sp,688
 570:	0279                	addi	tp,tp,30
 572:	0000                	unimp
 574:	3a01                	jal	fffffe84 <__global_pointer$+0xfffea13c>
 576:	0404                	addi	s1,sp,512
 578:	0096                	slli	ra,ra,0x5
 57a:	0000                	unimp
 57c:	6d5f5f1b          	0x6d5f5f1b
 580:	0100                	addi	s0,sp,128
 582:	043a                	slli	s0,s0,0xe
 584:	9604                	0x9604
 586:	0000                	unimp
 588:	0000                	unimp
 58a:	aa1c                	fsd	fa5,16(a2)
 58c:	0005                	c.nop	1
 58e:	1d00                	addi	s0,sp,688
 590:	01da                	slli	gp,gp,0x16
 592:	0000                	unimp
 594:	4601                	li	a2,0
 596:	0404                	addi	s1,sp,512
 598:	0096                	slli	ra,ra,0x5
 59a:	0000                	unimp
 59c:	615f5f1b          	0x615f5f1b
 5a0:	0100                	addi	s0,sp,128
 5a2:	0446                	slli	s0,s0,0x11
 5a4:	9604                	0x9604
 5a6:	0000                	unimp
 5a8:	0000                	unimp
 5aa:	0b1c                	addi	a5,sp,400
 5ac:	0006                	c.slli	zero,0x1
 5ae:	1d00                	addi	s0,sp,688
 5b0:	0051                	c.nop	20
 5b2:	0000                	unimp
 5b4:	5f01                	li	t5,-32
 5b6:	0804                	addi	s1,sp,16
 5b8:	0096                	slli	ra,ra,0x5
 5ba:	0000                	unimp
 5bc:	4c1d                	li	s8,7
 5be:	0000                	unimp
 5c0:	0100                	addi	s0,sp,128
 5c2:	045f 9608 0000      	0x9608045f
 5c8:	1d00                	addi	s0,sp,688
 5ca:	01c6                	slli	gp,gp,0x11
 5cc:	0000                	unimp
 5ce:	5f01                	li	t5,-32
 5d0:	0804                	addi	s1,sp,16
 5d2:	0096                	slli	ra,ra,0x5
 5d4:	0000                	unimp
 5d6:	c11d                	beqz	a0,5fc <main-0xfa78>
 5d8:	0001                	nop
 5da:	0100                	addi	s0,sp,128
 5dc:	045f 9608 0000      	0x9608045f
 5e2:	1d00                	addi	s0,sp,688
 5e4:	027e                	slli	tp,tp,0x1f
 5e6:	0000                	unimp
 5e8:	5f01                	li	t5,-32
 5ea:	0804                	addi	s1,sp,16
 5ec:	0096                	slli	ra,ra,0x5
 5ee:	0000                	unimp
 5f0:	791d                	lui	s2,0xfffe7
 5f2:	0002                	c.slli64	zero
 5f4:	0100                	addi	s0,sp,128
 5f6:	045f 9608 0000      	0x9608045f
 5fc:	1b00                	addi	s0,sp,432
 5fe:	5f5f 006d 5f01      	0x5f01006d5f5f
 604:	0804                	addi	s1,sp,16
 606:	0096                	slli	ra,ra,0x5
 608:	0000                	unimp
 60a:	1c00                	addi	s0,sp,560
 60c:	066c                	addi	a1,sp,780
 60e:	0000                	unimp
 610:	511d                	li	sp,-25
 612:	0000                	unimp
 614:	0100                	addi	s0,sp,128
 616:	0464                	addi	s1,sp,524
 618:	9604                	0x9604
 61a:	0000                	unimp
 61c:	1d00                	addi	s0,sp,688
 61e:	004c                	addi	a1,sp,4
 620:	0000                	unimp
 622:	6401                	0x6401
 624:	0404                	addi	s1,sp,512
 626:	0096                	slli	ra,ra,0x5
 628:	0000                	unimp
 62a:	c61d                	beqz	a2,658 <main-0xfa1c>
 62c:	0001                	nop
 62e:	0100                	addi	s0,sp,128
 630:	0464                	addi	s1,sp,524
 632:	9604                	0x9604
 634:	0000                	unimp
 636:	1d00                	addi	s0,sp,688
 638:	01c1                	addi	gp,gp,16
 63a:	0000                	unimp
 63c:	6401                	0x6401
 63e:	0404                	addi	s1,sp,512
 640:	0096                	slli	ra,ra,0x5
 642:	0000                	unimp
 644:	7e1d                	lui	t3,0xfffe7
 646:	0002                	c.slli64	zero
 648:	0100                	addi	s0,sp,128
 64a:	0464                	addi	s1,sp,524
 64c:	9604                	0x9604
 64e:	0000                	unimp
 650:	1d00                	addi	s0,sp,688
 652:	0279                	addi	tp,tp,30
 654:	0000                	unimp
 656:	6401                	0x6401
 658:	0404                	addi	s1,sp,512
 65a:	0096                	slli	ra,ra,0x5
 65c:	0000                	unimp
 65e:	6d5f5f1b          	0x6d5f5f1b
 662:	0100                	addi	s0,sp,128
 664:	0464                	addi	s1,sp,524
 666:	9604                	0x9604
 668:	0000                	unimp
 66a:	0000                	unimp
 66c:	8c1c                	0x8c1c
 66e:	0006                	c.slli	zero,0x1
 670:	1d00                	addi	s0,sp,688
 672:	01da                	slli	gp,gp,0x16
 674:	0000                	unimp
 676:	8701                	c.srai64	a4
 678:	0404                	addi	s1,sp,512
 67a:	0096                	slli	ra,ra,0x5
 67c:	0000                	unimp
 67e:	615f5f1b          	0x615f5f1b
 682:	0100                	addi	s0,sp,128
 684:	96040487          	0x96040487
 688:	0000                	unimp
 68a:	0000                	unimp
 68c:	9f1c                	0x9f1c
 68e:	0006                	c.slli	zero,0x1
 690:	1b00                	addi	s0,sp,432
 692:	5f5f 0078 9501      	0x950100785f5f
 698:	0504                	addi	s1,sp,640
 69a:	0096                	slli	ra,ra,0x5
 69c:	0000                	unimp
 69e:	1e00                	addi	s0,sp,816
 6a0:	00316d1b          	0x316d1b
 6a4:	a501                	j	ca4 <main-0xf3d0>
 6a6:	0f04                	addi	s1,sp,912
 6a8:	0096                	slli	ra,ra,0x5
 6aa:	0000                	unimp
 6ac:	00306d1b          	0x306d1b
 6b0:	a501                	j	cb0 <main-0xf3c4>
 6b2:	1304                	addi	s1,sp,416
 6b4:	0096                	slli	ra,ra,0x5
 6b6:	0000                	unimp
 6b8:	191c                	addi	a5,sp,176
 6ba:	1d000007          	0x1d000007
 6be:	0051                	c.nop	20
 6c0:	0000                	unimp
 6c2:	b001                	j	fffffec2 <__global_pointer$+0xfffea17a>
 6c4:	0804                	addi	s1,sp,16
 6c6:	0096                	slli	ra,ra,0x5
 6c8:	0000                	unimp
 6ca:	4c1d                	li	s8,7
 6cc:	0000                	unimp
 6ce:	0100                	addi	s0,sp,128
 6d0:	04b0                	addi	a2,sp,584
 6d2:	9608                	0x9608
 6d4:	0000                	unimp
 6d6:	1d00                	addi	s0,sp,688
 6d8:	01c6                	slli	gp,gp,0x11
 6da:	0000                	unimp
 6dc:	b001                	j	fffffedc <__global_pointer$+0xfffea194>
 6de:	0804                	addi	s1,sp,16
 6e0:	0096                	slli	ra,ra,0x5
 6e2:	0000                	unimp
 6e4:	c11d                	beqz	a0,70a <main-0xf96a>
 6e6:	0001                	nop
 6e8:	0100                	addi	s0,sp,128
 6ea:	04b0                	addi	a2,sp,584
 6ec:	9608                	0x9608
 6ee:	0000                	unimp
 6f0:	1d00                	addi	s0,sp,688
 6f2:	027e                	slli	tp,tp,0x1f
 6f4:	0000                	unimp
 6f6:	b001                	j	fffffef6 <__global_pointer$+0xfffea1ae>
 6f8:	0804                	addi	s1,sp,16
 6fa:	0096                	slli	ra,ra,0x5
 6fc:	0000                	unimp
 6fe:	791d                	lui	s2,0xfffe7
 700:	0002                	c.slli64	zero
 702:	0100                	addi	s0,sp,128
 704:	04b0                	addi	a2,sp,584
 706:	9608                	0x9608
 708:	0000                	unimp
 70a:	1b00                	addi	s0,sp,432
 70c:	5f5f 006d b001      	0xb001006d5f5f
 712:	0804                	addi	s1,sp,16
 714:	0096                	slli	ra,ra,0x5
 716:	0000                	unimp
 718:	1c00                	addi	s0,sp,560
 71a:	00000787          	0x787
 71e:	811d                	srli	a0,a0,0x7
 720:	0001                	nop
 722:	0100                	addi	s0,sp,128
 724:	04b1                	addi	s1,s1,12
 726:	9608                	0x9608
 728:	0000                	unimp
 72a:	1d00                	addi	s0,sp,688
 72c:	0186                	slli	gp,gp,0x1
 72e:	0000                	unimp
 730:	b101                	j	330 <main-0xfd44>
 732:	0804                	addi	s1,sp,16
 734:	0096                	slli	ra,ra,0x5
 736:	0000                	unimp
 738:	8b1d                	andi	a4,a4,7
 73a:	0001                	nop
 73c:	0100                	addi	s0,sp,128
 73e:	04b1                	addi	s1,s1,12
 740:	9608                	0x9608
 742:	0000                	unimp
 744:	1d00                	addi	s0,sp,688
 746:	0190                	addi	a2,sp,192
 748:	0000                	unimp
 74a:	b101                	j	34a <main-0xfd2a>
 74c:	0804                	addi	s1,sp,16
 74e:	0096                	slli	ra,ra,0x5
 750:	0000                	unimp
 752:	881d                	andi	s0,s0,7
 754:	0002                	c.slli64	zero
 756:	0100                	addi	s0,sp,128
 758:	04b1                	addi	s1,s1,12
 75a:	9608                	0x9608
 75c:	0000                	unimp
 75e:	1d00                	addi	s0,sp,688
 760:	0065                	c.nop	25
 762:	0000                	unimp
 764:	b101                	j	364 <main-0xfd10>
 766:	0804                	addi	s1,sp,16
 768:	0096                	slli	ra,ra,0x5
 76a:	0000                	unimp
 76c:	831d                	srli	a4,a4,0x7
 76e:	0002                	c.slli64	zero
 770:	0100                	addi	s0,sp,128
 772:	04b1                	addi	s1,s1,12
 774:	9608                	0x9608
 776:	0000                	unimp
 778:	1d00                	addi	s0,sp,688
 77a:	0060                	addi	s0,sp,12
 77c:	0000                	unimp
 77e:	b101                	j	37e <main-0xfcf6>
 780:	0804                	addi	s1,sp,16
 782:	0096                	slli	ra,ra,0x5
 784:	0000                	unimp
 786:	1c00                	addi	s0,sp,560
 788:	079a                	slli	a5,a5,0x6
 78a:	0000                	unimp
 78c:	785f5f1b          	0x785f5f1b
 790:	0100                	addi	s0,sp,128
 792:	04b6                	slli	s1,s1,0xd
 794:	9605                	srai	a2,a2,0x21
 796:	0000                	unimp
 798:	0000                	unimp
 79a:	1b1e                	slli	s6,s6,0x27
 79c:	5f5f 0078 be01      	0xbe0100785f5f
 7a2:	0504                	addi	s1,sp,640
 7a4:	0096                	slli	ra,ra,0x5
 7a6:	0000                	unimp
 7a8:	0000                	unimp
 7aa:	1f00                	addi	s0,sp,944
 7ac:	ae04                	fsd	fs1,24(a2)
 7ae:	0000                	unimp
 7b0:	0000                	unimp
 7b2:	000000d3          	fadd.s	ft1,ft0,ft0,rne
 7b6:	0004                	0x4
 7b8:	019d                	addi	gp,gp,7
 7ba:	0000                	unimp
 7bc:	0104                	addi	s1,sp,128
 7be:	028d                	addi	t0,t0,3
 7c0:	0000                	unimp
 7c2:	200c                	fld	fa1,0(s0)
 7c4:	0000                	unimp
 7c6:	0000                	unimp
 7c8:	0002                	c.slli64	zero
 7ca:	4f00                	lw	s0,24(a4)
 7cc:	02000007          	0x2000007
 7d0:	0504                	addi	s1,sp,640
 7d2:	6e69                	lui	t3,0x1a
 7d4:	0074                	addi	a3,sp,12
 7d6:	82070403          	lb	s0,-2016(a4)
 7da:	0000                	unimp
 7dc:	0300                	addi	s0,sp,384
 7de:	0508                	addi	a0,sp,640
 7e0:	006a                	c.slli	zero,0x1a
 7e2:	0000                	unimp
 7e4:	f4041003          	lh	zero,-192(s0)
 7e8:	0001                	nop
 7ea:	0300                	addi	s0,sp,384
 7ec:	0601                	addi	a2,a2,0
 7ee:	0175                	addi	sp,sp,29
 7f0:	0000                	unimp
 7f2:	73080103          	lb	sp,1840(a6)
 7f6:	0001                	nop
 7f8:	0300                	addi	s0,sp,384
 7fa:	0502                	c.slli64	a0
 7fc:	0056                	c.slli	zero,0x15
 7fe:	0000                	unimp
 800:	a6070203          	lb	tp,-1440(a4)
 804:	0001                	nop
 806:	0300                	addi	s0,sp,384
 808:	0504                	addi	s1,sp,640
 80a:	0000006f          	j	80a <main-0xf86a>
 80e:	7d070403          	lb	s0,2000(a4)
 812:	0000                	unimp
 814:	0300                	addi	s0,sp,384
 816:	0708                	addi	a0,sp,896
 818:	0078                	addi	a4,sp,12
 81a:	0000                	unimp
 81c:	7c080103          	lb	sp,1984(a6)
 820:	0001                	nop
 822:	0400                	addi	s0,sp,512
 824:	0195                	addi	gp,gp,5
 826:	0000                	unimp
 828:	7b01                	lui	s6,0xfffe0
 82a:	4016                	0x4016
 82c:	0000                	unimp
 82e:	0500                	addi	s0,sp,640
 830:	0071                	c.nop	28
 832:	0000                	unimp
 834:	1a040403          	lb	s0,416(s0)
 838:	0000                	unimp
 83a:	0300                	addi	s0,sp,384
 83c:	0308                	addi	a0,sp,384
 83e:	0012                	c.slli	zero,0x4
 840:	0000                	unimp
 842:	f9040803          	lb	a6,-112(s0)
 846:	0001                	nop
 848:	0300                	addi	s0,sp,384
 84a:	0310                	addi	a2,sp,384
 84c:	000001cb          	fnmsub.s	ft3,ft0,ft0,ft0,rne
 850:	ec032003          	lw	zero,-320(t1) # ffff9ec0 <__global_pointer$+0xfffe4178>
 854:	0001                	nop
 856:	0600                	addi	s0,sp,768
 858:	007d                	c.nop	31
 85a:	0000                	unimp
 85c:	00b5                	addi	ra,ra,13
 85e:	0000                	unimp
 860:	00002407          	flw	fs0,0(zero) # 0 <main-0x10074>
 864:	ff00                	fsw	fs0,56(a4)
 866:	0500                	addi	s0,sp,640
 868:	00a5                	addi	ra,ra,9
 86a:	0000                	unimp
 86c:	6908                	flw	fa0,16(a0)
 86e:	0001                	nop
 870:	0100                	addi	s0,sp,128
 872:	0202                	c.slli64	tp
 874:	b516                	fsd	ft5,168(sp)
 876:	0000                	unimp
 878:	0900                	addi	s0,sp,144
 87a:	00ba                	slli	ra,ra,0xe
 87c:	0000                	unimp
 87e:	b202                	fsd	ft0,288(sp)
 880:	0f02                	c.slli64	t5
 882:	0305                	addi	t1,t1,1
 884:	40f8                	lw	a4,68(s1)
 886:	0001                	nop
	...

Disassembly of section .debug_abbrev:

00000000 <.debug_abbrev>:
   0:	1101                	addi	sp,sp,-32
   2:	2501                	jal	602 <main-0xfa72>
   4:	130e                	slli	t1,t1,0x23
   6:	1b0e030b          	0x1b0e030b
   a:	110e                	slli	sp,sp,0x23
   c:	1201                	addi	tp,tp,-32
   e:	1006                	c.slli	zero,0x21
  10:	02000017          	auipc	zero,0x2000
  14:	0024                	addi	s1,sp,8
  16:	0b3e0b0b          	0xb3e0b0b
  1a:	00000e03          	lb	t3,0(zero) # 0 <main-0x10074>
  1e:	0b002403          	lw	s0,176(zero) # b0 <main-0xffc4>
  22:	030b3e0b          	0x30b3e0b
  26:	0008                	0x8
  28:	0400                	addi	s0,sp,512
  2a:	0016                	c.slli	zero,0x5
  2c:	0b3a0e03          	lb	t3,179(s4)
  30:	0b390b3b          	0xb390b3b
  34:	1349                	addi	t1,t1,-14
  36:	0000                	unimp
  38:	2605                	jal	358 <main-0xfd1c>
  3a:	4900                	lw	s0,16(a0)
  3c:	06000013          	li	zero,96
  40:	0e030113          	addi	sp,t1,224
  44:	0b3a0b0b          	0xb3a0b0b
  48:	0b39053b          	0xb39053b
  4c:	1301                	addi	t1,t1,-32
  4e:	0000                	unimp
  50:	03000d07          	0x3000d07
  54:	3a08                	fld	fa0,48(a2)
  56:	39053b0b          	0x39053b0b
  5a:	3813490b          	0x3813490b
  5e:	0800000b          	0x800000b
  62:	000d                	c.nop	3
  64:	0b3a0e03          	lb	t3,179(s4)
  68:	0b39053b          	0xb39053b
  6c:	1349                	addi	t1,t1,-14
  6e:	0b38                	addi	a4,sp,408
  70:	0000                	unimp
  72:	1709                	addi	a4,a4,-30
  74:	0b01                	addi	s6,s6,0
  76:	3b0b3a0b          	0x3b0b3a0b
  7a:	3905                	jal	fffffcaa <__global_pointer$+0xfffe9f62>
  7c:	0013010b          	0x13010b
  80:	0a00                	addi	s0,sp,272
  82:	000d                	c.nop	3
  84:	0b3a0803          	lb	a6,179(s4)
  88:	0b39053b          	0xb39053b
  8c:	1349                	addi	t1,t1,-14
  8e:	0000                	unimp
  90:	0300160b          	0x300160b
  94:	3a0e                	fld	fs4,224(sp)
  96:	39053b0b          	0x39053b0b
  9a:	0013490b          	0x13490b
  9e:	0c00                	addi	s0,sp,528
  a0:	0101                	addi	sp,sp,0
  a2:	1349                	addi	t1,t1,-14
  a4:	1301                	addi	t1,t1,-32
  a6:	0000                	unimp
  a8:	210d                	jal	4ca <main-0xfbaa>
  aa:	4900                	lw	s0,16(a0)
  ac:	000b2f13          	slti	t5,s6,0
  b0:	0e00                	addi	s0,sp,784
  b2:	0034                	addi	a3,sp,8
  b4:	0b3a0e03          	lb	t3,179(s4)
  b8:	0b39053b          	0xb39053b
  bc:	1349                	addi	t1,t1,-14
  be:	193c193f 2e0f0000 	0x2e0f0000193c193f
  c6:	3f01                	jal	ffffffd6 <__global_pointer$+0xfffea28e>
  c8:	0319                	addi	t1,t1,6
  ca:	3a0e                	fld	fs4,224(sp)
  cc:	39053b0b          	0x39053b0b
  d0:	4919270b          	0x4919270b
  d4:	12011113          	0x12011113
  d8:	4006                	0x4006
  da:	9718                	0x9718
  dc:	1942                	slli	s2,s2,0x30
  de:	1301                	addi	t1,t1,-32
  e0:	0000                	unimp
  e2:	0510                	addi	a2,sp,640
  e4:	0300                	addi	s0,sp,384
  e6:	3a08                	fld	fa0,48(a2)
  e8:	39053b0b          	0x39053b0b
  ec:	0213490b          	0x213490b
  f0:	11000017          	auipc	zero,0x11000
  f4:	011d                	addi	sp,sp,7
  f6:	1331                	addi	t1,t1,-20
  f8:	0152                	slli	sp,sp,0x14
  fa:	1755                	addi	a4,a4,-11
  fc:	0b58                	addi	a4,sp,404
  fe:	0559                	addi	a0,a0,22
 100:	00000b57          	0xb57
 104:	0512                	slli	a0,a0,0x4
 106:	3100                	fld	fs0,32(a0)
 108:	00170213          	addi	tp,a4,1
 10c:	1300                	addi	s0,sp,416
 10e:	1755010b          	0x1755010b
 112:	0000                	unimp
 114:	3414                	fld	fa3,40(s0)
 116:	3100                	fld	fs0,32(a0)
 118:	15000013          	li	zero,336
 11c:	0034                	addi	a3,sp,8
 11e:	1331                	addi	t1,t1,-20
 120:	1702                	slli	a4,a4,0x20
 122:	0000                	unimp
 124:	0b16                	slli	s6,s6,0x5
 126:	3101                	jal	fffffd26 <__global_pointer$+0xfffe9fde>
 128:	01175513          	srli	a0,a4,0x11
 12c:	17000013          	li	zero,368
 130:	1331010b          	0x1331010b
 134:	0111                	addi	sp,sp,4
 136:	0612                	slli	a2,a2,0x4
 138:	1301                	addi	t1,t1,-32
 13a:	0000                	unimp
 13c:	0b18                	addi	a4,sp,400
 13e:	3101                	jal	fffffd3e <__global_pointer$+0xfffe9ff6>
 140:	00175513          	srli	a0,a4,0x1
 144:	1900                	addi	s0,sp,176
 146:	012e                	slli	sp,sp,0xb
 148:	0b3a0e03          	lb	t3,179(s4)
 14c:	0b39053b          	0xb39053b
 150:	13491927          	0x13491927
 154:	0b20                	addi	s0,sp,408
 156:	1301                	addi	t1,t1,-32
 158:	0000                	unimp
 15a:	051a                	slli	a0,a0,0x6
 15c:	0300                	addi	s0,sp,384
 15e:	3a08                	fld	fa0,48(a2)
 160:	39053b0b          	0x39053b0b
 164:	0013490b          	0x13490b
 168:	1b00                	addi	s0,sp,432
 16a:	0034                	addi	a3,sp,8
 16c:	0b3a0803          	lb	a6,179(s4)
 170:	0b39053b          	0xb39053b
 174:	1349                	addi	t1,t1,-14
 176:	0000                	unimp
 178:	0b1c                	addi	a5,sp,400
 17a:	0101                	addi	sp,sp,0
 17c:	1d000013          	li	zero,464
 180:	0034                	addi	a3,sp,8
 182:	0b3a0e03          	lb	t3,179(s4)
 186:	0b39053b          	0xb39053b
 18a:	1349                	addi	t1,t1,-14
 18c:	0000                	unimp
 18e:	0b1e                	slli	s6,s6,0x7
 190:	0001                	nop
 192:	1f00                	addi	s0,sp,944
 194:	0b0b000f          	0xb0b000f
 198:	1349                	addi	t1,t1,-14
 19a:	0000                	unimp
 19c:	0100                	addi	s0,sp,128
 19e:	0111                	addi	sp,sp,4
 1a0:	0e25                	addi	t3,t3,9
 1a2:	0e030b13          	addi	s6,t1,224
 1a6:	17100e1b          	0x17100e1b
 1aa:	0000                	unimp
 1ac:	2402                	fld	fs0,0(sp)
 1ae:	0b00                	addi	s0,sp,400
 1b0:	030b3e0b          	0x30b3e0b
 1b4:	0008                	0x8
 1b6:	0300                	addi	s0,sp,384
 1b8:	0024                	addi	s1,sp,8
 1ba:	0b3e0b0b          	0xb3e0b0b
 1be:	00000e03          	lb	t3,0(zero) # 0 <main-0x10074>
 1c2:	1604                	addi	s1,sp,800
 1c4:	0300                	addi	s0,sp,384
 1c6:	3a0e                	fld	fs4,224(sp)
 1c8:	390b3b0b          	0x390b3b0b
 1cc:	0013490b          	0x13490b
 1d0:	0500                	addi	s0,sp,640
 1d2:	0026                	c.slli	zero,0x9
 1d4:	1349                	addi	t1,t1,-14
 1d6:	0000                	unimp
 1d8:	0106                	slli	sp,sp,0x1
 1da:	4901                	li	s2,0
 1dc:	00130113          	addi	sp,t1,1
 1e0:	0700                	addi	s0,sp,896
 1e2:	0021                	c.nop	8
 1e4:	1349                	addi	t1,t1,-14
 1e6:	00000b2f          	0xb2f
 1ea:	3408                	fld	fa0,40(s0)
 1ec:	0300                	addi	s0,sp,384
 1ee:	3a0e                	fld	fs4,224(sp)
 1f0:	39053b0b          	0x39053b0b
 1f4:	3f13490b          	0x3f13490b
 1f8:	3c19                	jal	fffffc0e <__global_pointer$+0xfffe9ec6>
 1fa:	0019                	c.nop	6
 1fc:	0900                	addi	s0,sp,144
 1fe:	0034                	addi	a3,sp,8
 200:	0b3a1347          	fmsub.d	ft6,fs4,fs3,ft1,rtz
 204:	0b39053b          	0xb39053b
 208:	1802                	slli	a6,a6,0x20
 20a:	0000                	unimp
	...

Disassembly of section .debug_line:

00000000 <.debug_line>:
   0:	0000074b          	fnmsub.s	fa4,ft0,ft0,ft0,rne
   4:	004f0003          	lb	zero,4(t5) # 1004 <main-0xf070>
   8:	0000                	unimp
   a:	0101                	addi	sp,sp,0
   c:	000d0efb          	0xd0efb
  10:	0101                	addi	sp,sp,0
  12:	0101                	addi	sp,sp,0
  14:	0000                	unimp
  16:	0100                	addi	s0,sp,128
  18:	0000                	unimp
  1a:	2e01                	jal	32a <main-0xfd4a>
  1c:	2f2e                	fld	ft10,200(sp)
  1e:	2e2e                	fld	ft8,200(sp)
  20:	2f2e2e2f          	0x2f2e2e2f
  24:	2e2e                	fld	ft8,200(sp)
  26:	2f2e2e2f          	0x2f2e2e2f
  2a:	2f2e                	fld	ft10,200(sp)
  2c:	6972                	flw	fs2,28(sp)
  2e:	2d766373          	csrrsi	t1,0x2d7,12
  32:	2f636367          	0x2f636367
  36:	696c                	flw	fa1,84(a0)
  38:	6762                	flw	fa4,24(sp)
  3a:	00006363          	bltu	zero,zero,40 <main-0x10034>
  3e:	696c                	flw	fa1,84(a0)
  40:	6762                	flw	fa4,24(sp)
  42:	2e326363          	bltu	tp,gp,328 <main-0xfd4c>
  46:	00010063          	beqz	sp,46 <main-0x1002e>
  4a:	6c00                	flw	fs0,24(s0)
  4c:	6269                	lui	tp,0x1a
  4e:	32636367          	0x32636367
  52:	682e                	flw	fa6,200(sp)
  54:	0100                	addi	s0,sp,128
  56:	0000                	unimp
  58:	0500                	addi	s0,sp,640
  5a:	0001                	nop
  5c:	0205                	addi	tp,tp,1
  5e:	1e4c                	addi	a1,sp,820
  60:	0001                	nop
  62:	010aa603          	lw	a2,16(s5)
  66:	0305                	addi	t1,t1,1
  68:	00090103          	lb	sp,0(s2) # fffe7000 <__global_pointer$+0xfffd12b8>
  6c:	0100                	addi	s0,sp,128
  6e:	0105                	addi	sp,sp,1
  70:	0306                	slli	t1,t1,0x1
  72:	097f                	0x97f
  74:	0000                	unimp
  76:	0501                	addi	a0,a0,0
  78:	d2030603          	lb	a2,-736(t1)
  7c:	097d                	addi	s2,s2,31
  7e:	0004                	0x4
  80:	0301                	addi	t1,t1,0
  82:	0901                	addi	s2,s2,0
  84:	0000                	unimp
  86:	0301                	addi	t1,t1,0
  88:	0901                	addi	s2,s2,0
  8a:	0000                	unimp
  8c:	0301                	addi	t1,t1,0
  8e:	0901                	addi	s2,s2,0
  90:	0000                	unimp
  92:	0301                	addi	t1,t1,0
  94:	0901                	addi	s2,s2,0
  96:	0000                	unimp
  98:	0301                	addi	t1,t1,0
  9a:	0901                	addi	s2,s2,0
  9c:	0000                	unimp
  9e:	0301                	addi	t1,t1,0
  a0:	0902                	c.slli64	s2
  a2:	0000                	unimp
  a4:	0501                	addi	a0,a0,0
  a6:	0601                	addi	a2,a2,0
  a8:	0902a703          	lw	a4,144(t0)
  ac:	0000                	unimp
  ae:	0501                	addi	a0,a0,0
  b0:	0306                	slli	t1,t1,0x1
  b2:	7dd9                	lui	s11,0xffff6
  b4:	0409                	addi	s0,s0,2
  b6:	0100                	addi	s0,sp,128
  b8:	0305                	addi	t1,t1,1
  ba:	0306                	slli	t1,t1,0x1
  bc:	0901                	addi	s2,s2,0
  be:	0004                	0x4
  c0:	0501                	addi	a0,a0,0
  c2:	0606                	slli	a2,a2,0x1
  c4:	00090003          	lb	zero,0(s2)
  c8:	0100                	addi	s0,sp,128
  ca:	0305                	addi	t1,t1,1
  cc:	0306                	slli	t1,t1,0x1
  ce:	0901                	addi	s2,s2,0
  d0:	0004                	0x4
  d2:	0501                	addi	a0,a0,0
  d4:	0606                	slli	a2,a2,0x1
  d6:	00090003          	lb	zero,0(s2)
  da:	0100                	addi	s0,sp,128
  dc:	0305                	addi	t1,t1,1
  de:	0306                	slli	t1,t1,0x1
  e0:	0901                	addi	s2,s2,0
  e2:	0004                	0x4
  e4:	0301                	addi	t1,t1,0
  e6:	0925                	addi	s2,s2,9
  e8:	0000                	unimp
  ea:	0501                	addi	a0,a0,0
  ec:	0606                	slli	a2,a2,0x1
  ee:	00090003          	lb	zero,0(s2)
  f2:	0100                	addi	s0,sp,128
  f4:	0705                	addi	a4,a4,1
  f6:	0306                	slli	t1,t1,0x1
  f8:	0902                	c.slli64	s2
  fa:	0004                	0x4
  fc:	0501                	addi	a0,a0,0
  fe:	060a                	slli	a2,a2,0x2
 100:	08090003          	lb	zero,128(s2)
 104:	0100                	addi	s0,sp,128
 106:	0405                	addi	s0,s0,1
 108:	0306                	slli	t1,t1,0x1
 10a:	0904                	addi	s1,sp,144
 10c:	0004                	0x4
 10e:	0301                	addi	t1,t1,0
 110:	0900                	addi	s0,sp,144
 112:	0000                	unimp
 114:	0301                	addi	t1,t1,0
 116:	0900                	addi	s0,sp,144
 118:	0000                	unimp
 11a:	0301                	addi	t1,t1,0
 11c:	0900                	addi	s0,sp,144
 11e:	0000                	unimp
 120:	0301                	addi	t1,t1,0
 122:	0900                	addi	s0,sp,144
 124:	0000                	unimp
 126:	0301                	addi	t1,t1,0
 128:	0900                	addi	s0,sp,144
 12a:	0014                	0x14
 12c:	0301                	addi	t1,t1,0
 12e:	0900                	addi	s0,sp,144
 130:	0018                	0x18
 132:	0301                	addi	t1,t1,0
 134:	0902                	c.slli64	s2
 136:	0000                	unimp
 138:	0501                	addi	a0,a0,0
 13a:	00030607          	0x30607
 13e:	0009                	c.nop	2
 140:	0100                	addi	s0,sp,128
 142:	0805                	addi	a6,a6,1
 144:	0306                	slli	t1,t1,0x1
 146:	0905                	addi	s2,s2,1
 148:	0004                	0x4
 14a:	0501                	addi	a0,a0,0
 14c:	0611                	addi	a2,a2,4
 14e:	00090103          	lb	sp,0(s2)
 152:	0100                	addi	s0,sp,128
 154:	1e05                	addi	t3,t3,-31
 156:	04090003          	lb	zero,64(s2)
 15a:	0100                	addi	s0,sp,128
 15c:	0b05                	addi	s6,s6,1
 15e:	04097f03          	0x4097f03
 162:	0100                	addi	s0,sp,128
 164:	0805                	addi	a6,a6,1
 166:	0306                	slli	t1,t1,0x1
 168:	0901                	addi	s2,s2,0
 16a:	0004                	0x4
 16c:	0501                	addi	a0,a0,0
 16e:	0003060b          	0x3060b
 172:	0009                	c.nop	2
 174:	0100                	addi	s0,sp,128
 176:	0805                	addi	a6,a6,1
 178:	0306                	slli	t1,t1,0x1
 17a:	0901                	addi	s2,s2,0
 17c:	0004                	0x4
 17e:	0501                	addi	a0,a0,0
 180:	0003060b          	0x3060b
 184:	0009                	c.nop	2
 186:	0100                	addi	s0,sp,128
 188:	0405                	addi	s0,s0,1
 18a:	0306                	slli	t1,t1,0x1
 18c:	00040903          	lb	s2,0(s0)
 190:	0301                	addi	t1,t1,0
 192:	0900                	addi	s0,sp,144
 194:	0000                	unimp
 196:	0301                	addi	t1,t1,0
 198:	0900                	addi	s0,sp,144
 19a:	0000                	unimp
 19c:	0301                	addi	t1,t1,0
 19e:	0900                	addi	s0,sp,144
 1a0:	0000                	unimp
 1a2:	0301                	addi	t1,t1,0
 1a4:	0900                	addi	s0,sp,144
 1a6:	0004                	0x4
 1a8:	0301                	addi	t1,t1,0
 1aa:	0900                	addi	s0,sp,144
 1ac:	000c                	0xc
 1ae:	0301                	addi	t1,t1,0
 1b0:	0900                	addi	s0,sp,144
 1b2:	0008                	0x8
 1b4:	0301                	addi	t1,t1,0
 1b6:	0900                	addi	s0,sp,144
 1b8:	0000                	unimp
 1ba:	0301                	addi	t1,t1,0
 1bc:	0900                	addi	s0,sp,144
 1be:	0008                	0x8
 1c0:	0301                	addi	t1,t1,0
 1c2:	0900                	addi	s0,sp,144
 1c4:	0008                	0x8
 1c6:	0301                	addi	t1,t1,0
 1c8:	0900                	addi	s0,sp,144
 1ca:	0004                	0x4
 1cc:	0301                	addi	t1,t1,0
 1ce:	0900                	addi	s0,sp,144
 1d0:	0008                	0x8
 1d2:	0301                	addi	t1,t1,0
 1d4:	0900                	addi	s0,sp,144
 1d6:	0004                	0x4
 1d8:	0301                	addi	t1,t1,0
 1da:	0900                	addi	s0,sp,144
 1dc:	0004                	0x4
 1de:	0301                	addi	t1,t1,0
 1e0:	0900                	addi	s0,sp,144
 1e2:	0008                	0x8
 1e4:	0301                	addi	t1,t1,0
 1e6:	0900                	addi	s0,sp,144
 1e8:	0004                	0x4
 1ea:	0301                	addi	t1,t1,0
 1ec:	0900                	addi	s0,sp,144
 1ee:	0004                	0x4
 1f0:	0301                	addi	t1,t1,0
 1f2:	0900                	addi	s0,sp,144
 1f4:	000c                	0xc
 1f6:	0301                	addi	t1,t1,0
 1f8:	0900                	addi	s0,sp,144
 1fa:	000c                	0xc
 1fc:	0301                	addi	t1,t1,0
 1fe:	0900                	addi	s0,sp,144
 200:	0000                	unimp
 202:	0301                	addi	t1,t1,0
 204:	0900                	addi	s0,sp,144
 206:	0008                	0x8
 208:	0301                	addi	t1,t1,0
 20a:	0900                	addi	s0,sp,144
 20c:	0008                	0x8
 20e:	0301                	addi	t1,t1,0
 210:	0900                	addi	s0,sp,144
 212:	0004                	0x4
 214:	0301                	addi	t1,t1,0
 216:	0900                	addi	s0,sp,144
 218:	0004                	0x4
 21a:	0301                	addi	t1,t1,0
 21c:	0900                	addi	s0,sp,144
 21e:	0004                	0x4
 220:	0301                	addi	t1,t1,0
 222:	0900                	addi	s0,sp,144
 224:	0000                	unimp
 226:	0301                	addi	t1,t1,0
 228:	0900                	addi	s0,sp,144
 22a:	0008                	0x8
 22c:	0301                	addi	t1,t1,0
 22e:	0900                	addi	s0,sp,144
 230:	0000                	unimp
 232:	0301                	addi	t1,t1,0
 234:	0901                	addi	s2,s2,0
 236:	0000                	unimp
 238:	0501                	addi	a0,a0,0
 23a:	fe03060b          	0xfe03060b
 23e:	0900                	addi	s0,sp,144
 240:	0000                	unimp
 242:	0501                	addi	a0,a0,0
 244:	0304                	addi	s1,sp,384
 246:	7ef5                	lui	t4,0xffffd
 248:	0809                	addi	a6,a6,2
 24a:	0100                	addi	s0,sp,128
 24c:	0306                	slli	t1,t1,0x1
 24e:	0915                	addi	s2,s2,5
 250:	0014                	0x14
 252:	0501                	addi	a0,a0,0
 254:	00030607          	0x30607
 258:	0009                	c.nop	2
 25a:	0100                	addi	s0,sp,128
 25c:	0605                	addi	a2,a2,1
 25e:	0306                	slli	t1,t1,0x1
 260:	0901                	addi	s2,s2,0
 262:	0004                	0x4
 264:	0501                	addi	a0,a0,0
 266:	0609                	addi	a2,a2,2
 268:	00090003          	lb	zero,0(s2)
 26c:	0100                	addi	s0,sp,128
 26e:	0405                	addi	s0,s0,1
 270:	0306                	slli	t1,t1,0x1
 272:	0902                	c.slli64	s2
 274:	0008                	0x8
 276:	0301                	addi	t1,t1,0
 278:	0900                	addi	s0,sp,144
 27a:	0000                	unimp
 27c:	0301                	addi	t1,t1,0
 27e:	0900                	addi	s0,sp,144
 280:	0000                	unimp
 282:	0301                	addi	t1,t1,0
 284:	0900                	addi	s0,sp,144
 286:	0000                	unimp
 288:	0301                	addi	t1,t1,0
 28a:	0900                	addi	s0,sp,144
 28c:	0000                	unimp
 28e:	0301                	addi	t1,t1,0
 290:	0900                	addi	s0,sp,144
 292:	0014                	0x14
 294:	0301                	addi	t1,t1,0
 296:	0900                	addi	s0,sp,144
 298:	0018                	0x18
 29a:	0301                	addi	t1,t1,0
 29c:	0902                	c.slli64	s2
 29e:	0000                	unimp
 2a0:	0501                	addi	a0,a0,0
 2a2:	00030607          	0x30607
 2a6:	0009                	c.nop	2
 2a8:	0100                	addi	s0,sp,128
 2aa:	0805                	addi	a6,a6,1
 2ac:	0306                	slli	t1,t1,0x1
 2ae:	0909                	addi	s2,s2,2
 2b0:	0004                	0x4
 2b2:	0501                	addi	a0,a0,0
 2b4:	0003060b          	0x3060b
 2b8:	0009                	c.nop	2
 2ba:	0100                	addi	s0,sp,128
 2bc:	0805                	addi	a6,a6,1
 2be:	0306                	slli	t1,t1,0x1
 2c0:	0901                	addi	s2,s2,0
 2c2:	0004                	0x4
 2c4:	0501                	addi	a0,a0,0
 2c6:	0003060b          	0x3060b
 2ca:	0009                	c.nop	2
 2cc:	0100                	addi	s0,sp,128
 2ce:	0805                	addi	a6,a6,1
 2d0:	0306                	slli	t1,t1,0x1
 2d2:	090d                	addi	s2,s2,3
 2d4:	0004                	0x4
 2d6:	0501                	addi	a0,a0,0
 2d8:	0304                	addi	s1,sp,384
 2da:	0905                	addi	s2,s2,1
 2dc:	0000                	unimp
 2de:	0301                	addi	t1,t1,0
 2e0:	0900                	addi	s0,sp,144
 2e2:	0000                	unimp
 2e4:	0301                	addi	t1,t1,0
 2e6:	0900                	addi	s0,sp,144
 2e8:	0000                	unimp
 2ea:	0301                	addi	t1,t1,0
 2ec:	0900                	addi	s0,sp,144
 2ee:	0000                	unimp
 2f0:	0301                	addi	t1,t1,0
 2f2:	0900                	addi	s0,sp,144
 2f4:	0004                	0x4
 2f6:	0301                	addi	t1,t1,0
 2f8:	0900                	addi	s0,sp,144
 2fa:	0008                	0x8
 2fc:	0301                	addi	t1,t1,0
 2fe:	0900                	addi	s0,sp,144
 300:	0008                	0x8
 302:	0301                	addi	t1,t1,0
 304:	0900                	addi	s0,sp,144
 306:	0004                	0x4
 308:	0301                	addi	t1,t1,0
 30a:	0900                	addi	s0,sp,144
 30c:	000c                	0xc
 30e:	0301                	addi	t1,t1,0
 310:	0900                	addi	s0,sp,144
 312:	0000                	unimp
 314:	0301                	addi	t1,t1,0
 316:	0900                	addi	s0,sp,144
 318:	0008                	0x8
 31a:	0301                	addi	t1,t1,0
 31c:	0900                	addi	s0,sp,144
 31e:	0008                	0x8
 320:	0301                	addi	t1,t1,0
 322:	0900                	addi	s0,sp,144
 324:	0004                	0x4
 326:	0301                	addi	t1,t1,0
 328:	0900                	addi	s0,sp,144
 32a:	0004                	0x4
 32c:	0301                	addi	t1,t1,0
 32e:	0900                	addi	s0,sp,144
 330:	0008                	0x8
 332:	0301                	addi	t1,t1,0
 334:	0900                	addi	s0,sp,144
 336:	0004                	0x4
 338:	0301                	addi	t1,t1,0
 33a:	0900                	addi	s0,sp,144
 33c:	0004                	0x4
 33e:	0301                	addi	t1,t1,0
 340:	0900                	addi	s0,sp,144
 342:	000c                	0xc
 344:	0301                	addi	t1,t1,0
 346:	0900                	addi	s0,sp,144
 348:	000c                	0xc
 34a:	0301                	addi	t1,t1,0
 34c:	0900                	addi	s0,sp,144
 34e:	0000                	unimp
 350:	0301                	addi	t1,t1,0
 352:	0900                	addi	s0,sp,144
 354:	0008                	0x8
 356:	0301                	addi	t1,t1,0
 358:	0900                	addi	s0,sp,144
 35a:	0008                	0x8
 35c:	0301                	addi	t1,t1,0
 35e:	0900                	addi	s0,sp,144
 360:	0004                	0x4
 362:	0301                	addi	t1,t1,0
 364:	0900                	addi	s0,sp,144
 366:	0004                	0x4
 368:	0301                	addi	t1,t1,0
 36a:	0900                	addi	s0,sp,144
 36c:	0004                	0x4
 36e:	0301                	addi	t1,t1,0
 370:	0900                	addi	s0,sp,144
 372:	0000                	unimp
 374:	0301                	addi	t1,t1,0
 376:	0900                	addi	s0,sp,144
 378:	0008                	0x8
 37a:	0501                	addi	a0,a0,0
 37c:	00e30303          	lb	t1,14(t1)
 380:	0009                	c.nop	2
 382:	0100                	addi	s0,sp,128
 384:	00090103          	lb	sp,0(s2)
 388:	0100                	addi	s0,sp,128
 38a:	0105                	addi	sp,sp,1
 38c:	0306                	slli	t1,t1,0x1
 38e:	00e1                	addi	ra,ra,24
 390:	0009                	c.nop	2
 392:	0100                	addi	s0,sp,128
 394:	0405                	addi	s0,s0,1
 396:	097e9d03          	lh	s10,151(t4) # ffffd097 <__global_pointer$+0xfffe734f>
 39a:	0004                	0x4
 39c:	0501                	addi	a0,a0,0
 39e:	0608                	addi	a0,sp,768
 3a0:	14091203          	lh	tp,320(s2)
 3a4:	0100                	addi	s0,sp,128
 3a6:	00090203          	lb	tp,0(s2)
 3aa:	0100                	addi	s0,sp,128
 3ac:	0b05                	addi	s6,s6,1
 3ae:	0306                	slli	t1,t1,0x1
 3b0:	0900                	addi	s0,sp,144
 3b2:	0000                	unimp
 3b4:	0501                	addi	a0,a0,0
 3b6:	0608                	addi	a0,sp,768
 3b8:	04090103          	lb	sp,64(s2)
 3bc:	0100                	addi	s0,sp,128
 3be:	0b05                	addi	s6,s6,1
 3c0:	0306                	slli	t1,t1,0x1
 3c2:	0900                	addi	s0,sp,144
 3c4:	0000                	unimp
 3c6:	0501                	addi	a0,a0,0
 3c8:	0608                	addi	a0,sp,768
 3ca:	04090103          	lb	sp,64(s2)
 3ce:	0100                	addi	s0,sp,128
 3d0:	0b05                	addi	s6,s6,1
 3d2:	0306                	slli	t1,t1,0x1
 3d4:	0901                	addi	s2,s2,0
 3d6:	0000                	unimp
 3d8:	0501                	addi	a0,a0,0
 3da:	0311                	addi	t1,t1,4
 3dc:	097f                	0x97f
 3de:	0004                	0x4
 3e0:	0501                	addi	a0,a0,0
 3e2:	031e                	slli	t1,t1,0x7
 3e4:	0900                	addi	s0,sp,144
 3e6:	0004                	0x4
 3e8:	0501                	addi	a0,a0,0
 3ea:	0308                	addi	a0,sp,384
 3ec:	00040903          	lb	s2,0(s0)
 3f0:	0501                	addi	a0,a0,0
 3f2:	097d030b          	0x97d030b
 3f6:	0004                	0x4
 3f8:	0501                	addi	a0,a0,0
 3fa:	0608                	addi	a0,sp,768
 3fc:	04090103          	lb	sp,64(s2)
 400:	0100                	addi	s0,sp,128
 402:	00090203          	lb	tp,0(s2)
 406:	0100                	addi	s0,sp,128
 408:	00090003          	lb	zero,0(s2)
 40c:	0100                	addi	s0,sp,128
 40e:	00090003          	lb	zero,0(s2)
 412:	0100                	addi	s0,sp,128
 414:	00090003          	lb	zero,0(s2)
 418:	0100                	addi	s0,sp,128
 41a:	00090003          	lb	zero,0(s2)
 41e:	0100                	addi	s0,sp,128
 420:	0c090003          	lb	zero,192(s2)
 424:	0100                	addi	s0,sp,128
 426:	00090003          	lb	zero,0(s2)
 42a:	0100                	addi	s0,sp,128
 42c:	08090003          	lb	zero,128(s2)
 430:	0100                	addi	s0,sp,128
 432:	0c090003          	lb	zero,192(s2)
 436:	0100                	addi	s0,sp,128
 438:	00090003          	lb	zero,0(s2)
 43c:	0100                	addi	s0,sp,128
 43e:	08090003          	lb	zero,128(s2)
 442:	0100                	addi	s0,sp,128
 444:	08090003          	lb	zero,128(s2)
 448:	0100                	addi	s0,sp,128
 44a:	04090003          	lb	zero,64(s2)
 44e:	0100                	addi	s0,sp,128
 450:	04090003          	lb	zero,64(s2)
 454:	0100                	addi	s0,sp,128
 456:	08090003          	lb	zero,128(s2)
 45a:	0100                	addi	s0,sp,128
 45c:	04090003          	lb	zero,64(s2)
 460:	0100                	addi	s0,sp,128
 462:	04090003          	lb	zero,64(s2)
 466:	0100                	addi	s0,sp,128
 468:	0c090003          	lb	zero,192(s2)
 46c:	0100                	addi	s0,sp,128
 46e:	08090003          	lb	zero,128(s2)
 472:	0100                	addi	s0,sp,128
 474:	04090003          	lb	zero,64(s2)
 478:	0100                	addi	s0,sp,128
 47a:	08090003          	lb	zero,128(s2)
 47e:	0100                	addi	s0,sp,128
 480:	08090003          	lb	zero,128(s2)
 484:	0100                	addi	s0,sp,128
 486:	04090003          	lb	zero,64(s2)
 48a:	0100                	addi	s0,sp,128
 48c:	04090003          	lb	zero,64(s2)
 490:	0100                	addi	s0,sp,128
 492:	08090003          	lb	zero,128(s2)
 496:	0100                	addi	s0,sp,128
 498:	08090003          	lb	zero,128(s2)
 49c:	0100                	addi	s0,sp,128
 49e:	04090003          	lb	zero,64(s2)
 4a2:	0100                	addi	s0,sp,128
 4a4:	0705                	addi	a4,a4,1
 4a6:	04091503          	lh	a0,64(s2)
 4aa:	0100                	addi	s0,sp,128
 4ac:	0a05                	addi	s4,s4,1
 4ae:	0306                	slli	t1,t1,0x1
 4b0:	0900                	addi	s0,sp,144
 4b2:	0000                	unimp
 4b4:	0501                	addi	a0,a0,0
 4b6:	0604                	addi	s1,sp,768
 4b8:	04091303          	lh	t1,64(s2)
 4bc:	0100                	addi	s0,sp,128
 4be:	00090003          	lb	zero,0(s2)
 4c2:	0100                	addi	s0,sp,128
 4c4:	00090003          	lb	zero,0(s2)
 4c8:	0100                	addi	s0,sp,128
 4ca:	00090003          	lb	zero,0(s2)
 4ce:	0100                	addi	s0,sp,128
 4d0:	00090003          	lb	zero,0(s2)
 4d4:	0100                	addi	s0,sp,128
 4d6:	14090003          	lb	zero,320(s2)
 4da:	0100                	addi	s0,sp,128
 4dc:	20090003          	lb	zero,512(s2)
 4e0:	0100                	addi	s0,sp,128
 4e2:	00090103          	lb	sp,0(s2)
 4e6:	0100                	addi	s0,sp,128
 4e8:	0705                	addi	a4,a4,1
 4ea:	0306                	slli	t1,t1,0x1
 4ec:	0900                	addi	s0,sp,144
 4ee:	0000                	unimp
 4f0:	0501                	addi	a0,a0,0
 4f2:	0608                	addi	a0,sp,768
 4f4:	04090a03          	lb	s4,64(s2)
 4f8:	0100                	addi	s0,sp,128
 4fa:	0306                	slli	t1,t1,0x1
 4fc:	0902                	c.slli64	s2
 4fe:	0000                	unimp
 500:	0501                	addi	a0,a0,0
 502:	097e030b          	0x97e030b
 506:	0004                	0x4
 508:	0501                	addi	a0,a0,0
 50a:	0314                	addi	a3,sp,384
 50c:	0900                	addi	s0,sp,144
 50e:	0004                	0x4
 510:	0501                	addi	a0,a0,0
 512:	0304                	addi	s1,sp,384
 514:	0975                	addi	s2,s2,29
 516:	000c                	0xc
 518:	0501                	addi	a0,a0,0
 51a:	0608                	addi	a0,sp,768
 51c:	14091e03          	lh	t3,320(s2)
 520:	0100                	addi	s0,sp,128
 522:	00090303          	lb	t1,0(s2)
 526:	0100                	addi	s0,sp,128
 528:	00090203          	lb	tp,0(s2)
 52c:	0100                	addi	s0,sp,128
 52e:	1e05                	addi	t3,t3,-31
 530:	0306                	slli	t1,t1,0x1
 532:	0900                	addi	s0,sp,144
 534:	0000                	unimp
 536:	0501                	addi	a0,a0,0
 538:	0311                	addi	t1,t1,4
 53a:	0900                	addi	s0,sp,144
 53c:	0004                	0x4
 53e:	0501                	addi	a0,a0,0
 540:	0900030b          	0x900030b
 544:	0004                	0x4
 546:	0501                	addi	a0,a0,0
 548:	0608                	addi	a0,sp,768
 54a:	04090103          	lb	sp,64(s2)
 54e:	0100                	addi	s0,sp,128
 550:	0b05                	addi	s6,s6,1
 552:	0306                	slli	t1,t1,0x1
 554:	0901                	addi	s2,s2,0
 556:	0000                	unimp
 558:	0501                	addi	a0,a0,0
 55a:	0308                	addi	a0,sp,384
 55c:	0904                	addi	s1,sp,144
 55e:	0004                	0x4
 560:	0501                	addi	a0,a0,0
 562:	0311                	addi	t1,t1,4
 564:	097d                	addi	s2,s2,31
 566:	0008                	0x8
 568:	0501                	addi	a0,a0,0
 56a:	031e                	slli	t1,t1,0x7
 56c:	0900                	addi	s0,sp,144
 56e:	0004                	0x4
 570:	0501                	addi	a0,a0,0
 572:	097e030b          	0x97e030b
 576:	0004                	0x4
 578:	0501                	addi	a0,a0,0
 57a:	0608                	addi	a0,sp,768
 57c:	04090103          	lb	sp,64(s2)
 580:	0100                	addi	s0,sp,128
 582:	00090103          	lb	sp,0(s2)
 586:	0100                	addi	s0,sp,128
 588:	0b05                	addi	s6,s6,1
 58a:	0306                	slli	t1,t1,0x1
 58c:	0900                	addi	s0,sp,144
 58e:	0000                	unimp
 590:	0501                	addi	a0,a0,0
 592:	0608                	addi	a0,sp,768
 594:	04090103          	lb	sp,64(s2)
 598:	0100                	addi	s0,sp,128
 59a:	00090203          	lb	tp,0(s2)
 59e:	0100                	addi	s0,sp,128
 5a0:	00090003          	lb	zero,0(s2)
 5a4:	0100                	addi	s0,sp,128
 5a6:	00090003          	lb	zero,0(s2)
 5aa:	0100                	addi	s0,sp,128
 5ac:	00090003          	lb	zero,0(s2)
 5b0:	0100                	addi	s0,sp,128
 5b2:	00090003          	lb	zero,0(s2)
 5b6:	0100                	addi	s0,sp,128
 5b8:	08090003          	lb	zero,128(s2)
 5bc:	0100                	addi	s0,sp,128
 5be:	00090003          	lb	zero,0(s2)
 5c2:	0100                	addi	s0,sp,128
 5c4:	08090003          	lb	zero,128(s2)
 5c8:	0100                	addi	s0,sp,128
 5ca:	0c090003          	lb	zero,192(s2)
 5ce:	0100                	addi	s0,sp,128
 5d0:	00090003          	lb	zero,0(s2)
 5d4:	0100                	addi	s0,sp,128
 5d6:	08090003          	lb	zero,128(s2)
 5da:	0100                	addi	s0,sp,128
 5dc:	08090003          	lb	zero,128(s2)
 5e0:	0100                	addi	s0,sp,128
 5e2:	04090003          	lb	zero,64(s2)
 5e6:	0100                	addi	s0,sp,128
 5e8:	04090003          	lb	zero,64(s2)
 5ec:	0100                	addi	s0,sp,128
 5ee:	08090003          	lb	zero,128(s2)
 5f2:	0100                	addi	s0,sp,128
 5f4:	04090003          	lb	zero,64(s2)
 5f8:	0100                	addi	s0,sp,128
 5fa:	04090003          	lb	zero,64(s2)
 5fe:	0100                	addi	s0,sp,128
 600:	04090003          	lb	zero,64(s2)
 604:	0100                	addi	s0,sp,128
 606:	08090003          	lb	zero,128(s2)
 60a:	0100                	addi	s0,sp,128
 60c:	0c090003          	lb	zero,192(s2)
 610:	0100                	addi	s0,sp,128
 612:	08090003          	lb	zero,128(s2)
 616:	0100                	addi	s0,sp,128
 618:	08090003          	lb	zero,128(s2)
 61c:	0100                	addi	s0,sp,128
 61e:	04090003          	lb	zero,64(s2)
 622:	0100                	addi	s0,sp,128
 624:	04090003          	lb	zero,64(s2)
 628:	0100                	addi	s0,sp,128
 62a:	08090003          	lb	zero,128(s2)
 62e:	0100                	addi	s0,sp,128
 630:	0306                	slli	t1,t1,0x1
 632:	0901                	addi	s2,s2,0
 634:	0004                	0x4
 636:	0301                	addi	t1,t1,0
 638:	097f                	0x97f
 63a:	0004                	0x4
 63c:	0301                	addi	t1,t1,0
 63e:	0901                	addi	s2,s2,0
 640:	0004                	0x4
 642:	0301                	addi	t1,t1,0
 644:	097f                	0x97f
 646:	0014                	0x14
 648:	0601                	addi	a2,a2,0
 64a:	04090003          	lb	zero,64(s2)
 64e:	0100                	addi	s0,sp,128
 650:	00090003          	lb	zero,0(s2)
 654:	0100                	addi	s0,sp,128
 656:	00090003          	lb	zero,0(s2)
 65a:	0100                	addi	s0,sp,128
 65c:	00090103          	lb	sp,0(s2)
 660:	0100                	addi	s0,sp,128
 662:	00090003          	lb	zero,0(s2)
 666:	0100                	addi	s0,sp,128
 668:	00090003          	lb	zero,0(s2)
 66c:	0100                	addi	s0,sp,128
 66e:	00090003          	lb	zero,0(s2)
 672:	0100                	addi	s0,sp,128
 674:	00090003          	lb	zero,0(s2)
 678:	0100                	addi	s0,sp,128
 67a:	00090003          	lb	zero,0(s2)
 67e:	0100                	addi	s0,sp,128
 680:	00090003          	lb	zero,0(s2)
 684:	0100                	addi	s0,sp,128
 686:	00090003          	lb	zero,0(s2)
 68a:	0100                	addi	s0,sp,128
 68c:	04090003          	lb	zero,64(s2)
 690:	0100                	addi	s0,sp,128
 692:	00090003          	lb	zero,0(s2)
 696:	0100                	addi	s0,sp,128
 698:	04090003          	lb	zero,64(s2)
 69c:	0100                	addi	s0,sp,128
 69e:	14090003          	lb	zero,320(s2)
 6a2:	0100                	addi	s0,sp,128
 6a4:	00090003          	lb	zero,0(s2)
 6a8:	0100                	addi	s0,sp,128
 6aa:	00090003          	lb	zero,0(s2)
 6ae:	0100                	addi	s0,sp,128
 6b0:	04090003          	lb	zero,64(s2)
 6b4:	0100                	addi	s0,sp,128
 6b6:	04090003          	lb	zero,64(s2)
 6ba:	0100                	addi	s0,sp,128
 6bc:	08090003          	lb	zero,128(s2)
 6c0:	0100                	addi	s0,sp,128
 6c2:	00090003          	lb	zero,0(s2)
 6c6:	0100                	addi	s0,sp,128
 6c8:	00090203          	lb	tp,0(s2)
 6cc:	0100                	addi	s0,sp,128
 6ce:	0b05                	addi	s6,s6,1
 6d0:	0306                	slli	t1,t1,0x1
 6d2:	0900                	addi	s0,sp,144
 6d4:	0000                	unimp
 6d6:	0501                	addi	a0,a0,0
 6d8:	0314                	addi	a3,sp,384
 6da:	0900                	addi	s0,sp,144
 6dc:	0004                	0x4
 6de:	0501                	addi	a0,a0,0
 6e0:	0308                	addi	a0,sp,384
 6e2:	097e                	slli	s2,s2,0x1f
 6e4:	0004                	0x4
 6e6:	0501                	addi	a0,a0,0
 6e8:	097d030b          	0x97d030b
 6ec:	0014                	0x14
 6ee:	0501                	addi	a0,a0,0
 6f0:	0308                	addi	a0,sp,384
 6f2:	00040903          	lb	s2,0(s0)
 6f6:	0501                	addi	a0,a0,0
 6f8:	0908030b          	0x908030b
 6fc:	0004                	0x4
 6fe:	0501                	addi	a0,a0,0
 700:	0321                	addi	t1,t1,8
 702:	097a                	slli	s2,s2,0x1e
 704:	0004                	0x4
 706:	0501                	addi	a0,a0,0
 708:	0605                	addi	a2,a2,1
 70a:	04090203          	lb	tp,64(s2)
 70e:	0100                	addi	s0,sp,128
 710:	0705                	addi	a4,a4,1
 712:	0306                	slli	t1,t1,0x1
 714:	0900                	addi	s0,sp,144
 716:	0000                	unimp
 718:	0501                	addi	a0,a0,0
 71a:	0605                	addi	a2,a2,1
 71c:	04090103          	lb	sp,64(s2)
 720:	0100                	addi	s0,sp,128
 722:	00090003          	lb	zero,0(s2)
 726:	0100                	addi	s0,sp,128
 728:	00090003          	lb	zero,0(s2)
 72c:	0100                	addi	s0,sp,128
 72e:	00090003          	lb	zero,0(s2)
 732:	0100                	addi	s0,sp,128
 734:	00090003          	lb	zero,0(s2)
 738:	0100                	addi	s0,sp,128
 73a:	0705                	addi	a4,a4,1
 73c:	0306                	slli	t1,t1,0x1
 73e:	00040943          	fmadd.s	fs2,fs0,ft0,ft0,rne
 742:	0301                	addi	t1,t1,0
 744:	097f                	0x97f
 746:	0004                	0x4
 748:	0901                	addi	s2,s2,0
 74a:	0008                	0x8
 74c:	0100                	addi	s0,sp,128
 74e:	5501                	li	a0,-32
 750:	0000                	unimp
 752:	0300                	addi	s0,sp,384
 754:	4f00                	lw	s0,24(a4)
 756:	0000                	unimp
 758:	0100                	addi	s0,sp,128
 75a:	fb01                	bnez	a4,66a <main-0xfa0a>
 75c:	0d0e                	slli	s10,s10,0x3
 75e:	0100                	addi	s0,sp,128
 760:	0101                	addi	sp,sp,0
 762:	0001                	nop
 764:	0000                	unimp
 766:	0001                	nop
 768:	0100                	addi	s0,sp,128
 76a:	2e2e                	fld	ft8,200(sp)
 76c:	2f2e2e2f          	0x2f2e2e2f
 770:	2e2e                	fld	ft8,200(sp)
 772:	2f2e2e2f          	0x2f2e2e2f
 776:	2e2e                	fld	ft8,200(sp)
 778:	722f2e2f          	0x722f2e2f
 77c:	7369                	lui	t1,0xffffa
 77e:	672d7663          	bgeu	s10,s2,dea <main-0xf28a>
 782:	6c2f6363          	bltu	t5,sp,e48 <main-0xf22c>
 786:	6269                	lui	tp,0x1a
 788:	00636367          	0x636367
 78c:	6c00                	flw	fs0,24(s0)
 78e:	6269                	lui	tp,0x1a
 790:	32636367          	0x32636367
 794:	682e                	flw	fa6,200(sp)
 796:	0100                	addi	s0,sp,128
 798:	0000                	unimp
 79a:	696c                	flw	fa1,84(a0)
 79c:	6762                	flw	fa4,24(sp)
 79e:	2e326363          	bltu	tp,gp,a84 <main-0xf5f0>
 7a2:	00010063          	beqz	sp,7a2 <main-0xf8d2>
	...

Disassembly of section .debug_str:

00000000 <.debug_str>:
   0:	5744                	lw	s1,44(a4)
   2:	6e75                	lui	t3,0x1d
   4:	6f69                	lui	t5,0x1a
   6:	006e                	c.slli	zero,0x1b
   8:	5f5f 6475 7669      	0x766964755f5f
   e:	6964                	flw	fs1,84(a0)
  10:	6f630033          	0x6f630033
  14:	706d                	c.lui	zero,0xffffb
  16:	656c                	flw	fa1,76(a0)
  18:	2078                	fld	fa4,192(s0)
  1a:	6c66                	flw	fs8,88(sp)
  1c:	0074616f          	jal	sp,46822 <__global_pointer$+0x30ada>
  20:	2e2e                	fld	ft8,200(sp)
  22:	2f2e2e2f          	0x2f2e2e2f
  26:	2e2e                	fld	ft8,200(sp)
  28:	2f2e2e2f          	0x2f2e2e2f
  2c:	2e2e                	fld	ft8,200(sp)
  2e:	722f2e2f          	0x722f2e2f
  32:	7369                	lui	t1,0xffffa
  34:	672d7663          	bgeu	s10,s2,6a0 <main-0xf9d4>
  38:	6c2f6363          	bltu	t5,sp,6fe <main-0xf976>
  3c:	6269                	lui	tp,0x1a
  3e:	2f636367          	0x2f636367
  42:	696c                	flw	fa1,84(a0)
  44:	6762                	flw	fa4,24(sp)
  46:	2e326363          	bltu	tp,gp,32c <main-0xfd48>
  4a:	5f5f0063          	beq	t5,s5,62a <main-0xfa4a>
  4e:	3064                	fld	fs1,224(s0)
  50:	5f00                	lw	s0,56(a4)
  52:	645f 0031 6873      	0x68730031645f
  58:	2074726f          	jal	tp,47a5e <__global_pointer$+0x31d16>
  5c:	6e69                	lui	t3,0x1a
  5e:	0074                	addi	a3,sp,12
  60:	5f5f 6876 5f00      	0x5f0068765f5f
  66:	765f 006c 6f6c      	0x6f6c006c765f
  6c:	676e                	flw	fa4,216(sp)
  6e:	6c20                	flw	fs0,88(s0)
  70:	20676e6f          	jal	t3,76276 <__global_pointer$+0x6052e>
  74:	6e69                	lui	t3,0x1a
  76:	0074                	addi	a3,sp,12
  78:	6f6c                	flw	fa1,92(a4)
  7a:	676e                	flw	fa4,216(sp)
  7c:	6c20                	flw	fs0,88(s0)
  7e:	20676e6f          	jal	t3,76284 <__global_pointer$+0x6053c>
  82:	6e75                	lui	t3,0x1d
  84:	6e676973          	csrrsi	s2,0x6e6,14
  88:	6465                	lui	s0,0x19
  8a:	6920                	flw	fs0,80(a0)
  8c:	746e                	flw	fs0,248(sp)
  8e:	4700                	lw	s0,8(a4)
  90:	554e                	lw	a0,240(sp)
  92:	4320                	lw	s0,64(a4)
  94:	3731                	jal	ffffffa0 <__global_pointer$+0xfffea258>
  96:	3120                	fld	fs0,96(a0)
  98:	2e30                	fld	fa2,88(a2)
  9a:	2e32                	fld	ft8,264(sp)
  9c:	2030                	fld	fa2,64(s0)
  9e:	6d2d                	lui	s10,0xb
  a0:	646f6d63          	bltu	t5,t1,6fa <main-0xf97a>
  a4:	6c65                	lui	s8,0x19
  a6:	6d3d                	lui	s10,0xf
  a8:	6465                	lui	s0,0x19
  aa:	6f6c                	flw	fa1,92(a4)
  ac:	6d2d2077          	0x6d2d2077
  b0:	7261                	lui	tp,0xffff8
  b2:	723d6863          	bltu	s10,gp,7e2 <main-0xf892>
  b6:	3376                	fld	ft6,376(sp)
  b8:	6932                	flw	fs2,12(sp)
  ba:	666d                	lui	a2,0x1b
  bc:	2d20                	fld	fs0,88(a0)
  be:	616d                	addi	sp,sp,240
  c0:	6962                	flw	fs2,24(sp)
  c2:	693d                	lui	s2,0xf
  c4:	706c                	flw	fa1,100(s0)
  c6:	20663233          	0x20663233
  ca:	6d2d                	lui	s10,0xb
  cc:	646f6d63          	bltu	t5,t1,726 <main-0xf94e>
  d0:	6c65                	lui	s8,0x19
  d2:	6d3d                	lui	s10,0xf
  d4:	6465                	lui	s0,0x19
  d6:	6f6c                	flw	fa1,92(a4)
  d8:	6d2d2077          	0x6d2d2077
  dc:	7574                	flw	fa3,108(a0)
  de:	656e                	flw	fa0,216(sp)
  e0:	723d                	lui	tp,0xfffef
  e2:	656b636f          	jal	t1,b6738 <__global_pointer$+0xa09f0>
  e6:	2074                	fld	fa3,192(s0)
  e8:	6d2d                	lui	s10,0xb
  ea:	7261                	lui	tp,0xffff8
  ec:	723d6863          	bltu	s10,gp,81c <main-0xf858>
  f0:	3376                	fld	ft6,376(sp)
  f2:	6932                	flw	fs2,12(sp)
  f4:	666d                	lui	a2,0x1b
  f6:	2d20                	fld	fs0,88(a0)
  f8:	4f2d2067          	0x4f2d2067
  fc:	4f2d2073          	csrs	0x4f2,s10
 100:	2032                	fld	ft0,264(sp)
 102:	4f2d                	li	t5,11
 104:	662d2073          	csrs	0x662,s10
 108:	7562                	flw	fa0,56(sp)
 10a:	6c69                	lui	s8,0x1a
 10c:	6964                	flw	fs1,84(a0)
 10e:	676e                	flw	fa4,216(sp)
 110:	6c2d                	lui	s8,0xb
 112:	6269                	lui	tp,0x1a
 114:	20636367          	0x20636367
 118:	662d                	lui	a2,0xb
 11a:	6f6e                	flw	ft10,216(sp)
 11c:	732d                	lui	t1,0xfffeb
 11e:	6174                	flw	fa3,68(a0)
 120:	702d6b63          	bltu	s10,sp,836 <main-0xf83e>
 124:	6f72                	flw	ft10,28(sp)
 126:	6574                	flw	fa3,76(a0)
 128:	726f7463          	bgeu	t5,t1,850 <main-0xf824>
 12c:	2d20                	fld	fs0,88(a0)
 12e:	6566                	flw	fa0,88(sp)
 130:	6378                	flw	fa4,68(a4)
 132:	7065                	c.lui	zero,0xffff9
 134:	6974                	flw	fa3,84(a0)
 136:	20736e6f          	jal	t3,36b3c <__global_pointer$+0x20df4>
 13a:	662d                	lui	a2,0xb
 13c:	6f6e                	flw	ft10,216(sp)
 13e:	2d6e                	fld	fs10,216(sp)
 140:	6c6c6163          	bltu	s8,t1,802 <main-0xf872>
 144:	652d                	lui	a0,0xb
 146:	6378                	flw	fa4,68(a4)
 148:	7065                	c.lui	zero,0xffff9
 14a:	6974                	flw	fa3,84(a0)
 14c:	20736e6f          	jal	t3,36b52 <__global_pointer$+0x20e0a>
 150:	662d                	lui	a2,0xb
 152:	6976                	flw	fs2,92(sp)
 154:	69626973          	csrrsi	s2,0x696,4
 158:	696c                	flw	fa1,84(a0)
 15a:	7974                	flw	fa3,116(a0)
 15c:	683d                	lui	a6,0xf
 15e:	6469                	lui	s0,0x1a
 160:	6564                	flw	fs1,76(a0)
 162:	006e                	c.slli	zero,0x1b
 164:	6968                	flw	fa0,84(a0)
 166:	5f006867          	0x5f006867
 16a:	635f 7a6c 745f      	0x745f7a6c635f
 170:	6261                	lui	tp,0x18
 172:	7500                	flw	fs0,40(a0)
 174:	736e                	flw	ft6,248(sp)
 176:	6769                	lui	a4,0x1a
 178:	656e                	flw	fa0,216(sp)
 17a:	2064                	fld	fs1,192(s0)
 17c:	72616863          	bltu	sp,t1,8ac <main-0xf7c8>
 180:	5f00                	lw	s0,56(a4)
 182:	785f 0030 5f5f      	0x5f5f0030785f
 188:	3178                	fld	fa4,224(a0)
 18a:	5f00                	lw	s0,56(a4)
 18c:	785f 0032 5f5f      	0x5f5f0032785f
 192:	3378                	fld	fa4,224(a4)
 194:	5500                	lw	s0,40(a0)
 196:	4951                	li	s2,20
 198:	7974                	flw	fa3,116(a0)
 19a:	6570                	flw	fa2,76(a0)
 19c:	4400                	lw	s0,8(s0)
 19e:	72747357          	0x72747357
 1a2:	6375                	lui	t1,0x1d
 1a4:	0074                	addi	a3,sp,12
 1a6:	726f6873          	csrrsi	a6,0x726,30
 1aa:	2074                	fld	fa3,192(s0)
 1ac:	6e75                	lui	t3,0x1d
 1ae:	6e676973          	csrrsi	s2,0x6e6,14
 1b2:	6465                	lui	s0,0x19
 1b4:	6920                	flw	fs0,80(a0)
 1b6:	746e                	flw	fs0,248(sp)
 1b8:	5500                	lw	s0,40(a0)
 1ba:	4944                	lw	s1,20(a0)
 1bc:	7974                	flw	fa3,116(a0)
 1be:	6570                	flw	fa2,76(a0)
 1c0:	5f00                	lw	s0,56(a4)
 1c2:	715f 0030 5f5f      	0x5f5f0030715f
 1c8:	3171                	jal	fffffe54 <__global_pointer$+0xfffea10c>
 1ca:	6300                	flw	fs0,0(a4)
 1cc:	6c706d6f          	jal	s10,7092 <main-0x8fe2>
 1d0:	7865                	lui	a6,0xffff9
 1d2:	6420                	flw	fs0,72(s0)
 1d4:	6c62756f          	jal	a0,2789a <__global_pointer$+0x11b52>
 1d8:	0065                	c.nop	25
 1da:	5f5f 7278 5f00      	0x5f0072785f5f
 1e0:	755f 6964 6d76      	0x6d766964755f
 1e6:	6964646f          	jal	s0,4687c <__global_pointer$+0x30b34>
 1ea:	0034                	addi	a3,sp,8
 1ec:	706d6f63          	bltu	s10,t1,90a <main-0xf76a>
 1f0:	656c                	flw	fa1,76(a0)
 1f2:	2078                	fld	fa4,192(s0)
 1f4:	6f6c                	flw	fa1,92(a4)
 1f6:	676e                	flw	fa4,216(sp)
 1f8:	6420                	flw	fs0,72(s0)
 1fa:	6c62756f          	jal	a0,278c0 <__global_pointer$+0x11b78>
 1fe:	0065                	c.nop	25
 200:	64656d2f          	0x64656d2f
 204:	6169                	addi	sp,sp,208
 206:	676e652f          	0x676e652f
 20a:	6e69                	lui	t3,0x1a
 20c:	6f74532f          	0x6f74532f
 210:	6172                	flw	ft2,28(sp)
 212:	2f416567          	0x2f416567
 216:	5046                	0x5046
 218:	722f4147          	fmsub.d	ft2,ft10,ft2,fa4,rmm
 21c:	7369                	lui	t1,0xffffa
 21e:	672d7663          	bgeu	s10,s2,88a <main-0xf7ea>
 222:	756e                	flw	fa0,248(sp)
 224:	742d                	lui	s0,0xfffeb
 226:	636c6f6f          	jal	t5,c685c <__global_pointer$+0xb0b14>
 22a:	6168                	flw	fa0,68(a0)
 22c:	6e69                	lui	t3,0x1a
 22e:	6975622f          	0x6975622f
 232:	646c                	flw	fa1,76(s0)
 234:	672d                	lui	a4,0xb
 236:	6e2d6363          	bltu	s10,sp,91c <main-0xf758>
 23a:	7765                	lui	a4,0xffff9
 23c:	696c                	flw	fa1,84(a0)
 23e:	2d62                	fld	fs10,24(sp)
 240:	67617473          	csrrci	s0,0x676,2
 244:	3265                	jal	fffffbec <__global_pointer$+0xfffe9ea4>
 246:	7369722f          	0x7369722f
 24a:	34367663          	bgeu	a2,gp,596 <main-0xfade>
 24e:	752d                	lui	a0,0xfffeb
 250:	6b6e                	flw	fs6,216(sp)
 252:	6f6e                	flw	ft10,216(sp)
 254:	652d6e77          	0x652d6e77
 258:	666c                	flw	fa1,76(a2)
 25a:	3376722f          	0x3376722f
 25e:	6932                	flw	fs2,12(sp)
 260:	666d                	lui	a2,0x1b
 262:	706c692f          	0x706c692f
 266:	2f663233          	0x2f663233
 26a:	696c                	flw	fa1,84(a0)
 26c:	6762                	flw	fa4,24(sp)
 26e:	55006363          	bltu	zero,a6,7b4 <main-0xf8c0>
 272:	79744953          	0x79744953
 276:	6570                	flw	fa2,76(a0)
 278:	5f00                	lw	s0,56(a4)
 27a:	725f 0030 5f5f      	0x5f5f0030725f
 280:	3172                	fld	ft2,312(sp)
 282:	5f00                	lw	s0,56(a4)
 284:	755f 0068 5f5f      	0x5f5f0068755f
 28a:	6c75                	lui	s8,0x1d
 28c:	4700                	lw	s0,8(a4)
 28e:	554e                	lw	a0,240(sp)
 290:	4320                	lw	s0,64(a4)
 292:	3731                	jal	19e <main-0xfed6>
 294:	3120                	fld	fs0,96(a0)
 296:	2e30                	fld	fa2,88(a2)
 298:	2e32                	fld	ft8,264(sp)
 29a:	2030                	fld	fa2,64(s0)
 29c:	6d2d                	lui	s10,0xb
 29e:	646f6d63          	bltu	t5,t1,8f8 <main-0xf77c>
 2a2:	6c65                	lui	s8,0x19
 2a4:	6d3d                	lui	s10,0xf
 2a6:	6465                	lui	s0,0x19
 2a8:	6f6c                	flw	fa1,92(a4)
 2aa:	6d2d2077          	0x6d2d2077
 2ae:	7261                	lui	tp,0xffff8
 2b0:	723d6863          	bltu	s10,gp,9e0 <main-0xf694>
 2b4:	3376                	fld	ft6,376(sp)
 2b6:	6932                	flw	fs2,12(sp)
 2b8:	666d                	lui	a2,0x1b
 2ba:	2d20                	fld	fs0,88(a0)
 2bc:	616d                	addi	sp,sp,240
 2be:	6962                	flw	fs2,24(sp)
 2c0:	693d                	lui	s2,0xf
 2c2:	706c                	flw	fa1,100(s0)
 2c4:	20663233          	0x20663233
 2c8:	6d2d                	lui	s10,0xb
 2ca:	646f6d63          	bltu	t5,t1,924 <main-0xf750>
 2ce:	6c65                	lui	s8,0x19
 2d0:	6d3d                	lui	s10,0xf
 2d2:	6465                	lui	s0,0x19
 2d4:	6f6c                	flw	fa1,92(a4)
 2d6:	6d2d2077          	0x6d2d2077
 2da:	7574                	flw	fa3,108(a0)
 2dc:	656e                	flw	fa0,216(sp)
 2de:	723d                	lui	tp,0xfffef
 2e0:	656b636f          	jal	t1,b6936 <__global_pointer$+0xa0bee>
 2e4:	2074                	fld	fa3,192(s0)
 2e6:	6d2d                	lui	s10,0xb
 2e8:	7261                	lui	tp,0xffff8
 2ea:	723d6863          	bltu	s10,gp,a1a <main-0xf65a>
 2ee:	3376                	fld	ft6,376(sp)
 2f0:	6932                	flw	fs2,12(sp)
 2f2:	666d                	lui	a2,0x1b
 2f4:	2d20                	fld	fs0,88(a0)
 2f6:	4f2d2067          	0x4f2d2067
 2fa:	4f2d2073          	csrs	0x4f2,s10
 2fe:	2032                	fld	ft0,264(sp)
 300:	4f2d                	li	t5,11
 302:	662d2073          	csrs	0x662,s10
 306:	7562                	flw	fa0,56(sp)
 308:	6c69                	lui	s8,0x1a
 30a:	6964                	flw	fs1,84(a0)
 30c:	676e                	flw	fa4,216(sp)
 30e:	6c2d                	lui	s8,0xb
 310:	6269                	lui	tp,0x1a
 312:	20636367          	0x20636367
 316:	662d                	lui	a2,0xb
 318:	6f6e                	flw	ft10,216(sp)
 31a:	732d                	lui	t1,0xfffeb
 31c:	6174                	flw	fa3,68(a0)
 31e:	702d6b63          	bltu	s10,sp,a34 <main-0xf640>
 322:	6f72                	flw	ft10,28(sp)
 324:	6574                	flw	fa3,76(a0)
 326:	726f7463          	bgeu	t5,t1,a4e <main-0xf626>
 32a:	2d20                	fld	fs0,88(a0)
 32c:	7666                	flw	fa2,120(sp)
 32e:	7369                	lui	t1,0xffffa
 330:	6269                	lui	tp,0x1a
 332:	6c69                	lui	s8,0x1a
 334:	7469                	lui	s0,0xffffa
 336:	3d79                	jal	1d4 <main-0xfea0>
 338:	6968                	flw	fa0,84(a0)
 33a:	6464                	flw	fs1,76(s0)
 33c:	6e65                	lui	t3,0x19
	...

Disassembly of section .debug_loc:

00000000 <.debug_loc>:
   0:	0000                	unimp
   2:	0000                	unimp
   4:	0010                	0x10
   6:	0000                	unimp
   8:	0006                	c.slli	zero,0x1
   a:	935a                	add	t1,t1,s6
   c:	5b04                	lw	s1,48(a4)
   e:	00100493          	li	s1,1
  12:	0000                	unimp
  14:	0434                	addi	a3,sp,520
  16:	0000                	unimp
  18:	0006                	c.slli	zero,0x1
  1a:	0af503f3          	0xaf503f3
  1e:	9f25                	0x9f25
	...
  2c:	0074                	addi	a3,sp,12
  2e:	0000                	unimp
  30:	0006                	c.slli	zero,0x1
  32:	935c                	0x935c
  34:	5d04                	lw	s1,56(a0)
  36:	00740493          	addi	s1,s0,7 # ffffa007 <__global_pointer$+0xfffe42bf>
  3a:	0000                	unimp
  3c:	00f8                	addi	a4,sp,76
  3e:	0000                	unimp
  40:	0006                	c.slli	zero,0x1
  42:	0cf503f3          	0xcf503f3
  46:	9f25                	0x9f25
  48:	00f8                	addi	a4,sp,76
  4a:	0000                	unimp
  4c:	013c                	addi	a5,sp,136
  4e:	0000                	unimp
  50:	0006                	c.slli	zero,0x1
  52:	935c                	0x935c
  54:	5d04                	lw	s1,56(a0)
  56:	013c0493          	addi	s1,s8,19 # 1a013 <__global_pointer$+0x42cb>
  5a:	0000                	unimp
  5c:	01dc                	addi	a5,sp,196
  5e:	0000                	unimp
  60:	0006                	c.slli	zero,0x1
  62:	0cf503f3          	0xcf503f3
  66:	9f25                	0x9f25
  68:	01dc                	addi	a5,sp,196
  6a:	0000                	unimp
  6c:	01f0                	addi	a2,sp,204
  6e:	0000                	unimp
  70:	0006                	c.slli	zero,0x1
  72:	935c                	0x935c
  74:	5d04                	lw	s1,56(a0)
  76:	01f00493          	li	s1,31
  7a:	0000                	unimp
  7c:	029c                	addi	a5,sp,320
  7e:	0000                	unimp
  80:	0006                	c.slli	zero,0x1
  82:	0cf503f3          	0xcf503f3
  86:	9f25                	0x9f25
  88:	029c                	addi	a5,sp,320
  8a:	0000                	unimp
  8c:	0328                	addi	a0,sp,392
  8e:	0000                	unimp
  90:	0006                	c.slli	zero,0x1
  92:	935c                	0x935c
  94:	5d04                	lw	s1,56(a0)
  96:	03280493          	addi	s1,a6,50 # ffff9032 <__global_pointer$+0xfffe32ea>
  9a:	0000                	unimp
  9c:	0428                	addi	a0,sp,520
  9e:	0000                	unimp
  a0:	0006                	c.slli	zero,0x1
  a2:	0cf503f3          	0xcf503f3
  a6:	9f25                	0x9f25
  a8:	0428                	addi	a0,sp,520
  aa:	0000                	unimp
  ac:	0434                	addi	a3,sp,520
  ae:	0000                	unimp
  b0:	0006                	c.slli	zero,0x1
  b2:	935c                	0x935c
  b4:	5d04                	lw	s1,56(a0)
  b6:	00000493          	li	s1,0
  ba:	0000                	unimp
  bc:	0000                	unimp
  be:	0000                	unimp
  c0:	0004                	0x4
  c2:	0000                	unimp
  c4:	01d8                	addi	a4,sp,196
  c6:	0000                	unimp
  c8:	0002                	c.slli64	zero
  ca:	9f30                	0x9f30
  cc:	01dc                	addi	a5,sp,196
  ce:	0000                	unimp
  d0:	0434                	addi	a3,sp,520
  d2:	0000                	unimp
  d4:	0002                	c.slli64	zero
  d6:	9f30                	0x9f30
	...
  e0:	0004                	0x4
  e2:	0000                	unimp
  e4:	001c                	0x1c
  e6:	0000                	unimp
  e8:	0006                	c.slli	zero,0x1
  ea:	935c                	0x935c
  ec:	5d04                	lw	s1,56(a0)
  ee:	001c0493          	addi	s1,s8,1
  f2:	0000                	unimp
  f4:	0038                	addi	a4,sp,8
  f6:	0000                	unimp
  f8:	0006                	c.slli	zero,0x1
  fa:	935c                	0x935c
  fc:	5a04                	lw	s1,48(a2)
  fe:	00f80493          	addi	s1,a6,15
 102:	0000                	unimp
 104:	00fc                	addi	a5,sp,76
 106:	0000                	unimp
 108:	0006                	c.slli	zero,0x1
 10a:	935c                	0x935c
 10c:	5a04                	lw	s1,48(a2)
 10e:	010c0493          	addi	s1,s8,16
 112:	0000                	unimp
 114:	012c                	addi	a1,sp,136
 116:	0000                	unimp
 118:	0006                	c.slli	zero,0x1
 11a:	935c                	0x935c
 11c:	5a04                	lw	s1,48(a2)
 11e:	01dc0493          	addi	s1,s8,29
 122:	0000                	unimp
 124:	01e4                	addi	s1,sp,204
 126:	0000                	unimp
 128:	0006                	c.slli	zero,0x1
 12a:	935c                	0x935c
 12c:	5a04                	lw	s1,48(a2)
 12e:	029c0493          	addi	s1,s8,41
 132:	0000                	unimp
 134:	02bc                	addi	a5,sp,328
 136:	0000                	unimp
 138:	0006                	c.slli	zero,0x1
 13a:	935c                	0x935c
 13c:	5a04                	lw	s1,48(a2)
 13e:	02bc0493          	addi	s1,s8,43
 142:	0000                	unimp
 144:	02ec                	addi	a1,sp,332
 146:	0000                	unimp
 148:	0006                	c.slli	zero,0x1
 14a:	935c                	0x935c
 14c:	5d04                	lw	s1,56(a0)
 14e:	02ec0493          	addi	s1,s8,46
 152:	0000                	unimp
 154:	0300                	addi	s0,sp,384
 156:	0000                	unimp
 158:	0006                	c.slli	zero,0x1
 15a:	935c                	0x935c
 15c:	5a04                	lw	s1,48(a2)
 15e:	03000493          	li	s1,48
 162:	0000                	unimp
 164:	0308                	addi	a0,sp,384
 166:	0000                	unimp
 168:	0006                	c.slli	zero,0x1
 16a:	935c                	0x935c
 16c:	5d04                	lw	s1,56(a0)
 16e:	04280493          	addi	s1,a6,66
 172:	0000                	unimp
 174:	0430                	addi	a2,sp,520
 176:	0000                	unimp
 178:	0006                	c.slli	zero,0x1
 17a:	935c                	0x935c
 17c:	5a04                	lw	s1,48(a2)
 17e:	04300493          	li	s1,67
 182:	0000                	unimp
 184:	0434                	addi	a3,sp,520
 186:	0000                	unimp
 188:	0006                	c.slli	zero,0x1
 18a:	935c                	0x935c
 18c:	5d04                	lw	s1,56(a0)
 18e:	00000493          	li	s1,0
 192:	0000                	unimp
 194:	0000                	unimp
 196:	0000                	unimp
 198:	0004                	0x4
 19a:	0000                	unimp
 19c:	0010                	0x10
 19e:	0000                	unimp
 1a0:	0006                	c.slli	zero,0x1
 1a2:	935a                	add	t1,t1,s6
 1a4:	5b04                	lw	s1,48(a4)
 1a6:	00100493          	li	s1,1
 1aa:	0000                	unimp
 1ac:	0058                	addi	a4,sp,4
 1ae:	0000                	unimp
 1b0:	0006                	c.slli	zero,0x1
 1b2:	9361                	srli	a4,a4,0x38
 1b4:	5b04                	lw	s1,48(a4)
 1b6:	00580493          	addi	s1,a6,5
 1ba:	0000                	unimp
 1bc:	006c                	addi	a1,sp,12
 1be:	0000                	unimp
 1c0:	0006                	c.slli	zero,0x1
 1c2:	9361                	srli	a4,a4,0x38
 1c4:	5f04                	lw	s1,56(a4)
 1c6:	00f80493          	addi	s1,a6,15
 1ca:	0000                	unimp
 1cc:	0150                	addi	a2,sp,132
 1ce:	0000                	unimp
 1d0:	0006                	c.slli	zero,0x1
 1d2:	9356                	add	t1,t1,s5
 1d4:	5b04                	lw	s1,48(a4)
 1d6:	01dc0493          	addi	s1,s8,29
 1da:	0000                	unimp
 1dc:	01fc                	addi	a5,sp,204
 1de:	0000                	unimp
 1e0:	0006                	c.slli	zero,0x1
 1e2:	9356                	add	t1,t1,s5
 1e4:	5b04                	lw	s1,48(a4)
 1e6:	01fc0493          	addi	s1,s8,31
 1ea:	0000                	unimp
 1ec:	0208                	addi	a0,sp,256
 1ee:	0000                	unimp
 1f0:	0006                	c.slli	zero,0x1
 1f2:	9361                	srli	a4,a4,0x38
 1f4:	5b04                	lw	s1,48(a4)
 1f6:	029c0493          	addi	s1,s8,41
 1fa:	0000                	unimp
 1fc:	02b0                	addi	a2,sp,328
 1fe:	0000                	unimp
 200:	0006                	c.slli	zero,0x1
 202:	9356                	add	t1,t1,s5
 204:	5b04                	lw	s1,48(a4)
 206:	02b00493          	li	s1,43
 20a:	0000                	unimp
 20c:	02ec                	addi	a1,sp,332
 20e:	0000                	unimp
 210:	0006                	c.slli	zero,0x1
 212:	9356                	add	t1,t1,s5
 214:	5f04                	lw	s1,56(a4)
 216:	02ec0493          	addi	s1,s8,46
 21a:	0000                	unimp
 21c:	02f4                	addi	a3,sp,332
 21e:	0000                	unimp
 220:	0006                	c.slli	zero,0x1
 222:	9356                	add	t1,t1,s5
 224:	5b04                	lw	s1,48(a4)
 226:	02f40493          	addi	s1,s0,47
 22a:	0000                	unimp
 22c:	031c                	addi	a5,sp,384
 22e:	0000                	unimp
 230:	0006                	c.slli	zero,0x1
 232:	9356                	add	t1,t1,s5
 234:	5f04                	lw	s1,56(a4)
 236:	04280493          	addi	s1,a6,66
 23a:	0000                	unimp
 23c:	042c                	addi	a1,sp,520
 23e:	0000                	unimp
 240:	0006                	c.slli	zero,0x1
 242:	9356                	add	t1,t1,s5
 244:	5b04                	lw	s1,48(a4)
 246:	042c0493          	addi	s1,s8,66
 24a:	0000                	unimp
 24c:	0434                	addi	a3,sp,520
 24e:	0000                	unimp
 250:	0006                	c.slli	zero,0x1
 252:	9356                	add	t1,t1,s5
 254:	5f04                	lw	s1,56(a4)
 256:	00000493          	li	s1,0
 25a:	0000                	unimp
 25c:	0000                	unimp
 25e:	0000                	unimp
 260:	000c                	0xc
 262:	0000                	unimp
 264:	0054                	addi	a3,sp,4
 266:	0000                	unimp
 268:	0001                	nop
 26a:	545c                	lw	a5,44(s0)
 26c:	0000                	unimp
 26e:	6000                	flw	fs0,0(s0)
 270:	0000                	unimp
 272:	0900                	addi	s0,sp,144
 274:	7c00                	flw	fs0,56(s0)
 276:	7d00                	flw	fs0,56(a0)
 278:	0800                	addi	s0,sp,16
 27a:	1aff                	0x1aff
 27c:	9f24                	0x9f24
 27e:	0060                	addi	s0,sp,12
 280:	0000                	unimp
 282:	00f0                	addi	a2,sp,76
 284:	0000                	unimp
 286:	0001                	nop
 288:	f860                	fsw	fs0,116(s0)
 28a:	0000                	unimp
 28c:	1400                	addi	s0,sp,544
 28e:	0001                	nop
 290:	0100                	addi	s0,sp,128
 292:	5c00                	lw	s0,56(s0)
 294:	0114                	addi	a3,sp,128
 296:	0000                	unimp
 298:	0118                	addi	a4,sp,128
 29a:	0000                	unimp
 29c:	f731000b          	0xf731000b
 2a0:	7c2c                	flw	fa1,120(s0)
 2a2:	f700                	fsw	fs0,40(a4)
 2a4:	1b2c                	addi	a1,sp,440
 2a6:	189f00f7          	0x189f00f7
 2aa:	0001                	nop
 2ac:	d800                	sw	s0,48(s0)
 2ae:	0001                	nop
 2b0:	0100                	addi	s0,sp,128
 2b2:	6000                	flw	fs0,0(s0)
 2b4:	01dc                	addi	a5,sp,196
 2b6:	0000                	unimp
 2b8:	01f0                	addi	a2,sp,204
 2ba:	0000                	unimp
 2bc:	0001                	nop
 2be:	f060                	fsw	fs0,100(s0)
 2c0:	0001                	nop
 2c2:	f400                	fsw	fs0,40(s0)
 2c4:	0001                	nop
 2c6:	0900                	addi	s0,sp,144
 2c8:	8000                	0x8000
 2ca:	7d00                	flw	fs0,56(a0)
 2cc:	0800                	addi	s0,sp,16
 2ce:	1aff                	0x1aff
 2d0:	9f24                	0x9f24
 2d2:	01f4                	addi	a3,sp,204
 2d4:	0000                	unimp
 2d6:	029c                	addi	a5,sp,320
 2d8:	0000                	unimp
 2da:	0001                	nop
 2dc:	9c60                	0x9c60
 2de:	0002                	c.slli64	zero
 2e0:	2400                	fld	fs0,8(s0)
 2e2:	01000003          	lb	zero,16(zero) # 10 <main-0x10064>
 2e6:	5c00                	lw	s0,56(s0)
 2e8:	0324                	addi	s1,sp,392
 2ea:	0000                	unimp
 2ec:	03c4                	addi	s1,sp,452
 2ee:	0000                	unimp
 2f0:	0001                	nop
 2f2:	2856                	fld	fa6,336(sp)
 2f4:	0004                	0x4
 2f6:	3400                	fld	fs0,40(s0)
 2f8:	0004                	0x4
 2fa:	0100                	addi	s0,sp,128
 2fc:	5c00                	lw	s0,56(s0)
	...
 306:	0010                	0x10
 308:	0000                	unimp
 30a:	001c                	0x1c
 30c:	0000                	unimp
 30e:	0001                	nop
 310:	1c5d                	addi	s8,s8,-9
 312:	0000                	unimp
 314:	3800                	fld	fs0,48(s0)
 316:	0000                	unimp
 318:	0100                	addi	s0,sp,128
 31a:	5a00                	lw	s0,48(a2)
 31c:	00f8                	addi	a4,sp,76
 31e:	0000                	unimp
 320:	00fc                	addi	a5,sp,76
 322:	0000                	unimp
 324:	0001                	nop
 326:	0c5a                	slli	s8,s8,0x16
 328:	0001                	nop
 32a:	2c00                	fld	fs0,24(s0)
 32c:	0001                	nop
 32e:	0100                	addi	s0,sp,128
 330:	5a00                	lw	s0,48(a2)
 332:	01dc                	addi	a5,sp,196
 334:	0000                	unimp
 336:	01e4                	addi	s1,sp,204
 338:	0000                	unimp
 33a:	0001                	nop
 33c:	9c5a                	add	s8,s8,s6
 33e:	0002                	c.slli64	zero
 340:	bc00                	fsd	fs0,56(s0)
 342:	0002                	c.slli64	zero
 344:	0100                	addi	s0,sp,128
 346:	5a00                	lw	s0,48(a2)
 348:	02bc                	addi	a5,sp,328
 34a:	0000                	unimp
 34c:	02ec                	addi	a1,sp,332
 34e:	0000                	unimp
 350:	0001                	nop
 352:	ec5d                	bnez	s0,410 <main-0xfc64>
 354:	0002                	c.slli64	zero
 356:	0000                	unimp
 358:	01000003          	lb	zero,16(zero) # 10 <main-0x10064>
 35c:	5a00                	lw	s0,48(a2)
 35e:	0300                	addi	s0,sp,384
 360:	0000                	unimp
 362:	0308                	addi	a0,sp,384
 364:	0000                	unimp
 366:	0001                	nop
 368:	0c5d                	addi	s8,s8,23
 36a:	b8000003          	lb	zero,-1152(zero) # fffffb80 <__global_pointer$+0xfffe9e38>
 36e:	01000003          	lb	zero,16(zero) # 10 <main-0x10064>
 372:	6000                	flw	fs0,0(s0)
 374:	0428                	addi	a0,sp,520
 376:	0000                	unimp
 378:	0430                	addi	a2,sp,520
 37a:	0000                	unimp
 37c:	0001                	nop
 37e:	305a                	fld	ft0,432(sp)
 380:	0004                	0x4
 382:	3400                	fld	fs0,40(s0)
 384:	0004                	0x4
 386:	0100                	addi	s0,sp,128
 388:	5d00                	lw	s0,56(a0)
	...
 392:	0014                	0x14
 394:	0000                	unimp
 396:	0068                	addi	a0,sp,12
 398:	0000                	unimp
 39a:	0001                	nop
 39c:	6861                	lui	a6,0x18
 39e:	0000                	unimp
 3a0:	b800                	fsd	fs0,48(s0)
 3a2:	0000                	unimp
 3a4:	0100                	addi	s0,sp,128
 3a6:	5600                	lw	s0,40(a2)
 3a8:	00f8                	addi	a4,sp,76
 3aa:	0000                	unimp
 3ac:	01a0                	addi	s0,sp,200
 3ae:	0000                	unimp
 3b0:	0001                	nop
 3b2:	dc56                	sw	s5,56(sp)
 3b4:	0001                	nop
 3b6:	fc00                	fsw	fs0,56(s0)
 3b8:	0001                	nop
 3ba:	0100                	addi	s0,sp,128
 3bc:	5600                	lw	s0,40(a2)
 3be:	01fc                	addi	a5,sp,204
 3c0:	0000                	unimp
 3c2:	0208                	addi	a0,sp,256
 3c4:	0000                	unimp
 3c6:	0001                	nop
 3c8:	0c61                	addi	s8,s8,24
 3ca:	0002                	c.slli64	zero
 3cc:	2400                	fld	fs0,8(s0)
 3ce:	01000003          	lb	zero,16(zero) # 10 <main-0x10064>
 3d2:	5600                	lw	s0,40(a2)
 3d4:	0324                	addi	s1,sp,392
 3d6:	0000                	unimp
 3d8:	0328                	addi	a0,sp,392
 3da:	0000                	unimp
 3dc:	0001                	nop
 3de:	2861                	jal	476 <main-0xfbfe>
 3e0:	14000003          	lb	zero,320(zero) # 140 <main-0xff34>
 3e4:	0004                	0x4
 3e6:	0600                	addi	s0,sp,768
 3e8:	8100                	0x8100
 3ea:	7b00                	flw	fs0,48(a4)
 3ec:	2400                	fld	fs0,8(s0)
 3ee:	289f 0004 3400      	0x34000004289f
 3f4:	0004                	0x4
 3f6:	0100                	addi	s0,sp,128
 3f8:	5600                	lw	s0,40(a2)
	...
 402:	0014                	0x14
 404:	0000                	unimp
 406:	0058                	addi	a4,sp,4
 408:	0000                	unimp
 40a:	0001                	nop
 40c:	0000585b          	0x585b
 410:	6400                	flw	fs0,8(s0)
 412:	0000                	unimp
 414:	0100                	addi	s0,sp,128
 416:	5f00                	lw	s0,56(a4)
 418:	0064                	addi	s1,sp,12
 41a:	0000                	unimp
 41c:	0088                	addi	a0,sp,64
 41e:	0000                	unimp
 420:	0001                	nop
 422:	0000f85b          	0xf85b
 426:	4c00                	lw	s0,24(s0)
 428:	0001                	nop
 42a:	0100                	addi	s0,sp,128
 42c:	5b00                	lw	s0,48(a4)
 42e:	014c                	addi	a1,sp,132
 430:	0000                	unimp
 432:	0168                	addi	a0,sp,140
 434:	0000                	unimp
 436:	0001                	nop
 438:	dc5f 0001 0c00      	0xc000001dc5f
 43e:	0002                	c.slli64	zero
 440:	0100                	addi	s0,sp,128
 442:	5b00                	lw	s0,48(a4)
 444:	020c                	addi	a1,sp,256
 446:	0000                	unimp
 448:	0258                	addi	a4,sp,260
 44a:	0000                	unimp
 44c:	0001                	nop
 44e:	985c                	0x985c
 450:	0002                	c.slli64	zero
 452:	9c00                	0x9c00
 454:	0002                	c.slli64	zero
 456:	0100                	addi	s0,sp,128
 458:	5f00                	lw	s0,56(a4)
 45a:	029c                	addi	a5,sp,320
 45c:	0000                	unimp
 45e:	02b0                	addi	a2,sp,328
 460:	0000                	unimp
 462:	0001                	nop
 464:	0002b05b          	0x2b05b
 468:	ec00                	fsw	fs0,24(s0)
 46a:	0002                	c.slli64	zero
 46c:	0100                	addi	s0,sp,128
 46e:	5f00                	lw	s0,56(a4)
 470:	02ec                	addi	a1,sp,332
 472:	0000                	unimp
 474:	02f4                	addi	a3,sp,332
 476:	0000                	unimp
 478:	0001                	nop
 47a:	0002f45b          	0x2f45b
 47e:	1c00                	addi	s0,sp,560
 480:	01000003          	lb	zero,16(zero) # 10 <main-0x10064>
 484:	5f00                	lw	s0,56(a4)
 486:	0328                	addi	a0,sp,392
 488:	0000                	unimp
 48a:	0388                	addi	a0,sp,448
 48c:	0000                	unimp
 48e:	0001                	nop
 490:	c85c                	sw	a5,20(s0)
 492:	00000003          	lb	zero,0(zero) # 0 <main-0x10074>
 496:	0004                	0x4
 498:	0100                	addi	s0,sp,128
 49a:	5f00                	lw	s0,56(a4)
 49c:	0428                	addi	a0,sp,520
 49e:	0000                	unimp
 4a0:	042c                	addi	a1,sp,520
 4a2:	0000                	unimp
 4a4:	0001                	nop
 4a6:	00042c5b          	0x42c5b
 4aa:	3400                	fld	fs0,40(s0)
 4ac:	0004                	0x4
 4ae:	0100                	addi	s0,sp,128
 4b0:	5f00                	lw	s0,56(a4)
	...
 4ba:	01f8                	addi	a4,sp,204
 4bc:	0000                	unimp
 4be:	0220                	addi	s0,sp,264
 4c0:	0000                	unimp
 4c2:	0001                	nop
 4c4:	245a                	fld	fs0,400(sp)
 4c6:	38000003          	lb	zero,896(zero) # 380 <main-0xfcf4>
 4ca:	01000003          	lb	zero,16(zero) # 10 <main-0x10064>
 4ce:	6c00                	flw	fs0,24(s0)
	...
 4d8:	00f0                	addi	a2,sp,76
 4da:	0000                	unimp
 4dc:	00f8                	addi	a4,sp,76
 4de:	0000                	unimp
 4e0:	0001                	nop
 4e2:	c85a                	sw	s6,16(sp)
 4e4:	28000003          	lb	zero,640(zero) # 280 <main-0xfdf4>
 4e8:	0004                	0x4
 4ea:	0100                	addi	s0,sp,128
 4ec:	5a00                	lw	s0,48(a2)
	...
 4f6:	014c                	addi	a1,sp,132
 4f8:	0000                	unimp
 4fa:	0150                	addi	a2,sp,132
 4fc:	0000                	unimp
 4fe:	0002                	c.slli64	zero
 500:	9f31                	0x9f31
 502:	0150                	addi	a2,sp,132
 504:	0000                	unimp
 506:	01d8                	addi	a4,sp,196
 508:	0000                	unimp
 50a:	0001                	nop
 50c:	0002985b          	0x2985b
 510:	9c00                	0x9c00
 512:	0002                	c.slli64	zero
 514:	0100                	addi	s0,sp,128
 516:	5b00                	lw	s0,48(a4)
	...
 520:	01f0                	addi	a2,sp,204
 522:	0000                	unimp
 524:	0204                	addi	s1,sp,256
 526:	0000                	unimp
 528:	0001                	nop
 52a:	005e                	c.slli	zero,0x17
 52c:	20000003          	lb	zero,512(zero) # 200 <main-0xfe74>
 530:	01000003          	lb	zero,16(zero) # 10 <main-0x10064>
 534:	5e00                	lw	s0,56(a2)
	...
 53e:	0050                	addi	a2,sp,4
 540:	0000                	unimp
 542:	0070                	addi	a2,sp,12
 544:	0000                	unimp
 546:	0001                	nop
 548:	445d                	li	s0,23
 54a:	0001                	nop
 54c:	5000                	lw	s0,32(s0)
 54e:	0001                	nop
 550:	0100                	addi	s0,sp,128
 552:	5d00                	lw	s0,56(a0)
 554:	01f0                	addi	a2,sp,204
 556:	0000                	unimp
 558:	022c                	addi	a1,sp,264
 55a:	0000                	unimp
 55c:	0001                	nop
 55e:	d45d                	beqz	s0,50c <main-0xfb68>
 560:	0002                	c.slli64	zero
 562:	ec00                	fsw	fs0,24(s0)
 564:	0002                	c.slli64	zero
 566:	0100                	addi	s0,sp,128
 568:	5b00                	lw	s0,48(a4)
 56a:	0300                	addi	s0,sp,384
 56c:	0000                	unimp
 56e:	041c                	addi	a5,sp,512
 570:	0000                	unimp
 572:	0001                	nop
 574:	0000005b          	0x5b
 578:	0000                	unimp
 57a:	0000                	unimp
 57c:	2400                	fld	fs0,8(s0)
 57e:	0000                	unimp
 580:	5400                	lw	s0,40(s0)
 582:	0000                	unimp
 584:	0100                	addi	s0,sp,128
 586:	5c00                	lw	s0,56(s0)
 588:	0054                	addi	a3,sp,4
 58a:	0000                	unimp
 58c:	0060                	addi	s0,sp,12
 58e:	0000                	unimp
 590:	0009                	c.nop	2
 592:	007c                	addi	a5,sp,12
 594:	007d                	c.nop	31
 596:	ff08                	fsw	fa0,56(a4)
 598:	241a                	fld	fs0,384(sp)
 59a:	609f 0000 f000      	0xf0000000609f
 5a0:	0000                	unimp
 5a2:	0100                	addi	s0,sp,128
 5a4:	6000                	flw	fs0,0(s0)
 5a6:	00f8                	addi	a4,sp,76
 5a8:	0000                	unimp
 5aa:	010c                	addi	a1,sp,128
 5ac:	0000                	unimp
 5ae:	0001                	nop
 5b0:	005c                	addi	a5,sp,4
 5b2:	0000                	unimp
 5b4:	0000                	unimp
 5b6:	0000                	unimp
 5b8:	3800                	fld	fs0,48(s0)
 5ba:	0000                	unimp
 5bc:	4c00                	lw	s0,24(s0)
 5be:	0000                	unimp
 5c0:	0100                	addi	s0,sp,128
 5c2:	5e00                	lw	s0,56(a2)
	...
 5cc:	006c                	addi	a1,sp,12
 5ce:	0000                	unimp
 5d0:	00f0                	addi	a2,sp,76
 5d2:	0000                	unimp
 5d4:	0001                	nop
 5d6:	0061                	c.nop	24
 5d8:	0000                	unimp
 5da:	0000                	unimp
 5dc:	0000                	unimp
 5de:	7800                	flw	fs0,48(s0)
 5e0:	0000                	unimp
 5e2:	d000                	sw	s0,32(s0)
 5e4:	0000                	unimp
 5e6:	0100                	addi	s0,sp,128
 5e8:	5c00                	lw	s0,56(s0)
 5ea:	00d0                	addi	a2,sp,68
 5ec:	0000                	unimp
 5ee:	00f0                	addi	a2,sp,76
 5f0:	0000                	unimp
 5f2:	00800007          	0x800007
 5f6:	2440                	fld	fs0,136(s0)
 5f8:	2540                	fld	fs0,136(a0)
 5fa:	009f 0000 0000      	0x9f
 600:	0000                	unimp
 602:	8000                	0x8000
 604:	0000                	unimp
 606:	9c00                	0x9c00
 608:	0000                	unimp
 60a:	0100                	addi	s0,sp,128
 60c:	5d00                	lw	s0,56(a0)
 60e:	009c                	addi	a5,sp,64
 610:	0000                	unimp
 612:	00ec                	addi	a1,sp,76
 614:	0000                	unimp
 616:	0001                	nop
 618:	005a                	c.slli	zero,0x16
 61a:	0000                	unimp
 61c:	0000                	unimp
 61e:	0000                	unimp
 620:	c000                	sw	s0,0(s0)
 622:	0000                	unimp
 624:	dc00                	sw	s0,56(s0)
 626:	0000                	unimp
 628:	0100                	addi	s0,sp,128
 62a:	5f00                	lw	s0,56(a4)
 62c:	00dc                	addi	a5,sp,68
 62e:	0000                	unimp
 630:	00f0                	addi	a2,sp,76
 632:	0000                	unimp
 634:	0001                	nop
 636:	005c                	addi	a5,sp,4
 638:	0000                	unimp
 63a:	0000                	unimp
 63c:	0000                	unimp
 63e:	8000                	0x8000
 640:	0000                	unimp
 642:	8c00                	0x8c00
 644:	0000                	unimp
 646:	0100                	addi	s0,sp,128
 648:	5e00                	lw	s0,56(a2)
 64a:	0090                	addi	a2,sp,64
 64c:	0000                	unimp
 64e:	0098                	addi	a4,sp,64
 650:	0000                	unimp
 652:	0001                	nop
 654:	985f 0000 9c00      	0x9c000000985f
 65a:	0000                	unimp
 65c:	0800                	addi	s0,sp,16
 65e:	7600                	flw	fs0,40(a2)
 660:	4000                	lw	s0,0(s0)
 662:	7e25                	lui	t3,0xfffe9
 664:	2100                	fld	fs0,0(a0)
 666:	9c9f 0000 c000      	0xc00000009c9f
 66c:	0000                	unimp
 66e:	0100                	addi	s0,sp,128
 670:	5f00                	lw	s0,56(a4)
	...
 67a:	00b4                	addi	a3,sp,72
 67c:	0000                	unimp
 67e:	00c4                	addi	s1,sp,68
 680:	0000                	unimp
 682:	0001                	nop
 684:	cc5e                	sw	s7,24(sp)
 686:	0000                	unimp
 688:	d800                	sw	s0,48(s0)
 68a:	0000                	unimp
 68c:	0100                	addi	s0,sp,128
 68e:	5600                	lw	s0,40(a2)
	...
 698:	0088                	addi	a0,sp,64
 69a:	0000                	unimp
 69c:	00cc                	addi	a1,sp,68
 69e:	0000                	unimp
 6a0:	0001                	nop
 6a2:	0000cc5b          	0xcc5b
 6a6:	f000                	fsw	fs0,32(s0)
 6a8:	0000                	unimp
 6aa:	0100                	addi	s0,sp,128
 6ac:	5d00                	lw	s0,56(a0)
	...
 6b6:	03f4                	addi	a3,sp,460
 6b8:	0000                	unimp
 6ba:	0424                	addi	s1,sp,520
 6bc:	0000                	unimp
 6be:	0001                	nop
 6c0:	005c                	addi	a5,sp,4
 6c2:	0000                	unimp
 6c4:	0000                	unimp
 6c6:	0000                	unimp
 6c8:	f400                	fsw	fs0,40(s0)
 6ca:	08000003          	lb	zero,128(zero) # 80 <main-0xfff4>
 6ce:	0004                	0x4
 6d0:	1000                	addi	s0,sp,32
 6d2:	8c00                	0x8c00
 6d4:	0a00                	addi	s0,sp,272
 6d6:	ffff                	0xffff
 6d8:	7e1a                	flw	ft8,164(sp)
 6da:	0a00                	addi	s0,sp,272
 6dc:	ffff                	0xffff
 6de:	401a                	0x401a
 6e0:	2224                	fld	fs1,64(a2)
 6e2:	089f 0004 1000      	0x10000004089f
 6e8:	0004                	0x4
 6ea:	1500                	addi	s0,sp,672
 6ec:	8c00                	0x8c00
 6ee:	0a00                	addi	s0,sp,272
 6f0:	ffff                	0xffff
 6f2:	8c1a                	mv	s8,t1
 6f4:	4000                	lw	s0,0(s0)
 6f6:	8025                	srli	s0,s0,0x9
 6f8:	2200                	fld	fs0,0(a2)
 6fa:	ff0a                	fsw	ft2,188(sp)
 6fc:	1aff                	0x1aff
 6fe:	2440                	fld	fs0,136(s0)
 700:	9f22                	add	t5,t5,s0
	...
 70a:	0328                	addi	a0,sp,392
 70c:	0000                	unimp
 70e:	03ac                	addi	a1,sp,456
 710:	0000                	unimp
 712:	0001                	nop
 714:	ac6d                	j	9ce <main-0xf6a6>
 716:	b8000003          	lb	zero,-1152(zero) # fffffb80 <__global_pointer$+0xfffe9e38>
 71a:	05000003          	lb	zero,80(zero) # 50 <main-0x10024>
 71e:	8000                	0x8000
 720:	4000                	lw	s0,0(s0)
 722:	9f25                	0x9f25
	...
 72c:	0330                	addi	a2,sp,392
 72e:	0000                	unimp
 730:	037c                	addi	a5,sp,396
 732:	0000                	unimp
 734:	0001                	nop
 736:	7c5f 0003 b800      	0xb80000037c5f
 73c:	07000003          	lb	zero,112(zero) # 70 <main-0x10004>
 740:	8000                	0x8000
 742:	4000                	lw	s0,0(s0)
 744:	4024                	lw	s1,64(s0)
 746:	9f25                	0x9f25
	...
 750:	0338                	addi	a4,sp,392
 752:	0000                	unimp
 754:	0354                	addi	a3,sp,388
 756:	0000                	unimp
 758:	0001                	nop
 75a:	546c                	lw	a1,108(s0)
 75c:	a8000003          	lb	zero,-1408(zero) # fffffa80 <__global_pointer$+0xfffe9d38>
 760:	01000003          	lb	zero,16(zero) # 10 <main-0x10064>
 764:	5a00                	lw	s0,48(a2)
	...
 76e:	0370                	addi	a2,sp,396
 770:	0000                	unimp
 772:	0394                	addi	a3,sp,448
 774:	0000                	unimp
 776:	0001                	nop
 778:	945e                	add	s0,s0,s7
 77a:	bc000003          	lb	zero,-1088(zero) # fffffbc0 <__global_pointer$+0xfffe9e78>
 77e:	01000003          	lb	zero,16(zero) # 10 <main-0x10064>
 782:	5c00                	lw	s0,56(s0)
	...
 78c:	0330                	addi	a2,sp,392
 78e:	0000                	unimp
 790:	033c                	addi	a5,sp,392
 792:	0000                	unimp
 794:	0001                	nop
 796:	445d                	li	s0,23
 798:	50000003          	lb	zero,1280(zero) # 500 <main-0xfb74>
 79c:	01000003          	lb	zero,16(zero) # 10 <main-0x10064>
 7a0:	5e00                	lw	s0,56(a2)
 7a2:	0350                	addi	a2,sp,388
 7a4:	0000                	unimp
 7a6:	0354                	addi	a3,sp,388
 7a8:	0000                	unimp
 7aa:	0008                	0x8
 7ac:	007c                	addi	a5,sp,12
 7ae:	2540                	fld	fs0,136(a0)
 7b0:	007d                	c.nop	31
 7b2:	9f21                	0x9f21
 7b4:	0354                	addi	a3,sp,388
 7b6:	0000                	unimp
 7b8:	0370                	addi	a2,sp,396
 7ba:	0000                	unimp
 7bc:	0001                	nop
 7be:	005e                	c.slli	zero,0x17
 7c0:	0000                	unimp
 7c2:	0000                	unimp
 7c4:	0000                	unimp
 7c6:	6c00                	flw	fs0,24(s0)
 7c8:	74000003          	lb	zero,1856(zero) # 740 <main-0xf934>
 7cc:	01000003          	lb	zero,16(zero) # 10 <main-0x10064>
 7d0:	5d00                	lw	s0,56(a0)
 7d2:	0384                	addi	s1,sp,448
 7d4:	0000                	unimp
 7d6:	0390                	addi	a2,sp,448
 7d8:	0000                	unimp
 7da:	0001                	nop
 7dc:	945f 0003 0000      	0x3945f
 7e2:	0004                	0x4
 7e4:	0100                	addi	s0,sp,128
 7e6:	5f00                	lw	s0,56(a4)
	...
 7f0:	0344                	addi	s1,sp,388
 7f2:	0000                	unimp
 7f4:	0378                	addi	a4,sp,396
 7f6:	0000                	unimp
 7f8:	0001                	nop
 7fa:	786e                	flw	fa6,248(sp)
 7fc:	cc000003          	lb	zero,-832(zero) # fffffcc0 <__global_pointer$+0xfffe9f78>
 800:	01000003          	lb	zero,16(zero) # 10 <main-0x10064>
 804:	6c00                	flw	fs0,24(s0)
	...
 80e:	03cc                	addi	a1,sp,452
 810:	0000                	unimp
 812:	0410                	addi	a2,sp,512
 814:	0000                	unimp
 816:	0001                	nop
 818:	006c                	addi	a1,sp,12
 81a:	0000                	unimp
 81c:	0000                	unimp
 81e:	0000                	unimp
 820:	cc00                	sw	s0,24(s0)
 822:	d8000003          	lb	zero,-640(zero) # fffffd80 <__global_pointer$+0xfffea038>
 826:	06000003          	lb	zero,96(zero) # 60 <main-0x10014>
 82a:	8000                	0x8000
 82c:	7600                	flw	fs0,40(a2)
 82e:	1e00                	addi	s0,sp,816
 830:	d89f 0003 dc00      	0xdc000003d89f
 836:	01000003          	lb	zero,16(zero) # 10 <main-0x10064>
 83a:	6000                	flw	fs0,0(s0)
 83c:	03dc                	addi	a5,sp,452
 83e:	0000                	unimp
 840:	03e4                	addi	s1,sp,460
 842:	0000                	unimp
 844:	0009                	c.nop	2
 846:	7f8d                	lui	t6,0xfffe3
 848:	007a                	c.slli	zero,0x1e
 84a:	761a                	flw	fa2,164(sp)
 84c:	1e00                	addi	s0,sp,816
 84e:	e49f 0003 0800      	0x8000003e49f
 854:	0004                	0x4
 856:	0100                	addi	s0,sp,128
 858:	5e00                	lw	s0,56(a2)
 85a:	0408                	addi	a0,sp,512
 85c:	0000                	unimp
 85e:	0410                	addi	a2,sp,512
 860:	0000                	unimp
 862:	0008                	0x8
 864:	008c                	addi	a1,sp,64
 866:	2540                	fld	fs0,136(a0)
 868:	0080                	addi	s0,sp,64
 86a:	9f22                	add	t5,t5,s0
	...
 874:	03d0                	addi	a2,sp,452
 876:	0000                	unimp
 878:	03f0                	addi	a2,sp,460
 87a:	0000                	unimp
 87c:	0001                	nop
 87e:	005d                	c.nop	23
 880:	0000                	unimp
 882:	0000                	unimp
 884:	0000                	unimp
 886:	e400                	fsw	fs0,8(s0)
 888:	f4000003          	lb	zero,-192(zero) # ffffff40 <__global_pointer$+0xfffea1f8>
 88c:	01000003          	lb	zero,16(zero) # 10 <main-0x10064>
 890:	5c00                	lw	s0,56(s0)
	...
 89a:	03c8                	addi	a0,sp,452
 89c:	0000                	unimp
 89e:	03d8                	addi	a4,sp,452
 8a0:	0000                	unimp
 8a2:	0001                	nop
 8a4:	d860                	sw	s0,116(s0)
 8a6:	04000003          	lb	zero,64(zero) # 40 <main-0x10034>
 8aa:	0004                	0x4
 8ac:	0600                	addi	s0,sp,768
 8ae:	8d00                	0x8d00
 8b0:	7a7f                	0x7a7f
 8b2:	1a00                	addi	s0,sp,304
 8b4:	049f 0004 2000      	0x20000004049f
 8ba:	0004                	0x4
 8bc:	0600                	addi	s0,sp,768
 8be:	7a00                	flw	fs0,48(a2)
 8c0:	7f00                	flw	fs0,56(a4)
 8c2:	1a00                	addi	s0,sp,304
 8c4:	209f 0004 2400      	0x24000004209f
 8ca:	0004                	0x4
 8cc:	0600                	addi	s0,sp,768
 8ce:	8d00                	0x8d00
 8d0:	7a7f                	0x7a7f
 8d2:	1a00                	addi	s0,sp,304
 8d4:	249f 0004 2800      	0x28000004249f
 8da:	0004                	0x4
 8dc:	0600                	addi	s0,sp,768
 8de:	7a00                	flw	fs0,48(a2)
 8e0:	8d01                	sub	a0,a0,s0
 8e2:	1a7f                	0x1a7f
 8e4:	009f 0000 0000      	0x9f
 8ea:	0000                	unimp
 8ec:	c800                	sw	s0,16(s0)
 8ee:	d0000003          	lb	zero,-768(zero) # fffffd00 <__global_pointer$+0xfffe9fb8>
 8f2:	01000003          	lb	zero,16(zero) # 10 <main-0x10064>
 8f6:	5d00                	lw	s0,56(a0)
	...
 900:	03c8                	addi	a0,sp,452
 902:	0000                	unimp
 904:	03e4                	addi	s1,sp,460
 906:	0000                	unimp
 908:	0001                	nop
 90a:	e45c                	fsw	fa5,12(s0)
 90c:	24000003          	lb	zero,576(zero) # 240 <main-0xfe34>
 910:	0004                	0x4
 912:	0500                	addi	s0,sp,640
 914:	7a00                	flw	fs0,48(a2)
 916:	4000                	lw	s0,0(s0)
 918:	9f25                	0x9f25
 91a:	0424                	addi	s1,sp,520
 91c:	0000                	unimp
 91e:	0428                	addi	a0,sp,520
 920:	0000                	unimp
 922:	0005                	c.nop	1
 924:	017a                	slli	sp,sp,0x1e
 926:	2540                	fld	fs0,136(a0)
 928:	009f 0000 0000      	0x9f
 92e:	0000                	unimp
 930:	c800                	sw	s0,16(s0)
 932:	28000003          	lb	zero,640(zero) # 280 <main-0xfdf4>
 936:	0004                	0x4
 938:	0100                	addi	s0,sp,128
 93a:	5600                	lw	s0,40(a2)
	...
 944:	0118                	addi	a4,sp,128
 946:	0000                	unimp
 948:	01d8                	addi	a4,sp,196
 94a:	0000                	unimp
 94c:	0001                	nop
 94e:	dc60                	sw	s0,124(s0)
 950:	0001                	nop
 952:	f000                	fsw	fs0,32(s0)
 954:	0001                	nop
 956:	0100                	addi	s0,sp,128
 958:	6000                	flw	fs0,0(s0)
 95a:	01f0                	addi	a2,sp,204
 95c:	0000                	unimp
 95e:	01f4                	addi	a3,sp,204
 960:	0000                	unimp
 962:	0009                	c.nop	2
 964:	0080                	addi	s0,sp,64
 966:	007d                	c.nop	31
 968:	ff08                	fsw	fa0,56(a4)
 96a:	241a                	fld	fs0,384(sp)
 96c:	f49f 0001 9c00      	0x9c000001f49f
 972:	0002                	c.slli64	zero
 974:	0100                	addi	s0,sp,128
 976:	6000                	flw	fs0,0(s0)
	...
 980:	012c                	addi	a1,sp,136
 982:	0000                	unimp
 984:	0150                	addi	a2,sp,132
 986:	0000                	unimp
 988:	0001                	nop
 98a:	f05a                	fsw	fs6,32(sp)
 98c:	0001                	nop
 98e:	f800                	fsw	fs0,48(s0)
 990:	0001                	nop
 992:	0100                	addi	s0,sp,128
 994:	5a00                	lw	s0,48(a2)
	...
 99e:	0154                	addi	a3,sp,132
 9a0:	0000                	unimp
 9a2:	01d8                	addi	a4,sp,196
 9a4:	0000                	unimp
 9a6:	0001                	nop
 9a8:	0061                	c.nop	24
 9aa:	0000                	unimp
 9ac:	0000                	unimp
 9ae:	0000                	unimp
 9b0:	5c00                	lw	s0,56(s0)
 9b2:	0001                	nop
 9b4:	b800                	fsd	fs0,48(s0)
 9b6:	0001                	nop
 9b8:	0100                	addi	s0,sp,128
 9ba:	5c00                	lw	s0,56(s0)
 9bc:	01b8                	addi	a4,sp,200
 9be:	0000                	unimp
 9c0:	01d8                	addi	a4,sp,196
 9c2:	0000                	unimp
 9c4:	00800007          	0x800007
 9c8:	2440                	fld	fs0,136(s0)
 9ca:	2540                	fld	fs0,136(a0)
 9cc:	009f 0000 0000      	0x9f
 9d2:	0000                	unimp
 9d4:	6800                	flw	fs0,16(s0)
 9d6:	0001                	nop
 9d8:	8400                	0x8400
 9da:	0001                	nop
 9dc:	0100                	addi	s0,sp,128
 9de:	5f00                	lw	s0,56(a4)
 9e0:	0184                	addi	s1,sp,192
 9e2:	0000                	unimp
 9e4:	01d4                	addi	a3,sp,196
 9e6:	0000                	unimp
 9e8:	0001                	nop
 9ea:	005a                	c.slli	zero,0x16
 9ec:	0000                	unimp
 9ee:	0000                	unimp
 9f0:	0000                	unimp
 9f2:	a800                	fsd	fs0,16(s0)
 9f4:	0001                	nop
 9f6:	c400                	sw	s0,8(s0)
 9f8:	0001                	nop
 9fa:	0100                	addi	s0,sp,128
 9fc:	5e00                	lw	s0,56(a2)
 9fe:	01c4                	addi	s1,sp,196
 a00:	0000                	unimp
 a02:	01d8                	addi	a4,sp,196
 a04:	0000                	unimp
 a06:	0001                	nop
 a08:	005c                	addi	a5,sp,4
 a0a:	0000                	unimp
 a0c:	0000                	unimp
 a0e:	0000                	unimp
 a10:	6400                	flw	fs0,8(s0)
 a12:	0001                	nop
 a14:	6c00                	flw	fs0,24(s0)
 a16:	0001                	nop
 a18:	0100                	addi	s0,sp,128
 a1a:	5d00                	lw	s0,56(a0)
 a1c:	0174                	addi	a3,sp,140
 a1e:	0000                	unimp
 a20:	0180                	addi	s0,sp,192
 a22:	0000                	unimp
 a24:	0001                	nop
 a26:	805e                	c.mv	zero,s7
 a28:	0001                	nop
 a2a:	8400                	0x8400
 a2c:	0001                	nop
 a2e:	0800                	addi	s0,sp,16
 a30:	7600                	flw	fs0,40(a2)
 a32:	4000                	lw	s0,0(s0)
 a34:	7d25                	lui	s10,0xfffe9
 a36:	2100                	fld	fs0,0(a0)
 a38:	849f 0001 a800      	0xa8000001849f
 a3e:	0001                	nop
 a40:	0100                	addi	s0,sp,128
 a42:	5e00                	lw	s0,56(a2)
	...
 a4c:	019c                	addi	a5,sp,192
 a4e:	0000                	unimp
 a50:	01ac                	addi	a1,sp,200
 a52:	0000                	unimp
 a54:	0001                	nop
 a56:	b45f 0001 c000      	0xc0000001b45f
 a5c:	0001                	nop
 a5e:	0100                	addi	s0,sp,128
 a60:	5600                	lw	s0,40(a2)
	...
 a6a:	0174                	addi	a3,sp,140
 a6c:	0000                	unimp
 a6e:	01b4                	addi	a3,sp,200
 a70:	0000                	unimp
 a72:	0001                	nop
 a74:	b46c                	fsd	fa1,232(s0)
 a76:	0001                	nop
 a78:	d800                	sw	s0,48(s0)
 a7a:	0001                	nop
 a7c:	0100                	addi	s0,sp,128
 a7e:	5d00                	lw	s0,56(a0)
	...
 a88:	020c                	addi	a1,sp,256
 a8a:	0000                	unimp
 a8c:	029c                	addi	a5,sp,320
 a8e:	0000                	unimp
 a90:	0001                	nop
 a92:	0061                	c.nop	24
 a94:	0000                	unimp
 a96:	0000                	unimp
 a98:	0000                	unimp
 a9a:	1800                	addi	s0,sp,48
 a9c:	0002                	c.slli64	zero
 a9e:	6c00                	flw	fs0,24(s0)
 aa0:	0002                	c.slli64	zero
 aa2:	0100                	addi	s0,sp,128
 aa4:	5f00                	lw	s0,56(a4)
 aa6:	026c                	addi	a1,sp,268
 aa8:	0000                	unimp
 aaa:	029c                	addi	a5,sp,320
 aac:	0000                	unimp
 aae:	00800007          	0x800007
 ab2:	2440                	fld	fs0,136(s0)
 ab4:	2540                	fld	fs0,136(a0)
 ab6:	009f 0000 0000      	0x9f
 abc:	0000                	unimp
 abe:	2000                	fld	fs0,0(s0)
 ac0:	0002                	c.slli64	zero
 ac2:	3c00                	fld	fs0,56(s0)
 ac4:	0002                	c.slli64	zero
 ac6:	0100                	addi	s0,sp,128
 ac8:	5a00                	lw	s0,48(a2)
 aca:	023c                	addi	a5,sp,264
 acc:	0000                	unimp
 ace:	0290                	addi	a2,sp,320
 ad0:	0000                	unimp
 ad2:	0001                	nop
 ad4:	0000005b          	0x5b
 ad8:	0000                	unimp
 ada:	0000                	unimp
 adc:	6000                	flw	fs0,0(s0)
 ade:	0002                	c.slli64	zero
 ae0:	7c00                	flw	fs0,56(s0)
 ae2:	0002                	c.slli64	zero
 ae4:	0100                	addi	s0,sp,128
 ae6:	5d00                	lw	s0,56(a0)
 ae8:	027c                	addi	a5,sp,268
 aea:	0000                	unimp
 aec:	029c                	addi	a5,sp,320
 aee:	0000                	unimp
 af0:	0001                	nop
 af2:	005e                	c.slli	zero,0x17
 af4:	0000                	unimp
 af6:	0000                	unimp
 af8:	0000                	unimp
 afa:	1800                	addi	s0,sp,48
 afc:	0002                	c.slli64	zero
 afe:	2400                	fld	fs0,8(s0)
 b00:	0002                	c.slli64	zero
 b02:	0100                	addi	s0,sp,128
 b04:	5e00                	lw	s0,56(a2)
 b06:	022c                	addi	a1,sp,264
 b08:	0000                	unimp
 b0a:	0238                	addi	a4,sp,264
 b0c:	0000                	unimp
 b0e:	0001                	nop
 b10:	3c5e                	fld	fs8,496(sp)
 b12:	0002                	c.slli64	zero
 b14:	5000                	lw	s0,32(s0)
 b16:	0002                	c.slli64	zero
 b18:	0100                	addi	s0,sp,128
 b1a:	5e00                	lw	s0,56(a2)
 b1c:	0250                	addi	a2,sp,260
 b1e:	0000                	unimp
 b20:	0260                	addi	s0,sp,268
 b22:	0000                	unimp
 b24:	0001                	nop
 b26:	005d                	c.nop	23
 b28:	0000                	unimp
 b2a:	0000                	unimp
 b2c:	0000                	unimp
 b2e:	5400                	lw	s0,40(s0)
 b30:	0002                	c.slli64	zero
 b32:	6400                	flw	fs0,8(s0)
 b34:	0002                	c.slli64	zero
 b36:	0100                	addi	s0,sp,128
 b38:	5e00                	lw	s0,56(a2)
 b3a:	026c                	addi	a1,sp,268
 b3c:	0000                	unimp
 b3e:	0278                	addi	a4,sp,268
 b40:	0000                	unimp
 b42:	0001                	nop
 b44:	7c5f 0002 9c00      	0x9c0000027c5f
 b4a:	0002                	c.slli64	zero
 b4c:	0100                	addi	s0,sp,128
 b4e:	5f00                	lw	s0,56(a4)
	...
 b58:	022c                	addi	a1,sp,264
 b5a:	0000                	unimp
 b5c:	0250                	addi	a2,sp,260
 b5e:	0000                	unimp
 b60:	0001                	nop
 b62:	505d                	c.li	zero,-9
 b64:	0002                	c.slli64	zero
 b66:	6800                	flw	fs0,16(s0)
 b68:	0002                	c.slli64	zero
 b6a:	0600                	addi	s0,sp,768
 b6c:	7f00                	flw	fs0,56(a4)
 b6e:	7a00                	flw	fs0,48(a2)
 b70:	1e00                	addi	s0,sp,816
 b72:	689f 0002 9c00      	0x9c000002689f
 b78:	0002                	c.slli64	zero
 b7a:	0100                	addi	s0,sp,128
 b7c:	5a00                	lw	s0,48(a2)
	...
 b86:	02a0                	addi	s0,sp,328
 b88:	0000                	unimp
 b8a:	02bc                	addi	a5,sp,328
 b8c:	0000                	unimp
 b8e:	0001                	nop
 b90:	bc5a                	fsd	fs6,56(sp)
 b92:	0002                	c.slli64	zero
 b94:	ec00                	fsw	fs0,24(s0)
 b96:	0002                	c.slli64	zero
 b98:	0100                	addi	s0,sp,128
 b9a:	5d00                	lw	s0,56(a0)
 b9c:	02ec                	addi	a1,sp,332
 b9e:	0000                	unimp
 ba0:	0300                	addi	s0,sp,384
 ba2:	0000                	unimp
 ba4:	0001                	nop
 ba6:	005a                	c.slli	zero,0x16
 ba8:	08000003          	lb	zero,128(zero) # 80 <main-0xfff4>
 bac:	01000003          	lb	zero,16(zero) # 10 <main-0x10064>
 bb0:	5d00                	lw	s0,56(a0)
	...
 bba:	02b4                	addi	a3,sp,328
 bbc:	0000                	unimp
 bbe:	02d4                	addi	a3,sp,324
 bc0:	0000                	unimp
 bc2:	0001                	nop
 bc4:	0000005b          	0x5b
 bc8:	0000                	unimp
 bca:	0000                	unimp
	...

Disassembly of section .debug_ranges:

00000000 <.debug_ranges>:
   0:	0004                	0x4
   2:	0000                	unimp
   4:	0004                	0x4
   6:	0000                	unimp
   8:	0008                	0x8
   a:	0000                	unimp
   c:	01d8                	addi	a4,sp,196
   e:	0000                	unimp
  10:	01dc                	addi	a5,sp,196
  12:	0000                	unimp
  14:	0424                	addi	s1,sp,520
  16:	0000                	unimp
  18:	0428                	addi	a0,sp,520
  1a:	0000                	unimp
  1c:	0434                	addi	a3,sp,520
	...
  26:	0000                	unimp
  28:	0024                	addi	s1,sp,8
  2a:	0000                	unimp
  2c:	0050                	addi	a2,sp,4
  2e:	0000                	unimp
  30:	00f8                	addi	a4,sp,76
  32:	0000                	unimp
  34:	010c                	addi	a1,sp,128
	...
  3e:	0000                	unimp
  40:	00f0                	addi	a2,sp,76
  42:	0000                	unimp
  44:	00f8                	addi	a4,sp,76
  46:	0000                	unimp
  48:	0300                	addi	s0,sp,384
  4a:	0000                	unimp
  4c:	0424                	addi	s1,sp,520
	...
  56:	0000                	unimp
  58:	0310                	addi	a2,sp,384
  5a:	0000                	unimp
  5c:	0318                	addi	a4,sp,384
  5e:	0000                	unimp
  60:	0328                	addi	a0,sp,392
  62:	0000                	unimp
  64:	03a8                	addi	a0,sp,456
  66:	0000                	unimp
  68:	03ac                	addi	a1,sp,456
  6a:	0000                	unimp
  6c:	03b0                	addi	a2,sp,456
  6e:	0000                	unimp
  70:	03c4                	addi	s1,sp,452
  72:	0000                	unimp
  74:	03c8                	addi	a0,sp,452
	...
  7e:	0000                	unimp
  80:	03a8                	addi	a0,sp,456
  82:	0000                	unimp
  84:	03ac                	addi	a1,sp,456
  86:	0000                	unimp
  88:	03b0                	addi	a2,sp,456
  8a:	0000                	unimp
  8c:	03c4                	addi	s1,sp,452
  8e:	0000                	unimp
  90:	03c8                	addi	a0,sp,452
  92:	0000                	unimp
  94:	03f4                	addi	a3,sp,460
  96:	0000                	unimp
  98:	03fc                	addi	a5,sp,460
  9a:	0000                	unimp
  9c:	0410                	addi	a2,sp,512
  9e:	0000                	unimp
  a0:	0414                	addi	a3,sp,512
  a2:	0000                	unimp
  a4:	0418                	addi	a4,sp,512
	...
  ae:	0000                	unimp
  b0:	0118                	addi	a4,sp,128
  b2:	0000                	unimp
  b4:	0144                	addi	s1,sp,132
  b6:	0000                	unimp
  b8:	01dc                	addi	a5,sp,196
  ba:	0000                	unimp
  bc:	01f0                	addi	a2,sp,204
	...
  c6:	0000                	unimp
  c8:	0204                	addi	s1,sp,256
  ca:	0000                	unimp
  cc:	0208                	addi	a0,sp,256
  ce:	0000                	unimp
  d0:	020c                	addi	a1,sp,256
  d2:	0000                	unimp
  d4:	029c                	addi	a5,sp,320
	...
  de:	0000                	unimp
  e0:	02a0                	addi	s0,sp,328
  e2:	0000                	unimp
  e4:	02d4                	addi	a3,sp,324
  e6:	0000                	unimp
  e8:	02ec                	addi	a1,sp,332
  ea:	0000                	unimp
  ec:	0300                	addi	s0,sp,384
	...

./miniterm.elf:     file format elf32-littleriscv
./miniterm.elf
architecture: riscv:rv32, flags 0x00000112:
EXEC_P, HAS_SYMS, D_PAGED
start address 0x00010628

Program Header:
    LOAD off    0x00000000 vaddr 0x00010000 paddr 0x00010000 align 2**12
         filesz 0x000041f8 memsz 0x000041f8 flags r-x
    LOAD off    0x000041f8 vaddr 0x000151f8 paddr 0x000151f8 align 2**12
         filesz 0x000007c0 memsz 0x00000ae8 flags rw-

Sections:
Idx Name          Size      VMA       LMA       File off  Algn
  0 .text         0000273c  00010074  00010074  00000074  2**2
                  CONTENTS, ALLOC, LOAD, READONLY, CODE
  1 .rodata       00001a48  000127b0  000127b0  000027b0  2**2
                  CONTENTS, ALLOC, LOAD, READONLY, DATA
  2 .eh_frame     00000340  000151f8  000151f8  000041f8  2**2
                  CONTENTS, ALLOC, LOAD, DATA
  3 .init_array   0000000c  00015538  00015538  00004538  2**2
                  CONTENTS, ALLOC, LOAD, DATA
  4 .fini_array   00000004  00015544  00015544  00004544  2**2
                  CONTENTS, ALLOC, LOAD, DATA
  5 .data         00000440  00015548  00015548  00004548  2**3
                  CONTENTS, ALLOC, LOAD, DATA
  6 .got          00000028  00015988  00015988  00004988  2**2
                  CONTENTS, ALLOC, LOAD, DATA
  7 .sdata        00000008  000159b0  000159b0  000049b0  2**2
                  CONTENTS, ALLOC, LOAD, DATA
  8 .bss          00000328  000159b8  000159b8  000049b8  2**2
                  ALLOC
  9 .comment      00000012  00000000  00000000  000049b8  2**0
                  CONTENTS, READONLY
 10 .riscv.attributes 0000002a  00000000  00000000  000049ca  2**0
                  CONTENTS, READONLY
 11 .debug_aranges 00000038  00000000  00000000  000049f4  2**0
                  CONTENTS, READONLY, DEBUGGING, OCTETS
 12 .debug_info   00000889  00000000  00000000  00004a2c  2**0
                  CONTENTS, READONLY, DEBUGGING, OCTETS
 13 .debug_abbrev 0000020d  00000000  00000000  000052b5  2**0
                  CONTENTS, READONLY, DEBUGGING, OCTETS
 14 .debug_line   000007a8  00000000  00000000  000054c2  2**0
                  CONTENTS, READONLY, DEBUGGING, OCTETS
 15 .debug_str    0000033f  00000000  00000000  00005c6a  2**0
                  CONTENTS, READONLY, DEBUGGING, OCTETS
 16 .debug_loc    00000bcd  00000000  00000000  00005fa9  2**0
                  CONTENTS, READONLY, DEBUGGING, OCTETS
 17 .debug_ranges 000000f8  00000000  00000000  00006b76  2**0
                  CONTENTS, READONLY, DEBUGGING, OCTETS
SYMBOL TABLE:
00010074 l    d  .text	00000000 .text
000127b0 l    d  .rodata	00000000 .rodata
000151f8 l    d  .eh_frame	00000000 .eh_frame
00015538 l    d  .init_array	00000000 .init_array
00015544 l    d  .fini_array	00000000 .fini_array
00015548 l    d  .data	00000000 .data
00015988 l    d  .got	00000000 .got
000159b0 l    d  .sdata	00000000 .sdata
000159b8 l    d  .bss	00000000 .bss
00000000 l    d  .comment	00000000 .comment
00000000 l    d  .riscv.attributes	00000000 .riscv.attributes
00000000 l    d  .debug_aranges	00000000 .debug_aranges
00000000 l    d  .debug_info	00000000 .debug_info
00000000 l    d  .debug_abbrev	00000000 .debug_abbrev
00000000 l    d  .debug_line	00000000 .debug_line
00000000 l    d  .debug_str	00000000 .debug_str
00000000 l    d  .debug_loc	00000000 .debug_loc
00000000 l    d  .debug_ranges	00000000 .debug_ranges
00000000 l    df *ABS*	00000000 miniterm.cpp
00000000 l    df *ABS*	00000000 gpu.cpp
000105f4 l     F .text	0000001c _GLOBAL__sub_I_gpu.cpp
00000000 l    df *ABS*	00000000 __call_atexit.c
00010610 l     F .text	00000018 register_fini
00000000 l    df *ABS*	00000000 crtstuff.c
000151f8 l     O .eh_frame	00000000 __EH_FRAME_BEGIN__
00010674 l     F .text	00000000 __do_global_dtors_aux
000159b8 l     O .bss	00000001 completed.1
00015544 l     O .fini_array	00000000 __do_global_dtors_aux_fini_array_entry
000106c0 l     F .text	00000000 frame_dummy
000159bc l     O .bss	00000018 object.0
0001553c l     O .init_array	00000000 __frame_dummy_init_array_entry
00000000 l    df *ABS*	00000000 uart.cpp
00000000 l    df *ABS*	00000000 core.cpp
00000000 l    df *ABS*	00000000 console.cpp
000159d4 l     O .bss	00000300 _ZL11consoleText
00015cd4 l     O .bss	00000004 _ZL7cursorx
00015cd8 l     O .bss	00000004 _ZL7cursory
00000000 l    df *ABS*	00000000 libgcc2.c
00000000 l    df *ABS*	00000000 errno.c
00000000 l    df *ABS*	00000000 exit.c
00000000 l    df *ABS*	00000000 init.c
00000000 l    df *ABS*	00000000 memcpy.c
00000000 l    df *ABS*	00000000 fini.c
00000000 l    df *ABS*	00000000 atexit.c
00000000 l    df *ABS*	00000000 __atexit.c
00000000 l    df *ABS*	00000000 sys_exit.c
00000000 l    df *ABS*	00000000 libgcc2.c
00000000 l    df *ABS*	00000000 debugger.cpp
00000000 l    df *ABS*	00000000 sdcard.cpp
00000000 l    df *ABS*	00000000 ff.c
00000000 l    df *ABS*	00000000 ffunicode.c
00000000 l    df *ABS*	00000000 diskio.c
00000000 l    df *ABS*	00000000 memtest.c
00000000 l    df *ABS*	00000000 nanojpeg.c
00000000 l    df *ABS*	00000000 micromod.c
00000000 l    df *ABS*	00000000 crtstuff.c
00015534 l     O .eh_frame	00000000 __FRAME_END__
00000000 l    df *ABS*	00000000 impure.c
00015560 l     O .data	00000428 impure_data
00000000 l    df *ABS*	00000000 
00015548 l       .fini_array	00000000 __fini_array_end
00015544 l       .fini_array	00000000 __fini_array_start
00015544 l       .init_array	00000000 __init_array_end
00015538 l       .init_array	00000000 __preinit_array_end
00015990 l     O .got	00000000 _GLOBAL_OFFSET_TABLE_
00015538 l       .init_array	00000000 __init_array_start
00015538 l       .init_array	00000000 __preinit_array_start
00011218 g     F .text	0000004c _Z11ClearScreenh
00015d48 g       *ABS*	00000000 __global_pointer$
0001555c g     O .data	00000004 IO_GPUCommandFIFO
00015558 g     O .data	00000004 GraphicsFontStart
00012280 g     F .text	00000008 __errno
00011298 g     F .text	00000344 _Z8PrintDMAiiPKcb
0001554c g     O .data	00000004 IO_UARTRX
000159b0 g       .sdata	00000000 __SDATA_BEGIN__
00015cdc g     O .bss	00000004 font
00012354 g     F .text	00000128 memcpy
000108f8 g     F .text	0000003c _Z16SetConsoleCursorii
000110d8 g     F .text	0000005c _Z11DrawConsolev
000108dc g     F .text	0000001c _Z15ClearConsoleRowv
000159b0 g     O .sdata	00000004 _global_impure_ptr
000122b8 g     F .text	0000009c __libc_init_array
00010848 g     F .text	00000014 _Z9ReadClockv
0001085c g     F .text	00000024 _Z9ClockToMsy
00011e4c g     F .text	00000434 .hidden __udivdi3
000108c4 g     F .text	00000018 _Z12ClearConsolev
00012678 g     F .text	0000005c __libc_fini_array
00011040 g     F .text	00000098 _Z18EchoConsoleHexBytel
00011134 g     F .text	000000e4 _Z18ConsoleStringAtRowPc
00012558 g     F .text	00000120 __call_exitprocs
00010628 g     F .text	0000004c _start
00010880 g     F .text	00000044 _Z12ClockMsToHMSmRmS_S_
000109b8 g     F .text	00000048 _Z21ConsoleCursorStepBackv
000126e8 g     F .text	00000098 __register_exitproc
00010934 g     F .text	00000070 _Z13ScrollConsolev
00015ce0 g       .bss	00000000 __BSS_END__
00010ec0 g     F .text	00000180 _Z14EchoConsoleHexl
000159b8 g       .bss	00000000 __bss_start
00010afc g     F .text	000003c4 _Z11EchoConsolel
00011264 g     F .text	00000034 _Z8InitFontv
0001247c g     F .text	000000dc memset
00010074 g     F .text	00000580 main
0001070c g     F .text	0000013c _Z7EchoHexm
000140f8 g     O .rodata	00000100 .hidden __clz_tab
000126d4 g     F .text	00000014 atexit
00015554 g     O .data	00000004 IO_UARTTX
000159b4 g     O .sdata	00000004 _impure_ptr
00011978 g     F .text	000000f8 _Z11PrintDMAHexiim
00015550 g     O .data	00000004 IO_UARTRXByteCount
00015548 g     O .data	00000004 branchaddress
00015548 g       .data	00000000 __DATA_BEGIN__
000106e0 g     F .text	0000002c _Z8EchoUARTPKc
000115dc g     F .text	0000039c _Z8PrintDMAiiiPKcb
000159b8 g       .sdata	00000000 _edata
00015ce0 g       .bss	00000000 _end
00012288 g     F .text	00000030 exit
00012780 g     F .text	00000030 _exit
000109a4 g     F .text	00000014 _Z16GetConsoleCursorRiS_
00011a70 g     F .text	000003dc _Z15PrintDMADecimaliiib
00010a00 g     F .text	000000fc _Z11EchoConsolePKc



Disassembly of section .text:

00010074 <main>:
   10074:	c4010113          	addi	sp,sp,-960
   10078:	3a112e23          	sw	ra,956(sp)
   1007c:	3a812c23          	sw	s0,952(sp)
   10080:	3a912a23          	sw	s1,948(sp)
   10084:	3b212823          	sw	s2,944(sp)
   10088:	3b312623          	sw	s3,940(sp)
   1008c:	00006917          	auipc	s2,0x6
   10090:	90892903          	lw	s2,-1784(s2) # 15994 <_GLOBAL_OFFSET_TABLE_+0x4>
   10094:	3b412423          	sw	s4,936(sp)
   10098:	3b512223          	sw	s5,932(sp)
   1009c:	3b612023          	sw	s6,928(sp)
   100a0:	39712e23          	sw	s7,924(sp)
   100a4:	39812c23          	sw	s8,920(sp)
   100a8:	39a12823          	sw	s10,912(sp)
   100ac:	39b12623          	sw	s11,908(sp)
   100b0:	39912a23          	sw	s9,916(sp)
   100b4:	1b0010ef          	jal	ra,11264 <_Z8InitFontv>
   100b8:	00092783          	lw	a5,0(s2)
   100bc:	30100713          	li	a4,769
   100c0:	36100493          	li	s1,865
   100c4:	00e7a023          	sw	a4,0(a5)
   100c8:	0097a023          	sw	s1,0(a5)
   100cc:	06700413          	li	s0,103
   100d0:	0087a023          	sw	s0,0(a5)
   100d4:	7f0000ef          	jal	ra,108c4 <_Z12ClearConsolev>
   100d8:	01a00513          	li	a0,26
   100dc:	13c010ef          	jal	ra,11218 <_Z11ClearScreenh>
   100e0:	00002517          	auipc	a0,0x2
   100e4:	6d050513          	addi	a0,a0,1744 # 127b0 <_exit+0x30>
   100e8:	119000ef          	jal	ra,10a00 <_Z11EchoConsolePKc>
   100ec:	00002517          	auipc	a0,0x2
   100f0:	70450513          	addi	a0,a0,1796 # 127f0 <_exit+0x70>
   100f4:	5ec000ef          	jal	ra,106e0 <_Z8EchoUARTPKc>
   100f8:	7e1000ef          	jal	ra,110d8 <_Z11DrawConsolev>
   100fc:	00006797          	auipc	a5,0x6
   10100:	89c7a783          	lw	a5,-1892(a5) # 15998 <_GLOBAL_OFFSET_TABLE_+0x8>
   10104:	00092683          	lw	a3,0(s2)
   10108:	0007a903          	lw	s2,0(a5)
   1010c:	70100793          	li	a5,1793
   10110:	00f6a023          	sw	a5,0(a3)
   10114:	fe090793          	addi	a5,s2,-32
   10118:	0167d713          	srli	a4,a5,0x16
   1011c:	00a79793          	slli	a5,a5,0xa
   10120:	0817e793          	ori	a5,a5,129
   10124:	00a71713          	slli	a4,a4,0xa
   10128:	00f12a23          	sw	a5,20(sp)
   1012c:	09176793          	ori	a5,a4,145
   10130:	00f12c23          	sw	a5,24(sp)
   10134:	04410793          	addi	a5,sp,68
   10138:	02f12623          	sw	a5,44(sp)
   1013c:	04010793          	addi	a5,sp,64
   10140:	00f12e23          	sw	a5,28(sp)
   10144:	03c10793          	addi	a5,sp,60
   10148:	0096a023          	sw	s1,0(a3)
   1014c:	02f12023          	sw	a5,32(sp)
   10150:	0a0007b7          	lui	a5,0xa000
   10154:	0086a023          	sw	s0,0(a3)
   10158:	10078793          	addi	a5,a5,256 # a000100 <__global_pointer$+0x9fea3b8>
   1015c:	fe092023          	sw	zero,-32(s2)
   10160:	00000993          	li	s3,0
   10164:	00000493          	li	s1,0
   10168:	00012823          	sw	zero,16(sp)
   1016c:	00012423          	sw	zero,8(sp)
   10170:	00012623          	sw	zero,12(sp)
   10174:	00100a13          	li	s4,1
   10178:	03810c13          	addi	s8,sp,56
   1017c:	03410b93          	addi	s7,sp,52
   10180:	03010b13          	addi	s6,sp,48
   10184:	00006a97          	auipc	s5,0x6
   10188:	824aaa83          	lw	s5,-2012(s5) # 159a8 <_GLOBAL_OFFSET_TABLE_+0x18>
   1018c:	00006d97          	auipc	s11,0x6
   10190:	810dad83          	lw	s11,-2032(s11) # 1599c <_GLOBAL_OFFSET_TABLE_+0xc>
   10194:	00006d17          	auipc	s10,0x6
   10198:	810d2d03          	lw	s10,-2032(s10) # 159a4 <_GLOBAL_OFFSET_TABLE_+0x14>
   1019c:	02f12423          	sw	a5,40(sp)
   101a0:	6a8000ef          	jal	ra,10848 <_Z9ReadClockv>
   101a4:	6b8000ef          	jal	ra,1085c <_Z9ClockToMsy>
   101a8:	000c0693          	mv	a3,s8
   101ac:	000b8613          	mv	a2,s7
   101b0:	000b0593          	mv	a1,s6
   101b4:	00050413          	mv	s0,a0
   101b8:	6c8000ef          	jal	ra,10880 <_Z12ClockMsToHMSmRmS_S_>
   101bc:	000aa783          	lw	a5,0(s5)
   101c0:	0007a783          	lw	a5,0(a5)
   101c4:	04078a63          	beqz	a5,10218 <main+0x1a4>
   101c8:	000da783          	lw	a5,0(s11)
   101cc:	0007c783          	lbu	a5,0(a5)
   101d0:	0ff7fc93          	andi	s9,a5,255
   101d4:	00800793          	li	a5,8
   101d8:	24fc8a63          	beq	s9,a5,1042c <main+0x3b8>
   101dc:	01b00793          	li	a5,27
   101e0:	18fc8263          	beq	s9,a5,10364 <main+0x2f0>
   101e4:	00d00793          	li	a5,13
   101e8:	0efc8463          	beq	s9,a5,102d0 <main+0x25c>
   101ec:	16098263          	beqz	s3,10350 <main+0x2dc>
   101f0:	00198993          	addi	s3,s3,1
   101f4:	00400793          	li	a5,4
   101f8:	24f98e63          	beq	s3,a5,10454 <main+0x3e0>
   101fc:	000d2703          	lw	a4,0(s10)
   10200:	00d00793          	li	a5,13
   10204:	01970023          	sb	s9,0(a4)
   10208:	00fc9863          	bne	s9,a5,10218 <main+0x1a4>
   1020c:	000d2783          	lw	a5,0(s10)
   10210:	00a00713          	li	a4,10
   10214:	00e78023          	sb	a4,0(a5)
   10218:	fe092783          	lw	a5,-32(s2)
   1021c:	f89792e3          	bne	a5,s1,101a0 <main+0x12c>
   10220:	01a00513          	li	a0,26
   10224:	7f5000ef          	jal	ra,11218 <_Z11ClearScreenh>
   10228:	6b1000ef          	jal	ra,110d8 <_Z11DrawConsolev>
   1022c:	00c12783          	lw	a5,12(sp)
   10230:	21200713          	li	a4,530
   10234:	00148493          	addi	s1,s1,1
   10238:	40f407b3          	sub	a5,s0,a5
   1023c:	00f77a63          	bgeu	a4,a5,10250 <main+0x1dc>
   10240:	00812783          	lw	a5,8(sp)
   10244:	00812623          	sw	s0,12(sp)
   10248:	00178793          	addi	a5,a5,1
   1024c:	00f12423          	sw	a5,8(sp)
   10250:	00812783          	lw	a5,8(sp)
   10254:	0017f793          	andi	a5,a5,1
   10258:	1a078263          	beqz	a5,103fc <main+0x388>
   1025c:	01012783          	lw	a5,16(sp)
   10260:	10079c63          	bnez	a5,10378 <main+0x304>
   10264:	00005797          	auipc	a5,0x5
   10268:	7307a783          	lw	a5,1840(a5) # 15994 <_GLOBAL_OFFSET_TABLE_+0x4>
   1026c:	0007a783          	lw	a5,0(a5)
   10270:	001a4a13          	xori	s4,s4,1
   10274:	00aa1713          	slli	a4,s4,0xa
   10278:	0007a023          	sw	zero,0(a5)
   1027c:	30176713          	ori	a4,a4,769
   10280:	00e7a023          	sw	a4,0(a5)
   10284:	36100713          	li	a4,865
   10288:	00e7a023          	sw	a4,0(a5)
   1028c:	06700713          	li	a4,103
   10290:	00e7a023          	sw	a4,0(a5)
   10294:	01412703          	lw	a4,20(sp)
   10298:	01812603          	lw	a2,24(sp)
   1029c:	00a49693          	slli	a3,s1,0xa
   102a0:	00e7a023          	sw	a4,0(a5)
   102a4:	0164d713          	srli	a4,s1,0x16
   102a8:	00c7a023          	sw	a2,0(a5)
   102ac:	1016e693          	ori	a3,a3,257
   102b0:	00a71713          	slli	a4,a4,0xa
   102b4:	00d7a023          	sw	a3,0(a5)
   102b8:	12176713          	ori	a4,a4,289
   102bc:	00e7a023          	sw	a4,0(a5)
   102c0:	0a600713          	li	a4,166
   102c4:	00e7a023          	sw	a4,0(a5)
   102c8:	fe092023          	sw	zero,-32(s2)
   102cc:	ed5ff06f          	j	101a0 <main+0x12c>
   102d0:	02c12503          	lw	a0,44(sp)
   102d4:	661000ef          	jal	ra,11134 <_Z18ConsoleStringAtRowPc>
   102d8:	00002517          	auipc	a0,0x2
   102dc:	54050513          	addi	a0,a0,1344 # 12818 <_exit+0x98>
   102e0:	720000ef          	jal	ra,10a00 <_Z11EchoConsolePKc>
   102e4:	04514703          	lbu	a4,69(sp)
   102e8:	06300693          	li	a3,99
   102ec:	04d10223          	sb	a3,68(sp)
   102f0:	06c00693          	li	a3,108
   102f4:	1ad70263          	beq	a4,a3,10498 <main+0x424>
   102f8:	06800613          	li	a2,104
   102fc:	04c10223          	sb	a2,68(sp)
   10300:	06500613          	li	a2,101
   10304:	1ac70663          	beq	a4,a2,104b0 <main+0x43c>
   10308:	06400693          	li	a3,100
   1030c:	04d10223          	sb	a3,68(sp)
   10310:	07500693          	li	a3,117
   10314:	1ed71263          	bne	a4,a3,104f8 <main+0x484>
   10318:	04614703          	lbu	a4,70(sp)
   1031c:	06d00693          	li	a3,109
   10320:	26d70a63          	beq	a4,a3,10594 <main+0x520>
   10324:	07200693          	li	a3,114
   10328:	04d10223          	sb	a3,68(sp)
   1032c:	06e00693          	li	a3,110
   10330:	ead71ee3          	bne	a4,a3,101ec <main+0x178>
   10334:	00005797          	auipc	a5,0x5
   10338:	6787a783          	lw	a5,1656(a5) # 159ac <_GLOBAL_OFFSET_TABLE_+0x1c>
   1033c:	0007a083          	lw	ra,0(a5)
   10340:	0ffff637          	lui	a2,0xffff
   10344:	00060113          	mv	sp,a2
   10348:	00008067          	ret
   1034c:	ea0992e3          	bnez	s3,101f0 <main+0x17c>
   10350:	01c12503          	lw	a0,28(sp)
   10354:	05910023          	sb	s9,64(sp)
   10358:	040100a3          	sb	zero,65(sp)
   1035c:	6a4000ef          	jal	ra,10a00 <_Z11EchoConsolePKc>
   10360:	e9dff06f          	j	101fc <main+0x188>
   10364:	000d2783          	lw	a5,0(s10)
   10368:	01b00713          	li	a4,27
   1036c:	00200993          	li	s3,2
   10370:	00e78023          	sb	a4,0(a5)
   10374:	ea5ff06f          	j	10218 <main+0x1a4>
   10378:	03012603          	lw	a2,48(sp)
   1037c:	00100693          	li	a3,1
   10380:	00000593          	li	a1,0
   10384:	00000513          	li	a0,0
   10388:	6e8010ef          	jal	ra,11a70 <_Z15PrintDMADecimaliiib>
   1038c:	00351c93          	slli	s9,a0,0x3
   10390:	00050413          	mv	s0,a0
   10394:	00100693          	li	a3,1
   10398:	000c8513          	mv	a0,s9
   1039c:	00002617          	auipc	a2,0x2
   103a0:	52060613          	addi	a2,a2,1312 # 128bc <_exit+0x13c>
   103a4:	00000593          	li	a1,0
   103a8:	6f1000ef          	jal	ra,11298 <_Z8PrintDMAiiPKcb>
   103ac:	03412603          	lw	a2,52(sp)
   103b0:	00100693          	li	a3,1
   103b4:	00000593          	li	a1,0
   103b8:	008c8513          	addi	a0,s9,8
   103bc:	6b4010ef          	jal	ra,11a70 <_Z15PrintDMADecimaliiib>
   103c0:	00140413          	addi	s0,s0,1
   103c4:	00a40433          	add	s0,s0,a0
   103c8:	00341413          	slli	s0,s0,0x3
   103cc:	00040513          	mv	a0,s0
   103d0:	00100693          	li	a3,1
   103d4:	00002617          	auipc	a2,0x2
   103d8:	4e860613          	addi	a2,a2,1256 # 128bc <_exit+0x13c>
   103dc:	00000593          	li	a1,0
   103e0:	6b9000ef          	jal	ra,11298 <_Z8PrintDMAiiPKcb>
   103e4:	03812603          	lw	a2,56(sp)
   103e8:	00100693          	li	a3,1
   103ec:	00000593          	li	a1,0
   103f0:	00840513          	addi	a0,s0,8
   103f4:	67c010ef          	jal	ra,11a70 <_Z15PrintDMADecimaliiib>
   103f8:	e6dff06f          	j	10264 <main+0x1f0>
   103fc:	01c12583          	lw	a1,28(sp)
   10400:	02012503          	lw	a0,32(sp)
   10404:	5a0000ef          	jal	ra,109a4 <_Z16GetConsoleCursorRiS_>
   10408:	04012583          	lw	a1,64(sp)
   1040c:	03c12503          	lw	a0,60(sp)
   10410:	00100693          	li	a3,1
   10414:	00002617          	auipc	a2,0x2
   10418:	4ac60613          	addi	a2,a2,1196 # 128c0 <_exit+0x140>
   1041c:	00359593          	slli	a1,a1,0x3
   10420:	00351513          	slli	a0,a0,0x3
   10424:	675000ef          	jal	ra,11298 <_Z8PrintDMAiiPKcb>
   10428:	e35ff06f          	j	1025c <main+0x1e8>
   1042c:	58c000ef          	jal	ra,109b8 <_Z21ConsoleCursorStepBackv>
   10430:	00002517          	auipc	a0,0x2
   10434:	3e450513          	addi	a0,a0,996 # 12814 <_exit+0x94>
   10438:	5c8000ef          	jal	ra,10a00 <_Z11EchoConsolePKc>
   1043c:	57c000ef          	jal	ra,109b8 <_Z21ConsoleCursorStepBackv>
   10440:	12099a63          	bnez	s3,10574 <main+0x500>
   10444:	000d2783          	lw	a5,0(s10)
   10448:	00800713          	li	a4,8
   1044c:	00e78023          	sb	a4,0(a5)
   10450:	dc9ff06f          	j	10218 <main+0x1a4>
   10454:	01c12583          	lw	a1,28(sp)
   10458:	02012503          	lw	a0,32(sp)
   1045c:	548000ef          	jal	ra,109a4 <_Z16GetConsoleCursorRiS_>
   10460:	04100713          	li	a4,65
   10464:	0eec8c63          	beq	s9,a4,1055c <main+0x4e8>
   10468:	04200713          	li	a4,66
   1046c:	0cec8c63          	beq	s9,a4,10544 <main+0x4d0>
   10470:	04300713          	li	a4,67
   10474:	0aec8c63          	beq	s9,a4,1052c <main+0x4b8>
   10478:	04400713          	li	a4,68
   1047c:	00ec9a63          	bne	s9,a4,10490 <main+0x41c>
   10480:	03c12503          	lw	a0,60(sp)
   10484:	04012583          	lw	a1,64(sp)
   10488:	fff50513          	addi	a0,a0,-1
   1048c:	46c000ef          	jal	ra,108f8 <_Z16SetConsoleCursorii>
   10490:	00000993          	li	s3,0
   10494:	d69ff06f          	j	101fc <main+0x188>
   10498:	04614683          	lbu	a3,70(sp)
   1049c:	07300713          	li	a4,115
   104a0:	14e68663          	beq	a3,a4,105ec <main+0x578>
   104a4:	07200713          	li	a4,114
   104a8:	04e10223          	sb	a4,68(sp)
   104ac:	d41ff06f          	j	101ec <main+0x178>
   104b0:	04614703          	lbu	a4,70(sp)
   104b4:	fed718e3          	bne	a4,a3,104a4 <main+0x430>
   104b8:	04714683          	lbu	a3,71(sp)
   104bc:	07000713          	li	a4,112
   104c0:	fee692e3          	bne	a3,a4,104a4 <main+0x430>
   104c4:	00002517          	auipc	a0,0x2
   104c8:	3f450513          	addi	a0,a0,1012 # 128b8 <_exit+0x138>
   104cc:	534000ef          	jal	ra,10a00 <_Z11EchoConsolePKc>
   104d0:	00002517          	auipc	a0,0x2
   104d4:	34c50513          	addi	a0,a0,844 # 1281c <_exit+0x9c>
   104d8:	528000ef          	jal	ra,10a00 <_Z11EchoConsolePKc>
   104dc:	00002517          	auipc	a0,0x2
   104e0:	3dc50513          	addi	a0,a0,988 # 128b8 <_exit+0x138>
   104e4:	1fc000ef          	jal	ra,106e0 <_Z8EchoUARTPKc>
   104e8:	00002517          	auipc	a0,0x2
   104ec:	33450513          	addi	a0,a0,820 # 1281c <_exit+0x9c>
   104f0:	1f0000ef          	jal	ra,106e0 <_Z8EchoUARTPKc>
   104f4:	cf9ff06f          	j	101ec <main+0x178>
   104f8:	07400693          	li	a3,116
   104fc:	04d10223          	sb	a3,68(sp)
   10500:	06900693          	li	a3,105
   10504:	fad710e3          	bne	a4,a3,104a4 <main+0x430>
   10508:	04614683          	lbu	a3,70(sp)
   1050c:	06d00713          	li	a4,109
   10510:	f8e69ae3          	bne	a3,a4,104a4 <main+0x430>
   10514:	04714703          	lbu	a4,71(sp)
   10518:	f8c716e3          	bne	a4,a2,104a4 <main+0x430>
   1051c:	01012783          	lw	a5,16(sp)
   10520:	0017c793          	xori	a5,a5,1
   10524:	00f12823          	sw	a5,16(sp)
   10528:	cc5ff06f          	j	101ec <main+0x178>
   1052c:	03c12503          	lw	a0,60(sp)
   10530:	04012583          	lw	a1,64(sp)
   10534:	00000993          	li	s3,0
   10538:	00150513          	addi	a0,a0,1
   1053c:	3bc000ef          	jal	ra,108f8 <_Z16SetConsoleCursorii>
   10540:	cbdff06f          	j	101fc <main+0x188>
   10544:	04012583          	lw	a1,64(sp)
   10548:	03c12503          	lw	a0,60(sp)
   1054c:	00000993          	li	s3,0
   10550:	00158593          	addi	a1,a1,1
   10554:	3a4000ef          	jal	ra,108f8 <_Z16SetConsoleCursorii>
   10558:	ca5ff06f          	j	101fc <main+0x188>
   1055c:	04012583          	lw	a1,64(sp)
   10560:	03c12503          	lw	a0,60(sp)
   10564:	00000993          	li	s3,0
   10568:	fff58593          	addi	a1,a1,-1
   1056c:	38c000ef          	jal	ra,108f8 <_Z16SetConsoleCursorii>
   10570:	c8dff06f          	j	101fc <main+0x188>
   10574:	00198993          	addi	s3,s3,1
   10578:	00400793          	li	a5,4
   1057c:	ecf994e3          	bne	s3,a5,10444 <main+0x3d0>
   10580:	01c12583          	lw	a1,28(sp)
   10584:	02012503          	lw	a0,32(sp)
   10588:	00000993          	li	s3,0
   1058c:	418000ef          	jal	ra,109a4 <_Z16GetConsoleCursorRiS_>
   10590:	c6dff06f          	j	101fc <main+0x188>
   10594:	04714683          	lbu	a3,71(sp)
   10598:	07000713          	li	a4,112
   1059c:	f0e694e3          	bne	a3,a4,104a4 <main+0x430>
   105a0:	0a000737          	lui	a4,0xa000
   105a4:	00070513          	mv	a0,a4
   105a8:	02e12223          	sw	a4,36(sp)
   105ac:	160000ef          	jal	ra,1070c <_Z7EchoHexm>
   105b0:	00002517          	auipc	a0,0x2
   105b4:	30c50513          	addi	a0,a0,780 # 128bc <_exit+0x13c>
   105b8:	128000ef          	jal	ra,106e0 <_Z8EchoUARTPKc>
   105bc:	02412703          	lw	a4,36(sp)
   105c0:	00072503          	lw	a0,0(a4) # a000000 <__global_pointer$+0x9fea2b8>
   105c4:	00470713          	addi	a4,a4,4
   105c8:	02e12223          	sw	a4,36(sp)
   105cc:	140000ef          	jal	ra,1070c <_Z7EchoHexm>
   105d0:	00002517          	auipc	a0,0x2
   105d4:	2e850513          	addi	a0,a0,744 # 128b8 <_exit+0x138>
   105d8:	108000ef          	jal	ra,106e0 <_Z8EchoUARTPKc>
   105dc:	02812783          	lw	a5,40(sp)
   105e0:	02412703          	lw	a4,36(sp)
   105e4:	fcf710e3          	bne	a4,a5,105a4 <main+0x530>
   105e8:	c05ff06f          	j	101ec <main+0x178>
   105ec:	2d8000ef          	jal	ra,108c4 <_Z12ClearConsolev>
   105f0:	bfdff06f          	j	101ec <main+0x178>

000105f4 <_GLOBAL__sub_I_gpu.cpp>:
   105f4:	00005797          	auipc	a5,0x5
   105f8:	3a47a783          	lw	a5,932(a5) # 15998 <_GLOBAL_OFFSET_TABLE_+0x8>
   105fc:	0007a703          	lw	a4,0(a5)
   10600:	00005797          	auipc	a5,0x5
   10604:	3a07a783          	lw	a5,928(a5) # 159a0 <_GLOBAL_OFFSET_TABLE_+0x10>
   10608:	00e7a023          	sw	a4,0(a5)
   1060c:	00008067          	ret

00010610 <register_fini>:
   10610:	00000793          	li	a5,0
   10614:	00078863          	beqz	a5,10624 <register_fini+0x14>
   10618:	00012537          	lui	a0,0x12
   1061c:	67850513          	addi	a0,a0,1656 # 12678 <__libc_fini_array>
   10620:	0b40206f          	j	126d4 <atexit>
   10624:	00008067          	ret

00010628 <_start>:
   10628:	00005197          	auipc	gp,0x5
   1062c:	72018193          	addi	gp,gp,1824 # 15d48 <__global_pointer$>
   10630:	c7018513          	addi	a0,gp,-912 # 159b8 <completed.1>
   10634:	f9818613          	addi	a2,gp,-104 # 15ce0 <__BSS_END__>
   10638:	40a60633          	sub	a2,a2,a0
   1063c:	00000593          	li	a1,0
   10640:	63d010ef          	jal	ra,1247c <memset>
   10644:	00002517          	auipc	a0,0x2
   10648:	09050513          	addi	a0,a0,144 # 126d4 <atexit>
   1064c:	00050863          	beqz	a0,1065c <_start+0x34>
   10650:	00002517          	auipc	a0,0x2
   10654:	02850513          	addi	a0,a0,40 # 12678 <__libc_fini_array>
   10658:	07c020ef          	jal	ra,126d4 <atexit>
   1065c:	45d010ef          	jal	ra,122b8 <__libc_init_array>
   10660:	00012503          	lw	a0,0(sp)
   10664:	00410593          	addi	a1,sp,4
   10668:	00000613          	li	a2,0
   1066c:	a09ff0ef          	jal	ra,10074 <main>
   10670:	4190106f          	j	12288 <exit>

00010674 <__do_global_dtors_aux>:
   10674:	c701c703          	lbu	a4,-912(gp) # 159b8 <completed.1>
   10678:	04071263          	bnez	a4,106bc <__do_global_dtors_aux+0x48>
   1067c:	ff010113          	addi	sp,sp,-16
   10680:	00812423          	sw	s0,8(sp)
   10684:	00078413          	mv	s0,a5
   10688:	00112623          	sw	ra,12(sp)
   1068c:	00000793          	li	a5,0
   10690:	00078a63          	beqz	a5,106a4 <__do_global_dtors_aux+0x30>
   10694:	00015537          	lui	a0,0x15
   10698:	1f850513          	addi	a0,a0,504 # 151f8 <__EH_FRAME_BEGIN__>
   1069c:	00000097          	auipc	ra,0x0
   106a0:	000000e7          	jalr	zero # 0 <main-0x10074>
   106a4:	00100793          	li	a5,1
   106a8:	00c12083          	lw	ra,12(sp)
   106ac:	c6f18823          	sb	a5,-912(gp) # 159b8 <completed.1>
   106b0:	00812403          	lw	s0,8(sp)
   106b4:	01010113          	addi	sp,sp,16
   106b8:	00008067          	ret
   106bc:	00008067          	ret

000106c0 <frame_dummy>:
   106c0:	00000793          	li	a5,0
   106c4:	00078c63          	beqz	a5,106dc <frame_dummy+0x1c>
   106c8:	00015537          	lui	a0,0x15
   106cc:	c7418593          	addi	a1,gp,-908 # 159bc <object.0>
   106d0:	1f850513          	addi	a0,a0,504 # 151f8 <__EH_FRAME_BEGIN__>
   106d4:	00000317          	auipc	t1,0x0
   106d8:	00000067          	jr	zero # 0 <main-0x10074>
   106dc:	00008067          	ret

000106e0 <_Z8EchoUARTPKc>:
   106e0:	00054783          	lbu	a5,0(a0)
   106e4:	02078263          	beqz	a5,10708 <_Z8EchoUARTPKc+0x28>
   106e8:	00150513          	addi	a0,a0,1
   106ec:	00005697          	auipc	a3,0x5
   106f0:	2b86a683          	lw	a3,696(a3) # 159a4 <_GLOBAL_OFFSET_TABLE_+0x14>
   106f4:	0006a703          	lw	a4,0(a3)
   106f8:	00150513          	addi	a0,a0,1
   106fc:	00f70023          	sb	a5,0(a4)
   10700:	fff54783          	lbu	a5,-1(a0)
   10704:	fe0798e3          	bnez	a5,106f4 <_Z8EchoUARTPKc+0x14>
   10708:	00008067          	ret

0001070c <_Z7EchoHexm>:
   1070c:	00002617          	auipc	a2,0x2
   10710:	1b860613          	addi	a2,a2,440 # 128c4 <_exit+0x144>
   10714:	00c62803          	lw	a6,12(a2)
   10718:	00062e03          	lw	t3,0(a2)
   1071c:	00462303          	lw	t1,4(a2)
   10720:	00862883          	lw	a7,8(a2)
   10724:	fd010113          	addi	sp,sp,-48
   10728:	00c55793          	srli	a5,a0,0xc
   1072c:	00855693          	srli	a3,a0,0x8
   10730:	01855713          	srli	a4,a0,0x18
   10734:	01012c23          	sw	a6,24(sp)
   10738:	01c55593          	srli	a1,a0,0x1c
   1073c:	02010813          	addi	a6,sp,32
   10740:	00f7f793          	andi	a5,a5,15
   10744:	00f6f693          	andi	a3,a3,15
   10748:	00f77713          	andi	a4,a4,15
   1074c:	02112623          	sw	ra,44(sp)
   10750:	01112a23          	sw	a7,20(sp)
   10754:	01c12623          	sw	t3,12(sp)
   10758:	00612823          	sw	t1,16(sp)
   1075c:	00d806b3          	add	a3,a6,a3
   10760:	00b805b3          	add	a1,a6,a1
   10764:	00e80733          	add	a4,a6,a4
   10768:	00f807b3          	add	a5,a6,a5
   1076c:	00455893          	srli	a7,a0,0x4
   10770:	01455813          	srli	a6,a0,0x14
   10774:	fec6ce83          	lbu	t4,-20(a3)
   10778:	fec74e03          	lbu	t3,-20(a4)
   1077c:	fec5c683          	lbu	a3,-20(a1)
   10780:	02010713          	addi	a4,sp,32
   10784:	fec7c783          	lbu	a5,-20(a5)
   10788:	00f8f893          	andi	a7,a7,15
   1078c:	00f87813          	andi	a6,a6,15
   10790:	011708b3          	add	a7,a4,a7
   10794:	01070833          	add	a6,a4,a6
   10798:	01055593          	srli	a1,a0,0x10
   1079c:	ffff0737          	lui	a4,0xffff0
   107a0:	fec8c303          	lbu	t1,-20(a7)
   107a4:	0ff70713          	addi	a4,a4,255 # ffff00ff <__global_pointer$+0xfffda3b7>
   107a8:	fec84883          	lbu	a7,-20(a6)
   107ac:	00f5f593          	andi	a1,a1,15
   107b0:	02010813          	addi	a6,sp,32
   107b4:	00f57513          	andi	a0,a0,15
   107b8:	008e9e93          	slli	t4,t4,0x8
   107bc:	00e7f7b3          	and	a5,a5,a4
   107c0:	00a80533          	add	a0,a6,a0
   107c4:	008e1e13          	slli	t3,t3,0x8
   107c8:	00e6f733          	and	a4,a3,a4
   107cc:	00b806b3          	add	a3,a6,a1
   107d0:	ff0105b7          	lui	a1,0xff010
   107d4:	fec54803          	lbu	a6,-20(a0)
   107d8:	fff58593          	addi	a1,a1,-1 # ff00ffff <__global_pointer$+0xfeffa2b7>
   107dc:	fec6c503          	lbu	a0,-20(a3)
   107e0:	01d7e7b3          	or	a5,a5,t4
   107e4:	01c76733          	or	a4,a4,t3
   107e8:	01031313          	slli	t1,t1,0x10
   107ec:	00b7f7b3          	and	a5,a5,a1
   107f0:	01089893          	slli	a7,a7,0x10
   107f4:	00b77733          	and	a4,a4,a1
   107f8:	010006b7          	lui	a3,0x1000
   107fc:	01064e03          	lbu	t3,16(a2)
   10800:	fff68693          	addi	a3,a3,-1 # ffffff <__global_pointer$+0xfea2b7>
   10804:	0067e7b3          	or	a5,a5,t1
   10808:	01176733          	or	a4,a4,a7
   1080c:	01851613          	slli	a2,a0,0x18
   10810:	01881593          	slli	a1,a6,0x18
   10814:	00d7f7b3          	and	a5,a5,a3
   10818:	00d77733          	and	a4,a4,a3
   1081c:	00b7e7b3          	or	a5,a5,a1
   10820:	00c76733          	or	a4,a4,a2
   10824:	00010513          	mv	a0,sp
   10828:	01c10e23          	sb	t3,28(sp)
   1082c:	00010423          	sb	zero,8(sp)
   10830:	00e12023          	sw	a4,0(sp)
   10834:	00f12223          	sw	a5,4(sp)
   10838:	ea9ff0ef          	jal	ra,106e0 <_Z8EchoUARTPKc>
   1083c:	02c12083          	lw	ra,44(sp)
   10840:	03010113          	addi	sp,sp,48
   10844:	00008067          	ret

00010848 <_Z9ReadClockv>:
   10848:	c81025f3          	rdtimeh	a1
   1084c:	c0102573          	rdtime	a0
   10850:	c81027f3          	rdtimeh	a5
   10854:	fef59ae3          	bne	a1,a5,10848 <_Z9ReadClockv>
   10858:	00008067          	ret

0001085c <_Z9ClockToMsy>:
   1085c:	00002637          	lui	a2,0x2
   10860:	ff010113          	addi	sp,sp,-16
   10864:	71060613          	addi	a2,a2,1808 # 2710 <main-0xd964>
   10868:	00000693          	li	a3,0
   1086c:	00112623          	sw	ra,12(sp)
   10870:	5dc010ef          	jal	ra,11e4c <__udivdi3>
   10874:	00c12083          	lw	ra,12(sp)
   10878:	01010113          	addi	sp,sp,16
   1087c:	00008067          	ret

00010880 <_Z12ClockMsToHMSmRmS_S_>:
   10880:	000587b7          	lui	a5,0x58
   10884:	e4078793          	addi	a5,a5,-448 # 57e40 <__global_pointer$+0x420f8>
   10888:	02f577b3          	remu	a5,a0,a5
   1088c:	0036f837          	lui	a6,0x36f
   10890:	e8080813          	addi	a6,a6,-384 # 36ee80 <__global_pointer$+0x359138>
   10894:	0000f737          	lui	a4,0xf
   10898:	a6070713          	addi	a4,a4,-1440 # ea60 <main-0x1614>
   1089c:	030578b3          	remu	a7,a0,a6
   108a0:	03055533          	divu	a0,a0,a6
   108a4:	02e7f7b3          	remu	a5,a5,a4
   108a8:	00a5a023          	sw	a0,0(a1)
   108ac:	3e800593          	li	a1,1000
   108b0:	02e8d733          	divu	a4,a7,a4
   108b4:	02b7d7b3          	divu	a5,a5,a1
   108b8:	00e62023          	sw	a4,0(a2)
   108bc:	00f6a023          	sw	a5,0(a3)
   108c0:	00008067          	ret

000108c4 <_Z12ClearConsolev>:
   108c4:	30000613          	li	a2,768
   108c8:	02000593          	li	a1,32
   108cc:	c8c18513          	addi	a0,gp,-884 # 159d4 <_ZL11consoleText>
   108d0:	f801a623          	sw	zero,-116(gp) # 15cd4 <_ZL7cursorx>
   108d4:	f801a823          	sw	zero,-112(gp) # 15cd8 <_ZL7cursory>
   108d8:	3a50106f          	j	1247c <memset>

000108dc <_Z15ClearConsoleRowv>:
   108dc:	f901a783          	lw	a5,-112(gp) # 15cd8 <_ZL7cursory>
   108e0:	00579793          	slli	a5,a5,0x5
   108e4:	c8c18513          	addi	a0,gp,-884 # 159d4 <_ZL11consoleText>
   108e8:	02000613          	li	a2,32
   108ec:	02000593          	li	a1,32
   108f0:	00f50533          	add	a0,a0,a5
   108f4:	3890106f          	j	1247c <memset>

000108f8 <_Z16SetConsoleCursorii>:
   108f8:	fff54793          	not	a5,a0
   108fc:	41f7d793          	srai	a5,a5,0x1f
   10900:	00f57533          	and	a0,a0,a5
   10904:	01f00793          	li	a5,31
   10908:	00a7d463          	bge	a5,a0,10910 <_Z16SetConsoleCursorii+0x18>
   1090c:	01f00513          	li	a0,31
   10910:	fff5c793          	not	a5,a1
   10914:	41f7d793          	srai	a5,a5,0x1f
   10918:	00f5f5b3          	and	a1,a1,a5
   1091c:	f8a1a623          	sw	a0,-116(gp) # 15cd4 <_ZL7cursorx>
   10920:	01700793          	li	a5,23
   10924:	00b7d463          	bge	a5,a1,1092c <_Z16SetConsoleCursorii+0x34>
   10928:	01700593          	li	a1,23
   1092c:	f8b1a823          	sw	a1,-112(gp) # 15cd8 <_ZL7cursory>
   10930:	00008067          	ret

00010934 <_Z13ScrollConsolev>:
   10934:	ff010113          	addi	sp,sp,-16
   10938:	00112623          	sw	ra,12(sp)
   1093c:	c8c18793          	addi	a5,gp,-884 # 159d4 <_ZL11consoleText>
   10940:	f6c18e13          	addi	t3,gp,-148 # 15cb4 <_ZL11consoleText+0x2e0>
   10944:	0207a303          	lw	t1,32(a5)
   10948:	0247a883          	lw	a7,36(a5)
   1094c:	0287a803          	lw	a6,40(a5)
   10950:	02c7a503          	lw	a0,44(a5)
   10954:	0307a583          	lw	a1,48(a5)
   10958:	0347a603          	lw	a2,52(a5)
   1095c:	0387a683          	lw	a3,56(a5)
   10960:	03c7a703          	lw	a4,60(a5)
   10964:	0067a023          	sw	t1,0(a5)
   10968:	0117a223          	sw	a7,4(a5)
   1096c:	0107a423          	sw	a6,8(a5)
   10970:	00a7a623          	sw	a0,12(a5)
   10974:	00b7a823          	sw	a1,16(a5)
   10978:	00c7aa23          	sw	a2,20(a5)
   1097c:	00d7ac23          	sw	a3,24(a5)
   10980:	00e7ae23          	sw	a4,28(a5)
   10984:	02078793          	addi	a5,a5,32
   10988:	fafe1ee3          	bne	t3,a5,10944 <_Z13ScrollConsolev+0x10>
   1098c:	01700593          	li	a1,23
   10990:	f8c1a503          	lw	a0,-116(gp) # 15cd4 <_ZL7cursorx>
   10994:	f65ff0ef          	jal	ra,108f8 <_Z16SetConsoleCursorii>
   10998:	00c12083          	lw	ra,12(sp)
   1099c:	01010113          	addi	sp,sp,16
   109a0:	f3dff06f          	j	108dc <_Z15ClearConsoleRowv>

000109a4 <_Z16GetConsoleCursorRiS_>:
   109a4:	f8c1a783          	lw	a5,-116(gp) # 15cd4 <_ZL7cursorx>
   109a8:	00f52023          	sw	a5,0(a0)
   109ac:	f901a783          	lw	a5,-112(gp) # 15cd8 <_ZL7cursory>
   109b0:	00f5a023          	sw	a5,0(a1)
   109b4:	00008067          	ret

000109b8 <_Z21ConsoleCursorStepBackv>:
   109b8:	f8c18713          	addi	a4,gp,-116 # 15cd4 <_ZL7cursorx>
   109bc:	00072783          	lw	a5,0(a4)
   109c0:	f9018613          	addi	a2,gp,-112 # 15cd8 <_ZL7cursory>
   109c4:	00062683          	lw	a3,0(a2)
   109c8:	fff78793          	addi	a5,a5,-1
   109cc:	00f72023          	sw	a5,0(a4)
   109d0:	0007cc63          	bltz	a5,109e8 <_Z21ConsoleCursorStepBackv+0x30>
   109d4:	0006c463          	bltz	a3,109dc <_Z21ConsoleCursorStepBackv+0x24>
   109d8:	00008067          	ret
   109dc:	f801a623          	sw	zero,-116(gp) # 15cd4 <_ZL7cursorx>
   109e0:	f801a823          	sw	zero,-112(gp) # 15cd8 <_ZL7cursory>
   109e4:	00008067          	ret
   109e8:	fff68693          	addi	a3,a3,-1
   109ec:	01f00793          	li	a5,31
   109f0:	00f72023          	sw	a5,0(a4)
   109f4:	00d62023          	sw	a3,0(a2)
   109f8:	fe06d0e3          	bgez	a3,109d8 <_Z21ConsoleCursorStepBackv+0x20>
   109fc:	fe1ff06f          	j	109dc <_Z21ConsoleCursorStepBackv+0x24>

00010a00 <_Z11EchoConsolePKc>:
   10a00:	00054703          	lbu	a4,0(a0)
   10a04:	0e070a63          	beqz	a4,10af8 <_Z11EchoConsolePKc+0xf8>
   10a08:	fd010113          	addi	sp,sp,-48
   10a0c:	02812423          	sw	s0,40(sp)
   10a10:	02912223          	sw	s1,36(sp)
   10a14:	03212023          	sw	s2,32(sp)
   10a18:	01312e23          	sw	s3,28(sp)
   10a1c:	01412c23          	sw	s4,24(sp)
   10a20:	01512a23          	sw	s5,20(sp)
   10a24:	01612823          	sw	s6,16(sp)
   10a28:	01712623          	sw	s7,12(sp)
   10a2c:	02112623          	sw	ra,44(sp)
   10a30:	00050413          	mv	s0,a0
   10a34:	f9018493          	addi	s1,gp,-112 # 15cd8 <_ZL7cursory>
   10a38:	00d00a13          	li	s4,13
   10a3c:	f8c18993          	addi	s3,gp,-116 # 15cd4 <_ZL7cursorx>
   10a40:	00a00b93          	li	s7,10
   10a44:	01f00b13          	li	s6,31
   10a48:	c8c18a93          	addi	s5,gp,-884 # 159d4 <_ZL11consoleText>
   10a4c:	01700913          	li	s2,23
   10a50:	0004a783          	lw	a5,0(s1)
   10a54:	09470863          	beq	a4,s4,10ae4 <_Z11EchoConsolePKc+0xe4>
   10a58:	0009a683          	lw	a3,0(s3)
   10a5c:	09770863          	beq	a4,s7,10aec <_Z11EchoConsolePKc+0xec>
   10a60:	00579613          	slli	a2,a5,0x5
   10a64:	00ca8633          	add	a2,s5,a2
   10a68:	00d60633          	add	a2,a2,a3
   10a6c:	00168693          	addi	a3,a3,1
   10a70:	00e60023          	sb	a4,0(a2)
   10a74:	00d9a023          	sw	a3,0(s3)
   10a78:	00db5863          	bge	s6,a3,10a88 <_Z11EchoConsolePKc+0x88>
   10a7c:	00178793          	addi	a5,a5,1
   10a80:	f801a623          	sw	zero,-116(gp) # 15cd4 <_ZL7cursorx>
   10a84:	00f4a023          	sw	a5,0(s1)
   10a88:	02f94e63          	blt	s2,a5,10ac4 <_Z11EchoConsolePKc+0xc4>
   10a8c:	00144703          	lbu	a4,1(s0)
   10a90:	00140413          	addi	s0,s0,1
   10a94:	fa071ee3          	bnez	a4,10a50 <_Z11EchoConsolePKc+0x50>
   10a98:	02c12083          	lw	ra,44(sp)
   10a9c:	02812403          	lw	s0,40(sp)
   10aa0:	02412483          	lw	s1,36(sp)
   10aa4:	02012903          	lw	s2,32(sp)
   10aa8:	01c12983          	lw	s3,28(sp)
   10aac:	01812a03          	lw	s4,24(sp)
   10ab0:	01412a83          	lw	s5,20(sp)
   10ab4:	01012b03          	lw	s6,16(sp)
   10ab8:	00c12b83          	lw	s7,12(sp)
   10abc:	03010113          	addi	sp,sp,48
   10ac0:	00008067          	ret
   10ac4:	00140413          	addi	s0,s0,1
   10ac8:	0124a023          	sw	s2,0(s1)
   10acc:	f801a623          	sw	zero,-116(gp) # 15cd4 <_ZL7cursorx>
   10ad0:	e65ff0ef          	jal	ra,10934 <_Z13ScrollConsolev>
   10ad4:	00044703          	lbu	a4,0(s0)
   10ad8:	fc0700e3          	beqz	a4,10a98 <_Z11EchoConsolePKc+0x98>
   10adc:	0004a783          	lw	a5,0(s1)
   10ae0:	f7471ce3          	bne	a4,s4,10a58 <_Z11EchoConsolePKc+0x58>
   10ae4:	f801a623          	sw	zero,-116(gp) # 15cd4 <_ZL7cursorx>
   10ae8:	fa1ff06f          	j	10a88 <_Z11EchoConsolePKc+0x88>
   10aec:	00178793          	addi	a5,a5,1
   10af0:	00f4a023          	sw	a5,0(s1)
   10af4:	f85ff06f          	j	10a78 <_Z11EchoConsolePKc+0x78>
   10af8:	00008067          	ret

00010afc <_Z11EchoConsolel>:
   10afc:	00002797          	auipc	a5,0x2
   10b00:	ddc78793          	addi	a5,a5,-548 # 128d8 <_exit+0x158>
   10b04:	00002717          	auipc	a4,0x2
   10b08:	de870713          	addi	a4,a4,-536 # 128ec <_exit+0x16c>
   10b0c:	0047a603          	lw	a2,4(a5)
   10b10:	00072e03          	lw	t3,0(a4)
   10b14:	00472303          	lw	t1,4(a4)
   10b18:	00875883          	lhu	a7,8(a4)
   10b1c:	00a74803          	lbu	a6,10(a4)
   10b20:	0007a583          	lw	a1,0(a5)
   10b24:	0087a683          	lw	a3,8(a5)
   10b28:	00c7a703          	lw	a4,12(a5)
   10b2c:	0107a783          	lw	a5,16(a5)
   10b30:	fd010113          	addi	sp,sp,-48
   10b34:	00c12823          	sw	a2,16(sp)
   10b38:	00f12e23          	sw	a5,28(sp)
   10b3c:	02112623          	sw	ra,44(sp)
   10b40:	01c12023          	sw	t3,0(sp)
   10b44:	00612223          	sw	t1,4(sp)
   10b48:	01111423          	sh	a7,8(sp)
   10b4c:	01010523          	sb	a6,10(sp)
   10b50:	00b12623          	sw	a1,12(sp)
   10b54:	00d12a23          	sw	a3,20(sp)
   10b58:	00e12c23          	sw	a4,24(sp)
   10b5c:	02d00613          	li	a2,45
   10b60:	00100793          	li	a5,1
   10b64:	00054663          	bltz	a0,10b70 <_Z11EchoConsolel+0x74>
   10b68:	02000613          	li	a2,32
   10b6c:	00000793          	li	a5,0
   10b70:	3b9ad737          	lui	a4,0x3b9ad
   10b74:	a0070693          	addi	a3,a4,-1536 # 3b9aca00 <__global_pointer$+0x3b996cb8>
   10b78:	02d546b3          	div	a3,a0,a3
   10b7c:	9ff70713          	addi	a4,a4,-1537
   10b80:	00c10623          	sb	a2,12(sp)
   10b84:	77359637          	lui	a2,0x77359
   10b88:	00e50733          	add	a4,a0,a4
   10b8c:	3fe60613          	addi	a2,a2,1022 # 773593fe <__global_pointer$+0x773436b6>
   10b90:	41f6d593          	srai	a1,a3,0x1f
   10b94:	00d5c6b3          	xor	a3,a1,a3
   10b98:	40b686b3          	sub	a3,a3,a1
   10b9c:	12e66c63          	bltu	a2,a4,10cd4 <_Z11EchoConsolel+0x1d8>
   10ba0:	05f5e737          	lui	a4,0x5f5e
   10ba4:	10070713          	addi	a4,a4,256 # 5f5e100 <__global_pointer$+0x5f483b8>
   10ba8:	02e54733          	div	a4,a0,a4
   10bac:	00a00613          	li	a2,10
   10bb0:	41f75593          	srai	a1,a4,0x1f
   10bb4:	00e5c6b3          	xor	a3,a1,a4
   10bb8:	40b686b3          	sub	a3,a3,a1
   10bbc:	02c6e6b3          	rem	a3,a3,a2
   10bc0:	14069863          	bnez	a3,10d10 <_Z11EchoConsolel+0x214>
   10bc4:	00989737          	lui	a4,0x989
   10bc8:	68070713          	addi	a4,a4,1664 # 989680 <__global_pointer$+0x973938>
   10bcc:	02e54733          	div	a4,a0,a4
   10bd0:	41f75593          	srai	a1,a4,0x1f
   10bd4:	00e5c6b3          	xor	a3,a1,a4
   10bd8:	40b686b3          	sub	a3,a3,a1
   10bdc:	02c6e6b3          	rem	a3,a3,a2
   10be0:	16069663          	bnez	a3,10d4c <_Z11EchoConsolel+0x250>
   10be4:	000f4737          	lui	a4,0xf4
   10be8:	24070713          	addi	a4,a4,576 # f4240 <__global_pointer$+0xde4f8>
   10bec:	02e54733          	div	a4,a0,a4
   10bf0:	41f75593          	srai	a1,a4,0x1f
   10bf4:	00e5c6b3          	xor	a3,a1,a4
   10bf8:	40b686b3          	sub	a3,a3,a1
   10bfc:	02c6e6b3          	rem	a3,a3,a2
   10c00:	18069463          	bnez	a3,10d88 <_Z11EchoConsolel+0x28c>
   10c04:	00018737          	lui	a4,0x18
   10c08:	6a070713          	addi	a4,a4,1696 # 186a0 <__global_pointer$+0x2958>
   10c0c:	02e54733          	div	a4,a0,a4
   10c10:	41f75593          	srai	a1,a4,0x1f
   10c14:	00e5c6b3          	xor	a3,a1,a4
   10c18:	40b686b3          	sub	a3,a3,a1
   10c1c:	02c6e6b3          	rem	a3,a3,a2
   10c20:	1a069263          	bnez	a3,10dc4 <_Z11EchoConsolel+0x2c8>
   10c24:	00002737          	lui	a4,0x2
   10c28:	71070713          	addi	a4,a4,1808 # 2710 <main-0xd964>
   10c2c:	02e54733          	div	a4,a0,a4
   10c30:	41f75693          	srai	a3,a4,0x1f
   10c34:	00e6c733          	xor	a4,a3,a4
   10c38:	40d70733          	sub	a4,a4,a3
   10c3c:	02c76733          	rem	a4,a4,a2
   10c40:	1c071063          	bnez	a4,10e00 <_Z11EchoConsolel+0x304>
   10c44:	3e800713          	li	a4,1000
   10c48:	02e54733          	div	a4,a0,a4
   10c4c:	41f75593          	srai	a1,a4,0x1f
   10c50:	00e5c6b3          	xor	a3,a1,a4
   10c54:	40b686b3          	sub	a3,a3,a1
   10c58:	02c6e6b3          	rem	a3,a3,a2
   10c5c:	1c069e63          	bnez	a3,10e38 <_Z11EchoConsolel+0x33c>
   10c60:	06400713          	li	a4,100
   10c64:	02e54733          	div	a4,a0,a4
   10c68:	41f75693          	srai	a3,a4,0x1f
   10c6c:	00e6c733          	xor	a4,a3,a4
   10c70:	40d70733          	sub	a4,a4,a3
   10c74:	02c76733          	rem	a4,a4,a2
   10c78:	1e071c63          	bnez	a4,10e70 <_Z11EchoConsolel+0x374>
   10c7c:	02c54733          	div	a4,a0,a2
   10c80:	41f75693          	srai	a3,a4,0x1f
   10c84:	00e6c733          	xor	a4,a3,a4
   10c88:	40d70733          	sub	a4,a4,a3
   10c8c:	02c76633          	rem	a2,a4,a2
   10c90:	20061a63          	bnez	a2,10ea4 <_Z11EchoConsolel+0x3a8>
   10c94:	41f55693          	srai	a3,a0,0x1f
   10c98:	00a6c733          	xor	a4,a3,a0
   10c9c:	40d70733          	sub	a4,a4,a3
   10ca0:	00a00513          	li	a0,10
   10ca4:	02a76733          	rem	a4,a4,a0
   10ca8:	02010693          	addi	a3,sp,32
   10cac:	00f687b3          	add	a5,a3,a5
   10cb0:	00c10513          	addi	a0,sp,12
   10cb4:	fe0786a3          	sb	zero,-19(a5)
   10cb8:	00e68733          	add	a4,a3,a4
   10cbc:	fe074703          	lbu	a4,-32(a4)
   10cc0:	fee78623          	sb	a4,-20(a5)
   10cc4:	d3dff0ef          	jal	ra,10a00 <_Z11EchoConsolePKc>
   10cc8:	02c12083          	lw	ra,44(sp)
   10ccc:	03010113          	addi	sp,sp,48
   10cd0:	00008067          	ret
   10cd4:	05f5e737          	lui	a4,0x5f5e
   10cd8:	10070713          	addi	a4,a4,256 # 5f5e100 <__global_pointer$+0x5f483b8>
   10cdc:	02e54733          	div	a4,a0,a4
   10ce0:	02010613          	addi	a2,sp,32
   10ce4:	00d606b3          	add	a3,a2,a3
   10ce8:	fe06c603          	lbu	a2,-32(a3)
   10cec:	02010693          	addi	a3,sp,32
   10cf0:	00f686b3          	add	a3,a3,a5
   10cf4:	fec68623          	sb	a2,-20(a3)
   10cf8:	00178793          	addi	a5,a5,1
   10cfc:	41f75613          	srai	a2,a4,0x1f
   10d00:	00e646b3          	xor	a3,a2,a4
   10d04:	40c686b3          	sub	a3,a3,a2
   10d08:	00a00713          	li	a4,10
   10d0c:	02e6e6b3          	rem	a3,a3,a4
   10d10:	00989737          	lui	a4,0x989
   10d14:	68070713          	addi	a4,a4,1664 # 989680 <__global_pointer$+0x973938>
   10d18:	02010613          	addi	a2,sp,32
   10d1c:	00d606b3          	add	a3,a2,a3
   10d20:	fe06c603          	lbu	a2,-32(a3)
   10d24:	02010693          	addi	a3,sp,32
   10d28:	00f686b3          	add	a3,a3,a5
   10d2c:	fec68623          	sb	a2,-20(a3)
   10d30:	00178793          	addi	a5,a5,1
   10d34:	02e54733          	div	a4,a0,a4
   10d38:	41f75613          	srai	a2,a4,0x1f
   10d3c:	00e646b3          	xor	a3,a2,a4
   10d40:	40c686b3          	sub	a3,a3,a2
   10d44:	00a00713          	li	a4,10
   10d48:	02e6e6b3          	rem	a3,a3,a4
   10d4c:	000f4737          	lui	a4,0xf4
   10d50:	24070713          	addi	a4,a4,576 # f4240 <__global_pointer$+0xde4f8>
   10d54:	02010613          	addi	a2,sp,32
   10d58:	00d606b3          	add	a3,a2,a3
   10d5c:	fe06c603          	lbu	a2,-32(a3)
   10d60:	02010693          	addi	a3,sp,32
   10d64:	00f686b3          	add	a3,a3,a5
   10d68:	fec68623          	sb	a2,-20(a3)
   10d6c:	00178793          	addi	a5,a5,1
   10d70:	02e54733          	div	a4,a0,a4
   10d74:	41f75613          	srai	a2,a4,0x1f
   10d78:	00e646b3          	xor	a3,a2,a4
   10d7c:	40c686b3          	sub	a3,a3,a2
   10d80:	00a00713          	li	a4,10
   10d84:	02e6e6b3          	rem	a3,a3,a4
   10d88:	00018737          	lui	a4,0x18
   10d8c:	6a070713          	addi	a4,a4,1696 # 186a0 <__global_pointer$+0x2958>
   10d90:	02010613          	addi	a2,sp,32
   10d94:	00d606b3          	add	a3,a2,a3
   10d98:	fe06c603          	lbu	a2,-32(a3)
   10d9c:	02010693          	addi	a3,sp,32
   10da0:	00f686b3          	add	a3,a3,a5
   10da4:	fec68623          	sb	a2,-20(a3)
   10da8:	00178793          	addi	a5,a5,1
   10dac:	02e54733          	div	a4,a0,a4
   10db0:	41f75613          	srai	a2,a4,0x1f
   10db4:	00e646b3          	xor	a3,a2,a4
   10db8:	40c686b3          	sub	a3,a3,a2
   10dbc:	00a00713          	li	a4,10
   10dc0:	02e6e6b3          	rem	a3,a3,a4
   10dc4:	00002737          	lui	a4,0x2
   10dc8:	71070713          	addi	a4,a4,1808 # 2710 <main-0xd964>
   10dcc:	02010613          	addi	a2,sp,32
   10dd0:	00d606b3          	add	a3,a2,a3
   10dd4:	fe06c603          	lbu	a2,-32(a3)
   10dd8:	02010693          	addi	a3,sp,32
   10ddc:	00f686b3          	add	a3,a3,a5
   10de0:	fec68623          	sb	a2,-20(a3)
   10de4:	00178793          	addi	a5,a5,1
   10de8:	02e54733          	div	a4,a0,a4
   10dec:	41f75693          	srai	a3,a4,0x1f
   10df0:	00e6c733          	xor	a4,a3,a4
   10df4:	40d70733          	sub	a4,a4,a3
   10df8:	00a00693          	li	a3,10
   10dfc:	02d76733          	rem	a4,a4,a3
   10e00:	3e800693          	li	a3,1000
   10e04:	02010613          	addi	a2,sp,32
   10e08:	00e60733          	add	a4,a2,a4
   10e0c:	fe074603          	lbu	a2,-32(a4)
   10e10:	02010713          	addi	a4,sp,32
   10e14:	00f70733          	add	a4,a4,a5
   10e18:	fec70623          	sb	a2,-20(a4)
   10e1c:	00178793          	addi	a5,a5,1
   10e20:	02d546b3          	div	a3,a0,a3
   10e24:	41f6d713          	srai	a4,a3,0x1f
   10e28:	00d746b3          	xor	a3,a4,a3
   10e2c:	40e686b3          	sub	a3,a3,a4
   10e30:	00a00713          	li	a4,10
   10e34:	02e6e6b3          	rem	a3,a3,a4
   10e38:	06400713          	li	a4,100
   10e3c:	02010613          	addi	a2,sp,32
   10e40:	00d606b3          	add	a3,a2,a3
   10e44:	fe06c603          	lbu	a2,-32(a3)
   10e48:	02010693          	addi	a3,sp,32
   10e4c:	00f686b3          	add	a3,a3,a5
   10e50:	fec68623          	sb	a2,-20(a3)
   10e54:	00178793          	addi	a5,a5,1
   10e58:	02e54733          	div	a4,a0,a4
   10e5c:	41f75693          	srai	a3,a4,0x1f
   10e60:	00e6c733          	xor	a4,a3,a4
   10e64:	40d70733          	sub	a4,a4,a3
   10e68:	00a00693          	li	a3,10
   10e6c:	02d76733          	rem	a4,a4,a3
   10e70:	00a00593          	li	a1,10
   10e74:	02010613          	addi	a2,sp,32
   10e78:	00e60733          	add	a4,a2,a4
   10e7c:	fe074603          	lbu	a2,-32(a4)
   10e80:	02010713          	addi	a4,sp,32
   10e84:	00f70733          	add	a4,a4,a5
   10e88:	fec70623          	sb	a2,-20(a4)
   10e8c:	00178793          	addi	a5,a5,1
   10e90:	02b546b3          	div	a3,a0,a1
   10e94:	41f6d713          	srai	a4,a3,0x1f
   10e98:	00d74633          	xor	a2,a4,a3
   10e9c:	40e60633          	sub	a2,a2,a4
   10ea0:	02b66633          	rem	a2,a2,a1
   10ea4:	02010713          	addi	a4,sp,32
   10ea8:	00c70633          	add	a2,a4,a2
   10eac:	fe064683          	lbu	a3,-32(a2)
   10eb0:	00f70733          	add	a4,a4,a5
   10eb4:	00178793          	addi	a5,a5,1
   10eb8:	fed70623          	sb	a3,-20(a4)
   10ebc:	dd9ff06f          	j	10c94 <_Z11EchoConsolel+0x198>

00010ec0 <_Z14EchoConsoleHexl>:
   10ec0:	00002897          	auipc	a7,0x2
   10ec4:	a0488893          	addi	a7,a7,-1532 # 128c4 <_exit+0x144>
   10ec8:	41f55793          	srai	a5,a0,0x1f
   10ecc:	01c7d793          	srli	a5,a5,0x1c
   10ed0:	00c8a603          	lw	a2,12(a7)
   10ed4:	40c55713          	srai	a4,a0,0xc
   10ed8:	41855313          	srai	t1,a0,0x18
   10edc:	0048af03          	lw	t5,4(a7)
   10ee0:	0088ae83          	lw	t4,8(a7)
   10ee4:	0008af83          	lw	t6,0(a7)
   10ee8:	40855693          	srai	a3,a0,0x8
   10eec:	00f70733          	add	a4,a4,a5
   10ef0:	00f30333          	add	t1,t1,a5
   10ef4:	fd010113          	addi	sp,sp,-48
   10ef8:	00f686b3          	add	a3,a3,a5
   10efc:	40455813          	srai	a6,a0,0x4
   10f00:	41455593          	srai	a1,a0,0x14
   10f04:	00f77713          	andi	a4,a4,15
   10f08:	00f37313          	andi	t1,t1,15
   10f0c:	00c12c23          	sw	a2,24(sp)
   10f10:	40f70733          	sub	a4,a4,a5
   10f14:	02010613          	addi	a2,sp,32
   10f18:	00f80833          	add	a6,a6,a5
   10f1c:	40f30333          	sub	t1,t1,a5
   10f20:	00f585b3          	add	a1,a1,a5
   10f24:	00f6f693          	andi	a3,a3,15
   10f28:	02112623          	sw	ra,44(sp)
   10f2c:	01f12623          	sw	t6,12(sp)
   10f30:	01e12823          	sw	t5,16(sp)
   10f34:	01d12a23          	sw	t4,20(sp)
   10f38:	00660333          	add	t1,a2,t1
   10f3c:	40f686b3          	sub	a3,a3,a5
   10f40:	41c55e13          	srai	t3,a0,0x1c
   10f44:	00e60733          	add	a4,a2,a4
   10f48:	00f87813          	andi	a6,a6,15
   10f4c:	00f5f593          	andi	a1,a1,15
   10f50:	fec74703          	lbu	a4,-20(a4)
   10f54:	fec34e83          	lbu	t4,-20(t1) # 106c0 <frame_dummy>
   10f58:	00d606b3          	add	a3,a2,a3
   10f5c:	02010313          	addi	t1,sp,32
   10f60:	01c60e33          	add	t3,a2,t3
   10f64:	40f80833          	sub	a6,a6,a5
   10f68:	41055613          	srai	a2,a0,0x10
   10f6c:	40f585b3          	sub	a1,a1,a5
   10f70:	fec6cf03          	lbu	t5,-20(a3)
   10f74:	01030833          	add	a6,t1,a6
   10f78:	fece4683          	lbu	a3,-20(t3)
   10f7c:	00b305b3          	add	a1,t1,a1
   10f80:	00f50533          	add	a0,a0,a5
   10f84:	00f60633          	add	a2,a2,a5
   10f88:	ffff0337          	lui	t1,0xffff0
   10f8c:	0ff30313          	addi	t1,t1,255 # ffff00ff <__global_pointer$+0xfffda3b7>
   10f90:	00f57513          	andi	a0,a0,15
   10f94:	00f67613          	andi	a2,a2,15
   10f98:	40f60633          	sub	a2,a2,a5
   10f9c:	40f50533          	sub	a0,a0,a5
   10fa0:	006777b3          	and	a5,a4,t1
   10fa4:	02010713          	addi	a4,sp,32
   10fa8:	fec84e03          	lbu	t3,-20(a6)
   10fac:	00a70533          	add	a0,a4,a0
   10fb0:	fec5c803          	lbu	a6,-20(a1)
   10fb4:	0066f733          	and	a4,a3,t1
   10fb8:	02010693          	addi	a3,sp,32
   10fbc:	00c686b3          	add	a3,a3,a2
   10fc0:	008f1f13          	slli	t5,t5,0x8
   10fc4:	008e9e93          	slli	t4,t4,0x8
   10fc8:	ff010637          	lui	a2,0xff010
   10fcc:	fec6c583          	lbu	a1,-20(a3)
   10fd0:	fff60613          	addi	a2,a2,-1 # ff00ffff <__global_pointer$+0xfeffa2b7>
   10fd4:	fec54503          	lbu	a0,-20(a0)
   10fd8:	01e7e7b3          	or	a5,a5,t5
   10fdc:	01d76733          	or	a4,a4,t4
   10fe0:	010e1313          	slli	t1,t3,0x10
   10fe4:	00c7f7b3          	and	a5,a5,a2
   10fe8:	01081813          	slli	a6,a6,0x10
   10fec:	00c77733          	and	a4,a4,a2
   10ff0:	010006b7          	lui	a3,0x1000
   10ff4:	fff68693          	addi	a3,a3,-1 # ffffff <__global_pointer$+0xfea2b7>
   10ff8:	0108c883          	lbu	a7,16(a7)
   10ffc:	0067e7b3          	or	a5,a5,t1
   11000:	01076733          	or	a4,a4,a6
   11004:	01851513          	slli	a0,a0,0x18
   11008:	00d7f7b3          	and	a5,a5,a3
   1100c:	01859613          	slli	a2,a1,0x18
   11010:	00d77733          	and	a4,a4,a3
   11014:	00a7e7b3          	or	a5,a5,a0
   11018:	00c76733          	or	a4,a4,a2
   1101c:	00010513          	mv	a0,sp
   11020:	01110e23          	sb	a7,28(sp)
   11024:	00010423          	sb	zero,8(sp)
   11028:	00e12023          	sw	a4,0(sp)
   1102c:	00f12223          	sw	a5,4(sp)
   11030:	9d1ff0ef          	jal	ra,10a00 <_Z11EchoConsolePKc>
   11034:	02c12083          	lw	ra,44(sp)
   11038:	03010113          	addi	sp,sp,48
   1103c:	00008067          	ret

00011040 <_Z18EchoConsoleHexBytel>:
   11040:	41f55793          	srai	a5,a0,0x1f
   11044:	01c7d713          	srli	a4,a5,0x1c
   11048:	00002697          	auipc	a3,0x2
   1104c:	87c68693          	addi	a3,a3,-1924 # 128c4 <_exit+0x144>
   11050:	40455793          	srai	a5,a0,0x4
   11054:	00c6a603          	lw	a2,12(a3)
   11058:	0006a883          	lw	a7,0(a3)
   1105c:	0046a803          	lw	a6,4(a3)
   11060:	0086a583          	lw	a1,8(a3)
   11064:	00e50533          	add	a0,a0,a4
   11068:	00e787b3          	add	a5,a5,a4
   1106c:	fd010113          	addi	sp,sp,-48
   11070:	00f57513          	andi	a0,a0,15
   11074:	00f7f793          	andi	a5,a5,15
   11078:	40e50533          	sub	a0,a0,a4
   1107c:	40e787b3          	sub	a5,a5,a4
   11080:	02010713          	addi	a4,sp,32
   11084:	02112623          	sw	ra,44(sp)
   11088:	00c12c23          	sw	a2,24(sp)
   1108c:	01112623          	sw	a7,12(sp)
   11090:	01012823          	sw	a6,16(sp)
   11094:	00b12a23          	sw	a1,20(sp)
   11098:	02010613          	addi	a2,sp,32
   1109c:	00a70533          	add	a0,a4,a0
   110a0:	fec54703          	lbu	a4,-20(a0)
   110a4:	00f607b3          	add	a5,a2,a5
   110a8:	fec7c783          	lbu	a5,-20(a5)
   110ac:	0106c683          	lbu	a3,16(a3)
   110b0:	00871713          	slli	a4,a4,0x8
   110b4:	00e7e7b3          	or	a5,a5,a4
   110b8:	00810513          	addi	a0,sp,8
   110bc:	00d10e23          	sb	a3,28(sp)
   110c0:	00010523          	sb	zero,10(sp)
   110c4:	00f11423          	sh	a5,8(sp)
   110c8:	939ff0ef          	jal	ra,10a00 <_Z11EchoConsolePKc>
   110cc:	02c12083          	lw	ra,44(sp)
   110d0:	03010113          	addi	sp,sp,48
   110d4:	00008067          	ret

000110d8 <_Z11DrawConsolev>:
   110d8:	ff010113          	addi	sp,sp,-16
   110dc:	00812423          	sw	s0,8(sp)
   110e0:	00912223          	sw	s1,4(sp)
   110e4:	01212023          	sw	s2,0(sp)
   110e8:	00112623          	sw	ra,12(sp)
   110ec:	c8c18413          	addi	s0,gp,-884 # 159d4 <_ZL11consoleText>
   110f0:	f8c18913          	addi	s2,gp,-116 # 15cd4 <_ZL7cursorx>
   110f4:	00000493          	li	s1,0
   110f8:	00040693          	mv	a3,s0
   110fc:	00048593          	mv	a1,s1
   11100:	00100713          	li	a4,1
   11104:	02000613          	li	a2,32
   11108:	00000513          	li	a0,0
   1110c:	02040413          	addi	s0,s0,32
   11110:	4cc000ef          	jal	ra,115dc <_Z8PrintDMAiiiPKcb>
   11114:	00848493          	addi	s1,s1,8
   11118:	ff2410e3          	bne	s0,s2,110f8 <_Z11DrawConsolev+0x20>
   1111c:	00c12083          	lw	ra,12(sp)
   11120:	00812403          	lw	s0,8(sp)
   11124:	00412483          	lw	s1,4(sp)
   11128:	00012903          	lw	s2,0(sp)
   1112c:	01010113          	addi	sp,sp,16
   11130:	00008067          	ret

00011134 <_Z18ConsoleStringAtRowPc>:
   11134:	f8c1a803          	lw	a6,-116(gp) # 15cd4 <_ZL7cursorx>
   11138:	0b005c63          	blez	a6,111f0 <_Z18ConsoleStringAtRowPc+0xbc>
   1113c:	fff80793          	addi	a5,a6,-1
   11140:	00357713          	andi	a4,a0,3
   11144:	0087b793          	sltiu	a5,a5,8
   11148:	0017c793          	xori	a5,a5,1
   1114c:	00173713          	seqz	a4,a4
   11150:	00f77733          	and	a4,a4,a5
   11154:	f901a783          	lw	a5,-112(gp) # 15cd8 <_ZL7cursory>
   11158:	00579893          	slli	a7,a5,0x5
   1115c:	c8c18693          	addi	a3,gp,-884 # 159d4 <_ZL11consoleText>
   11160:	08070c63          	beqz	a4,111f8 <_Z18ConsoleStringAtRowPc+0xc4>
   11164:	00188713          	addi	a4,a7,1
   11168:	00e68733          	add	a4,a3,a4
   1116c:	40e50733          	sub	a4,a0,a4
   11170:	00373713          	sltiu	a4,a4,3
   11174:	08071263          	bnez	a4,111f8 <_Z18ConsoleStringAtRowPc+0xc4>
   11178:	011687b3          	add	a5,a3,a7
   1117c:	ffc87593          	andi	a1,a6,-4
   11180:	00050713          	mv	a4,a0
   11184:	00f585b3          	add	a1,a1,a5
   11188:	0007a603          	lw	a2,0(a5)
   1118c:	00478793          	addi	a5,a5,4
   11190:	00470713          	addi	a4,a4,4
   11194:	fec72e23          	sw	a2,-4(a4)
   11198:	feb798e3          	bne	a5,a1,11188 <_Z18ConsoleStringAtRowPc+0x54>
   1119c:	ffc87713          	andi	a4,a6,-4
   111a0:	01050633          	add	a2,a0,a6
   111a4:	04e80463          	beq	a6,a4,111ec <_Z18ConsoleStringAtRowPc+0xb8>
   111a8:	011687b3          	add	a5,a3,a7
   111ac:	00e786b3          	add	a3,a5,a4
   111b0:	0006c883          	lbu	a7,0(a3)
   111b4:	00e505b3          	add	a1,a0,a4
   111b8:	00170693          	addi	a3,a4,1
   111bc:	01158023          	sb	a7,0(a1)
   111c0:	0306d663          	bge	a3,a6,111ec <_Z18ConsoleStringAtRowPc+0xb8>
   111c4:	00d785b3          	add	a1,a5,a3
   111c8:	0005c583          	lbu	a1,0(a1)
   111cc:	00d506b3          	add	a3,a0,a3
   111d0:	00270713          	addi	a4,a4,2
   111d4:	00b68023          	sb	a1,0(a3)
   111d8:	01075a63          	bge	a4,a6,111ec <_Z18ConsoleStringAtRowPc+0xb8>
   111dc:	00e787b3          	add	a5,a5,a4
   111e0:	0007c783          	lbu	a5,0(a5)
   111e4:	00e50733          	add	a4,a0,a4
   111e8:	00f70023          	sb	a5,0(a4)
   111ec:	00060513          	mv	a0,a2
   111f0:	00050023          	sb	zero,0(a0)
   111f4:	00008067          	ret
   111f8:	011687b3          	add	a5,a3,a7
   111fc:	01050633          	add	a2,a0,a6
   11200:	0007c703          	lbu	a4,0(a5)
   11204:	00150513          	addi	a0,a0,1
   11208:	00178793          	addi	a5,a5,1
   1120c:	fee50fa3          	sb	a4,-1(a0)
   11210:	fea618e3          	bne	a2,a0,11200 <_Z18ConsoleStringAtRowPc+0xcc>
   11214:	fd9ff06f          	j	111ec <_Z18ConsoleStringAtRowPc+0xb8>

00011218 <_Z11ClearScreenh>:
   11218:	01051713          	slli	a4,a0,0x10
   1121c:	01851793          	slli	a5,a0,0x18
   11220:	00e7e7b3          	or	a5,a5,a4
   11224:	00a7e7b3          	or	a5,a5,a0
   11228:	00004717          	auipc	a4,0x4
   1122c:	76c72703          	lw	a4,1900(a4) # 15994 <_GLOBAL_OFFSET_TABLE_+0x4>
   11230:	00851513          	slli	a0,a0,0x8
   11234:	00072703          	lw	a4,0(a4)
   11238:	00a7e533          	or	a0,a5,a0
   1123c:	00a51793          	slli	a5,a0,0xa
   11240:	01655513          	srli	a0,a0,0x16
   11244:	0817e793          	ori	a5,a5,129
   11248:	00a51513          	slli	a0,a0,0xa
   1124c:	00f72023          	sw	a5,0(a4)
   11250:	09156513          	ori	a0,a0,145
   11254:	00a72023          	sw	a0,0(a4)
   11258:	01300793          	li	a5,19
   1125c:	00f72023          	sw	a5,0(a4)
   11260:	00008067          	ret

00011264 <_Z8InitFontv>:
   11264:	00004797          	auipc	a5,0x4
   11268:	73c7a783          	lw	a5,1852(a5) # 159a0 <_GLOBAL_OFFSET_TABLE_+0x10>
   1126c:	0007a503          	lw	a0,0(a5)
   11270:	00002637          	lui	a2,0x2
   11274:	ff010113          	addi	sp,sp,-16
   11278:	80060613          	addi	a2,a2,-2048 # 1800 <main-0xe874>
   1127c:	00001597          	auipc	a1,0x1
   11280:	67c58593          	addi	a1,a1,1660 # 128f8 <_exit+0x178>
   11284:	00112623          	sw	ra,12(sp)
   11288:	0cc010ef          	jal	ra,12354 <memcpy>
   1128c:	00c12083          	lw	ra,12(sp)
   11290:	01010113          	addi	sp,sp,16
   11294:	00008067          	ret

00011298 <_Z8PrintDMAiiPKcb>:
   11298:	00064703          	lbu	a4,0(a2)
   1129c:	32070e63          	beqz	a4,115d8 <_Z8PrintDMAiiPKcb+0x340>
   112a0:	00004797          	auipc	a5,0x4
   112a4:	7007a783          	lw	a5,1792(a5) # 159a0 <_GLOBAL_OFFSET_TABLE_+0x10>
   112a8:	0007a303          	lw	t1,0(a5)
   112ac:	00004797          	auipc	a5,0x4
   112b0:	6e87a783          	lw	a5,1768(a5) # 15994 <_GLOBAL_OFFSET_TABLE_+0x4>
   112b4:	00001fb7          	lui	t6,0x1
   112b8:	00d03833          	snez	a6,a3
   112bc:	0007a783          	lw	a5,0(a5)
   112c0:	ac4f8893          	addi	a7,t6,-1340 # ac4 <main-0xf5b0>
   112c4:	01981813          	slli	a6,a6,0x19
   112c8:	00959593          	slli	a1,a1,0x9
   112cc:	01186833          	or	a6,a6,a7
   112d0:	00a585b3          	add	a1,a1,a0
   112d4:	00160893          	addi	a7,a2,1
   112d8:	800f8f13          	addi	t5,t6,-2048
   112dc:	a00f8e93          	addi	t4,t6,-1536
   112e0:	c00f8e13          	addi	t3,t6,-1024
   112e4:	e00f8513          	addi	a0,t6,-512
   112e8:	fe070713          	addi	a4,a4,-32
   112ec:	00068463          	beqz	a3,112f4 <_Z8PrintDMAiiPKcb+0x5c>
   112f0:	2c070c63          	beqz	a4,115c8 <_Z8PrintDMAiiPKcb+0x330>
   112f4:	2c074a63          	bltz	a4,115c8 <_Z8PrintDMAiiPKcb+0x330>
   112f8:	ff010113          	addi	sp,sp,-16
   112fc:	00812623          	sw	s0,12(sp)
   11300:	40575393          	srai	t2,a4,0x5
   11304:	01f77713          	andi	a4,a4,31
   11308:	00371613          	slli	a2,a4,0x3
   1130c:	00b39f93          	slli	t6,t2,0xb
   11310:	00cf8fb3          	add	t6,t6,a2
   11314:	01f30fb3          	add	t6,t1,t6
   11318:	00af9413          	slli	s0,t6,0xa
   1131c:	016fdf93          	srli	t6,t6,0x16
   11320:	4025d293          	srai	t0,a1,0x2
   11324:	20146413          	ori	s0,s0,513
   11328:	00b39713          	slli	a4,t2,0xb
   1132c:	00af9f93          	slli	t6,t6,0xa
   11330:	0087a023          	sw	s0,0(a5)
   11334:	10070713          	addi	a4,a4,256
   11338:	241fef93          	ori	t6,t6,577
   1133c:	00a29393          	slli	t2,t0,0xa
   11340:	0162d293          	srli	t0,t0,0x16
   11344:	01f7a023          	sw	t6,0(a5)
   11348:	2813e393          	ori	t2,t2,641
   1134c:	00e60fb3          	add	t6,a2,a4
   11350:	00a29293          	slli	t0,t0,0xa
   11354:	0077a023          	sw	t2,0(a5)
   11358:	01f30fb3          	add	t6,t1,t6
   1135c:	2d12e293          	ori	t0,t0,721
   11360:	0057a023          	sw	t0,0(a5)
   11364:	016fd393          	srli	t2,t6,0x16
   11368:	00af9293          	slli	t0,t6,0xa
   1136c:	20058f93          	addi	t6,a1,512
   11370:	0107a023          	sw	a6,0(a5)
   11374:	402fdf93          	srai	t6,t6,0x2
   11378:	2012e293          	ori	t0,t0,513
   1137c:	00a39393          	slli	t2,t2,0xa
   11380:	0057a023          	sw	t0,0(a5)
   11384:	00af9413          	slli	s0,t6,0xa
   11388:	2413e393          	ori	t2,t2,577
   1138c:	016fd293          	srli	t0,t6,0x16
   11390:	10070f93          	addi	t6,a4,256
   11394:	0077a023          	sw	t2,0(a5)
   11398:	00cf8fb3          	add	t6,t6,a2
   1139c:	28146393          	ori	t2,s0,641
   113a0:	00a29293          	slli	t0,t0,0xa
   113a4:	0077a023          	sw	t2,0(a5)
   113a8:	01f30fb3          	add	t6,t1,t6
   113ac:	2d12e293          	ori	t0,t0,721
   113b0:	0057a023          	sw	t0,0(a5)
   113b4:	016fd393          	srli	t2,t6,0x16
   113b8:	00af9293          	slli	t0,t6,0xa
   113bc:	40058f93          	addi	t6,a1,1024
   113c0:	0107a023          	sw	a6,0(a5)
   113c4:	402fdf93          	srai	t6,t6,0x2
   113c8:	2012e293          	ori	t0,t0,513
   113cc:	00a39393          	slli	t2,t2,0xa
   113d0:	0057a023          	sw	t0,0(a5)
   113d4:	00af9413          	slli	s0,t6,0xa
   113d8:	2413e393          	ori	t2,t2,577
   113dc:	016fd293          	srli	t0,t6,0x16
   113e0:	20070f93          	addi	t6,a4,512
   113e4:	0077a023          	sw	t2,0(a5)
   113e8:	00cf8fb3          	add	t6,t6,a2
   113ec:	28146393          	ori	t2,s0,641
   113f0:	00a29293          	slli	t0,t0,0xa
   113f4:	0077a023          	sw	t2,0(a5)
   113f8:	01f30fb3          	add	t6,t1,t6
   113fc:	2d12e293          	ori	t0,t0,721
   11400:	0057a023          	sw	t0,0(a5)
   11404:	016fd393          	srli	t2,t6,0x16
   11408:	00af9293          	slli	t0,t6,0xa
   1140c:	60058f93          	addi	t6,a1,1536
   11410:	0107a023          	sw	a6,0(a5)
   11414:	402fdf93          	srai	t6,t6,0x2
   11418:	2012e293          	ori	t0,t0,513
   1141c:	00a39393          	slli	t2,t2,0xa
   11420:	0057a023          	sw	t0,0(a5)
   11424:	00af9413          	slli	s0,t6,0xa
   11428:	2413e393          	ori	t2,t2,577
   1142c:	016fd293          	srli	t0,t6,0x16
   11430:	30070f93          	addi	t6,a4,768
   11434:	0077a023          	sw	t2,0(a5)
   11438:	00cf8fb3          	add	t6,t6,a2
   1143c:	28146393          	ori	t2,s0,641
   11440:	00a29293          	slli	t0,t0,0xa
   11444:	0077a023          	sw	t2,0(a5)
   11448:	01f30fb3          	add	t6,t1,t6
   1144c:	2d12e293          	ori	t0,t0,721
   11450:	0057a023          	sw	t0,0(a5)
   11454:	016fd393          	srli	t2,t6,0x16
   11458:	00af9293          	slli	t0,t6,0xa
   1145c:	01e58fb3          	add	t6,a1,t5
   11460:	0107a023          	sw	a6,0(a5)
   11464:	402fdf93          	srai	t6,t6,0x2
   11468:	2012e293          	ori	t0,t0,513
   1146c:	00a39393          	slli	t2,t2,0xa
   11470:	0057a023          	sw	t0,0(a5)
   11474:	00af9413          	slli	s0,t6,0xa
   11478:	2413e393          	ori	t2,t2,577
   1147c:	016fd293          	srli	t0,t6,0x16
   11480:	40070f93          	addi	t6,a4,1024
   11484:	0077a023          	sw	t2,0(a5)
   11488:	00cf8fb3          	add	t6,t6,a2
   1148c:	28146393          	ori	t2,s0,641
   11490:	00a29293          	slli	t0,t0,0xa
   11494:	0077a023          	sw	t2,0(a5)
   11498:	01f30fb3          	add	t6,t1,t6
   1149c:	2d12e293          	ori	t0,t0,721
   114a0:	0057a023          	sw	t0,0(a5)
   114a4:	016fd393          	srli	t2,t6,0x16
   114a8:	00af9293          	slli	t0,t6,0xa
   114ac:	01d58fb3          	add	t6,a1,t4
   114b0:	0107a023          	sw	a6,0(a5)
   114b4:	402fdf93          	srai	t6,t6,0x2
   114b8:	2012e293          	ori	t0,t0,513
   114bc:	00a39393          	slli	t2,t2,0xa
   114c0:	0057a023          	sw	t0,0(a5)
   114c4:	00af9413          	slli	s0,t6,0xa
   114c8:	2413e393          	ori	t2,t2,577
   114cc:	016fd293          	srli	t0,t6,0x16
   114d0:	50070f93          	addi	t6,a4,1280
   114d4:	0077a023          	sw	t2,0(a5)
   114d8:	00cf8fb3          	add	t6,t6,a2
   114dc:	28146393          	ori	t2,s0,641
   114e0:	00a29293          	slli	t0,t0,0xa
   114e4:	0077a023          	sw	t2,0(a5)
   114e8:	01f30fb3          	add	t6,t1,t6
   114ec:	2d12e293          	ori	t0,t0,721
   114f0:	01c583b3          	add	t2,a1,t3
   114f4:	0057a023          	sw	t0,0(a5)
   114f8:	00af9413          	slli	s0,t6,0xa
   114fc:	4023d293          	srai	t0,t2,0x2
   11500:	016fdf93          	srli	t6,t6,0x16
   11504:	0107a023          	sw	a6,0(a5)
   11508:	0162d393          	srli	t2,t0,0x16
   1150c:	20146413          	ori	s0,s0,513
   11510:	00af9f93          	slli	t6,t6,0xa
   11514:	60070713          	addi	a4,a4,1536
   11518:	0087a023          	sw	s0,0(a5)
   1151c:	241fef93          	ori	t6,t6,577
   11520:	00c70733          	add	a4,a4,a2
   11524:	00a29293          	slli	t0,t0,0xa
   11528:	00a39393          	slli	t2,t2,0xa
   1152c:	00e30733          	add	a4,t1,a4
   11530:	01f7a023          	sw	t6,0(a5)
   11534:	2d13e613          	ori	a2,t2,721
   11538:	2812e293          	ori	t0,t0,641
   1153c:	0057a023          	sw	t0,0(a5)
   11540:	00a71f93          	slli	t6,a4,0xa
   11544:	00c7a023          	sw	a2,0(a5)
   11548:	01675713          	srli	a4,a4,0x16
   1154c:	00a58633          	add	a2,a1,a0
   11550:	0107a023          	sw	a6,0(a5)
   11554:	40265613          	srai	a2,a2,0x2
   11558:	201fef93          	ori	t6,t6,513
   1155c:	00a71713          	slli	a4,a4,0xa
   11560:	01f7a023          	sw	t6,0(a5)
   11564:	24176713          	ori	a4,a4,577
   11568:	00a61f93          	slli	t6,a2,0xa
   1156c:	01665613          	srli	a2,a2,0x16
   11570:	00e7a023          	sw	a4,0(a5)
   11574:	00a61613          	slli	a2,a2,0xa
   11578:	281fe713          	ori	a4,t6,641
   1157c:	00e7a023          	sw	a4,0(a5)
   11580:	2d166613          	ori	a2,a2,721
   11584:	00c7a023          	sw	a2,0(a5)
   11588:	0107a023          	sw	a6,0(a5)
   1158c:	0008c703          	lbu	a4,0(a7)
   11590:	00858593          	addi	a1,a1,8
   11594:	00188893          	addi	a7,a7,1
   11598:	02070263          	beqz	a4,115bc <_Z8PrintDMAiiPKcb+0x324>
   1159c:	fe070713          	addi	a4,a4,-32
   115a0:	00068463          	beqz	a3,115a8 <_Z8PrintDMAiiPKcb+0x310>
   115a4:	fe0704e3          	beqz	a4,1158c <_Z8PrintDMAiiPKcb+0x2f4>
   115a8:	d4075ce3          	bgez	a4,11300 <_Z8PrintDMAiiPKcb+0x68>
   115ac:	0008c703          	lbu	a4,0(a7)
   115b0:	00858593          	addi	a1,a1,8
   115b4:	00188893          	addi	a7,a7,1
   115b8:	fe0712e3          	bnez	a4,1159c <_Z8PrintDMAiiPKcb+0x304>
   115bc:	00c12403          	lw	s0,12(sp)
   115c0:	01010113          	addi	sp,sp,16
   115c4:	00008067          	ret
   115c8:	0008c703          	lbu	a4,0(a7)
   115cc:	00858593          	addi	a1,a1,8
   115d0:	00188893          	addi	a7,a7,1
   115d4:	d0071ae3          	bnez	a4,112e8 <_Z8PrintDMAiiPKcb+0x50>
   115d8:	00008067          	ret

000115dc <_Z8PrintDMAiiiPKcb>:
   115dc:	38c05c63          	blez	a2,11974 <_Z8PrintDMAiiiPKcb+0x398>
   115e0:	000012b7          	lui	t0,0x1
   115e4:	00004797          	auipc	a5,0x4
   115e8:	3bc7a783          	lw	a5,956(a5) # 159a0 <_GLOBAL_OFFSET_TABLE_+0x10>
   115ec:	00e03833          	snez	a6,a4
   115f0:	ac428e13          	addi	t3,t0,-1340 # ac4 <main-0xf5b0>
   115f4:	0007a883          	lw	a7,0(a5)
   115f8:	01981813          	slli	a6,a6,0x19
   115fc:	00959593          	slli	a1,a1,0x9
   11600:	00004797          	auipc	a5,0x4
   11604:	3947a783          	lw	a5,916(a5) # 15994 <_GLOBAL_OFFSET_TABLE_+0x4>
   11608:	01c86833          	or	a6,a6,t3
   1160c:	00a585b3          	add	a1,a1,a0
   11610:	0007a783          	lw	a5,0(a5)
   11614:	00068313          	mv	t1,a3
   11618:	00c68633          	add	a2,a3,a2
   1161c:	07f00f93          	li	t6,127
   11620:	80028f13          	addi	t5,t0,-2048
   11624:	a0028e93          	addi	t4,t0,-1536
   11628:	c0028e13          	addi	t3,t0,-1024
   1162c:	e0028513          	addi	a0,t0,-512
   11630:	0100006f          	j	11640 <_Z8PrintDMAiiiPKcb+0x64>
   11634:	00130313          	addi	t1,t1,1
   11638:	00858593          	addi	a1,a1,8
   1163c:	32c30c63          	beq	t1,a2,11974 <_Z8PrintDMAiiiPKcb+0x398>
   11640:	00034683          	lbu	a3,0(t1)
   11644:	32068863          	beqz	a3,11974 <_Z8PrintDMAiiiPKcb+0x398>
   11648:	fe068693          	addi	a3,a3,-32
   1164c:	00070463          	beqz	a4,11654 <_Z8PrintDMAiiiPKcb+0x78>
   11650:	fe0682e3          	beqz	a3,11634 <_Z8PrintDMAiiiPKcb+0x58>
   11654:	fe010113          	addi	sp,sp,-32
   11658:	00812e23          	sw	s0,28(sp)
   1165c:	00912c23          	sw	s1,24(sp)
   11660:	01212a23          	sw	s2,20(sp)
   11664:	01312823          	sw	s3,16(sp)
   11668:	01412623          	sw	s4,12(sp)
   1166c:	01512423          	sw	s5,8(sp)
   11670:	01612223          	sw	s6,4(sp)
   11674:	2cdfee63          	bltu	t6,a3,11950 <_Z8PrintDMAiiiPKcb+0x374>
   11678:	4056d393          	srai	t2,a3,0x5
   1167c:	01f6f693          	andi	a3,a3,31
   11680:	00b39a13          	slli	s4,t2,0xb
   11684:	00369293          	slli	t0,a3,0x3
   11688:	005a06b3          	add	a3,s4,t0
   1168c:	200a0993          	addi	s3,s4,512
   11690:	300a0913          	addi	s2,s4,768
   11694:	400a0493          	addi	s1,s4,1024
   11698:	500a0413          	addi	s0,s4,1280
   1169c:	600a0393          	addi	t2,s4,1536
   116a0:	700a0a93          	addi	s5,s4,1792
   116a4:	100a0a13          	addi	s4,s4,256
   116a8:	01428a33          	add	s4,t0,s4
   116ac:	005989b3          	add	s3,s3,t0
   116b0:	00590933          	add	s2,s2,t0
   116b4:	005484b3          	add	s1,s1,t0
   116b8:	00540433          	add	s0,s0,t0
   116bc:	005383b3          	add	t2,t2,t0
   116c0:	00d886b3          	add	a3,a7,a3
   116c4:	005a82b3          	add	t0,s5,t0
   116c8:	00a69b13          	slli	s6,a3,0xa
   116cc:	0166da93          	srli	s5,a3,0x16
   116d0:	201b6b13          	ori	s6,s6,513
   116d4:	4025d693          	srai	a3,a1,0x2
   116d8:	00aa9a93          	slli	s5,s5,0xa
   116dc:	0167a023          	sw	s6,0(a5)
   116e0:	241aea93          	ori	s5,s5,577
   116e4:	00a69b13          	slli	s6,a3,0xa
   116e8:	0166d693          	srli	a3,a3,0x16
   116ec:	0157a023          	sw	s5,0(a5)
   116f0:	00a69693          	slli	a3,a3,0xa
   116f4:	281b6a93          	ori	s5,s6,641
   116f8:	0157a023          	sw	s5,0(a5)
   116fc:	01488a33          	add	s4,a7,s4
   11700:	2d16e693          	ori	a3,a3,721
   11704:	00d7a023          	sw	a3,0(a5)
   11708:	00aa1a93          	slli	s5,s4,0xa
   1170c:	20058693          	addi	a3,a1,512
   11710:	016a5a13          	srli	s4,s4,0x16
   11714:	0107a023          	sw	a6,0(a5)
   11718:	4026d693          	srai	a3,a3,0x2
   1171c:	201aea93          	ori	s5,s5,513
   11720:	00aa1a13          	slli	s4,s4,0xa
   11724:	0157a023          	sw	s5,0(a5)
   11728:	241a6a13          	ori	s4,s4,577
   1172c:	00a69a93          	slli	s5,a3,0xa
   11730:	0166d693          	srli	a3,a3,0x16
   11734:	0147a023          	sw	s4,0(a5)
   11738:	00a69693          	slli	a3,a3,0xa
   1173c:	281aea13          	ori	s4,s5,641
   11740:	0147a023          	sw	s4,0(a5)
   11744:	013889b3          	add	s3,a7,s3
   11748:	2d16e693          	ori	a3,a3,721
   1174c:	00d7a023          	sw	a3,0(a5)
   11750:	00a99a13          	slli	s4,s3,0xa
   11754:	40058693          	addi	a3,a1,1024
   11758:	0169d993          	srli	s3,s3,0x16
   1175c:	0107a023          	sw	a6,0(a5)
   11760:	4026d693          	srai	a3,a3,0x2
   11764:	201a6a13          	ori	s4,s4,513
   11768:	00a99993          	slli	s3,s3,0xa
   1176c:	0147a023          	sw	s4,0(a5)
   11770:	2419e993          	ori	s3,s3,577
   11774:	00a69a13          	slli	s4,a3,0xa
   11778:	0166d693          	srli	a3,a3,0x16
   1177c:	0137a023          	sw	s3,0(a5)
   11780:	00a69693          	slli	a3,a3,0xa
   11784:	281a6993          	ori	s3,s4,641
   11788:	0137a023          	sw	s3,0(a5)
   1178c:	01288933          	add	s2,a7,s2
   11790:	2d16e693          	ori	a3,a3,721
   11794:	00d7a023          	sw	a3,0(a5)
   11798:	00a91993          	slli	s3,s2,0xa
   1179c:	60058693          	addi	a3,a1,1536
   117a0:	01695913          	srli	s2,s2,0x16
   117a4:	0107a023          	sw	a6,0(a5)
   117a8:	4026d693          	srai	a3,a3,0x2
   117ac:	2019e993          	ori	s3,s3,513
   117b0:	00a91913          	slli	s2,s2,0xa
   117b4:	0137a023          	sw	s3,0(a5)
   117b8:	24196913          	ori	s2,s2,577
   117bc:	00a69993          	slli	s3,a3,0xa
   117c0:	0166d693          	srli	a3,a3,0x16
   117c4:	0127a023          	sw	s2,0(a5)
   117c8:	00a69693          	slli	a3,a3,0xa
   117cc:	2819e913          	ori	s2,s3,641
   117d0:	0127a023          	sw	s2,0(a5)
   117d4:	009884b3          	add	s1,a7,s1
   117d8:	2d16e693          	ori	a3,a3,721
   117dc:	00d7a023          	sw	a3,0(a5)
   117e0:	00a49913          	slli	s2,s1,0xa
   117e4:	01e586b3          	add	a3,a1,t5
   117e8:	0164d493          	srli	s1,s1,0x16
   117ec:	0107a023          	sw	a6,0(a5)
   117f0:	4026d693          	srai	a3,a3,0x2
   117f4:	20196913          	ori	s2,s2,513
   117f8:	00a49493          	slli	s1,s1,0xa
   117fc:	0127a023          	sw	s2,0(a5)
   11800:	2414e493          	ori	s1,s1,577
   11804:	00a69913          	slli	s2,a3,0xa
   11808:	0166d693          	srli	a3,a3,0x16
   1180c:	0097a023          	sw	s1,0(a5)
   11810:	00a69693          	slli	a3,a3,0xa
   11814:	28196493          	ori	s1,s2,641
   11818:	0097a023          	sw	s1,0(a5)
   1181c:	00888433          	add	s0,a7,s0
   11820:	2d16e693          	ori	a3,a3,721
   11824:	00d7a023          	sw	a3,0(a5)
   11828:	00a41493          	slli	s1,s0,0xa
   1182c:	01d586b3          	add	a3,a1,t4
   11830:	01645413          	srli	s0,s0,0x16
   11834:	0107a023          	sw	a6,0(a5)
   11838:	4026d693          	srai	a3,a3,0x2
   1183c:	2014e493          	ori	s1,s1,513
   11840:	00a41413          	slli	s0,s0,0xa
   11844:	0097a023          	sw	s1,0(a5)
   11848:	24146413          	ori	s0,s0,577
   1184c:	00a69493          	slli	s1,a3,0xa
   11850:	0166d693          	srli	a3,a3,0x16
   11854:	0087a023          	sw	s0,0(a5)
   11858:	00a69693          	slli	a3,a3,0xa
   1185c:	2814e413          	ori	s0,s1,641
   11860:	0087a023          	sw	s0,0(a5)
   11864:	007883b3          	add	t2,a7,t2
   11868:	01c58433          	add	s0,a1,t3
   1186c:	2d16e693          	ori	a3,a3,721
   11870:	00d7a023          	sw	a3,0(a5)
   11874:	00a39493          	slli	s1,t2,0xa
   11878:	40245693          	srai	a3,s0,0x2
   1187c:	0163d393          	srli	t2,t2,0x16
   11880:	0107a023          	sw	a6,0(a5)
   11884:	0166d413          	srli	s0,a3,0x16
   11888:	2014e493          	ori	s1,s1,513
   1188c:	00a39393          	slli	t2,t2,0xa
   11890:	0097a023          	sw	s1,0(a5)
   11894:	2413e393          	ori	t2,t2,577
   11898:	00a41413          	slli	s0,s0,0xa
   1189c:	00a69693          	slli	a3,a3,0xa
   118a0:	005882b3          	add	t0,a7,t0
   118a4:	0077a023          	sw	t2,0(a5)
   118a8:	2816e693          	ori	a3,a3,641
   118ac:	2d146393          	ori	t2,s0,721
   118b0:	00d7a023          	sw	a3,0(a5)
   118b4:	00a29413          	slli	s0,t0,0xa
   118b8:	0077a023          	sw	t2,0(a5)
   118bc:	00a586b3          	add	a3,a1,a0
   118c0:	0162d293          	srli	t0,t0,0x16
   118c4:	0107a023          	sw	a6,0(a5)
   118c8:	4026d693          	srai	a3,a3,0x2
   118cc:	20146393          	ori	t2,s0,513
   118d0:	00a29293          	slli	t0,t0,0xa
   118d4:	0077a023          	sw	t2,0(a5)
   118d8:	2412e293          	ori	t0,t0,577
   118dc:	00a69393          	slli	t2,a3,0xa
   118e0:	0166d693          	srli	a3,a3,0x16
   118e4:	0057a023          	sw	t0,0(a5)
   118e8:	00a69693          	slli	a3,a3,0xa
   118ec:	2813e293          	ori	t0,t2,641
   118f0:	0057a023          	sw	t0,0(a5)
   118f4:	2d16e693          	ori	a3,a3,721
   118f8:	00d7a023          	sw	a3,0(a5)
   118fc:	0107a023          	sw	a6,0(a5)
   11900:	00130313          	addi	t1,t1,1
   11904:	00858593          	addi	a1,a1,8
   11908:	02c30263          	beq	t1,a2,1192c <_Z8PrintDMAiiiPKcb+0x350>
   1190c:	00034683          	lbu	a3,0(t1)
   11910:	00068e63          	beqz	a3,1192c <_Z8PrintDMAiiiPKcb+0x350>
   11914:	fe068693          	addi	a3,a3,-32
   11918:	d4070ee3          	beqz	a4,11674 <_Z8PrintDMAiiiPKcb+0x98>
   1191c:	d4069ce3          	bnez	a3,11674 <_Z8PrintDMAiiiPKcb+0x98>
   11920:	00130313          	addi	t1,t1,1
   11924:	00858593          	addi	a1,a1,8
   11928:	fec312e3          	bne	t1,a2,1190c <_Z8PrintDMAiiiPKcb+0x330>
   1192c:	01c12403          	lw	s0,28(sp)
   11930:	01812483          	lw	s1,24(sp)
   11934:	01412903          	lw	s2,20(sp)
   11938:	01012983          	lw	s3,16(sp)
   1193c:	00c12a03          	lw	s4,12(sp)
   11940:	00812a83          	lw	s5,8(sp)
   11944:	00412b03          	lw	s6,4(sp)
   11948:	02010113          	addi	sp,sp,32
   1194c:	00008067          	ret
   11950:	00088693          	mv	a3,a7
   11954:	70000293          	li	t0,1792
   11958:	60000393          	li	t2,1536
   1195c:	50000413          	li	s0,1280
   11960:	40000493          	li	s1,1024
   11964:	30000913          	li	s2,768
   11968:	20000993          	li	s3,512
   1196c:	10000a13          	li	s4,256
   11970:	d59ff06f          	j	116c8 <_Z8PrintDMAiiiPKcb+0xec>
   11974:	00008067          	ret

00011978 <_Z11PrintDMAHexiim>:
   11978:	00001e17          	auipc	t3,0x1
   1197c:	f4ce0e13          	addi	t3,t3,-180 # 128c4 <_exit+0x144>
   11980:	00ce2f03          	lw	t5,12(t3)
   11984:	008e2f83          	lw	t6,8(t3)
   11988:	000e2383          	lw	t2,0(t3)
   1198c:	004e2283          	lw	t0,4(t3)
   11990:	fd010113          	addi	sp,sp,-48
   11994:	01865313          	srli	t1,a2,0x18
   11998:	01465893          	srli	a7,a2,0x14
   1199c:	01065813          	srli	a6,a2,0x10
   119a0:	00c65693          	srli	a3,a2,0xc
   119a4:	00865713          	srli	a4,a2,0x8
   119a8:	00465793          	srli	a5,a2,0x4
   119ac:	01e12c23          	sw	t5,24(sp)
   119b0:	01c65e93          	srli	t4,a2,0x1c
   119b4:	02010f13          	addi	t5,sp,32
   119b8:	00f37313          	andi	t1,t1,15
   119bc:	00f8f893          	andi	a7,a7,15
   119c0:	00f87813          	andi	a6,a6,15
   119c4:	00f6f693          	andi	a3,a3,15
   119c8:	00f77713          	andi	a4,a4,15
   119cc:	00f7f793          	andi	a5,a5,15
   119d0:	00f67613          	andi	a2,a2,15
   119d4:	02112623          	sw	ra,44(sp)
   119d8:	01f12a23          	sw	t6,20(sp)
   119dc:	00712623          	sw	t2,12(sp)
   119e0:	00512823          	sw	t0,16(sp)
   119e4:	006f0333          	add	t1,t5,t1
   119e8:	011f08b3          	add	a7,t5,a7
   119ec:	010f0833          	add	a6,t5,a6
   119f0:	00df06b3          	add	a3,t5,a3
   119f4:	00ef0733          	add	a4,t5,a4
   119f8:	00ff07b3          	add	a5,t5,a5
   119fc:	00cf0633          	add	a2,t5,a2
   11a00:	01df0eb3          	add	t4,t5,t4
   11a04:	010e4f83          	lbu	t6,16(t3)
   11a08:	fececf03          	lbu	t5,-20(t4)
   11a0c:	fec8ce03          	lbu	t3,-20(a7)
   11a10:	fec34e83          	lbu	t4,-20(t1)
   11a14:	fec6c883          	lbu	a7,-20(a3)
   11a18:	fec84303          	lbu	t1,-20(a6)
   11a1c:	fec74803          	lbu	a6,-20(a4)
   11a20:	fec7c703          	lbu	a4,-20(a5)
   11a24:	fec64783          	lbu	a5,-20(a2)
   11a28:	02e00693          	li	a3,46
   11a2c:	00d11423          	sh	a3,8(sp)
   11a30:	00010613          	mv	a2,sp
   11a34:	00100693          	li	a3,1
   11a38:	01f10e23          	sb	t6,28(sp)
   11a3c:	01e10023          	sb	t5,0(sp)
   11a40:	01d100a3          	sb	t4,1(sp)
   11a44:	01c10123          	sb	t3,2(sp)
   11a48:	006101a3          	sb	t1,3(sp)
   11a4c:	01110223          	sb	a7,4(sp)
   11a50:	010102a3          	sb	a6,5(sp)
   11a54:	00e10323          	sb	a4,6(sp)
   11a58:	00f103a3          	sb	a5,7(sp)
   11a5c:	00010423          	sb	zero,8(sp)
   11a60:	839ff0ef          	jal	ra,11298 <_Z8PrintDMAiiPKcb>
   11a64:	02c12083          	lw	ra,44(sp)
   11a68:	03010113          	addi	sp,sp,48
   11a6c:	00008067          	ret

00011a70 <_Z15PrintDMADecimaliiib>:
   11a70:	00001797          	auipc	a5,0x1
   11a74:	e6878793          	addi	a5,a5,-408 # 128d8 <_exit+0x158>
   11a78:	00001717          	auipc	a4,0x1
   11a7c:	e7470713          	addi	a4,a4,-396 # 128ec <_exit+0x16c>
   11a80:	0047a883          	lw	a7,4(a5)
   11a84:	00072f83          	lw	t6,0(a4)
   11a88:	00472f03          	lw	t5,4(a4)
   11a8c:	00875e83          	lhu	t4,8(a4)
   11a90:	00a74e03          	lbu	t3,10(a4)
   11a94:	0007a303          	lw	t1,0(a5)
   11a98:	0087a803          	lw	a6,8(a5)
   11a9c:	00c7a703          	lw	a4,12(a5)
   11aa0:	0107a783          	lw	a5,16(a5)
   11aa4:	fd010113          	addi	sp,sp,-48
   11aa8:	01112823          	sw	a7,16(sp)
   11aac:	00f12e23          	sw	a5,28(sp)
   11ab0:	02112623          	sw	ra,44(sp)
   11ab4:	02812423          	sw	s0,40(sp)
   11ab8:	01f12023          	sw	t6,0(sp)
   11abc:	01e12223          	sw	t5,4(sp)
   11ac0:	01d11423          	sh	t4,8(sp)
   11ac4:	01c10523          	sb	t3,10(sp)
   11ac8:	00612623          	sw	t1,12(sp)
   11acc:	01012a23          	sw	a6,20(sp)
   11ad0:	00e12c23          	sw	a4,24(sp)
   11ad4:	02d00893          	li	a7,45
   11ad8:	00100793          	li	a5,1
   11adc:	00064663          	bltz	a2,11ae8 <_Z15PrintDMADecimaliiib+0x78>
   11ae0:	02000893          	li	a7,32
   11ae4:	00000793          	li	a5,0
   11ae8:	3b9ad737          	lui	a4,0x3b9ad
   11aec:	a0070813          	addi	a6,a4,-1536 # 3b9aca00 <__global_pointer$+0x3b996cb8>
   11af0:	03064833          	div	a6,a2,a6
   11af4:	9ff70713          	addi	a4,a4,-1537
   11af8:	01110623          	sb	a7,12(sp)
   11afc:	773598b7          	lui	a7,0x77359
   11b00:	00e60733          	add	a4,a2,a4
   11b04:	3fe88893          	addi	a7,a7,1022 # 773593fe <__global_pointer$+0x773436b6>
   11b08:	41f85313          	srai	t1,a6,0x1f
   11b0c:	01034833          	xor	a6,t1,a6
   11b10:	40680833          	sub	a6,a6,t1
   11b14:	14e8e663          	bltu	a7,a4,11c60 <_Z15PrintDMADecimaliiib+0x1f0>
   11b18:	05f5e737          	lui	a4,0x5f5e
   11b1c:	10070713          	addi	a4,a4,256 # 5f5e100 <__global_pointer$+0x5f483b8>
   11b20:	02e64733          	div	a4,a2,a4
   11b24:	00a00893          	li	a7,10
   11b28:	41f75313          	srai	t1,a4,0x1f
   11b2c:	00e34833          	xor	a6,t1,a4
   11b30:	40680833          	sub	a6,a6,t1
   11b34:	03186833          	rem	a6,a6,a7
   11b38:	16081263          	bnez	a6,11c9c <_Z15PrintDMADecimaliiib+0x22c>
   11b3c:	00989737          	lui	a4,0x989
   11b40:	68070713          	addi	a4,a4,1664 # 989680 <__global_pointer$+0x973938>
   11b44:	02e64733          	div	a4,a2,a4
   11b48:	41f75313          	srai	t1,a4,0x1f
   11b4c:	00e34833          	xor	a6,t1,a4
   11b50:	40680833          	sub	a6,a6,t1
   11b54:	03186833          	rem	a6,a6,a7
   11b58:	18081063          	bnez	a6,11cd8 <_Z15PrintDMADecimaliiib+0x268>
   11b5c:	000f4737          	lui	a4,0xf4
   11b60:	24070713          	addi	a4,a4,576 # f4240 <__global_pointer$+0xde4f8>
   11b64:	02e64733          	div	a4,a2,a4
   11b68:	41f75313          	srai	t1,a4,0x1f
   11b6c:	00e34833          	xor	a6,t1,a4
   11b70:	40680833          	sub	a6,a6,t1
   11b74:	03186833          	rem	a6,a6,a7
   11b78:	18081e63          	bnez	a6,11d14 <_Z15PrintDMADecimaliiib+0x2a4>
   11b7c:	00018737          	lui	a4,0x18
   11b80:	6a070713          	addi	a4,a4,1696 # 186a0 <__global_pointer$+0x2958>
   11b84:	02e64733          	div	a4,a2,a4
   11b88:	41f75313          	srai	t1,a4,0x1f
   11b8c:	00e34833          	xor	a6,t1,a4
   11b90:	40680833          	sub	a6,a6,t1
   11b94:	03186833          	rem	a6,a6,a7
   11b98:	1a081c63          	bnez	a6,11d50 <_Z15PrintDMADecimaliiib+0x2e0>
   11b9c:	00002737          	lui	a4,0x2
   11ba0:	71070713          	addi	a4,a4,1808 # 2710 <main-0xd964>
   11ba4:	02e64733          	div	a4,a2,a4
   11ba8:	41f75813          	srai	a6,a4,0x1f
   11bac:	00e84733          	xor	a4,a6,a4
   11bb0:	41070733          	sub	a4,a4,a6
   11bb4:	03176733          	rem	a4,a4,a7
   11bb8:	1c071a63          	bnez	a4,11d8c <_Z15PrintDMADecimaliiib+0x31c>
   11bbc:	3e800713          	li	a4,1000
   11bc0:	02e64733          	div	a4,a2,a4
   11bc4:	41f75313          	srai	t1,a4,0x1f
   11bc8:	00e34833          	xor	a6,t1,a4
   11bcc:	40680833          	sub	a6,a6,t1
   11bd0:	03186833          	rem	a6,a6,a7
   11bd4:	1e081863          	bnez	a6,11dc4 <_Z15PrintDMADecimaliiib+0x354>
   11bd8:	06400713          	li	a4,100
   11bdc:	02e64733          	div	a4,a2,a4
   11be0:	41f75813          	srai	a6,a4,0x1f
   11be4:	00e84733          	xor	a4,a6,a4
   11be8:	41070733          	sub	a4,a4,a6
   11bec:	03176733          	rem	a4,a4,a7
   11bf0:	20071663          	bnez	a4,11dfc <_Z15PrintDMADecimaliiib+0x38c>
   11bf4:	03164733          	div	a4,a2,a7
   11bf8:	41f75813          	srai	a6,a4,0x1f
   11bfc:	00e84733          	xor	a4,a6,a4
   11c00:	41070733          	sub	a4,a4,a6
   11c04:	031768b3          	rem	a7,a4,a7
   11c08:	22089463          	bnez	a7,11e30 <_Z15PrintDMADecimaliiib+0x3c0>
   11c0c:	41f65813          	srai	a6,a2,0x1f
   11c10:	00c84733          	xor	a4,a6,a2
   11c14:	41070733          	sub	a4,a4,a6
   11c18:	00a00613          	li	a2,10
   11c1c:	02c76733          	rem	a4,a4,a2
   11c20:	02010893          	addi	a7,sp,32
   11c24:	02010613          	addi	a2,sp,32
   11c28:	00178413          	addi	s0,a5,1
   11c2c:	00f607b3          	add	a5,a2,a5
   11c30:	00860833          	add	a6,a2,s0
   11c34:	00c10613          	addi	a2,sp,12
   11c38:	00e88733          	add	a4,a7,a4
   11c3c:	fe074703          	lbu	a4,-32(a4)
   11c40:	fee78623          	sb	a4,-20(a5)
   11c44:	fe080623          	sb	zero,-20(a6)
   11c48:	e50ff0ef          	jal	ra,11298 <_Z8PrintDMAiiPKcb>
   11c4c:	02c12083          	lw	ra,44(sp)
   11c50:	00040513          	mv	a0,s0
   11c54:	02812403          	lw	s0,40(sp)
   11c58:	03010113          	addi	sp,sp,48
   11c5c:	00008067          	ret
   11c60:	05f5e737          	lui	a4,0x5f5e
   11c64:	10070713          	addi	a4,a4,256 # 5f5e100 <__global_pointer$+0x5f483b8>
   11c68:	02e64733          	div	a4,a2,a4
   11c6c:	02010893          	addi	a7,sp,32
   11c70:	01088833          	add	a6,a7,a6
   11c74:	fe084883          	lbu	a7,-32(a6)
   11c78:	02010813          	addi	a6,sp,32
   11c7c:	00f80833          	add	a6,a6,a5
   11c80:	ff180623          	sb	a7,-20(a6)
   11c84:	00178793          	addi	a5,a5,1
   11c88:	41f75893          	srai	a7,a4,0x1f
   11c8c:	00e8c833          	xor	a6,a7,a4
   11c90:	41180833          	sub	a6,a6,a7
   11c94:	00a00713          	li	a4,10
   11c98:	02e86833          	rem	a6,a6,a4
   11c9c:	00989737          	lui	a4,0x989
   11ca0:	68070713          	addi	a4,a4,1664 # 989680 <__global_pointer$+0x973938>
   11ca4:	02010893          	addi	a7,sp,32
   11ca8:	01088833          	add	a6,a7,a6
   11cac:	fe084883          	lbu	a7,-32(a6)
   11cb0:	02010813          	addi	a6,sp,32
   11cb4:	00f80833          	add	a6,a6,a5
   11cb8:	ff180623          	sb	a7,-20(a6)
   11cbc:	00178793          	addi	a5,a5,1
   11cc0:	02e64733          	div	a4,a2,a4
   11cc4:	41f75893          	srai	a7,a4,0x1f
   11cc8:	00e8c833          	xor	a6,a7,a4
   11ccc:	41180833          	sub	a6,a6,a7
   11cd0:	00a00713          	li	a4,10
   11cd4:	02e86833          	rem	a6,a6,a4
   11cd8:	000f4737          	lui	a4,0xf4
   11cdc:	24070713          	addi	a4,a4,576 # f4240 <__global_pointer$+0xde4f8>
   11ce0:	02010893          	addi	a7,sp,32
   11ce4:	01088833          	add	a6,a7,a6
   11ce8:	fe084883          	lbu	a7,-32(a6)
   11cec:	02010813          	addi	a6,sp,32
   11cf0:	00f80833          	add	a6,a6,a5
   11cf4:	ff180623          	sb	a7,-20(a6)
   11cf8:	00178793          	addi	a5,a5,1
   11cfc:	02e64733          	div	a4,a2,a4
   11d00:	41f75893          	srai	a7,a4,0x1f
   11d04:	00e8c833          	xor	a6,a7,a4
   11d08:	41180833          	sub	a6,a6,a7
   11d0c:	00a00713          	li	a4,10
   11d10:	02e86833          	rem	a6,a6,a4
   11d14:	00018737          	lui	a4,0x18
   11d18:	6a070713          	addi	a4,a4,1696 # 186a0 <__global_pointer$+0x2958>
   11d1c:	02010893          	addi	a7,sp,32
   11d20:	01088833          	add	a6,a7,a6
   11d24:	fe084883          	lbu	a7,-32(a6)
   11d28:	02010813          	addi	a6,sp,32
   11d2c:	00f80833          	add	a6,a6,a5
   11d30:	ff180623          	sb	a7,-20(a6)
   11d34:	00178793          	addi	a5,a5,1
   11d38:	02e64733          	div	a4,a2,a4
   11d3c:	41f75893          	srai	a7,a4,0x1f
   11d40:	00e8c833          	xor	a6,a7,a4
   11d44:	41180833          	sub	a6,a6,a7
   11d48:	00a00713          	li	a4,10
   11d4c:	02e86833          	rem	a6,a6,a4
   11d50:	00002737          	lui	a4,0x2
   11d54:	71070713          	addi	a4,a4,1808 # 2710 <main-0xd964>
   11d58:	02010893          	addi	a7,sp,32
   11d5c:	01088833          	add	a6,a7,a6
   11d60:	fe084883          	lbu	a7,-32(a6)
   11d64:	02010813          	addi	a6,sp,32
   11d68:	00f80833          	add	a6,a6,a5
   11d6c:	ff180623          	sb	a7,-20(a6)
   11d70:	00178793          	addi	a5,a5,1
   11d74:	02e64733          	div	a4,a2,a4
   11d78:	41f75813          	srai	a6,a4,0x1f
   11d7c:	00e84733          	xor	a4,a6,a4
   11d80:	41070733          	sub	a4,a4,a6
   11d84:	00a00813          	li	a6,10
   11d88:	03076733          	rem	a4,a4,a6
   11d8c:	3e800813          	li	a6,1000
   11d90:	02010893          	addi	a7,sp,32
   11d94:	00e88733          	add	a4,a7,a4
   11d98:	fe074883          	lbu	a7,-32(a4)
   11d9c:	02010713          	addi	a4,sp,32
   11da0:	00f70733          	add	a4,a4,a5
   11da4:	ff170623          	sb	a7,-20(a4)
   11da8:	00178793          	addi	a5,a5,1
   11dac:	03064833          	div	a6,a2,a6
   11db0:	41f85713          	srai	a4,a6,0x1f
   11db4:	01074833          	xor	a6,a4,a6
   11db8:	40e80833          	sub	a6,a6,a4
   11dbc:	00a00713          	li	a4,10
   11dc0:	02e86833          	rem	a6,a6,a4
   11dc4:	06400713          	li	a4,100
   11dc8:	02010893          	addi	a7,sp,32
   11dcc:	01088833          	add	a6,a7,a6
   11dd0:	fe084883          	lbu	a7,-32(a6)
   11dd4:	02010813          	addi	a6,sp,32
   11dd8:	00f80833          	add	a6,a6,a5
   11ddc:	ff180623          	sb	a7,-20(a6)
   11de0:	00178793          	addi	a5,a5,1
   11de4:	02e64733          	div	a4,a2,a4
   11de8:	41f75813          	srai	a6,a4,0x1f
   11dec:	00e84733          	xor	a4,a6,a4
   11df0:	41070733          	sub	a4,a4,a6
   11df4:	00a00813          	li	a6,10
   11df8:	03076733          	rem	a4,a4,a6
   11dfc:	00a00313          	li	t1,10
   11e00:	02010893          	addi	a7,sp,32
   11e04:	00e88733          	add	a4,a7,a4
   11e08:	fe074883          	lbu	a7,-32(a4)
   11e0c:	02010713          	addi	a4,sp,32
   11e10:	00f70733          	add	a4,a4,a5
   11e14:	ff170623          	sb	a7,-20(a4)
   11e18:	00178793          	addi	a5,a5,1
   11e1c:	02664833          	div	a6,a2,t1
   11e20:	41f85713          	srai	a4,a6,0x1f
   11e24:	010748b3          	xor	a7,a4,a6
   11e28:	40e888b3          	sub	a7,a7,a4
   11e2c:	0268e8b3          	rem	a7,a7,t1
   11e30:	02010713          	addi	a4,sp,32
   11e34:	011708b3          	add	a7,a4,a7
   11e38:	fe08c803          	lbu	a6,-32(a7)
   11e3c:	00f70733          	add	a4,a4,a5
   11e40:	00178793          	addi	a5,a5,1
   11e44:	ff070623          	sb	a6,-20(a4)
   11e48:	dc5ff06f          	j	11c0c <_Z15PrintDMADecimaliiib+0x19c>

00011e4c <__udivdi3>:
#endif

#ifdef L_udivdi3
UDWtype
__udivdi3 (UDWtype n, UDWtype d)
{
   11e4c:	00050893          	mv	a7,a0
   11e50:	00058793          	mv	a5,a1
  d0 = dd.s.low;
   11e54:	00060813          	mv	a6,a2
  d1 = dd.s.high;
   11e58:	00068513          	mv	a0,a3
  n0 = nn.s.low;
   11e5c:	00088313          	mv	t1,a7
  if (d1 == 0)
   11e60:	28069463          	bnez	a3,120e8 <__udivdi3+0x29c>
      if (d0 > n1)
   11e64:	000146b7          	lui	a3,0x14
   11e68:	0f868693          	addi	a3,a3,248 # 140f8 <__clz_tab>
   11e6c:	0ec5f663          	bgeu	a1,a2,11f58 <__udivdi3+0x10c>
	  count_leading_zeros (bm, d0);
   11e70:	00010737          	lui	a4,0x10
   11e74:	0ce67863          	bgeu	a2,a4,11f44 <__udivdi3+0xf8>
   11e78:	0ff00713          	li	a4,255
   11e7c:	00c73733          	sltu	a4,a4,a2
   11e80:	00371713          	slli	a4,a4,0x3
   11e84:	00e65533          	srl	a0,a2,a4
   11e88:	00a686b3          	add	a3,a3,a0
   11e8c:	0006c683          	lbu	a3,0(a3)
   11e90:	02000513          	li	a0,32
   11e94:	00e68733          	add	a4,a3,a4
   11e98:	40e506b3          	sub	a3,a0,a4
	  if (bm != 0)
   11e9c:	00e50c63          	beq	a0,a4,11eb4 <__udivdi3+0x68>
	      n1 = (n1 << bm) | (n0 >> (W_TYPE_SIZE - bm));
   11ea0:	00d795b3          	sll	a1,a5,a3
   11ea4:	00e8d733          	srl	a4,a7,a4
	      d0 = d0 << bm;
   11ea8:	00d61833          	sll	a6,a2,a3
	      n1 = (n1 << bm) | (n0 >> (W_TYPE_SIZE - bm));
   11eac:	00b765b3          	or	a1,a4,a1
	      n0 = n0 << bm;
   11eb0:	00d89333          	sll	t1,a7,a3
	  udiv_qrnnd (q0, n0, n1, n0, d0);
   11eb4:	01085893          	srli	a7,a6,0x10
   11eb8:	0315d6b3          	divu	a3,a1,a7
   11ebc:	01081613          	slli	a2,a6,0x10
   11ec0:	01065613          	srli	a2,a2,0x10
   11ec4:	01035793          	srli	a5,t1,0x10
   11ec8:	0315f733          	remu	a4,a1,a7
   11ecc:	00068513          	mv	a0,a3
   11ed0:	02d605b3          	mul	a1,a2,a3
   11ed4:	01071713          	slli	a4,a4,0x10
   11ed8:	00f767b3          	or	a5,a4,a5
   11edc:	00b7fe63          	bgeu	a5,a1,11ef8 <__udivdi3+0xac>
   11ee0:	010787b3          	add	a5,a5,a6
   11ee4:	fff68513          	addi	a0,a3,-1
   11ee8:	0107e863          	bltu	a5,a6,11ef8 <__udivdi3+0xac>
   11eec:	00b7f663          	bgeu	a5,a1,11ef8 <__udivdi3+0xac>
   11ef0:	ffe68513          	addi	a0,a3,-2
   11ef4:	010787b3          	add	a5,a5,a6
   11ef8:	40b787b3          	sub	a5,a5,a1
   11efc:	0317f733          	remu	a4,a5,a7
   11f00:	01031313          	slli	t1,t1,0x10
   11f04:	01035313          	srli	t1,t1,0x10
   11f08:	0317d7b3          	divu	a5,a5,a7
   11f0c:	01071713          	slli	a4,a4,0x10
   11f10:	00676333          	or	t1,a4,t1
   11f14:	02f606b3          	mul	a3,a2,a5
   11f18:	00078613          	mv	a2,a5
   11f1c:	00d37c63          	bgeu	t1,a3,11f34 <__udivdi3+0xe8>
   11f20:	00680333          	add	t1,a6,t1
   11f24:	fff78613          	addi	a2,a5,-1
   11f28:	01036663          	bltu	t1,a6,11f34 <__udivdi3+0xe8>
   11f2c:	00d37463          	bgeu	t1,a3,11f34 <__udivdi3+0xe8>
   11f30:	ffe78613          	addi	a2,a5,-2
   11f34:	01051513          	slli	a0,a0,0x10
   11f38:	00c56533          	or	a0,a0,a2
	      q1 = 0;
   11f3c:	00000593          	li	a1,0
   11f40:	0e40006f          	j	12024 <__udivdi3+0x1d8>
	  count_leading_zeros (bm, d0);
   11f44:	01000537          	lui	a0,0x1000
   11f48:	01000713          	li	a4,16
   11f4c:	f2a66ce3          	bltu	a2,a0,11e84 <__udivdi3+0x38>
   11f50:	01800713          	li	a4,24
   11f54:	f31ff06f          	j	11e84 <__udivdi3+0x38>
	  if (d0 == 0)
   11f58:	00061663          	bnez	a2,11f64 <__udivdi3+0x118>
	    d0 = 1 / d0;	/* Divide intentionally by zero.  */
   11f5c:	00100713          	li	a4,1
   11f60:	02c75833          	divu	a6,a4,a2
	  count_leading_zeros (bm, d0);
   11f64:	00010737          	lui	a4,0x10
   11f68:	0ce87063          	bgeu	a6,a4,12028 <__udivdi3+0x1dc>
   11f6c:	0ff00713          	li	a4,255
   11f70:	01077463          	bgeu	a4,a6,11f78 <__udivdi3+0x12c>
   11f74:	00800513          	li	a0,8
   11f78:	00a85733          	srl	a4,a6,a0
   11f7c:	00e686b3          	add	a3,a3,a4
   11f80:	0006c703          	lbu	a4,0(a3)
   11f84:	02000613          	li	a2,32
   11f88:	00a70733          	add	a4,a4,a0
   11f8c:	40e606b3          	sub	a3,a2,a4
	  if (bm == 0)
   11f90:	0ae61663          	bne	a2,a4,1203c <__udivdi3+0x1f0>
	      n1 -= d0;
   11f94:	410787b3          	sub	a5,a5,a6
	      q1 = 1;
   11f98:	00100593          	li	a1,1
	  udiv_qrnnd (q0, n0, n1, n0, d0);
   11f9c:	01085893          	srli	a7,a6,0x10
   11fa0:	01081613          	slli	a2,a6,0x10
   11fa4:	01065613          	srli	a2,a2,0x10
   11fa8:	01035713          	srli	a4,t1,0x10
   11fac:	0317f6b3          	remu	a3,a5,a7
   11fb0:	0317d7b3          	divu	a5,a5,a7
   11fb4:	01069693          	slli	a3,a3,0x10
   11fb8:	00e6e733          	or	a4,a3,a4
   11fbc:	02f60e33          	mul	t3,a2,a5
   11fc0:	00078513          	mv	a0,a5
   11fc4:	01c77e63          	bgeu	a4,t3,11fe0 <__udivdi3+0x194>
   11fc8:	01070733          	add	a4,a4,a6
   11fcc:	fff78513          	addi	a0,a5,-1
   11fd0:	01076863          	bltu	a4,a6,11fe0 <__udivdi3+0x194>
   11fd4:	01c77663          	bgeu	a4,t3,11fe0 <__udivdi3+0x194>
   11fd8:	ffe78513          	addi	a0,a5,-2
   11fdc:	01070733          	add	a4,a4,a6
   11fe0:	41c70733          	sub	a4,a4,t3
   11fe4:	031777b3          	remu	a5,a4,a7
   11fe8:	01031313          	slli	t1,t1,0x10
   11fec:	01035313          	srli	t1,t1,0x10
   11ff0:	03175733          	divu	a4,a4,a7
   11ff4:	01079793          	slli	a5,a5,0x10
   11ff8:	0067e333          	or	t1,a5,t1
   11ffc:	02e606b3          	mul	a3,a2,a4
   12000:	00070613          	mv	a2,a4
   12004:	00d37c63          	bgeu	t1,a3,1201c <__udivdi3+0x1d0>
   12008:	00680333          	add	t1,a6,t1
   1200c:	fff70613          	addi	a2,a4,-1 # ffff <main-0x75>
   12010:	01036663          	bltu	t1,a6,1201c <__udivdi3+0x1d0>
   12014:	00d37463          	bgeu	t1,a3,1201c <__udivdi3+0x1d0>
   12018:	ffe70613          	addi	a2,a4,-2
   1201c:	01051513          	slli	a0,a0,0x10
   12020:	00c56533          	or	a0,a0,a2
  return __udivmoddi4 (n, d, (UDWtype *) 0);
}
   12024:	00008067          	ret
	  count_leading_zeros (bm, d0);
   12028:	01000737          	lui	a4,0x1000
   1202c:	01000513          	li	a0,16
   12030:	f4e864e3          	bltu	a6,a4,11f78 <__udivdi3+0x12c>
   12034:	01800513          	li	a0,24
   12038:	f41ff06f          	j	11f78 <__udivdi3+0x12c>
	      d0 = d0 << bm;
   1203c:	00d81833          	sll	a6,a6,a3
	      n2 = n1 >> b;
   12040:	00e7d533          	srl	a0,a5,a4
	      n0 = n0 << bm;
   12044:	00d89333          	sll	t1,a7,a3
	      n1 = (n1 << bm) | (n0 >> b);
   12048:	00d797b3          	sll	a5,a5,a3
   1204c:	00e8d733          	srl	a4,a7,a4
	      udiv_qrnnd (q1, n1, n2, n1, d0);
   12050:	01085893          	srli	a7,a6,0x10
	      n1 = (n1 << bm) | (n0 >> b);
   12054:	00f76633          	or	a2,a4,a5
	      udiv_qrnnd (q1, n1, n2, n1, d0);
   12058:	03157733          	remu	a4,a0,a7
   1205c:	01081793          	slli	a5,a6,0x10
   12060:	0107d793          	srli	a5,a5,0x10
   12064:	01065593          	srli	a1,a2,0x10
   12068:	03155533          	divu	a0,a0,a7
   1206c:	01071713          	slli	a4,a4,0x10
   12070:	00b76733          	or	a4,a4,a1
   12074:	02a786b3          	mul	a3,a5,a0
   12078:	00050593          	mv	a1,a0
   1207c:	00d77e63          	bgeu	a4,a3,12098 <__udivdi3+0x24c>
   12080:	01070733          	add	a4,a4,a6
   12084:	fff50593          	addi	a1,a0,-1 # ffffff <__global_pointer$+0xfea2b7>
   12088:	01076863          	bltu	a4,a6,12098 <__udivdi3+0x24c>
   1208c:	00d77663          	bgeu	a4,a3,12098 <__udivdi3+0x24c>
   12090:	ffe50593          	addi	a1,a0,-2
   12094:	01070733          	add	a4,a4,a6
   12098:	40d706b3          	sub	a3,a4,a3
   1209c:	0316f733          	remu	a4,a3,a7
   120a0:	01061613          	slli	a2,a2,0x10
   120a4:	01065613          	srli	a2,a2,0x10
   120a8:	0316d6b3          	divu	a3,a3,a7
   120ac:	01071713          	slli	a4,a4,0x10
   120b0:	02d78533          	mul	a0,a5,a3
   120b4:	00c767b3          	or	a5,a4,a2
   120b8:	00068713          	mv	a4,a3
   120bc:	00a7fe63          	bgeu	a5,a0,120d8 <__udivdi3+0x28c>
   120c0:	010787b3          	add	a5,a5,a6
   120c4:	fff68713          	addi	a4,a3,-1
   120c8:	0107e863          	bltu	a5,a6,120d8 <__udivdi3+0x28c>
   120cc:	00a7f663          	bgeu	a5,a0,120d8 <__udivdi3+0x28c>
   120d0:	ffe68713          	addi	a4,a3,-2
   120d4:	010787b3          	add	a5,a5,a6
   120d8:	01059593          	slli	a1,a1,0x10
   120dc:	40a787b3          	sub	a5,a5,a0
   120e0:	00e5e5b3          	or	a1,a1,a4
   120e4:	eb9ff06f          	j	11f9c <__udivdi3+0x150>
      if (d1 > n1)
   120e8:	18d5e663          	bltu	a1,a3,12274 <__udivdi3+0x428>
	  count_leading_zeros (bm, d1);
   120ec:	00010737          	lui	a4,0x10
   120f0:	04e6f463          	bgeu	a3,a4,12138 <__udivdi3+0x2ec>
   120f4:	0ff00713          	li	a4,255
   120f8:	00d735b3          	sltu	a1,a4,a3
   120fc:	00359593          	slli	a1,a1,0x3
   12100:	00014737          	lui	a4,0x14
   12104:	00b6d533          	srl	a0,a3,a1
   12108:	0f870713          	addi	a4,a4,248 # 140f8 <__clz_tab>
   1210c:	00a70733          	add	a4,a4,a0
   12110:	00074703          	lbu	a4,0(a4)
   12114:	02000513          	li	a0,32
   12118:	00b70733          	add	a4,a4,a1
   1211c:	40e505b3          	sub	a1,a0,a4
	  if (bm == 0)
   12120:	02e51663          	bne	a0,a4,1214c <__udivdi3+0x300>
		  q0 = 1;
   12124:	00100513          	li	a0,1
	      if (n1 > d1 || n0 >= d0)
   12128:	eef6eee3          	bltu	a3,a5,12024 <__udivdi3+0x1d8>
   1212c:	00c8b533          	sltu	a0,a7,a2
   12130:	00154513          	xori	a0,a0,1
   12134:	ef1ff06f          	j	12024 <__udivdi3+0x1d8>
	  count_leading_zeros (bm, d1);
   12138:	01000737          	lui	a4,0x1000
   1213c:	01000593          	li	a1,16
   12140:	fce6e0e3          	bltu	a3,a4,12100 <__udivdi3+0x2b4>
   12144:	01800593          	li	a1,24
   12148:	fb9ff06f          	j	12100 <__udivdi3+0x2b4>
	      d1 = (d1 << bm) | (d0 >> b);
   1214c:	00e65833          	srl	a6,a2,a4
   12150:	00b696b3          	sll	a3,a3,a1
   12154:	00d86833          	or	a6,a6,a3
	      n2 = n1 >> b;
   12158:	00e7de33          	srl	t3,a5,a4
	      udiv_qrnnd (q0, n1, n2, n1, d1);
   1215c:	01085e93          	srli	t4,a6,0x10
   12160:	03de76b3          	remu	a3,t3,t4
	      n1 = (n1 << bm) | (n0 >> b);
   12164:	00b797b3          	sll	a5,a5,a1
   12168:	00e8d733          	srl	a4,a7,a4
	      d0 = d0 << bm;
   1216c:	00b61333          	sll	t1,a2,a1
	      n1 = (n1 << bm) | (n0 >> b);
   12170:	00f76633          	or	a2,a4,a5
	      udiv_qrnnd (q0, n1, n2, n1, d1);
   12174:	01081793          	slli	a5,a6,0x10
   12178:	0107d793          	srli	a5,a5,0x10
   1217c:	01065713          	srli	a4,a2,0x10
   12180:	03de5e33          	divu	t3,t3,t4
   12184:	01069693          	slli	a3,a3,0x10
   12188:	00e6e733          	or	a4,a3,a4
   1218c:	03c78f33          	mul	t5,a5,t3
   12190:	000e0513          	mv	a0,t3
   12194:	01e77e63          	bgeu	a4,t5,121b0 <__udivdi3+0x364>
   12198:	01070733          	add	a4,a4,a6
   1219c:	fffe0513          	addi	a0,t3,-1
   121a0:	01076863          	bltu	a4,a6,121b0 <__udivdi3+0x364>
   121a4:	01e77663          	bgeu	a4,t5,121b0 <__udivdi3+0x364>
   121a8:	ffee0513          	addi	a0,t3,-2
   121ac:	01070733          	add	a4,a4,a6
   121b0:	41e70733          	sub	a4,a4,t5
   121b4:	03d776b3          	remu	a3,a4,t4
   121b8:	03d75733          	divu	a4,a4,t4
   121bc:	01069693          	slli	a3,a3,0x10
   121c0:	02e78e33          	mul	t3,a5,a4
   121c4:	01061793          	slli	a5,a2,0x10
   121c8:	0107d793          	srli	a5,a5,0x10
   121cc:	00f6e7b3          	or	a5,a3,a5
   121d0:	00070613          	mv	a2,a4
   121d4:	01c7fe63          	bgeu	a5,t3,121f0 <__udivdi3+0x3a4>
   121d8:	010787b3          	add	a5,a5,a6
   121dc:	fff70613          	addi	a2,a4,-1 # ffffff <__global_pointer$+0xfea2b7>
   121e0:	0107e863          	bltu	a5,a6,121f0 <__udivdi3+0x3a4>
   121e4:	01c7f663          	bgeu	a5,t3,121f0 <__udivdi3+0x3a4>
   121e8:	ffe70613          	addi	a2,a4,-2
   121ec:	010787b3          	add	a5,a5,a6
   121f0:	01051513          	slli	a0,a0,0x10
	      umul_ppmm (m1, m0, q0, d0);
   121f4:	00010eb7          	lui	t4,0x10
	      udiv_qrnnd (q0, n1, n2, n1, d1);
   121f8:	00c56533          	or	a0,a0,a2
	      umul_ppmm (m1, m0, q0, d0);
   121fc:	fffe8693          	addi	a3,t4,-1 # ffff <main-0x75>
   12200:	00d57833          	and	a6,a0,a3
   12204:	01055613          	srli	a2,a0,0x10
   12208:	00d376b3          	and	a3,t1,a3
   1220c:	01035313          	srli	t1,t1,0x10
	      udiv_qrnnd (q0, n1, n2, n1, d1);
   12210:	41c787b3          	sub	a5,a5,t3
	      umul_ppmm (m1, m0, q0, d0);
   12214:	02d80e33          	mul	t3,a6,a3
   12218:	02d606b3          	mul	a3,a2,a3
   1221c:	010e5713          	srli	a4,t3,0x10
   12220:	02680833          	mul	a6,a6,t1
   12224:	00d80833          	add	a6,a6,a3
   12228:	01070733          	add	a4,a4,a6
   1222c:	02660633          	mul	a2,a2,t1
   12230:	00d77463          	bgeu	a4,a3,12238 <__udivdi3+0x3ec>
   12234:	01d60633          	add	a2,a2,t4
   12238:	01075693          	srli	a3,a4,0x10
   1223c:	00c68633          	add	a2,a3,a2
	      if (m1 > n1 || (m1 == n1 && m0 > n0))
   12240:	02c7e663          	bltu	a5,a2,1226c <__udivdi3+0x420>
   12244:	cec79ce3          	bne	a5,a2,11f3c <__udivdi3+0xf0>
	      umul_ppmm (m1, m0, q0, d0);
   12248:	000107b7          	lui	a5,0x10
   1224c:	fff78793          	addi	a5,a5,-1 # ffff <main-0x75>
   12250:	00f77733          	and	a4,a4,a5
   12254:	01071713          	slli	a4,a4,0x10
   12258:	00fe7e33          	and	t3,t3,a5
	      n0 = n0 << bm;
   1225c:	00b898b3          	sll	a7,a7,a1
	      umul_ppmm (m1, m0, q0, d0);
   12260:	01c70733          	add	a4,a4,t3
	      q1 = 0;
   12264:	00000593          	li	a1,0
	      if (m1 > n1 || (m1 == n1 && m0 > n0))
   12268:	dae8fee3          	bgeu	a7,a4,12024 <__udivdi3+0x1d8>
		  q0--;
   1226c:	fff50513          	addi	a0,a0,-1
		  sub_ddmmss (m1, m0, m1, m0, d1, d0);
   12270:	ccdff06f          	j	11f3c <__udivdi3+0xf0>
	  q1 = 0;
   12274:	00000593          	li	a1,0
	  q0 = 0;
   12278:	00000513          	li	a0,0
   1227c:	da9ff06f          	j	12024 <__udivdi3+0x1d8>

00012280 <__errno>:
   12280:	c6c1a503          	lw	a0,-916(gp) # 159b4 <_impure_ptr>
   12284:	00008067          	ret

00012288 <exit>:
   12288:	ff010113          	addi	sp,sp,-16
   1228c:	00000593          	li	a1,0
   12290:	00812423          	sw	s0,8(sp)
   12294:	00112623          	sw	ra,12(sp)
   12298:	00050413          	mv	s0,a0
   1229c:	2bc000ef          	jal	ra,12558 <__call_exitprocs>
   122a0:	c681a503          	lw	a0,-920(gp) # 159b0 <_global_impure_ptr>
   122a4:	03c52783          	lw	a5,60(a0)
   122a8:	00078463          	beqz	a5,122b0 <exit+0x28>
   122ac:	000780e7          	jalr	a5
   122b0:	00040513          	mv	a0,s0
   122b4:	4cc000ef          	jal	ra,12780 <_exit>

000122b8 <__libc_init_array>:
   122b8:	ff010113          	addi	sp,sp,-16
   122bc:	00812423          	sw	s0,8(sp)
   122c0:	01212023          	sw	s2,0(sp)
   122c4:	00015437          	lui	s0,0x15
   122c8:	00015937          	lui	s2,0x15
   122cc:	53840793          	addi	a5,s0,1336 # 15538 <__init_array_start>
   122d0:	53890913          	addi	s2,s2,1336 # 15538 <__init_array_start>
   122d4:	40f90933          	sub	s2,s2,a5
   122d8:	00112623          	sw	ra,12(sp)
   122dc:	00912223          	sw	s1,4(sp)
   122e0:	40295913          	srai	s2,s2,0x2
   122e4:	02090063          	beqz	s2,12304 <__libc_init_array+0x4c>
   122e8:	53840413          	addi	s0,s0,1336
   122ec:	00000493          	li	s1,0
   122f0:	00042783          	lw	a5,0(s0)
   122f4:	00148493          	addi	s1,s1,1
   122f8:	00440413          	addi	s0,s0,4
   122fc:	000780e7          	jalr	a5
   12300:	fe9918e3          	bne	s2,s1,122f0 <__libc_init_array+0x38>
   12304:	00015437          	lui	s0,0x15
   12308:	00015937          	lui	s2,0x15
   1230c:	53840793          	addi	a5,s0,1336 # 15538 <__init_array_start>
   12310:	54490913          	addi	s2,s2,1348 # 15544 <__do_global_dtors_aux_fini_array_entry>
   12314:	40f90933          	sub	s2,s2,a5
   12318:	40295913          	srai	s2,s2,0x2
   1231c:	02090063          	beqz	s2,1233c <__libc_init_array+0x84>
   12320:	53840413          	addi	s0,s0,1336
   12324:	00000493          	li	s1,0
   12328:	00042783          	lw	a5,0(s0)
   1232c:	00148493          	addi	s1,s1,1
   12330:	00440413          	addi	s0,s0,4
   12334:	000780e7          	jalr	a5
   12338:	fe9918e3          	bne	s2,s1,12328 <__libc_init_array+0x70>
   1233c:	00c12083          	lw	ra,12(sp)
   12340:	00812403          	lw	s0,8(sp)
   12344:	00412483          	lw	s1,4(sp)
   12348:	00012903          	lw	s2,0(sp)
   1234c:	01010113          	addi	sp,sp,16
   12350:	00008067          	ret

00012354 <memcpy>:
   12354:	00a5c7b3          	xor	a5,a1,a0
   12358:	0037f793          	andi	a5,a5,3
   1235c:	00c508b3          	add	a7,a0,a2
   12360:	06079663          	bnez	a5,123cc <memcpy+0x78>
   12364:	00300793          	li	a5,3
   12368:	06c7f263          	bgeu	a5,a2,123cc <memcpy+0x78>
   1236c:	00357793          	andi	a5,a0,3
   12370:	00050713          	mv	a4,a0
   12374:	0c079a63          	bnez	a5,12448 <memcpy+0xf4>
   12378:	ffc8f613          	andi	a2,a7,-4
   1237c:	40e606b3          	sub	a3,a2,a4
   12380:	02000793          	li	a5,32
   12384:	02000293          	li	t0,32
   12388:	06d7c263          	blt	a5,a3,123ec <memcpy+0x98>
   1238c:	00058693          	mv	a3,a1
   12390:	00070793          	mv	a5,a4
   12394:	02c77863          	bgeu	a4,a2,123c4 <memcpy+0x70>
   12398:	0006a803          	lw	a6,0(a3)
   1239c:	00478793          	addi	a5,a5,4
   123a0:	00468693          	addi	a3,a3,4
   123a4:	ff07ae23          	sw	a6,-4(a5)
   123a8:	fec7e8e3          	bltu	a5,a2,12398 <memcpy+0x44>
   123ac:	fff60793          	addi	a5,a2,-1
   123b0:	40e787b3          	sub	a5,a5,a4
   123b4:	ffc7f793          	andi	a5,a5,-4
   123b8:	00478793          	addi	a5,a5,4
   123bc:	00f70733          	add	a4,a4,a5
   123c0:	00f585b3          	add	a1,a1,a5
   123c4:	01176863          	bltu	a4,a7,123d4 <memcpy+0x80>
   123c8:	00008067          	ret
   123cc:	00050713          	mv	a4,a0
   123d0:	ff157ce3          	bgeu	a0,a7,123c8 <memcpy+0x74>
   123d4:	0005c783          	lbu	a5,0(a1)
   123d8:	00170713          	addi	a4,a4,1
   123dc:	00158593          	addi	a1,a1,1
   123e0:	fef70fa3          	sb	a5,-1(a4)
   123e4:	ff1768e3          	bltu	a4,a7,123d4 <memcpy+0x80>
   123e8:	00008067          	ret
   123ec:	0045a683          	lw	a3,4(a1)
   123f0:	01c5a783          	lw	a5,28(a1)
   123f4:	0005af83          	lw	t6,0(a1)
   123f8:	0085af03          	lw	t5,8(a1)
   123fc:	00c5ae83          	lw	t4,12(a1)
   12400:	0105ae03          	lw	t3,16(a1)
   12404:	0145a303          	lw	t1,20(a1)
   12408:	0185a803          	lw	a6,24(a1)
   1240c:	00d72223          	sw	a3,4(a4)
   12410:	0205a683          	lw	a3,32(a1)
   12414:	01f72023          	sw	t6,0(a4)
   12418:	01e72423          	sw	t5,8(a4)
   1241c:	01d72623          	sw	t4,12(a4)
   12420:	01c72823          	sw	t3,16(a4)
   12424:	00672a23          	sw	t1,20(a4)
   12428:	01072c23          	sw	a6,24(a4)
   1242c:	00f72e23          	sw	a5,28(a4)
   12430:	02470713          	addi	a4,a4,36
   12434:	40e607b3          	sub	a5,a2,a4
   12438:	fed72e23          	sw	a3,-4(a4)
   1243c:	02458593          	addi	a1,a1,36
   12440:	faf2c6e3          	blt	t0,a5,123ec <memcpy+0x98>
   12444:	f49ff06f          	j	1238c <memcpy+0x38>
   12448:	0005c683          	lbu	a3,0(a1)
   1244c:	00170713          	addi	a4,a4,1
   12450:	00377793          	andi	a5,a4,3
   12454:	fed70fa3          	sb	a3,-1(a4)
   12458:	00158593          	addi	a1,a1,1
   1245c:	f0078ee3          	beqz	a5,12378 <memcpy+0x24>
   12460:	0005c683          	lbu	a3,0(a1)
   12464:	00170713          	addi	a4,a4,1
   12468:	00377793          	andi	a5,a4,3
   1246c:	fed70fa3          	sb	a3,-1(a4)
   12470:	00158593          	addi	a1,a1,1
   12474:	fc079ae3          	bnez	a5,12448 <memcpy+0xf4>
   12478:	f01ff06f          	j	12378 <memcpy+0x24>

0001247c <memset>:
   1247c:	00f00313          	li	t1,15
   12480:	00050713          	mv	a4,a0
   12484:	02c37e63          	bgeu	t1,a2,124c0 <memset+0x44>
   12488:	00f77793          	andi	a5,a4,15
   1248c:	0a079063          	bnez	a5,1252c <memset+0xb0>
   12490:	08059263          	bnez	a1,12514 <memset+0x98>
   12494:	ff067693          	andi	a3,a2,-16
   12498:	00f67613          	andi	a2,a2,15
   1249c:	00e686b3          	add	a3,a3,a4
   124a0:	00b72023          	sw	a1,0(a4)
   124a4:	00b72223          	sw	a1,4(a4)
   124a8:	00b72423          	sw	a1,8(a4)
   124ac:	00b72623          	sw	a1,12(a4)
   124b0:	01070713          	addi	a4,a4,16
   124b4:	fed766e3          	bltu	a4,a3,124a0 <memset+0x24>
   124b8:	00061463          	bnez	a2,124c0 <memset+0x44>
   124bc:	00008067          	ret
   124c0:	40c306b3          	sub	a3,t1,a2
   124c4:	00269693          	slli	a3,a3,0x2
   124c8:	00000297          	auipc	t0,0x0
   124cc:	005686b3          	add	a3,a3,t0
   124d0:	00c68067          	jr	12(a3)
   124d4:	00b70723          	sb	a1,14(a4)
   124d8:	00b706a3          	sb	a1,13(a4)
   124dc:	00b70623          	sb	a1,12(a4)
   124e0:	00b705a3          	sb	a1,11(a4)
   124e4:	00b70523          	sb	a1,10(a4)
   124e8:	00b704a3          	sb	a1,9(a4)
   124ec:	00b70423          	sb	a1,8(a4)
   124f0:	00b703a3          	sb	a1,7(a4)
   124f4:	00b70323          	sb	a1,6(a4)
   124f8:	00b702a3          	sb	a1,5(a4)
   124fc:	00b70223          	sb	a1,4(a4)
   12500:	00b701a3          	sb	a1,3(a4)
   12504:	00b70123          	sb	a1,2(a4)
   12508:	00b700a3          	sb	a1,1(a4)
   1250c:	00b70023          	sb	a1,0(a4)
   12510:	00008067          	ret
   12514:	0ff5f593          	andi	a1,a1,255
   12518:	00859693          	slli	a3,a1,0x8
   1251c:	00d5e5b3          	or	a1,a1,a3
   12520:	01059693          	slli	a3,a1,0x10
   12524:	00d5e5b3          	or	a1,a1,a3
   12528:	f6dff06f          	j	12494 <memset+0x18>
   1252c:	00279693          	slli	a3,a5,0x2
   12530:	00000297          	auipc	t0,0x0
   12534:	005686b3          	add	a3,a3,t0
   12538:	00008293          	mv	t0,ra
   1253c:	fa0680e7          	jalr	-96(a3)
   12540:	00028093          	mv	ra,t0
   12544:	ff078793          	addi	a5,a5,-16
   12548:	40f70733          	sub	a4,a4,a5
   1254c:	00f60633          	add	a2,a2,a5
   12550:	f6c378e3          	bgeu	t1,a2,124c0 <memset+0x44>
   12554:	f3dff06f          	j	12490 <memset+0x14>

00012558 <__call_exitprocs>:
   12558:	fd010113          	addi	sp,sp,-48
   1255c:	01412c23          	sw	s4,24(sp)
   12560:	c681aa03          	lw	s4,-920(gp) # 159b0 <_global_impure_ptr>
   12564:	03212023          	sw	s2,32(sp)
   12568:	02112623          	sw	ra,44(sp)
   1256c:	148a2903          	lw	s2,328(s4)
   12570:	02812423          	sw	s0,40(sp)
   12574:	02912223          	sw	s1,36(sp)
   12578:	01312e23          	sw	s3,28(sp)
   1257c:	01512a23          	sw	s5,20(sp)
   12580:	01612823          	sw	s6,16(sp)
   12584:	01712623          	sw	s7,12(sp)
   12588:	01812423          	sw	s8,8(sp)
   1258c:	04090063          	beqz	s2,125cc <__call_exitprocs+0x74>
   12590:	00050b13          	mv	s6,a0
   12594:	00058b93          	mv	s7,a1
   12598:	00100a93          	li	s5,1
   1259c:	fff00993          	li	s3,-1
   125a0:	00492483          	lw	s1,4(s2)
   125a4:	fff48413          	addi	s0,s1,-1
   125a8:	02044263          	bltz	s0,125cc <__call_exitprocs+0x74>
   125ac:	00249493          	slli	s1,s1,0x2
   125b0:	009904b3          	add	s1,s2,s1
   125b4:	040b8463          	beqz	s7,125fc <__call_exitprocs+0xa4>
   125b8:	1044a783          	lw	a5,260(s1)
   125bc:	05778063          	beq	a5,s7,125fc <__call_exitprocs+0xa4>
   125c0:	fff40413          	addi	s0,s0,-1
   125c4:	ffc48493          	addi	s1,s1,-4
   125c8:	ff3416e3          	bne	s0,s3,125b4 <__call_exitprocs+0x5c>
   125cc:	02c12083          	lw	ra,44(sp)
   125d0:	02812403          	lw	s0,40(sp)
   125d4:	02412483          	lw	s1,36(sp)
   125d8:	02012903          	lw	s2,32(sp)
   125dc:	01c12983          	lw	s3,28(sp)
   125e0:	01812a03          	lw	s4,24(sp)
   125e4:	01412a83          	lw	s5,20(sp)
   125e8:	01012b03          	lw	s6,16(sp)
   125ec:	00c12b83          	lw	s7,12(sp)
   125f0:	00812c03          	lw	s8,8(sp)
   125f4:	03010113          	addi	sp,sp,48
   125f8:	00008067          	ret
   125fc:	00492783          	lw	a5,4(s2)
   12600:	0044a683          	lw	a3,4(s1)
   12604:	fff78793          	addi	a5,a5,-1
   12608:	04878e63          	beq	a5,s0,12664 <__call_exitprocs+0x10c>
   1260c:	0004a223          	sw	zero,4(s1)
   12610:	fa0688e3          	beqz	a3,125c0 <__call_exitprocs+0x68>
   12614:	18892783          	lw	a5,392(s2)
   12618:	008a9733          	sll	a4,s5,s0
   1261c:	00492c03          	lw	s8,4(s2)
   12620:	00f777b3          	and	a5,a4,a5
   12624:	02079263          	bnez	a5,12648 <__call_exitprocs+0xf0>
   12628:	000680e7          	jalr	a3
   1262c:	00492703          	lw	a4,4(s2)
   12630:	148a2783          	lw	a5,328(s4)
   12634:	01871463          	bne	a4,s8,1263c <__call_exitprocs+0xe4>
   12638:	f92784e3          	beq	a5,s2,125c0 <__call_exitprocs+0x68>
   1263c:	f80788e3          	beqz	a5,125cc <__call_exitprocs+0x74>
   12640:	00078913          	mv	s2,a5
   12644:	f5dff06f          	j	125a0 <__call_exitprocs+0x48>
   12648:	18c92783          	lw	a5,396(s2)
   1264c:	0844a583          	lw	a1,132(s1)
   12650:	00f77733          	and	a4,a4,a5
   12654:	00071c63          	bnez	a4,1266c <__call_exitprocs+0x114>
   12658:	000b0513          	mv	a0,s6
   1265c:	000680e7          	jalr	a3
   12660:	fcdff06f          	j	1262c <__call_exitprocs+0xd4>
   12664:	00892223          	sw	s0,4(s2)
   12668:	fa9ff06f          	j	12610 <__call_exitprocs+0xb8>
   1266c:	00058513          	mv	a0,a1
   12670:	000680e7          	jalr	a3
   12674:	fb9ff06f          	j	1262c <__call_exitprocs+0xd4>

00012678 <__libc_fini_array>:
   12678:	ff010113          	addi	sp,sp,-16
   1267c:	00812423          	sw	s0,8(sp)
   12680:	000157b7          	lui	a5,0x15
   12684:	00015437          	lui	s0,0x15
   12688:	54440413          	addi	s0,s0,1348 # 15544 <__do_global_dtors_aux_fini_array_entry>
   1268c:	54878793          	addi	a5,a5,1352 # 15548 <branchaddress>
   12690:	408787b3          	sub	a5,a5,s0
   12694:	00912223          	sw	s1,4(sp)
   12698:	00112623          	sw	ra,12(sp)
   1269c:	4027d493          	srai	s1,a5,0x2
   126a0:	02048063          	beqz	s1,126c0 <__libc_fini_array+0x48>
   126a4:	ffc78793          	addi	a5,a5,-4
   126a8:	00878433          	add	s0,a5,s0
   126ac:	00042783          	lw	a5,0(s0)
   126b0:	fff48493          	addi	s1,s1,-1
   126b4:	ffc40413          	addi	s0,s0,-4
   126b8:	000780e7          	jalr	a5
   126bc:	fe0498e3          	bnez	s1,126ac <__libc_fini_array+0x34>
   126c0:	00c12083          	lw	ra,12(sp)
   126c4:	00812403          	lw	s0,8(sp)
   126c8:	00412483          	lw	s1,4(sp)
   126cc:	01010113          	addi	sp,sp,16
   126d0:	00008067          	ret

000126d4 <atexit>:
   126d4:	00050593          	mv	a1,a0
   126d8:	00000693          	li	a3,0
   126dc:	00000613          	li	a2,0
   126e0:	00000513          	li	a0,0
   126e4:	0040006f          	j	126e8 <__register_exitproc>

000126e8 <__register_exitproc>:
   126e8:	c681a703          	lw	a4,-920(gp) # 159b0 <_global_impure_ptr>
   126ec:	14872783          	lw	a5,328(a4)
   126f0:	04078c63          	beqz	a5,12748 <__register_exitproc+0x60>
   126f4:	0047a703          	lw	a4,4(a5)
   126f8:	01f00813          	li	a6,31
   126fc:	06e84e63          	blt	a6,a4,12778 <__register_exitproc+0x90>
   12700:	00271813          	slli	a6,a4,0x2
   12704:	02050663          	beqz	a0,12730 <__register_exitproc+0x48>
   12708:	01078333          	add	t1,a5,a6
   1270c:	08c32423          	sw	a2,136(t1)
   12710:	1887a883          	lw	a7,392(a5)
   12714:	00100613          	li	a2,1
   12718:	00e61633          	sll	a2,a2,a4
   1271c:	00c8e8b3          	or	a7,a7,a2
   12720:	1917a423          	sw	a7,392(a5)
   12724:	10d32423          	sw	a3,264(t1)
   12728:	00200693          	li	a3,2
   1272c:	02d50463          	beq	a0,a3,12754 <__register_exitproc+0x6c>
   12730:	00170713          	addi	a4,a4,1
   12734:	00e7a223          	sw	a4,4(a5)
   12738:	010787b3          	add	a5,a5,a6
   1273c:	00b7a423          	sw	a1,8(a5)
   12740:	00000513          	li	a0,0
   12744:	00008067          	ret
   12748:	14c70793          	addi	a5,a4,332
   1274c:	14f72423          	sw	a5,328(a4)
   12750:	fa5ff06f          	j	126f4 <__register_exitproc+0xc>
   12754:	18c7a683          	lw	a3,396(a5)
   12758:	00170713          	addi	a4,a4,1
   1275c:	00e7a223          	sw	a4,4(a5)
   12760:	00c6e633          	or	a2,a3,a2
   12764:	18c7a623          	sw	a2,396(a5)
   12768:	010787b3          	add	a5,a5,a6
   1276c:	00b7a423          	sw	a1,8(a5)
   12770:	00000513          	li	a0,0
   12774:	00008067          	ret
   12778:	fff00513          	li	a0,-1
   1277c:	00008067          	ret

00012780 <_exit>:
   12780:	05d00893          	li	a7,93
   12784:	00000073          	ecall
   12788:	00054463          	bltz	a0,12790 <_exit+0x10>
   1278c:	0000006f          	j	1278c <_exit+0xc>
   12790:	ff010113          	addi	sp,sp,-16
   12794:	00812423          	sw	s0,8(sp)
   12798:	00050413          	mv	s0,a0
   1279c:	00112623          	sw	ra,12(sp)
   127a0:	40800433          	neg	s0,s0
   127a4:	addff0ef          	jal	ra,12280 <__errno>
   127a8:	00852023          	sw	s0,0(a0)
   127ac:	0000006f          	j	127ac <_exit+0x2c>

Disassembly of section .rodata:

000127b0 <__clz_tab-0x1948>:
   127b0:	694d                	lui	s2,0x13
   127b2:	696e                	flw	fs2,216(sp)
   127b4:	6554                	flw	fa3,12(a0)
   127b6:	6d72                	flw	fs10,28(sp)
   127b8:	2820                	fld	fs0,80(s0)
   127ba:	30322963          	0x30322963
   127be:	3132                	fld	ft2,296(sp)
   127c0:	4520                	lw	s0,72(a0)
   127c2:	676e                	flw	fa4,216(sp)
   127c4:	6e69                	lui	t3,0x1a
   127c6:	4320                	lw	s0,64(a4)
   127c8:	6c69                	lui	s8,0x1a
   127ca:	7361                	lui	t1,0xffff8
   127cc:	6e75                	lui	t3,0x1d
   127ce:	0a0d                	addi	s4,s4,3
   127d0:	5520                	lw	s0,104(a0)
   127d2:	27206573          	csrrsi	a0,0x272,0
   127d6:	6568                	flw	fa0,76(a0)
   127d8:	706c                	flw	fa1,100(s0)
   127da:	6f662027          	fsw	fs6,1760(a2)
   127de:	2072                	fld	ft0,280(sp)
   127e0:	7361                	lui	t1,0xffff8
   127e2:	74736973          	csrrsi	s2,0x747,6
   127e6:	6e61                	lui	t3,0x18
   127e8:	0a0d6563          	bltu	s10,zero,12892 <_exit+0x112>
   127ec:	0000                	unimp
   127ee:	0000                	unimp
   127f0:	694d                	lui	s2,0x13
   127f2:	696e                	flw	fs2,216(sp)
   127f4:	6554                	flw	fa3,12(a0)
   127f6:	6d72                	flw	fs10,28(sp)
   127f8:	2820                	fld	fs0,80(s0)
   127fa:	30322963          	0x30322963
   127fe:	3132                	fld	ft2,296(sp)
   12800:	4520                	lw	s0,72(a0)
   12802:	676e                	flw	fa4,216(sp)
   12804:	6e69                	lui	t3,0x1a
   12806:	4320                	lw	s0,64(a4)
   12808:	6c69                	lui	s8,0x1a
   1280a:	7361                	lui	t1,0xffff8
   1280c:	6e75                	lui	t3,0x1d
   1280e:	0a0d                	addi	s4,s4,3
   12810:	0000                	unimp
   12812:	0000                	unimp
   12814:	0020                	addi	s0,sp,8
   12816:	0000                	unimp
   12818:	000a                	c.slli	zero,0x2
   1281a:	0000                	unimp
   1281c:	0a0d                	addi	s4,s4,3
   1281e:	694d                	lui	s2,0x13
   12820:	696e                	flw	fs2,216(sp)
   12822:	6554                	flw	fa3,12(a0)
   12824:	6d72                	flw	fs10,28(sp)
   12826:	7620                	flw	fs0,104(a2)
   12828:	7265                	lui	tp,0xffff9
   1282a:	6e6f6973          	csrrsi	s2,0x6e6,30
   1282e:	3020                	fld	fs0,96(s0)
   12830:	312e                	fld	ft2,232(sp)
   12832:	0a0d                	addi	s4,s4,3
   12834:	6328                	flw	fa0,64(a4)
   12836:	3229                	jal	12140 <__udivdi3+0x2f4>
   12838:	3230                	fld	fa2,96(a2)
   1283a:	2031                	jal	12846 <_exit+0xc6>
   1283c:	6e45                	lui	t3,0x11
   1283e:	206e6967          	0x206e6967
   12842:	616c6943          	fmadd.s	fs2,fs8,fs6,fa2,unknown
   12846:	0d6e7573          	csrrci	a0,0xd6,28
   1284a:	630a                	flw	ft6,128(sp)
   1284c:	736c                	flw	fa1,100(a4)
   1284e:	203a                	fld	ft0,392(sp)
   12850:	61656c63          	bltu	a0,s6,12e68 <_exit+0x6e8>
   12854:	2072                	fld	ft0,280(sp)
   12856:	65726373          	csrrsi	t1,0x657,4
   1285a:	6e65                	lui	t3,0x19
   1285c:	0a0d                	addi	s4,s4,3
   1285e:	6568                	flw	fa0,76(a0)
   12860:	706c                	flw	fa1,100(s0)
   12862:	203a                	fld	ft0,392(sp)
   12864:	6568                	flw	fa0,76(a0)
   12866:	706c                	flw	fa1,100(s0)
   12868:	7320                	flw	fs0,96(a4)
   1286a:	65657263          	bgeu	a0,s6,12eae <_exit+0x72e>
   1286e:	0d6e                	slli	s10,s10,0x1b
   12870:	740a                	flw	fs0,160(sp)
   12872:	6d69                	lui	s10,0x1a
   12874:	3a65                	jal	1222c <__udivdi3+0x3e0>
   12876:	6520                	flw	fs0,72(a0)
   12878:	616c                	flw	fa1,68(a0)
   1287a:	7370                	flw	fa2,100(a4)
   1287c:	6465                	lui	s0,0x19
   1287e:	7420                	flw	fs0,104(s0)
   12880:	6d69                	lui	s10,0x1a
   12882:	0d65                	addi	s10,s10,25
   12884:	720a                	flw	ft4,160(sp)
   12886:	6e75                	lui	t3,0x1d
   12888:	623a                	flw	ft4,140(sp)
   1288a:	6172                	flw	ft2,28(sp)
   1288c:	636e                	flw	ft6,216(sp)
   1288e:	2068                	fld	fa0,192(s0)
   12890:	6f74                	flw	fa3,92(a4)
   12892:	4520                	lw	s0,72(a0)
   12894:	464c                	lw	a1,12(a2)
   12896:	0a0d                	addi	s4,s4,3
   12898:	7564                	flw	fs1,108(a0)
   1289a:	706d                	c.lui	zero,0xffffb
   1289c:	643a                	flw	fs0,140(sp)
   1289e:	6d75                	lui	s10,0x1d
   128a0:	2070                	fld	fa2,192(s0)
   128a2:	6966                	flw	fs2,88(sp)
   128a4:	7372                	flw	ft6,60(sp)
   128a6:	2074                	fld	fa3,192(s0)
   128a8:	3532                	fld	fa0,296(sp)
   128aa:	2036                	fld	ft0,328(sp)
   128ac:	7962                	flw	fs2,56(sp)
   128ae:	6574                	flw	fa3,76(a0)
   128b0:	666f2073          	csrs	0x666,t5
   128b4:	4520                	lw	s0,72(a0)
   128b6:	464c                	lw	a1,12(a2)
   128b8:	0a0d                	addi	s4,s4,3
   128ba:	0000                	unimp
   128bc:	003a                	c.slli	zero,0xe
   128be:	0000                	unimp
   128c0:	005f 0000 3130      	0x31300000005f
   128c6:	3332                	fld	ft6,296(sp)
   128c8:	3534                	fld	fa3,104(a0)
   128ca:	3736                	fld	fa4,360(sp)
   128cc:	3938                	fld	fa4,112(a0)
   128ce:	4241                	li	tp,16
   128d0:	46454443          	fmadd.q	fs0,fa0,ft4,fs0,rmm
   128d4:	0000                	unimp
   128d6:	0000                	unimp
   128d8:	2020                	fld	fs0,64(s0)
   128da:	2020                	fld	fs0,64(s0)
   128dc:	2020                	fld	fs0,64(s0)
   128de:	2020                	fld	fs0,64(s0)
   128e0:	2020                	fld	fs0,64(s0)
   128e2:	2020                	fld	fs0,64(s0)
   128e4:	2020                	fld	fs0,64(s0)
   128e6:	2020                	fld	fs0,64(s0)
   128e8:	2020                	fld	fs0,64(s0)
   128ea:	0020                	addi	s0,sp,8
   128ec:	3130                	fld	fa2,96(a0)
   128ee:	3332                	fld	ft6,296(sp)
   128f0:	3534                	fld	fa3,104(a0)
   128f2:	3736                	fld	fa4,360(sp)
   128f4:	3938                	fld	fa4,112(a0)
	...
   12902:	00ff                	0xff
   12904:	0000                	unimp
   12906:	0000                	unimp
   12908:	ff00                	fsw	fs0,56(a4)
   1290a:	ff00                	fsw	fs0,56(a4)
   1290c:	0000                	unimp
   1290e:	0000                	unimp
   12910:	0000                	unimp
   12912:	00ff                	0xff
   12914:	00ff                	0xff
   12916:	0000                	unimp
   12918:	ff00                	fsw	fs0,56(a4)
   1291a:	ffff                	0xffff
   1291c:	0000                	unimp
   1291e:	0000                	unimp
   12920:	ff00                	fsw	fs0,56(a4)
   12922:	ffff                	0xffff
   12924:	00ff                	0xff
   12926:	0000                	unimp
   12928:	0000                	unimp
   1292a:	00ff                	0xff
   1292c:	0000                	unimp
   1292e:	0000                	unimp
   12930:	0000                	unimp
   12932:	00ff                	0xff
   12934:	0000                	unimp
   12936:	0000                	unimp
   12938:	0000                	unimp
   1293a:	ff00                	fsw	fs0,56(a4)
   1293c:	0000                	unimp
   1293e:	0000                	unimp
   12940:	ff00                	fsw	fs0,56(a4)
	...
   1294a:	00ff                	0xff
	...
   12974:	00ff                	0xff
   12976:	0000                	unimp
   12978:	ff00                	fsw	fs0,56(a4)
   1297a:	ffff                	0xffff
   1297c:	0000                	unimp
   1297e:	0000                	unimp
   12980:	0000                	unimp
   12982:	00ff                	0xff
   12984:	0000                	unimp
   12986:	0000                	unimp
   12988:	ff00                	fsw	fs0,56(a4)
   1298a:	ffff                	0xffff
   1298c:	0000                	unimp
   1298e:	0000                	unimp
   12990:	ffff                	0xffff
   12992:	ffff                	0xffff
   12994:	00ff                	0xff
   12996:	0000                	unimp
   12998:	0000                	unimp
   1299a:	ff00                	fsw	fs0,56(a4)
   1299c:	0000                	unimp
   1299e:	0000                	unimp
   129a0:	ffff                	0xffff
   129a2:	ffff                	0xffff
   129a4:	00ff                	0xff
   129a6:	0000                	unimp
   129a8:	0000                	unimp
   129aa:	ffff                	0xffff
   129ac:	0000                	unimp
   129ae:	0000                	unimp
   129b0:	ffff                	0xffff
   129b2:	ffff                	0xffff
   129b4:	00ff                	0xff
   129b6:	0000                	unimp
   129b8:	ff00                	fsw	fs0,56(a4)
   129ba:	ffff                	0xffff
   129bc:	0000                	unimp
   129be:	0000                	unimp
   129c0:	ff00                	fsw	fs0,56(a4)
   129c2:	ffff                	0xffff
	...
   129f0:	0000                	unimp
   129f2:	ffff                	0xffff
	...
   12a00:	0000                	unimp
   12a02:	00ff                	0xff
   12a04:	0000                	unimp
   12a06:	0000                	unimp
   12a08:	ff00                	fsw	fs0,56(a4)
   12a0a:	ff00                	fsw	fs0,56(a4)
   12a0c:	0000                	unimp
   12a0e:	0000                	unimp
   12a10:	ffff                	0xffff
   12a12:	ffff                	0xffff
   12a14:	00ff                	0xff
   12a16:	0000                	unimp
   12a18:	00ff                	0xff
   12a1a:	00ff                	0xff
   12a1c:	00ff                	0xff
   12a1e:	0000                	unimp
   12a20:	00ff                	0xff
   12a22:	00ff                	0xff
   12a24:	00ff                	0xff
   12a26:	0000                	unimp
   12a28:	ff00                	fsw	fs0,56(a4)
   12a2a:	ff00                	fsw	fs0,56(a4)
   12a2c:	0000                	unimp
   12a2e:	0000                	unimp
   12a30:	0000                	unimp
   12a32:	00ff                	0xff
   12a34:	0000                	unimp
   12a36:	0000                	unimp
   12a38:	0000                	unimp
   12a3a:	00ff                	0xff
   12a3c:	0000                	unimp
   12a3e:	0000                	unimp
   12a40:	0000                	unimp
   12a42:	00ff                	0xff
   12a44:	0000                	unimp
   12a46:	0000                	unimp
   12a48:	00ff                	0xff
   12a4a:	00ff                	0xff
   12a4c:	00ff                	0xff
   12a4e:	0000                	unimp
   12a50:	0000                	unimp
   12a52:	00ff                	0xff
	...
   12a74:	00ff                	0xff
   12a76:	0000                	unimp
   12a78:	00ff                	0xff
   12a7a:	0000                	unimp
   12a7c:	00ff                	0xff
   12a7e:	0000                	unimp
   12a80:	ff00                	fsw	fs0,56(a4)
   12a82:	00ff                	0xff
   12a84:	0000                	unimp
   12a86:	0000                	unimp
   12a88:	00ff                	0xff
   12a8a:	0000                	unimp
   12a8c:	00ff                	0xff
   12a8e:	0000                	unimp
   12a90:	0000                	unimp
   12a92:	ff00                	fsw	fs0,56(a4)
   12a94:	0000                	unimp
   12a96:	0000                	unimp
   12a98:	0000                	unimp
   12a9a:	ffff                	0xffff
   12a9c:	0000                	unimp
   12a9e:	0000                	unimp
   12aa0:	00ff                	0xff
   12aa2:	0000                	unimp
   12aa4:	0000                	unimp
   12aa6:	0000                	unimp
   12aa8:	ff00                	fsw	fs0,56(a4)
	...
   12ab2:	0000                	unimp
   12ab4:	00ff                	0xff
   12ab6:	0000                	unimp
   12ab8:	00ff                	0xff
   12aba:	0000                	unimp
   12abc:	00ff                	0xff
   12abe:	0000                	unimp
   12ac0:	00ff                	0xff
   12ac2:	0000                	unimp
   12ac4:	00ff                	0xff
	...
   12ada:	ff00                	fsw	fs0,56(a4)
	...
   12ae8:	ff00                	fsw	fs0,56(a4)
   12aea:	0000                	unimp
   12aec:	0000                	unimp
   12aee:	0000                	unimp
   12af0:	ff00                	fsw	fs0,56(a4)
   12af2:	0000                	unimp
   12af4:	00ff                	0xff
	...
   12b02:	00ff                	0xff
	...
   12b10:	ff00                	fsw	fs0,56(a4)
   12b12:	ff00                	fsw	fs0,56(a4)
   12b14:	0000                	unimp
   12b16:	0000                	unimp
   12b18:	00ff                	0xff
   12b1a:	00ff                	0xff
   12b1c:	0000                	unimp
   12b1e:	0000                	unimp
   12b20:	00ff                	0xff
   12b22:	ffff                	0xffff
   12b24:	0000                	unimp
   12b26:	0000                	unimp
   12b28:	0000                	unimp
   12b2a:	00ff                	0xff
	...
   12b38:	ff00                	fsw	fs0,56(a4)
	...
   12b42:	ff00                	fsw	fs0,56(a4)
   12b44:	0000                	unimp
   12b46:	0000                	unimp
   12b48:	ff00                	fsw	fs0,56(a4)
   12b4a:	ffff                	0xffff
   12b4c:	0000                	unimp
   12b4e:	0000                	unimp
   12b50:	0000                	unimp
   12b52:	00ff                	0xff
	...
   12b70:	0000                	unimp
   12b72:	ff00                	fsw	fs0,56(a4)
   12b74:	0000                	unimp
   12b76:	0000                	unimp
   12b78:	00ff                	0xff
   12b7a:	ff00                	fsw	fs0,56(a4)
   12b7c:	00ff                	0xff
   12b7e:	0000                	unimp
   12b80:	0000                	unimp
   12b82:	00ff                	0xff
	...
   12b8c:	00ff                	0xff
   12b8e:	0000                	unimp
   12b90:	0000                	unimp
   12b92:	00ff                	0xff
   12b94:	0000                	unimp
   12b96:	0000                	unimp
   12b98:	ff00                	fsw	fs0,56(a4)
   12b9a:	ff00                	fsw	fs0,56(a4)
   12b9c:	0000                	unimp
   12b9e:	0000                	unimp
   12ba0:	ffff                	0xffff
   12ba2:	ffff                	0xffff
   12ba4:	0000                	unimp
   12ba6:	0000                	unimp
   12ba8:	00ff                	0xff
	...
   12bb2:	ff00                	fsw	fs0,56(a4)
   12bb4:	0000                	unimp
   12bb6:	0000                	unimp
   12bb8:	00ff                	0xff
   12bba:	0000                	unimp
   12bbc:	00ff                	0xff
   12bbe:	0000                	unimp
   12bc0:	00ff                	0xff
   12bc2:	0000                	unimp
   12bc4:	00ff                	0xff
   12bc6:	0000                	unimp
   12bc8:	0000                	unimp
   12bca:	00ff                	0xff
   12bcc:	0000                	unimp
   12bce:	0000                	unimp
   12bd0:	0000                	unimp
   12bd2:	00ff                	0xff
   12bd4:	0000                	unimp
   12bd6:	0000                	unimp
   12bd8:	0000                	unimp
   12bda:	00ff                	0xff
   12bdc:	0000                	unimp
   12bde:	0000                	unimp
   12be0:	ffff                	0xffff
   12be2:	ffff                	0xffff
   12be4:	00ff                	0xff
   12be6:	0000                	unimp
   12be8:	0000                	unimp
   12bea:	00ff                	0xff
	...
   12bf4:	00ff                	0xff
	...
   12c02:	00ff                	0xff
	...
   12c10:	ffff                	0xffff
   12c12:	ffff                	0xffff
   12c14:	00ff                	0xff
   12c16:	0000                	unimp
   12c18:	ff00                	fsw	fs0,56(a4)
   12c1a:	ffff                	0xffff
   12c1c:	0000                	unimp
   12c1e:	0000                	unimp
   12c20:	ff00                	fsw	fs0,56(a4)
   12c22:	ffff                	0xffff
   12c24:	00ff                	0xff
   12c26:	0000                	unimp
   12c28:	ff00                	fsw	fs0,56(a4)
   12c2a:	ff00                	fsw	fs0,56(a4)
   12c2c:	ff00                	fsw	fs0,56(a4)
	...
   12c36:	0000                	unimp
   12c38:	ff00                	fsw	fs0,56(a4)
	...
   12c42:	ff00                	fsw	fs0,56(a4)
   12c44:	0000                	unimp
   12c46:	0000                	unimp
   12c48:	ff00                	fsw	fs0,56(a4)
   12c4a:	ff00                	fsw	fs0,56(a4)
   12c4c:	0000                	unimp
   12c4e:	0000                	unimp
   12c50:	ffff                	0xffff
   12c52:	ffff                	0xffff
   12c54:	00ff                	0xff
	...
   12c5e:	0000                	unimp
   12c60:	ff00                	fsw	fs0,56(a4)
   12c62:	ffff                	0xffff
   12c64:	00ff                	0xff
	...
   12c72:	ff00                	fsw	fs0,56(a4)
   12c74:	0000                	unimp
   12c76:	0000                	unimp
   12c78:	00ff                	0xff
   12c7a:	00ff                	0xff
   12c7c:	00ff                	0xff
   12c7e:	0000                	unimp
   12c80:	0000                	unimp
   12c82:	00ff                	0xff
   12c84:	0000                	unimp
   12c86:	0000                	unimp
   12c88:	0000                	unimp
   12c8a:	ff00                	fsw	fs0,56(a4)
   12c8c:	0000                	unimp
   12c8e:	0000                	unimp
   12c90:	ff00                	fsw	fs0,56(a4)
   12c92:	ffff                	0xffff
   12c94:	0000                	unimp
   12c96:	0000                	unimp
   12c98:	00ff                	0xff
   12c9a:	ff00                	fsw	fs0,56(a4)
	...
   12ca4:	00ff                	0xff
   12ca6:	0000                	unimp
   12ca8:	ffff                	0xffff
   12caa:	ffff                	0xffff
   12cac:	0000                	unimp
   12cae:	0000                	unimp
   12cb0:	0000                	unimp
   12cb2:	ff00                	fsw	fs0,56(a4)
   12cb4:	0000                	unimp
   12cb6:	0000                	unimp
   12cb8:	ff00                	fsw	fs0,56(a4)
   12cba:	ffff                	0xffff
   12cbc:	0000                	unimp
   12cbe:	0000                	unimp
   12cc0:	ff00                	fsw	fs0,56(a4)
   12cc2:	ffff                	0xffff
   12cc4:	00ff                	0xff
	...
   12cd6:	0000                	unimp
   12cd8:	ff00                	fsw	fs0,56(a4)
	...
   12cea:	ff00                	fsw	fs0,56(a4)
   12cec:	0000                	unimp
   12cee:	0000                	unimp
   12cf0:	0000                	unimp
   12cf2:	ff00                	fsw	fs0,56(a4)
	...
   12d00:	0000                	unimp
   12d02:	00ff                	0xff
	...
   12d10:	00ff                	0xff
   12d12:	00ff                	0xff
   12d14:	0000                	unimp
   12d16:	0000                	unimp
   12d18:	0000                	unimp
   12d1a:	00ff                	0xff
   12d1c:	00ff                	0xff
   12d1e:	0000                	unimp
   12d20:	0000                	unimp
   12d22:	ffff                	0xffff
   12d24:	ff00                	fsw	fs0,56(a4)
   12d26:	0000                	unimp
   12d28:	00ff                	0xff
   12d2a:	0000                	unimp
   12d2c:	00ff                	0xff
	...
   12d36:	0000                	unimp
   12d38:	ff00                	fsw	fs0,56(a4)
	...
   12d42:	ff00                	fsw	fs0,56(a4)
   12d44:	0000                	unimp
   12d46:	0000                	unimp
   12d48:	00ff                	0xff
   12d4a:	0000                	unimp
   12d4c:	00ff                	0xff
   12d4e:	0000                	unimp
   12d50:	0000                	unimp
   12d52:	00ff                	0xff
	...
   12d70:	0000                	unimp
   12d72:	00ff                	0xff
   12d74:	0000                	unimp
   12d76:	0000                	unimp
   12d78:	ffff                	0xffff
   12d7a:	0000                	unimp
   12d7c:	00ff                	0xff
   12d7e:	0000                	unimp
   12d80:	0000                	unimp
   12d82:	00ff                	0xff
   12d84:	0000                	unimp
   12d86:	0000                	unimp
   12d88:	0000                	unimp
   12d8a:	00ff                	0xff
	...
   12d94:	00ff                	0xff
   12d96:	0000                	unimp
   12d98:	ffff                	0xffff
   12d9a:	ffff                	0xffff
   12d9c:	00ff                	0xff
   12d9e:	0000                	unimp
   12da0:	0000                	unimp
   12da2:	0000                	unimp
   12da4:	00ff                	0xff
   12da6:	0000                	unimp
   12da8:	00ff                	0xff
   12daa:	0000                	unimp
   12dac:	00ff                	0xff
   12dae:	0000                	unimp
   12db0:	0000                	unimp
   12db2:	00ff                	0xff
   12db4:	0000                	unimp
   12db6:	0000                	unimp
   12db8:	00ff                	0xff
   12dba:	0000                	unimp
   12dbc:	00ff                	0xff
   12dbe:	0000                	unimp
   12dc0:	0000                	unimp
   12dc2:	0000                	unimp
   12dc4:	00ff                	0xff
	...
   12dda:	00ff                	0xff
   12ddc:	0000                	unimp
   12dde:	0000                	unimp
   12de0:	ffff                	0xffff
   12de2:	ffff                	0xffff
   12de4:	00ff                	0xff
   12de6:	0000                	unimp
   12de8:	0000                	unimp
   12dea:	00ff                	0xff
   12dec:	0000                	unimp
   12dee:	0000                	unimp
   12df0:	0000                	unimp
   12df2:	00ff                	0xff
	...
   12e18:	00ff                	0xff
   12e1a:	00ff                	0xff
   12e1c:	00ff                	0xff
   12e1e:	0000                	unimp
   12e20:	ff00                	fsw	fs0,56(a4)
   12e22:	ff00                	fsw	fs0,56(a4)
   12e24:	ff00                	fsw	fs0,56(a4)
   12e26:	0000                	unimp
   12e28:	00ff                	0xff
   12e2a:	0000                	unimp
   12e2c:	00ff                	0xff
	...
   12e36:	0000                	unimp
   12e38:	ff00                	fsw	fs0,56(a4)
	...
   12e42:	ff00                	fsw	fs0,56(a4)
	...
   12e50:	0000                	unimp
   12e52:	00ff                	0xff
   12e54:	0000                	unimp
   12e56:	0000                	unimp
   12e58:	0000                	unimp
   12e5a:	00ff                	0xff
	...
   12e70:	0000                	unimp
   12e72:	00ff                	0xff
   12e74:	0000                	unimp
   12e76:	0000                	unimp
   12e78:	00ff                	0xff
   12e7a:	0000                	unimp
   12e7c:	00ff                	0xff
   12e7e:	0000                	unimp
   12e80:	0000                	unimp
   12e82:	00ff                	0xff
   12e84:	0000                	unimp
   12e86:	0000                	unimp
   12e88:	ff00                	fsw	fs0,56(a4)
   12e8a:	0000                	unimp
   12e8c:	0000                	unimp
   12e8e:	0000                	unimp
   12e90:	00ff                	0xff
   12e92:	0000                	unimp
   12e94:	00ff                	0xff
   12e96:	0000                	unimp
   12e98:	0000                	unimp
   12e9a:	ff00                	fsw	fs0,56(a4)
   12e9c:	0000                	unimp
   12e9e:	0000                	unimp
   12ea0:	00ff                	0xff
   12ea2:	0000                	unimp
   12ea4:	00ff                	0xff
   12ea6:	0000                	unimp
   12ea8:	00ff                	0xff
   12eaa:	0000                	unimp
   12eac:	00ff                	0xff
   12eae:	0000                	unimp
   12eb0:	0000                	unimp
   12eb2:	00ff                	0xff
   12eb4:	0000                	unimp
   12eb6:	0000                	unimp
   12eb8:	00ff                	0xff
   12eba:	0000                	unimp
   12ebc:	00ff                	0xff
   12ebe:	0000                	unimp
   12ec0:	0000                	unimp
   12ec2:	ff00                	fsw	fs0,56(a4)
	...
   12ed0:	0000                	unimp
   12ed2:	00ff                	0xff
   12ed4:	0000                	unimp
   12ed6:	0000                	unimp
   12ed8:	0000                	unimp
   12eda:	ff00                	fsw	fs0,56(a4)
	...
   12ee8:	ff00                	fsw	fs0,56(a4)
	...
   12f02:	00ff                	0xff
	...
   12f18:	ff00                	fsw	fs0,56(a4)
   12f1a:	ffff                	0xffff
   12f1c:	0000                	unimp
   12f1e:	0000                	unimp
   12f20:	ff00                	fsw	fs0,56(a4)
   12f22:	0000                	unimp
   12f24:	00ff                	0xff
   12f26:	0000                	unimp
   12f28:	ff00                	fsw	fs0,56(a4)
   12f2a:	ffff                	0xffff
   12f2c:	ff00                	fsw	fs0,56(a4)
	...
   12f3a:	00ff                	0xff
   12f3c:	0000                	unimp
   12f3e:	0000                	unimp
   12f40:	0000                	unimp
   12f42:	00ff                	0xff
	...
   12f58:	0000                	unimp
   12f5a:	00ff                	0xff
	...
   12f68:	0000                	unimp
   12f6a:	00ff                	0xff
   12f6c:	0000                	unimp
   12f6e:	0000                	unimp
   12f70:	ff00                	fsw	fs0,56(a4)
   12f72:	0000                	unimp
   12f74:	0000                	unimp
   12f76:	0000                	unimp
   12f78:	ff00                	fsw	fs0,56(a4)
   12f7a:	ffff                	0xffff
   12f7c:	0000                	unimp
   12f7e:	0000                	unimp
   12f80:	0000                	unimp
   12f82:	00ff                	0xff
   12f84:	0000                	unimp
   12f86:	0000                	unimp
   12f88:	ffff                	0xffff
   12f8a:	ffff                	0xffff
   12f8c:	00ff                	0xff
   12f8e:	0000                	unimp
   12f90:	ff00                	fsw	fs0,56(a4)
   12f92:	ffff                	0xffff
   12f94:	0000                	unimp
   12f96:	0000                	unimp
   12f98:	0000                	unimp
   12f9a:	ff00                	fsw	fs0,56(a4)
   12f9c:	0000                	unimp
   12f9e:	0000                	unimp
   12fa0:	ff00                	fsw	fs0,56(a4)
   12fa2:	ffff                	0xffff
   12fa4:	0000                	unimp
   12fa6:	0000                	unimp
   12fa8:	ff00                	fsw	fs0,56(a4)
   12faa:	ffff                	0xffff
   12fac:	0000                	unimp
   12fae:	0000                	unimp
   12fb0:	0000                	unimp
   12fb2:	00ff                	0xff
   12fb4:	0000                	unimp
   12fb6:	0000                	unimp
   12fb8:	ff00                	fsw	fs0,56(a4)
   12fba:	ffff                	0xffff
   12fbc:	0000                	unimp
   12fbe:	0000                	unimp
   12fc0:	ff00                	fsw	fs0,56(a4)
   12fc2:	00ff                	0xff
   12fc4:	0000                	unimp
   12fc6:	0000                	unimp
   12fc8:	0000                	unimp
   12fca:	00ff                	0xff
   12fcc:	0000                	unimp
   12fce:	0000                	unimp
   12fd0:	0000                	unimp
   12fd2:	00ff                	0xff
	...
   12ff0:	0000                	unimp
   12ff2:	00ff                	0xff
	...
   13018:	0000                	unimp
   1301a:	00ff                	0xff
	...
   13038:	0000                	unimp
   1303a:	ff00                	fsw	fs0,56(a4)
   1303c:	0000                	unimp
   1303e:	0000                	unimp
   13040:	ff00                	fsw	fs0,56(a4)
	...
   13056:	0000                	unimp
   13058:	ff00                	fsw	fs0,56(a4)
	...
   1306e:	0000                	unimp
   13070:	ff00                	fsw	fs0,56(a4)
	...
   130ce:	0000                	unimp
   130d0:	ff00                	fsw	fs0,56(a4)
	...
   130fa:	ffff                	0xffff
   130fc:	0000                	unimp
   130fe:	0000                	unimp
   13100:	0000                	unimp
   13102:	00ff                	0xff
   13104:	0000                	unimp
   13106:	0000                	unimp
   13108:	ffff                	0xffff
   1310a:	ffff                	0xffff
   1310c:	0000                	unimp
   1310e:	0000                	unimp
   13110:	ff00                	fsw	fs0,56(a4)
   13112:	ffff                	0xffff
   13114:	0000                	unimp
   13116:	0000                	unimp
   13118:	ffff                	0xffff
   1311a:	00ff                	0xff
   1311c:	0000                	unimp
   1311e:	0000                	unimp
   13120:	ff00                	fsw	fs0,56(a4)
   13122:	ffff                	0xffff
   13124:	00ff                	0xff
   13126:	0000                	unimp
   13128:	ff00                	fsw	fs0,56(a4)
   1312a:	ffff                	0xffff
   1312c:	00ff                	0xff
   1312e:	0000                	unimp
   13130:	ff00                	fsw	fs0,56(a4)
   13132:	ffff                	0xffff
   13134:	0000                	unimp
   13136:	0000                	unimp
   13138:	00ff                	0xff
   1313a:	0000                	unimp
   1313c:	00ff                	0xff
   1313e:	0000                	unimp
   13140:	0000                	unimp
   13142:	00ff                	0xff
	...
   1314c:	00ff                	0xff
   1314e:	0000                	unimp
   13150:	00ff                	0xff
   13152:	0000                	unimp
   13154:	00ff                	0xff
   13156:	0000                	unimp
   13158:	ff00                	fsw	fs0,56(a4)
   1315a:	0000                	unimp
   1315c:	0000                	unimp
   1315e:	0000                	unimp
   13160:	00ff                	0xff
   13162:	0000                	unimp
   13164:	00ff                	0xff
   13166:	0000                	unimp
   13168:	ffff                	0xffff
   1316a:	0000                	unimp
   1316c:	00ff                	0xff
   1316e:	0000                	unimp
   13170:	ff00                	fsw	fs0,56(a4)
   13172:	ffff                	0xffff
   13174:	0000                	unimp
   13176:	0000                	unimp
   13178:	ffff                	0xffff
   1317a:	ffff                	0xffff
   1317c:	0000                	unimp
   1317e:	0000                	unimp
   13180:	ff00                	fsw	fs0,56(a4)
   13182:	ffff                	0xffff
   13184:	0000                	unimp
   13186:	0000                	unimp
   13188:	ffff                	0xffff
   1318a:	ffff                	0xffff
   1318c:	0000                	unimp
   1318e:	0000                	unimp
   13190:	ff00                	fsw	fs0,56(a4)
   13192:	ffff                	0xffff
   13194:	0000                	unimp
   13196:	0000                	unimp
   13198:	ffff                	0xffff
   1319a:	ffff                	0xffff
   1319c:	00ff                	0xff
   1319e:	0000                	unimp
   131a0:	00ff                	0xff
   131a2:	0000                	unimp
   131a4:	00ff                	0xff
   131a6:	0000                	unimp
   131a8:	00ff                	0xff
   131aa:	0000                	unimp
   131ac:	00ff                	0xff
   131ae:	0000                	unimp
   131b0:	00ff                	0xff
   131b2:	0000                	unimp
   131b4:	00ff                	0xff
   131b6:	0000                	unimp
   131b8:	00ff                	0xff
   131ba:	0000                	unimp
   131bc:	00ff                	0xff
   131be:	0000                	unimp
   131c0:	00ff                	0xff
   131c2:	0000                	unimp
   131c4:	00ff                	0xff
   131c6:	0000                	unimp
   131c8:	ff00                	fsw	fs0,56(a4)
   131ca:	ffff                	0xffff
   131cc:	00ff                	0xff
   131ce:	0000                	unimp
   131d0:	0000                	unimp
   131d2:	ffff                	0xffff
   131d4:	0000                	unimp
   131d6:	0000                	unimp
   131d8:	ff00                	fsw	fs0,56(a4)
   131da:	0000                	unimp
   131dc:	0000                	unimp
   131de:	0000                	unimp
   131e0:	ff00                	fsw	fs0,56(a4)
   131e2:	00ff                	0xff
   131e4:	0000                	unimp
   131e6:	0000                	unimp
   131e8:	0000                	unimp
   131ea:	00ff                	0xff
	...
   131f8:	ff00                	fsw	fs0,56(a4)
   131fa:	0000                	unimp
   131fc:	00ff                	0xff
   131fe:	0000                	unimp
   13200:	0000                	unimp
   13202:	00ff                	0xff
   13204:	0000                	unimp
   13206:	0000                	unimp
   13208:	00ff                	0xff
   1320a:	0000                	unimp
   1320c:	00ff                	0xff
   1320e:	0000                	unimp
   13210:	00ff                	0xff
   13212:	0000                	unimp
   13214:	00ff                	0xff
   13216:	0000                	unimp
   13218:	00ff                	0xff
   1321a:	ff00                	fsw	fs0,56(a4)
   1321c:	0000                	unimp
   1321e:	0000                	unimp
   13220:	ff00                	fsw	fs0,56(a4)
   13222:	0000                	unimp
   13224:	0000                	unimp
   13226:	0000                	unimp
   13228:	ff00                	fsw	fs0,56(a4)
   1322a:	0000                	unimp
   1322c:	0000                	unimp
   1322e:	0000                	unimp
   13230:	00ff                	0xff
   13232:	0000                	unimp
   13234:	00ff                	0xff
   13236:	0000                	unimp
   13238:	00ff                	0xff
   1323a:	0000                	unimp
   1323c:	00ff                	0xff
   1323e:	0000                	unimp
   13240:	0000                	unimp
   13242:	00ff                	0xff
	...
   1324c:	00ff                	0xff
   1324e:	0000                	unimp
   13250:	00ff                	0xff
   13252:	ff00                	fsw	fs0,56(a4)
   13254:	0000                	unimp
   13256:	0000                	unimp
   13258:	ff00                	fsw	fs0,56(a4)
   1325a:	0000                	unimp
   1325c:	0000                	unimp
   1325e:	0000                	unimp
   13260:	ffff                	0xffff
   13262:	ff00                	fsw	fs0,56(a4)
   13264:	00ff                	0xff
   13266:	0000                	unimp
   13268:	ffff                	0xffff
   1326a:	0000                	unimp
   1326c:	00ff                	0xff
   1326e:	0000                	unimp
   13270:	00ff                	0xff
   13272:	0000                	unimp
   13274:	00ff                	0xff
   13276:	0000                	unimp
   13278:	00ff                	0xff
   1327a:	0000                	unimp
   1327c:	00ff                	0xff
   1327e:	0000                	unimp
   13280:	00ff                	0xff
   13282:	0000                	unimp
   13284:	00ff                	0xff
   13286:	0000                	unimp
   13288:	00ff                	0xff
   1328a:	0000                	unimp
   1328c:	00ff                	0xff
   1328e:	0000                	unimp
   13290:	00ff                	0xff
   13292:	0000                	unimp
   13294:	00ff                	0xff
   13296:	0000                	unimp
   13298:	0000                	unimp
   1329a:	00ff                	0xff
   1329c:	0000                	unimp
   1329e:	0000                	unimp
   132a0:	00ff                	0xff
   132a2:	0000                	unimp
   132a4:	00ff                	0xff
   132a6:	0000                	unimp
   132a8:	00ff                	0xff
   132aa:	0000                	unimp
   132ac:	00ff                	0xff
   132ae:	0000                	unimp
   132b0:	00ff                	0xff
   132b2:	0000                	unimp
   132b4:	00ff                	0xff
   132b6:	0000                	unimp
   132b8:	00ff                	0xff
   132ba:	0000                	unimp
   132bc:	00ff                	0xff
   132be:	0000                	unimp
   132c0:	00ff                	0xff
   132c2:	0000                	unimp
   132c4:	00ff                	0xff
   132c6:	0000                	unimp
   132c8:	0000                	unimp
   132ca:	0000                	unimp
   132cc:	00ff                	0xff
   132ce:	0000                	unimp
   132d0:	0000                	unimp
   132d2:	00ff                	0xff
   132d4:	0000                	unimp
   132d6:	0000                	unimp
   132d8:	ff00                	fsw	fs0,56(a4)
	...
   132e2:	00ff                	0xff
   132e4:	0000                	unimp
   132e6:	0000                	unimp
   132e8:	ff00                	fsw	fs0,56(a4)
   132ea:	ff00                	fsw	fs0,56(a4)
	...
   132f8:	00ff                	0xff
   132fa:	ffff                	0xffff
   132fc:	ff00                	fsw	fs0,56(a4)
   132fe:	0000                	unimp
   13300:	ff00                	fsw	fs0,56(a4)
   13302:	ff00                	fsw	fs0,56(a4)
   13304:	0000                	unimp
   13306:	0000                	unimp
   13308:	00ff                	0xff
   1330a:	0000                	unimp
   1330c:	00ff                	0xff
   1330e:	0000                	unimp
   13310:	00ff                	0xff
   13312:	0000                	unimp
   13314:	0000                	unimp
   13316:	0000                	unimp
   13318:	00ff                	0xff
   1331a:	0000                	unimp
   1331c:	00ff                	0xff
   1331e:	0000                	unimp
   13320:	ff00                	fsw	fs0,56(a4)
   13322:	0000                	unimp
   13324:	0000                	unimp
   13326:	0000                	unimp
   13328:	ff00                	fsw	fs0,56(a4)
   1332a:	0000                	unimp
   1332c:	0000                	unimp
   1332e:	0000                	unimp
   13330:	00ff                	0xff
   13332:	0000                	unimp
   13334:	0000                	unimp
   13336:	0000                	unimp
   13338:	00ff                	0xff
   1333a:	0000                	unimp
   1333c:	00ff                	0xff
   1333e:	0000                	unimp
   13340:	0000                	unimp
   13342:	00ff                	0xff
	...
   1334c:	00ff                	0xff
   1334e:	0000                	unimp
   13350:	00ff                	0xff
   13352:	00ff                	0xff
   13354:	0000                	unimp
   13356:	0000                	unimp
   13358:	ff00                	fsw	fs0,56(a4)
   1335a:	0000                	unimp
   1335c:	0000                	unimp
   1335e:	0000                	unimp
   13360:	00ff                	0xff
   13362:	00ff                	0xff
   13364:	00ff                	0xff
   13366:	0000                	unimp
   13368:	00ff                	0xff
   1336a:	00ff                	0xff
   1336c:	00ff                	0xff
   1336e:	0000                	unimp
   13370:	00ff                	0xff
   13372:	0000                	unimp
   13374:	00ff                	0xff
   13376:	0000                	unimp
   13378:	00ff                	0xff
   1337a:	0000                	unimp
   1337c:	00ff                	0xff
   1337e:	0000                	unimp
   13380:	00ff                	0xff
   13382:	0000                	unimp
   13384:	00ff                	0xff
   13386:	0000                	unimp
   13388:	00ff                	0xff
   1338a:	0000                	unimp
   1338c:	00ff                	0xff
   1338e:	0000                	unimp
   13390:	00ff                	0xff
	...
   1339a:	00ff                	0xff
   1339c:	0000                	unimp
   1339e:	0000                	unimp
   133a0:	00ff                	0xff
   133a2:	0000                	unimp
   133a4:	00ff                	0xff
   133a6:	0000                	unimp
   133a8:	00ff                	0xff
   133aa:	0000                	unimp
   133ac:	00ff                	0xff
   133ae:	0000                	unimp
   133b0:	00ff                	0xff
   133b2:	00ff                	0xff
   133b4:	00ff                	0xff
   133b6:	0000                	unimp
   133b8:	ff00                	fsw	fs0,56(a4)
   133ba:	ff00                	fsw	fs0,56(a4)
   133bc:	0000                	unimp
   133be:	0000                	unimp
   133c0:	ff00                	fsw	fs0,56(a4)
   133c2:	ff00                	fsw	fs0,56(a4)
   133c4:	0000                	unimp
   133c6:	0000                	unimp
   133c8:	0000                	unimp
   133ca:	ff00                	fsw	fs0,56(a4)
   133cc:	0000                	unimp
   133ce:	0000                	unimp
   133d0:	0000                	unimp
   133d2:	00ff                	0xff
   133d4:	0000                	unimp
   133d6:	0000                	unimp
   133d8:	0000                	unimp
   133da:	00ff                	0xff
   133dc:	0000                	unimp
   133de:	0000                	unimp
   133e0:	0000                	unimp
   133e2:	00ff                	0xff
	...
   133f8:	ffff                	0xffff
   133fa:	ff00                	fsw	fs0,56(a4)
   133fc:	ff00                	fsw	fs0,56(a4)
   133fe:	0000                	unimp
   13400:	ff00                	fsw	fs0,56(a4)
   13402:	ff00                	fsw	fs0,56(a4)
   13404:	0000                	unimp
   13406:	0000                	unimp
   13408:	ffff                	0xffff
   1340a:	ffff                	0xffff
   1340c:	0000                	unimp
   1340e:	0000                	unimp
   13410:	00ff                	0xff
   13412:	0000                	unimp
   13414:	0000                	unimp
   13416:	0000                	unimp
   13418:	00ff                	0xff
   1341a:	0000                	unimp
   1341c:	00ff                	0xff
   1341e:	0000                	unimp
   13420:	ff00                	fsw	fs0,56(a4)
   13422:	ffff                	0xffff
   13424:	0000                	unimp
   13426:	0000                	unimp
   13428:	ff00                	fsw	fs0,56(a4)
   1342a:	ffff                	0xffff
   1342c:	0000                	unimp
   1342e:	0000                	unimp
   13430:	00ff                	0xff
   13432:	ff00                	fsw	fs0,56(a4)
   13434:	00ff                	0xff
   13436:	0000                	unimp
   13438:	ffff                	0xffff
   1343a:	ffff                	0xffff
   1343c:	00ff                	0xff
   1343e:	0000                	unimp
   13440:	0000                	unimp
   13442:	00ff                	0xff
	...
   1344c:	00ff                	0xff
   1344e:	0000                	unimp
   13450:	ffff                	0xffff
   13452:	0000                	unimp
   13454:	0000                	unimp
   13456:	0000                	unimp
   13458:	ff00                	fsw	fs0,56(a4)
   1345a:	0000                	unimp
   1345c:	0000                	unimp
   1345e:	0000                	unimp
   13460:	00ff                	0xff
   13462:	0000                	unimp
   13464:	00ff                	0xff
   13466:	0000                	unimp
   13468:	00ff                	0xff
   1346a:	00ff                	0xff
   1346c:	00ff                	0xff
   1346e:	0000                	unimp
   13470:	00ff                	0xff
   13472:	0000                	unimp
   13474:	00ff                	0xff
   13476:	0000                	unimp
   13478:	ffff                	0xffff
   1347a:	ffff                	0xffff
   1347c:	0000                	unimp
   1347e:	0000                	unimp
   13480:	00ff                	0xff
   13482:	0000                	unimp
   13484:	00ff                	0xff
   13486:	0000                	unimp
   13488:	ffff                	0xffff
   1348a:	ffff                	0xffff
   1348c:	0000                	unimp
   1348e:	0000                	unimp
   13490:	ff00                	fsw	fs0,56(a4)
   13492:	ffff                	0xffff
   13494:	0000                	unimp
   13496:	0000                	unimp
   13498:	0000                	unimp
   1349a:	00ff                	0xff
   1349c:	0000                	unimp
   1349e:	0000                	unimp
   134a0:	00ff                	0xff
   134a2:	0000                	unimp
   134a4:	00ff                	0xff
   134a6:	0000                	unimp
   134a8:	ff00                	fsw	fs0,56(a4)
   134aa:	ff00                	fsw	fs0,56(a4)
   134ac:	0000                	unimp
   134ae:	0000                	unimp
   134b0:	00ff                	0xff
   134b2:	00ff                	0xff
   134b4:	00ff                	0xff
   134b6:	0000                	unimp
   134b8:	0000                	unimp
   134ba:	00ff                	0xff
   134bc:	0000                	unimp
   134be:	0000                	unimp
   134c0:	0000                	unimp
   134c2:	00ff                	0xff
   134c4:	0000                	unimp
   134c6:	0000                	unimp
   134c8:	0000                	unimp
   134ca:	00ff                	0xff
   134cc:	0000                	unimp
   134ce:	0000                	unimp
   134d0:	0000                	unimp
   134d2:	00ff                	0xff
   134d4:	0000                	unimp
   134d6:	0000                	unimp
   134d8:	0000                	unimp
   134da:	00ff                	0xff
   134dc:	0000                	unimp
   134de:	0000                	unimp
   134e0:	0000                	unimp
   134e2:	00ff                	0xff
	...
   134f8:	ffff                	0xffff
   134fa:	ff00                	fsw	fs0,56(a4)
   134fc:	ff00                	fsw	fs0,56(a4)
   134fe:	0000                	unimp
   13500:	ffff                	0xffff
   13502:	ffff                	0xffff
   13504:	00ff                	0xff
   13506:	0000                	unimp
   13508:	00ff                	0xff
   1350a:	0000                	unimp
   1350c:	00ff                	0xff
   1350e:	0000                	unimp
   13510:	00ff                	0xff
   13512:	0000                	unimp
   13514:	0000                	unimp
   13516:	0000                	unimp
   13518:	00ff                	0xff
   1351a:	0000                	unimp
   1351c:	00ff                	0xff
   1351e:	0000                	unimp
   13520:	ff00                	fsw	fs0,56(a4)
   13522:	0000                	unimp
   13524:	0000                	unimp
   13526:	0000                	unimp
   13528:	ff00                	fsw	fs0,56(a4)
   1352a:	0000                	unimp
   1352c:	0000                	unimp
   1352e:	0000                	unimp
   13530:	00ff                	0xff
   13532:	0000                	unimp
   13534:	00ff                	0xff
   13536:	0000                	unimp
   13538:	00ff                	0xff
   1353a:	0000                	unimp
   1353c:	00ff                	0xff
   1353e:	0000                	unimp
   13540:	0000                	unimp
   13542:	00ff                	0xff
   13544:	0000                	unimp
   13546:	0000                	unimp
   13548:	00ff                	0xff
   1354a:	0000                	unimp
   1354c:	00ff                	0xff
   1354e:	0000                	unimp
   13550:	00ff                	0xff
   13552:	00ff                	0xff
   13554:	0000                	unimp
   13556:	0000                	unimp
   13558:	ff00                	fsw	fs0,56(a4)
   1355a:	0000                	unimp
   1355c:	0000                	unimp
   1355e:	0000                	unimp
   13560:	00ff                	0xff
   13562:	0000                	unimp
   13564:	00ff                	0xff
   13566:	0000                	unimp
   13568:	00ff                	0xff
   1356a:	ff00                	fsw	fs0,56(a4)
   1356c:	00ff                	0xff
   1356e:	0000                	unimp
   13570:	00ff                	0xff
   13572:	0000                	unimp
   13574:	00ff                	0xff
   13576:	0000                	unimp
   13578:	00ff                	0xff
   1357a:	0000                	unimp
   1357c:	0000                	unimp
   1357e:	0000                	unimp
   13580:	00ff                	0xff
   13582:	0000                	unimp
   13584:	00ff                	0xff
   13586:	0000                	unimp
   13588:	00ff                	0xff
   1358a:	00ff                	0xff
	...
   13594:	00ff                	0xff
   13596:	0000                	unimp
   13598:	0000                	unimp
   1359a:	00ff                	0xff
   1359c:	0000                	unimp
   1359e:	0000                	unimp
   135a0:	00ff                	0xff
   135a2:	0000                	unimp
   135a4:	00ff                	0xff
   135a6:	0000                	unimp
   135a8:	ff00                	fsw	fs0,56(a4)
   135aa:	ff00                	fsw	fs0,56(a4)
   135ac:	0000                	unimp
   135ae:	0000                	unimp
   135b0:	ff00                	fsw	fs0,56(a4)
   135b2:	ff00                	fsw	fs0,56(a4)
   135b4:	0000                	unimp
   135b6:	0000                	unimp
   135b8:	ff00                	fsw	fs0,56(a4)
   135ba:	ff00                	fsw	fs0,56(a4)
   135bc:	0000                	unimp
   135be:	0000                	unimp
   135c0:	0000                	unimp
   135c2:	00ff                	0xff
   135c4:	0000                	unimp
   135c6:	0000                	unimp
   135c8:	ff00                	fsw	fs0,56(a4)
	...
   135d2:	00ff                	0xff
   135d4:	0000                	unimp
   135d6:	0000                	unimp
   135d8:	0000                	unimp
   135da:	ff00                	fsw	fs0,56(a4)
   135dc:	0000                	unimp
   135de:	0000                	unimp
   135e0:	0000                	unimp
   135e2:	00ff                	0xff
	...
   135f8:	00ff                	0xff
   135fa:	ffff                	0xffff
   135fc:	00ff                	0xff
   135fe:	0000                	unimp
   13600:	00ff                	0xff
   13602:	0000                	unimp
   13604:	00ff                	0xff
   13606:	0000                	unimp
   13608:	00ff                	0xff
   1360a:	0000                	unimp
   1360c:	00ff                	0xff
   1360e:	0000                	unimp
   13610:	00ff                	0xff
   13612:	0000                	unimp
   13614:	00ff                	0xff
   13616:	0000                	unimp
   13618:	00ff                	0xff
   1361a:	ff00                	fsw	fs0,56(a4)
   1361c:	0000                	unimp
   1361e:	0000                	unimp
   13620:	ff00                	fsw	fs0,56(a4)
   13622:	0000                	unimp
   13624:	0000                	unimp
   13626:	0000                	unimp
   13628:	ff00                	fsw	fs0,56(a4)
   1362a:	0000                	unimp
   1362c:	0000                	unimp
   1362e:	0000                	unimp
   13630:	00ff                	0xff
   13632:	0000                	unimp
   13634:	00ff                	0xff
   13636:	0000                	unimp
   13638:	00ff                	0xff
   1363a:	0000                	unimp
   1363c:	00ff                	0xff
   1363e:	0000                	unimp
   13640:	0000                	unimp
   13642:	00ff                	0xff
   13644:	0000                	unimp
   13646:	0000                	unimp
   13648:	00ff                	0xff
   1364a:	0000                	unimp
   1364c:	00ff                	0xff
   1364e:	0000                	unimp
   13650:	00ff                	0xff
   13652:	ff00                	fsw	fs0,56(a4)
   13654:	0000                	unimp
   13656:	0000                	unimp
   13658:	ff00                	fsw	fs0,56(a4)
   1365a:	0000                	unimp
   1365c:	0000                	unimp
   1365e:	0000                	unimp
   13660:	00ff                	0xff
   13662:	0000                	unimp
   13664:	00ff                	0xff
   13666:	0000                	unimp
   13668:	00ff                	0xff
   1366a:	ff00                	fsw	fs0,56(a4)
   1366c:	00ff                	0xff
   1366e:	0000                	unimp
   13670:	00ff                	0xff
   13672:	0000                	unimp
   13674:	00ff                	0xff
   13676:	0000                	unimp
   13678:	00ff                	0xff
   1367a:	0000                	unimp
   1367c:	0000                	unimp
   1367e:	0000                	unimp
   13680:	00ff                	0xff
   13682:	00ff                	0xff
   13684:	00ff                	0xff
   13686:	0000                	unimp
   13688:	00ff                	0xff
   1368a:	ff00                	fsw	fs0,56(a4)
   1368c:	0000                	unimp
   1368e:	0000                	unimp
   13690:	00ff                	0xff
   13692:	0000                	unimp
   13694:	00ff                	0xff
   13696:	0000                	unimp
   13698:	0000                	unimp
   1369a:	00ff                	0xff
   1369c:	0000                	unimp
   1369e:	0000                	unimp
   136a0:	00ff                	0xff
   136a2:	0000                	unimp
   136a4:	00ff                	0xff
   136a6:	0000                	unimp
   136a8:	0000                	unimp
   136aa:	00ff                	0xff
   136ac:	0000                	unimp
   136ae:	0000                	unimp
   136b0:	ff00                	fsw	fs0,56(a4)
   136b2:	ff00                	fsw	fs0,56(a4)
   136b4:	0000                	unimp
   136b6:	0000                	unimp
   136b8:	00ff                	0xff
   136ba:	0000                	unimp
   136bc:	00ff                	0xff
   136be:	0000                	unimp
   136c0:	0000                	unimp
   136c2:	00ff                	0xff
   136c4:	0000                	unimp
   136c6:	0000                	unimp
   136c8:	ff00                	fsw	fs0,56(a4)
	...
   136d2:	00ff                	0xff
   136d4:	0000                	unimp
   136d6:	0000                	unimp
   136d8:	0000                	unimp
   136da:	ff00                	fsw	fs0,56(a4)
   136dc:	0000                	unimp
   136de:	0000                	unimp
   136e0:	0000                	unimp
   136e2:	00ff                	0xff
	...
   136f8:	ff00                	fsw	fs0,56(a4)
   136fa:	0000                	unimp
   136fc:	0000                	unimp
   136fe:	0000                	unimp
   13700:	00ff                	0xff
   13702:	0000                	unimp
   13704:	00ff                	0xff
   13706:	0000                	unimp
   13708:	ffff                	0xffff
   1370a:	ffff                	0xffff
   1370c:	0000                	unimp
   1370e:	0000                	unimp
   13710:	ff00                	fsw	fs0,56(a4)
   13712:	ffff                	0xffff
   13714:	0000                	unimp
   13716:	0000                	unimp
   13718:	ffff                	0xffff
   1371a:	00ff                	0xff
   1371c:	0000                	unimp
   1371e:	0000                	unimp
   13720:	ff00                	fsw	fs0,56(a4)
   13722:	ffff                	0xffff
   13724:	00ff                	0xff
   13726:	0000                	unimp
   13728:	ff00                	fsw	fs0,56(a4)
   1372a:	0000                	unimp
   1372c:	0000                	unimp
   1372e:	0000                	unimp
   13730:	ff00                	fsw	fs0,56(a4)
   13732:	ffff                	0xffff
   13734:	0000                	unimp
   13736:	0000                	unimp
   13738:	00ff                	0xff
   1373a:	0000                	unimp
   1373c:	00ff                	0xff
   1373e:	0000                	unimp
   13740:	0000                	unimp
   13742:	00ff                	0xff
   13744:	0000                	unimp
   13746:	0000                	unimp
   13748:	ff00                	fsw	fs0,56(a4)
   1374a:	ffff                	0xffff
   1374c:	0000                	unimp
   1374e:	0000                	unimp
   13750:	00ff                	0xff
   13752:	0000                	unimp
   13754:	00ff                	0xff
   13756:	0000                	unimp
   13758:	ff00                	fsw	fs0,56(a4)
   1375a:	ffff                	0xffff
   1375c:	00ff                	0xff
   1375e:	0000                	unimp
   13760:	00ff                	0xff
   13762:	0000                	unimp
   13764:	00ff                	0xff
   13766:	0000                	unimp
   13768:	00ff                	0xff
   1376a:	0000                	unimp
   1376c:	00ff                	0xff
   1376e:	0000                	unimp
   13770:	ff00                	fsw	fs0,56(a4)
   13772:	ffff                	0xffff
   13774:	0000                	unimp
   13776:	0000                	unimp
   13778:	00ff                	0xff
   1377a:	0000                	unimp
   1377c:	0000                	unimp
   1377e:	0000                	unimp
   13780:	ff00                	fsw	fs0,56(a4)
   13782:	ffff                	0xffff
   13784:	0000                	unimp
   13786:	0000                	unimp
   13788:	00ff                	0xff
   1378a:	0000                	unimp
   1378c:	00ff                	0xff
   1378e:	0000                	unimp
   13790:	ff00                	fsw	fs0,56(a4)
   13792:	ffff                	0xffff
   13794:	0000                	unimp
   13796:	0000                	unimp
   13798:	0000                	unimp
   1379a:	00ff                	0xff
   1379c:	0000                	unimp
   1379e:	0000                	unimp
   137a0:	ff00                	fsw	fs0,56(a4)
   137a2:	ffff                	0xffff
   137a4:	0000                	unimp
   137a6:	0000                	unimp
   137a8:	0000                	unimp
   137aa:	00ff                	0xff
   137ac:	0000                	unimp
   137ae:	0000                	unimp
   137b0:	ff00                	fsw	fs0,56(a4)
   137b2:	ff00                	fsw	fs0,56(a4)
   137b4:	0000                	unimp
   137b6:	0000                	unimp
   137b8:	00ff                	0xff
   137ba:	0000                	unimp
   137bc:	00ff                	0xff
   137be:	0000                	unimp
   137c0:	0000                	unimp
   137c2:	00ff                	0xff
   137c4:	0000                	unimp
   137c6:	0000                	unimp
   137c8:	ff00                	fsw	fs0,56(a4)
   137ca:	ffff                	0xffff
   137cc:	00ff                	0xff
   137ce:	0000                	unimp
   137d0:	0000                	unimp
   137d2:	00ff                	0xff
	...
   137dc:	00ff                	0xff
   137de:	0000                	unimp
   137e0:	0000                	unimp
   137e2:	00ff                	0xff
	...
   137f8:	0000                	unimp
   137fa:	ffff                	0xffff
	...
   13880:	0000                	unimp
   13882:	ff00                	fsw	fs0,56(a4)
	...
   138d0:	0000                	unimp
   138d2:	ffff                	0xffff
	...
   138dc:	00ff                	0xff
   138de:	0000                	unimp
   138e0:	ff00                	fsw	fs0,56(a4)
   138e2:	00ff                	0xff
	...
   138f0:	ffff                	0xffff
   138f2:	ffff                	0xffff
   138f4:	ffff                	0xffff
   138f6:	0000                	unimp
   138f8:	0000                	unimp
   138fa:	ffff                	0xffff
	...
   13908:	ff00                	fsw	fs0,56(a4)
	...
   1391a:	0000                	unimp
   1391c:	00ff                	0xff
	...
   1392a:	ff00                	fsw	fs0,56(a4)
   1392c:	00ff                	0xff
	...
   13936:	0000                	unimp
   13938:	ff00                	fsw	fs0,56(a4)
	...
   13942:	00ff                	0xff
   13944:	0000                	unimp
   13946:	0000                	unimp
   13948:	0000                	unimp
   1394a:	ff00                	fsw	fs0,56(a4)
   1394c:	0000                	unimp
   1394e:	0000                	unimp
   13950:	ff00                	fsw	fs0,56(a4)
	...
   1395a:	00ff                	0xff
	...
   13998:	0000                	unimp
   1399a:	00ff                	0xff
	...
   139d0:	0000                	unimp
   139d2:	ff00                	fsw	fs0,56(a4)
   139d4:	0000                	unimp
   139d6:	0000                	unimp
   139d8:	0000                	unimp
   139da:	00ff                	0xff
   139dc:	0000                	unimp
   139de:	0000                	unimp
   139e0:	ff00                	fsw	fs0,56(a4)
   139e2:	0000                	unimp
   139e4:	0000                	unimp
   139e6:	0000                	unimp
   139e8:	ff00                	fsw	fs0,56(a4)
   139ea:	00ff                	0xff
   139ec:	00ff                	0xff
   139ee:	0000                	unimp
   139f0:	0000                	unimp
   139f2:	ffff                	0xffff
   139f4:	0000                	unimp
   139f6:	0000                	unimp
   139f8:	ff00                	fsw	fs0,56(a4)
	...
   13a06:	0000                	unimp
   13a08:	ff00                	fsw	fs0,56(a4)
	...
   13a1a:	0000                	unimp
   13a1c:	00ff                	0xff
	...
   13a2a:	00ff                	0xff
	...
   13a38:	ff00                	fsw	fs0,56(a4)
	...
   13a4e:	0000                	unimp
   13a50:	ff00                	fsw	fs0,56(a4)
	...
   13a5a:	00ff                	0xff
	...
   13a98:	0000                	unimp
   13a9a:	00ff                	0xff
	...
   13ad0:	0000                	unimp
   13ad2:	00ff                	0xff
   13ad4:	0000                	unimp
   13ad6:	0000                	unimp
   13ad8:	0000                	unimp
   13ada:	00ff                	0xff
   13adc:	0000                	unimp
   13ade:	0000                	unimp
   13ae0:	0000                	unimp
   13ae2:	00ff                	0xff
   13ae4:	0000                	unimp
   13ae6:	0000                	unimp
   13ae8:	00ff                	0xff
   13aea:	ffff                	0xffff
   13aec:	0000                	unimp
   13aee:	0000                	unimp
   13af0:	ff00                	fsw	fs0,56(a4)
   13af2:	0000                	unimp
   13af4:	00ff                	0xff
   13af6:	0000                	unimp
   13af8:	ff00                	fsw	fs0,56(a4)
	...
   13b02:	ffff                	0xffff
   13b04:	0000                	unimp
   13b06:	0000                	unimp
   13b08:	ff00                	fsw	fs0,56(a4)
   13b0a:	ffff                	0xffff
   13b0c:	0000                	unimp
   13b0e:	0000                	unimp
   13b10:	0000                	unimp
   13b12:	ffff                	0xffff
   13b14:	0000                	unimp
   13b16:	0000                	unimp
   13b18:	0000                	unimp
   13b1a:	ffff                	0xffff
   13b1c:	00ff                	0xff
   13b1e:	0000                	unimp
   13b20:	0000                	unimp
   13b22:	ffff                	0xffff
   13b24:	0000                	unimp
   13b26:	0000                	unimp
   13b28:	ff00                	fsw	fs0,56(a4)
   13b2a:	ffff                	0xffff
   13b2c:	0000                	unimp
   13b2e:	0000                	unimp
   13b30:	0000                	unimp
   13b32:	ffff                	0xffff
   13b34:	00ff                	0xff
   13b36:	0000                	unimp
   13b38:	ff00                	fsw	fs0,56(a4)
   13b3a:	ffff                	0xffff
   13b3c:	0000                	unimp
   13b3e:	0000                	unimp
   13b40:	0000                	unimp
   13b42:	00ff                	0xff
   13b44:	0000                	unimp
   13b46:	0000                	unimp
   13b48:	0000                	unimp
   13b4a:	ff00                	fsw	fs0,56(a4)
   13b4c:	0000                	unimp
   13b4e:	0000                	unimp
   13b50:	ff00                	fsw	fs0,56(a4)
   13b52:	0000                	unimp
   13b54:	00ff                	0xff
   13b56:	0000                	unimp
   13b58:	0000                	unimp
   13b5a:	00ff                	0xff
   13b5c:	0000                	unimp
   13b5e:	0000                	unimp
   13b60:	ffff                	0xffff
   13b62:	ff00                	fsw	fs0,56(a4)
   13b64:	0000                	unimp
   13b66:	0000                	unimp
   13b68:	ff00                	fsw	fs0,56(a4)
   13b6a:	ffff                	0xffff
   13b6c:	0000                	unimp
   13b6e:	0000                	unimp
   13b70:	0000                	unimp
   13b72:	ffff                	0xffff
   13b74:	0000                	unimp
   13b76:	0000                	unimp
   13b78:	ff00                	fsw	fs0,56(a4)
   13b7a:	ffff                	0xffff
   13b7c:	0000                	unimp
   13b7e:	0000                	unimp
   13b80:	0000                	unimp
   13b82:	ffff                	0xffff
   13b84:	00ff                	0xff
   13b86:	0000                	unimp
   13b88:	ff00                	fsw	fs0,56(a4)
   13b8a:	ff00                	fsw	fs0,56(a4)
   13b8c:	00ff                	0xff
   13b8e:	0000                	unimp
   13b90:	0000                	unimp
   13b92:	ffff                	0xffff
   13b94:	00ff                	0xff
   13b96:	0000                	unimp
   13b98:	ff00                	fsw	fs0,56(a4)
   13b9a:	ffff                	0xffff
   13b9c:	0000                	unimp
   13b9e:	0000                	unimp
   13ba0:	ff00                	fsw	fs0,56(a4)
   13ba2:	0000                	unimp
   13ba4:	00ff                	0xff
   13ba6:	0000                	unimp
   13ba8:	00ff                	0xff
   13baa:	0000                	unimp
   13bac:	00ff                	0xff
   13bae:	0000                	unimp
   13bb0:	00ff                	0xff
   13bb2:	0000                	unimp
   13bb4:	00ff                	0xff
   13bb6:	0000                	unimp
   13bb8:	00ff                	0xff
   13bba:	0000                	unimp
   13bbc:	00ff                	0xff
   13bbe:	0000                	unimp
   13bc0:	00ff                	0xff
   13bc2:	0000                	unimp
   13bc4:	00ff                	0xff
   13bc6:	0000                	unimp
   13bc8:	ff00                	fsw	fs0,56(a4)
   13bca:	ffff                	0xffff
   13bcc:	00ff                	0xff
   13bce:	0000                	unimp
   13bd0:	0000                	unimp
   13bd2:	00ff                	0xff
   13bd4:	0000                	unimp
   13bd6:	0000                	unimp
   13bd8:	0000                	unimp
   13bda:	00ff                	0xff
   13bdc:	0000                	unimp
   13bde:	0000                	unimp
   13be0:	0000                	unimp
   13be2:	00ff                	0xff
	...
   13bf0:	00ff                	0xff
   13bf2:	ffff                	0xffff
   13bf4:	ff00                	fsw	fs0,56(a4)
   13bf6:	0000                	unimp
   13bf8:	ffff                	0xffff
   13bfa:	00ff                	0xff
	...
   13c04:	00ff                	0xff
   13c06:	0000                	unimp
   13c08:	ff00                	fsw	fs0,56(a4)
   13c0a:	0000                	unimp
   13c0c:	00ff                	0xff
   13c0e:	0000                	unimp
   13c10:	ff00                	fsw	fs0,56(a4)
   13c12:	0000                	unimp
   13c14:	00ff                	0xff
   13c16:	0000                	unimp
   13c18:	ff00                	fsw	fs0,56(a4)
   13c1a:	0000                	unimp
   13c1c:	00ff                	0xff
   13c1e:	0000                	unimp
   13c20:	ff00                	fsw	fs0,56(a4)
   13c22:	0000                	unimp
   13c24:	00ff                	0xff
   13c26:	0000                	unimp
   13c28:	0000                	unimp
   13c2a:	00ff                	0xff
   13c2c:	0000                	unimp
   13c2e:	0000                	unimp
   13c30:	ff00                	fsw	fs0,56(a4)
   13c32:	0000                	unimp
   13c34:	00ff                	0xff
   13c36:	0000                	unimp
   13c38:	ff00                	fsw	fs0,56(a4)
   13c3a:	0000                	unimp
   13c3c:	00ff                	0xff
   13c3e:	0000                	unimp
   13c40:	0000                	unimp
   13c42:	00ff                	0xff
   13c44:	0000                	unimp
   13c46:	0000                	unimp
   13c48:	0000                	unimp
   13c4a:	ff00                	fsw	fs0,56(a4)
   13c4c:	0000                	unimp
   13c4e:	0000                	unimp
   13c50:	ff00                	fsw	fs0,56(a4)
   13c52:	ff00                	fsw	fs0,56(a4)
   13c54:	0000                	unimp
   13c56:	0000                	unimp
   13c58:	0000                	unimp
   13c5a:	00ff                	0xff
   13c5c:	0000                	unimp
   13c5e:	0000                	unimp
   13c60:	00ff                	0xff
   13c62:	00ff                	0xff
   13c64:	00ff                	0xff
   13c66:	0000                	unimp
   13c68:	ff00                	fsw	fs0,56(a4)
   13c6a:	0000                	unimp
   13c6c:	00ff                	0xff
   13c6e:	0000                	unimp
   13c70:	ff00                	fsw	fs0,56(a4)
   13c72:	0000                	unimp
   13c74:	00ff                	0xff
   13c76:	0000                	unimp
   13c78:	ff00                	fsw	fs0,56(a4)
   13c7a:	0000                	unimp
   13c7c:	00ff                	0xff
   13c7e:	0000                	unimp
   13c80:	ff00                	fsw	fs0,56(a4)
   13c82:	0000                	unimp
   13c84:	00ff                	0xff
   13c86:	0000                	unimp
   13c88:	ff00                	fsw	fs0,56(a4)
   13c8a:	00ff                	0xff
   13c8c:	0000                	unimp
   13c8e:	0000                	unimp
   13c90:	ff00                	fsw	fs0,56(a4)
	...
   13c9a:	00ff                	0xff
   13c9c:	0000                	unimp
   13c9e:	0000                	unimp
   13ca0:	ff00                	fsw	fs0,56(a4)
   13ca2:	0000                	unimp
   13ca4:	00ff                	0xff
   13ca6:	0000                	unimp
   13ca8:	ff00                	fsw	fs0,56(a4)
   13caa:	ff00                	fsw	fs0,56(a4)
   13cac:	0000                	unimp
   13cae:	0000                	unimp
   13cb0:	00ff                	0xff
   13cb2:	0000                	unimp
   13cb4:	00ff                	0xff
   13cb6:	0000                	unimp
   13cb8:	ff00                	fsw	fs0,56(a4)
   13cba:	ff00                	fsw	fs0,56(a4)
   13cbc:	0000                	unimp
   13cbe:	0000                	unimp
   13cc0:	ff00                	fsw	fs0,56(a4)
   13cc2:	ff00                	fsw	fs0,56(a4)
   13cc4:	0000                	unimp
   13cc6:	0000                	unimp
   13cc8:	0000                	unimp
   13cca:	ff00                	fsw	fs0,56(a4)
   13ccc:	0000                	unimp
   13cce:	0000                	unimp
   13cd0:	ff00                	fsw	fs0,56(a4)
	...
   13ce2:	ff00                	fsw	fs0,56(a4)
	...
   13cf0:	ffff                	0xffff
   13cf2:	0000                	unimp
   13cf4:	ff00                	fsw	fs0,56(a4)
   13cf6:	0000                	unimp
   13cf8:	ff00                	fsw	fs0,56(a4)
	...
   13d02:	ffff                	0xffff
   13d04:	00ff                	0xff
   13d06:	0000                	unimp
   13d08:	ff00                	fsw	fs0,56(a4)
   13d0a:	0000                	unimp
   13d0c:	00ff                	0xff
   13d0e:	0000                	unimp
   13d10:	ff00                	fsw	fs0,56(a4)
   13d12:	0000                	unimp
   13d14:	0000                	unimp
   13d16:	0000                	unimp
   13d18:	ff00                	fsw	fs0,56(a4)
   13d1a:	0000                	unimp
   13d1c:	00ff                	0xff
   13d1e:	0000                	unimp
   13d20:	ff00                	fsw	fs0,56(a4)
   13d22:	ffff                	0xffff
   13d24:	00ff                	0xff
   13d26:	0000                	unimp
   13d28:	0000                	unimp
   13d2a:	00ff                	0xff
   13d2c:	0000                	unimp
   13d2e:	0000                	unimp
   13d30:	ff00                	fsw	fs0,56(a4)
   13d32:	0000                	unimp
   13d34:	00ff                	0xff
   13d36:	0000                	unimp
   13d38:	ff00                	fsw	fs0,56(a4)
   13d3a:	0000                	unimp
   13d3c:	00ff                	0xff
   13d3e:	0000                	unimp
   13d40:	0000                	unimp
   13d42:	00ff                	0xff
   13d44:	0000                	unimp
   13d46:	0000                	unimp
   13d48:	0000                	unimp
   13d4a:	ff00                	fsw	fs0,56(a4)
   13d4c:	0000                	unimp
   13d4e:	0000                	unimp
   13d50:	ff00                	fsw	fs0,56(a4)
   13d52:	00ff                	0xff
   13d54:	0000                	unimp
   13d56:	0000                	unimp
   13d58:	0000                	unimp
   13d5a:	00ff                	0xff
   13d5c:	0000                	unimp
   13d5e:	0000                	unimp
   13d60:	00ff                	0xff
   13d62:	00ff                	0xff
   13d64:	00ff                	0xff
   13d66:	0000                	unimp
   13d68:	ff00                	fsw	fs0,56(a4)
   13d6a:	0000                	unimp
   13d6c:	00ff                	0xff
   13d6e:	0000                	unimp
   13d70:	ff00                	fsw	fs0,56(a4)
   13d72:	0000                	unimp
   13d74:	00ff                	0xff
   13d76:	0000                	unimp
   13d78:	ff00                	fsw	fs0,56(a4)
   13d7a:	0000                	unimp
   13d7c:	00ff                	0xff
   13d7e:	0000                	unimp
   13d80:	ff00                	fsw	fs0,56(a4)
   13d82:	0000                	unimp
   13d84:	00ff                	0xff
   13d86:	0000                	unimp
   13d88:	ff00                	fsw	fs0,56(a4)
	...
   13d92:	ffff                	0xffff
   13d94:	0000                	unimp
   13d96:	0000                	unimp
   13d98:	0000                	unimp
   13d9a:	00ff                	0xff
   13d9c:	0000                	unimp
   13d9e:	0000                	unimp
   13da0:	ff00                	fsw	fs0,56(a4)
   13da2:	0000                	unimp
   13da4:	00ff                	0xff
   13da6:	0000                	unimp
   13da8:	ff00                	fsw	fs0,56(a4)
   13daa:	ff00                	fsw	fs0,56(a4)
   13dac:	0000                	unimp
   13dae:	0000                	unimp
   13db0:	00ff                	0xff
   13db2:	00ff                	0xff
   13db4:	00ff                	0xff
   13db6:	0000                	unimp
   13db8:	0000                	unimp
   13dba:	00ff                	0xff
   13dbc:	0000                	unimp
   13dbe:	0000                	unimp
   13dc0:	ff00                	fsw	fs0,56(a4)
   13dc2:	ff00                	fsw	fs0,56(a4)
   13dc4:	0000                	unimp
   13dc6:	0000                	unimp
   13dc8:	0000                	unimp
   13dca:	00ff                	0xff
   13dcc:	0000                	unimp
   13dce:	0000                	unimp
   13dd0:	0000                	unimp
   13dd2:	00ff                	0xff
	...
   13de0:	0000                	unimp
   13de2:	00ff                	0xff
	...
   13df0:	ffff                	0xffff
   13df2:	0000                	unimp
   13df4:	ff00                	fsw	fs0,56(a4)
   13df6:	0000                	unimp
   13df8:	ff00                	fsw	fs0,56(a4)
   13dfa:	0000                	unimp
   13dfc:	00ff                	0xff
   13dfe:	0000                	unimp
   13e00:	ff00                	fsw	fs0,56(a4)
   13e02:	0000                	unimp
   13e04:	00ff                	0xff
   13e06:	0000                	unimp
   13e08:	ff00                	fsw	fs0,56(a4)
   13e0a:	0000                	unimp
   13e0c:	00ff                	0xff
   13e0e:	0000                	unimp
   13e10:	ff00                	fsw	fs0,56(a4)
   13e12:	0000                	unimp
   13e14:	00ff                	0xff
   13e16:	0000                	unimp
   13e18:	ff00                	fsw	fs0,56(a4)
   13e1a:	0000                	unimp
   13e1c:	00ff                	0xff
   13e1e:	0000                	unimp
   13e20:	ff00                	fsw	fs0,56(a4)
	...
   13e2a:	00ff                	0xff
   13e2c:	0000                	unimp
   13e2e:	0000                	unimp
   13e30:	0000                	unimp
   13e32:	ffff                	0xffff
   13e34:	00ff                	0xff
   13e36:	0000                	unimp
   13e38:	ff00                	fsw	fs0,56(a4)
   13e3a:	0000                	unimp
   13e3c:	00ff                	0xff
   13e3e:	0000                	unimp
   13e40:	0000                	unimp
   13e42:	00ff                	0xff
   13e44:	0000                	unimp
   13e46:	0000                	unimp
   13e48:	0000                	unimp
   13e4a:	ff00                	fsw	fs0,56(a4)
   13e4c:	0000                	unimp
   13e4e:	0000                	unimp
   13e50:	ff00                	fsw	fs0,56(a4)
   13e52:	ff00                	fsw	fs0,56(a4)
   13e54:	0000                	unimp
   13e56:	0000                	unimp
   13e58:	0000                	unimp
   13e5a:	00ff                	0xff
   13e5c:	0000                	unimp
   13e5e:	0000                	unimp
   13e60:	00ff                	0xff
   13e62:	00ff                	0xff
   13e64:	00ff                	0xff
   13e66:	0000                	unimp
   13e68:	ff00                	fsw	fs0,56(a4)
   13e6a:	0000                	unimp
   13e6c:	00ff                	0xff
   13e6e:	0000                	unimp
   13e70:	ff00                	fsw	fs0,56(a4)
   13e72:	0000                	unimp
   13e74:	00ff                	0xff
   13e76:	0000                	unimp
   13e78:	ff00                	fsw	fs0,56(a4)
   13e7a:	ffff                	0xffff
   13e7c:	0000                	unimp
   13e7e:	0000                	unimp
   13e80:	0000                	unimp
   13e82:	ffff                	0xffff
   13e84:	00ff                	0xff
   13e86:	0000                	unimp
   13e88:	ff00                	fsw	fs0,56(a4)
	...
   13e92:	0000                	unimp
   13e94:	00ff                	0xff
   13e96:	0000                	unimp
   13e98:	0000                	unimp
   13e9a:	00ff                	0xff
   13e9c:	0000                	unimp
   13e9e:	0000                	unimp
   13ea0:	ff00                	fsw	fs0,56(a4)
   13ea2:	0000                	unimp
   13ea4:	00ff                	0xff
   13ea6:	0000                	unimp
   13ea8:	0000                	unimp
   13eaa:	00ff                	0xff
   13eac:	0000                	unimp
   13eae:	0000                	unimp
   13eb0:	ff00                	fsw	fs0,56(a4)
   13eb2:	ff00                	fsw	fs0,56(a4)
   13eb4:	0000                	unimp
   13eb6:	0000                	unimp
   13eb8:	ff00                	fsw	fs0,56(a4)
   13eba:	ff00                	fsw	fs0,56(a4)
   13ebc:	0000                	unimp
   13ebe:	0000                	unimp
   13ec0:	0000                	unimp
   13ec2:	00ff                	0xff
   13ec4:	0000                	unimp
   13ec6:	0000                	unimp
   13ec8:	ff00                	fsw	fs0,56(a4)
	...
   13ed2:	00ff                	0xff
   13ed4:	0000                	unimp
   13ed6:	0000                	unimp
   13ed8:	0000                	unimp
   13eda:	00ff                	0xff
   13edc:	0000                	unimp
   13ede:	0000                	unimp
   13ee0:	0000                	unimp
   13ee2:	00ff                	0xff
	...
   13ef0:	00ff                	0xff
   13ef2:	ffff                	0xffff
   13ef4:	ff00                	fsw	fs0,56(a4)
   13ef6:	0000                	unimp
   13ef8:	ffff                	0xffff
   13efa:	ffff                	0xffff
   13efc:	0000                	unimp
   13efe:	0000                	unimp
   13f00:	0000                	unimp
   13f02:	ffff                	0xffff
   13f04:	00ff                	0xff
   13f06:	0000                	unimp
   13f08:	ff00                	fsw	fs0,56(a4)
   13f0a:	ffff                	0xffff
   13f0c:	0000                	unimp
   13f0e:	0000                	unimp
   13f10:	0000                	unimp
   13f12:	ffff                	0xffff
   13f14:	0000                	unimp
   13f16:	0000                	unimp
   13f18:	0000                	unimp
   13f1a:	ffff                	0xffff
   13f1c:	00ff                	0xff
   13f1e:	0000                	unimp
   13f20:	0000                	unimp
   13f22:	ffff                	0xffff
   13f24:	0000                	unimp
   13f26:	0000                	unimp
   13f28:	0000                	unimp
   13f2a:	00ff                	0xff
	...
   13f34:	00ff                	0xff
   13f36:	0000                	unimp
   13f38:	ff00                	fsw	fs0,56(a4)
   13f3a:	0000                	unimp
   13f3c:	00ff                	0xff
   13f3e:	0000                	unimp
   13f40:	0000                	unimp
   13f42:	00ff                	0xff
   13f44:	0000                	unimp
   13f46:	0000                	unimp
   13f48:	0000                	unimp
   13f4a:	ff00                	fsw	fs0,56(a4)
   13f4c:	0000                	unimp
   13f4e:	0000                	unimp
   13f50:	ff00                	fsw	fs0,56(a4)
   13f52:	0000                	unimp
   13f54:	00ff                	0xff
   13f56:	0000                	unimp
   13f58:	0000                	unimp
   13f5a:	ff00                	fsw	fs0,56(a4)
   13f5c:	0000                	unimp
   13f5e:	0000                	unimp
   13f60:	00ff                	0xff
   13f62:	00ff                	0xff
   13f64:	00ff                	0xff
   13f66:	0000                	unimp
   13f68:	ff00                	fsw	fs0,56(a4)
   13f6a:	0000                	unimp
   13f6c:	00ff                	0xff
   13f6e:	0000                	unimp
   13f70:	0000                	unimp
   13f72:	ffff                	0xffff
   13f74:	0000                	unimp
   13f76:	0000                	unimp
   13f78:	ff00                	fsw	fs0,56(a4)
	...
   13f82:	0000                	unimp
   13f84:	00ff                	0xff
   13f86:	0000                	unimp
   13f88:	ff00                	fsw	fs0,56(a4)
   13f8a:	0000                	unimp
   13f8c:	0000                	unimp
   13f8e:	0000                	unimp
   13f90:	ff00                	fsw	fs0,56(a4)
   13f92:	ffff                	0xffff
   13f94:	0000                	unimp
   13f96:	0000                	unimp
   13f98:	0000                	unimp
   13f9a:	ff00                	fsw	fs0,56(a4)
   13f9c:	0000                	unimp
   13f9e:	0000                	unimp
   13fa0:	0000                	unimp
   13fa2:	ffff                	0xffff
   13fa4:	0000                	unimp
   13fa6:	0000                	unimp
   13fa8:	0000                	unimp
   13faa:	00ff                	0xff
   13fac:	0000                	unimp
   13fae:	0000                	unimp
   13fb0:	ff00                	fsw	fs0,56(a4)
   13fb2:	ff00                	fsw	fs0,56(a4)
   13fb4:	0000                	unimp
   13fb6:	0000                	unimp
   13fb8:	00ff                	0xff
   13fba:	0000                	unimp
   13fbc:	00ff                	0xff
   13fbe:	0000                	unimp
   13fc0:	0000                	unimp
   13fc2:	00ff                	0xff
   13fc4:	0000                	unimp
   13fc6:	0000                	unimp
   13fc8:	ff00                	fsw	fs0,56(a4)
   13fca:	ffff                	0xffff
   13fcc:	00ff                	0xff
   13fce:	0000                	unimp
   13fd0:	0000                	unimp
   13fd2:	00ff                	0xff
   13fd4:	0000                	unimp
   13fd6:	0000                	unimp
   13fd8:	0000                	unimp
   13fda:	00ff                	0xff
   13fdc:	0000                	unimp
   13fde:	0000                	unimp
   13fe0:	0000                	unimp
   13fe2:	00ff                	0xff
	...
   13ff0:	ff00                	fsw	fs0,56(a4)
   13ff2:	0000                	unimp
   13ff4:	00ff                	0xff
	...
   14032:	ffff                	0xffff
	...
   14048:	ff00                	fsw	fs0,56(a4)
   1404a:	00ff                	0xff
	...
   14078:	ff00                	fsw	fs0,56(a4)
	...
   14082:	0000                	unimp
   14084:	00ff                	0xff
	...
   140be:	0000                	unimp
   140c0:	ffff                	0xffff
	...
   140d2:	ff00                	fsw	fs0,56(a4)
   140d4:	0000                	unimp
   140d6:	0000                	unimp
   140d8:	0000                	unimp
   140da:	00ff                	0xff
   140dc:	0000                	unimp
   140de:	0000                	unimp
   140e0:	ff00                	fsw	fs0,56(a4)
	...
   140f2:	ffff                	0xffff
   140f4:	0000                	unimp
	...

000140f8 <__clz_tab>:
   140f8:	0100                	addi	s0,sp,128
   140fa:	0202                	c.slli64	tp
   140fc:	03030303          	lb	t1,48(t1) # ffff8030 <__global_pointer$+0xfffe22e8>
   14100:	0404                	addi	s1,sp,512
   14102:	0404                	addi	s1,sp,512
   14104:	0404                	addi	s1,sp,512
   14106:	0404                	addi	s1,sp,512
   14108:	0505                	addi	a0,a0,1
   1410a:	0505                	addi	a0,a0,1
   1410c:	0505                	addi	a0,a0,1
   1410e:	0505                	addi	a0,a0,1
   14110:	0505                	addi	a0,a0,1
   14112:	0505                	addi	a0,a0,1
   14114:	0505                	addi	a0,a0,1
   14116:	0505                	addi	a0,a0,1
   14118:	0606                	slli	a2,a2,0x1
   1411a:	0606                	slli	a2,a2,0x1
   1411c:	0606                	slli	a2,a2,0x1
   1411e:	0606                	slli	a2,a2,0x1
   14120:	0606                	slli	a2,a2,0x1
   14122:	0606                	slli	a2,a2,0x1
   14124:	0606                	slli	a2,a2,0x1
   14126:	0606                	slli	a2,a2,0x1
   14128:	0606                	slli	a2,a2,0x1
   1412a:	0606                	slli	a2,a2,0x1
   1412c:	0606                	slli	a2,a2,0x1
   1412e:	0606                	slli	a2,a2,0x1
   14130:	0606                	slli	a2,a2,0x1
   14132:	0606                	slli	a2,a2,0x1
   14134:	0606                	slli	a2,a2,0x1
   14136:	0606                	slli	a2,a2,0x1
   14138:	07070707          	0x7070707
   1413c:	07070707          	0x7070707
   14140:	07070707          	0x7070707
   14144:	07070707          	0x7070707
   14148:	07070707          	0x7070707
   1414c:	07070707          	0x7070707
   14150:	07070707          	0x7070707
   14154:	07070707          	0x7070707
   14158:	07070707          	0x7070707
   1415c:	07070707          	0x7070707
   14160:	07070707          	0x7070707
   14164:	07070707          	0x7070707
   14168:	07070707          	0x7070707
   1416c:	07070707          	0x7070707
   14170:	07070707          	0x7070707
   14174:	07070707          	0x7070707
   14178:	0808                	addi	a0,sp,16
   1417a:	0808                	addi	a0,sp,16
   1417c:	0808                	addi	a0,sp,16
   1417e:	0808                	addi	a0,sp,16
   14180:	0808                	addi	a0,sp,16
   14182:	0808                	addi	a0,sp,16
   14184:	0808                	addi	a0,sp,16
   14186:	0808                	addi	a0,sp,16
   14188:	0808                	addi	a0,sp,16
   1418a:	0808                	addi	a0,sp,16
   1418c:	0808                	addi	a0,sp,16
   1418e:	0808                	addi	a0,sp,16
   14190:	0808                	addi	a0,sp,16
   14192:	0808                	addi	a0,sp,16
   14194:	0808                	addi	a0,sp,16
   14196:	0808                	addi	a0,sp,16
   14198:	0808                	addi	a0,sp,16
   1419a:	0808                	addi	a0,sp,16
   1419c:	0808                	addi	a0,sp,16
   1419e:	0808                	addi	a0,sp,16
   141a0:	0808                	addi	a0,sp,16
   141a2:	0808                	addi	a0,sp,16
   141a4:	0808                	addi	a0,sp,16
   141a6:	0808                	addi	a0,sp,16
   141a8:	0808                	addi	a0,sp,16
   141aa:	0808                	addi	a0,sp,16
   141ac:	0808                	addi	a0,sp,16
   141ae:	0808                	addi	a0,sp,16
   141b0:	0808                	addi	a0,sp,16
   141b2:	0808                	addi	a0,sp,16
   141b4:	0808                	addi	a0,sp,16
   141b6:	0808                	addi	a0,sp,16
   141b8:	0808                	addi	a0,sp,16
   141ba:	0808                	addi	a0,sp,16
   141bc:	0808                	addi	a0,sp,16
   141be:	0808                	addi	a0,sp,16
   141c0:	0808                	addi	a0,sp,16
   141c2:	0808                	addi	a0,sp,16
   141c4:	0808                	addi	a0,sp,16
   141c6:	0808                	addi	a0,sp,16
   141c8:	0808                	addi	a0,sp,16
   141ca:	0808                	addi	a0,sp,16
   141cc:	0808                	addi	a0,sp,16
   141ce:	0808                	addi	a0,sp,16
   141d0:	0808                	addi	a0,sp,16
   141d2:	0808                	addi	a0,sp,16
   141d4:	0808                	addi	a0,sp,16
   141d6:	0808                	addi	a0,sp,16
   141d8:	0808                	addi	a0,sp,16
   141da:	0808                	addi	a0,sp,16
   141dc:	0808                	addi	a0,sp,16
   141de:	0808                	addi	a0,sp,16
   141e0:	0808                	addi	a0,sp,16
   141e2:	0808                	addi	a0,sp,16
   141e4:	0808                	addi	a0,sp,16
   141e6:	0808                	addi	a0,sp,16
   141e8:	0808                	addi	a0,sp,16
   141ea:	0808                	addi	a0,sp,16
   141ec:	0808                	addi	a0,sp,16
   141ee:	0808                	addi	a0,sp,16
   141f0:	0808                	addi	a0,sp,16
   141f2:	0808                	addi	a0,sp,16
   141f4:	0808                	addi	a0,sp,16
   141f6:	0808                	addi	a0,sp,16

Disassembly of section .eh_frame:

000151f8 <__EH_FRAME_BEGIN__>:
   151f8:	0010                	0x10
   151fa:	0000                	unimp
   151fc:	0000                	unimp
   151fe:	0000                	unimp
   15200:	00527a03          	0x527a03
   15204:	7c01                	lui	s8,0xfffe0
   15206:	0101                	addi	sp,sp,0
   15208:	00020d1b          	0x20d1b
   1520c:	0030                	addi	a2,sp,8
   1520e:	0000                	unimp
   15210:	0018                	0x18
   15212:	0000                	unimp
   15214:	ae60                	fsd	fs0,216(a2)
   15216:	ffff                	0xffff
   15218:	0580                	addi	s0,sp,704
   1521a:	0000                	unimp
   1521c:	4400                	lw	s0,8(s0)
   1521e:	c00e                	sw	gp,0(sp)
   15220:	01815407          	0x1815407
   15224:	0288                	addi	a0,sp,320
   15226:	0389                	addi	t2,t2,2
   15228:	0492                	slli	s1,s1,0x4
   1522a:	94680593          	addi	a1,a6,-1722
   1522e:	9506                	add	a0,a0,ra
   15230:	97089607          	0x97089607
   15234:	9809                	andi	s0,s0,-30
   15236:	9a0a                	add	s4,s4,sp
   15238:	9b0c                	0x9b0c
   1523a:	990d                	andi	a0,a0,-29
   1523c:	0000000b          	0xb
   15240:	0010                	0x10
   15242:	0000                	unimp
   15244:	004c                	addi	a1,sp,4
   15246:	0000                	unimp
   15248:	b498                	fsd	fa4,40(s1)
   1524a:	ffff                	0xffff
   1524c:	002c                	addi	a1,sp,8
   1524e:	0000                	unimp
   15250:	0000                	unimp
   15252:	0000                	unimp
   15254:	001c                	0x1c
   15256:	0000                	unimp
   15258:	0060                	addi	s0,sp,12
   1525a:	0000                	unimp
   1525c:	b4b0                	fsd	fa2,104(s1)
   1525e:	ffff                	0xffff
   15260:	013c                	addi	a5,sp,136
   15262:	0000                	unimp
   15264:	5c00                	lw	s0,56(s0)
   15266:	300e                	fld	ft0,224(sp)
   15268:	8168                	0x8168
   1526a:	0201                	addi	tp,tp,0
   1526c:	c1f0                	sw	a2,68(a1)
   1526e:	0e44                	addi	s1,sp,788
   15270:	0000                	unimp
   15272:	0000                	unimp
   15274:	0010                	0x10
   15276:	0000                	unimp
   15278:	0080                	addi	s0,sp,64
   1527a:	0000                	unimp
   1527c:	b5cc                	fsd	fa1,168(a1)
   1527e:	ffff                	0xffff
   15280:	0014                	0x14
   15282:	0000                	unimp
   15284:	0000                	unimp
   15286:	0000                	unimp
   15288:	0018                	0x18
   1528a:	0000                	unimp
   1528c:	0094                	addi	a3,sp,64
   1528e:	0000                	unimp
   15290:	b5cc                	fsd	fa1,168(a1)
   15292:	ffff                	0xffff
   15294:	0024                	addi	s1,sp,8
   15296:	0000                	unimp
   15298:	4800                	lw	s0,16(s0)
   1529a:	100e                	c.slli	zero,0x23
   1529c:	814c                	0x814c
   1529e:	4801                	li	a6,0
   152a0:	44c1                	li	s1,16
   152a2:	000e                	c.slli	zero,0x3
   152a4:	0010                	0x10
   152a6:	0000                	unimp
   152a8:	00b0                	addi	a2,sp,72
   152aa:	0000                	unimp
   152ac:	b5d4                	fsd	fa3,168(a1)
   152ae:	ffff                	0xffff
   152b0:	0044                	addi	s1,sp,4
   152b2:	0000                	unimp
   152b4:	0000                	unimp
   152b6:	0000                	unimp
   152b8:	0010                	0x10
   152ba:	0000                	unimp
   152bc:	00c4                	addi	s1,sp,68
   152be:	0000                	unimp
   152c0:	b604                	fsd	fs1,40(a2)
   152c2:	ffff                	0xffff
   152c4:	0018                	0x18
   152c6:	0000                	unimp
   152c8:	0000                	unimp
   152ca:	0000                	unimp
   152cc:	0010                	0x10
   152ce:	0000                	unimp
   152d0:	00d8                	addi	a4,sp,68
   152d2:	0000                	unimp
   152d4:	b608                	fsd	fa0,40(a2)
   152d6:	ffff                	0xffff
   152d8:	001c                	0x1c
   152da:	0000                	unimp
   152dc:	0000                	unimp
   152de:	0000                	unimp
   152e0:	0010                	0x10
   152e2:	0000                	unimp
   152e4:	00ec                	addi	a1,sp,76
   152e6:	0000                	unimp
   152e8:	b610                	fsd	fa2,40(a2)
   152ea:	ffff                	0xffff
   152ec:	003c                	addi	a5,sp,8
   152ee:	0000                	unimp
   152f0:	0000                	unimp
   152f2:	0000                	unimp
   152f4:	001c                	0x1c
   152f6:	0000                	unimp
   152f8:	0100                	addi	s0,sp,128
   152fa:	0000                	unimp
   152fc:	b638                	fsd	fa4,104(a2)
   152fe:	ffff                	0xffff
   15300:	0070                	addi	a2,sp,12
   15302:	0000                	unimp
   15304:	4400                	lw	s0,8(s0)
   15306:	100e                	c.slli	zero,0x23
   15308:	8144                	0x8144
   1530a:	0201                	addi	tp,tp,0
   1530c:	c160                	sw	s0,68(a0)
   1530e:	0e44                	addi	s1,sp,788
   15310:	0000                	unimp
   15312:	0000                	unimp
   15314:	0010                	0x10
   15316:	0000                	unimp
   15318:	0120                	addi	s0,sp,136
   1531a:	0000                	unimp
   1531c:	b688                	fsd	fa0,40(a3)
   1531e:	ffff                	0xffff
   15320:	0014                	0x14
   15322:	0000                	unimp
   15324:	0000                	unimp
   15326:	0000                	unimp
   15328:	0010                	0x10
   1532a:	0000                	unimp
   1532c:	0134                	addi	a3,sp,136
   1532e:	0000                	unimp
   15330:	b688                	fsd	fa0,40(a3)
   15332:	ffff                	0xffff
   15334:	0048                	addi	a0,sp,4
   15336:	0000                	unimp
   15338:	0000                	unimp
   1533a:	0000                	unimp
   1533c:	004c                	addi	a1,sp,4
   1533e:	0000                	unimp
   15340:	0148                	addi	a0,sp,132
   15342:	0000                	unimp
   15344:	b6bc                	fsd	fa5,104(a3)
   15346:	ffff                	0xffff
   15348:	00fc                	addi	a5,sp,76
   1534a:	0000                	unimp
   1534c:	4c00                	lw	s0,24(s0)
   1534e:	300e                	fld	ft0,224(sp)
   15350:	8864                	0x8864
   15352:	8902                	jr	s2
   15354:	93049203          	lh	tp,-1744(s1)
   15358:	9405                	srai	s0,s0,0x21
   1535a:	9506                	add	a0,a0,ra
   1535c:	97089607          	0x97089607
   15360:	8109                	srli	a0,a0,0x2
   15362:	0201                	addi	tp,tp,0
   15364:	0a6c                	addi	a1,sp,284
   15366:	44c1                	li	s1,16
   15368:	44c8                	lw	a0,12(s1)
   1536a:	44c9                	li	s1,18
   1536c:	44d2                	lw	s1,20(sp)
   1536e:	44d444d3          	0x44d444d3
   15372:	44d5                	li	s1,21
   15374:	44d6                	lw	s1,84(sp)
   15376:	000e44d7          	0xe44d7
   1537a:	0b44                	addi	s1,sp,404
   1537c:	3402                	fld	fs0,32(sp)
   1537e:	000e                	c.slli	zero,0x3
   15380:	c8c1                	beqz	s1,15410 <__EH_FRAME_BEGIN__+0x218>
   15382:	d2c9                	beqz	a3,15304 <__EH_FRAME_BEGIN__+0x10c>
   15384:	d6d5d4d3          	0xd6d5d4d3
   15388:	000000d7          	0xd7
   1538c:	0020                	addi	s0,sp,8
   1538e:	0000                	unimp
   15390:	0198                	addi	a4,sp,192
   15392:	0000                	unimp
   15394:	b768                	fsd	fa0,232(a4)
   15396:	ffff                	0xffff
   15398:	03c4                	addi	s1,sp,452
   1539a:	0000                	unimp
   1539c:	7800                	flw	fs0,48(s0)
   1539e:	300e                	fld	ft0,224(sp)
   153a0:	814c                	0x814c
   153a2:	0301                	addi	t1,t1,0
   153a4:	018c                	addi	a1,sp,192
   153a6:	c10a                	sw	sp,128(sp)
   153a8:	0e44                	addi	s1,sp,788
   153aa:	4400                	lw	s0,8(s0)
   153ac:	0000000b          	0xb
   153b0:	001c                	0x1c
   153b2:	0000                	unimp
   153b4:	01bc                	addi	a5,sp,200
   153b6:	0000                	unimp
   153b8:	bb08                	fsd	fa0,48(a4)
   153ba:	ffff                	0xffff
   153bc:	0180                	addi	s0,sp,192
   153be:	0000                	unimp
   153c0:	7800                	flw	fs0,48(s0)
   153c2:	300e                	fld	ft0,224(sp)
   153c4:	8174                	0x8174
   153c6:	0301                	addi	t1,t1,0
   153c8:	010c                	addi	a1,sp,128
   153ca:	44c1                	li	s1,16
   153cc:	000e                	c.slli	zero,0x3
   153ce:	0000                	unimp
   153d0:	001c                	0x1c
   153d2:	0000                	unimp
   153d4:	01dc                	addi	a5,sp,196
   153d6:	0000                	unimp
   153d8:	bc68                	fsd	fa0,248(s0)
   153da:	ffff                	0xffff
   153dc:	0098                	addi	a4,sp,64
   153de:	0000                	unimp
   153e0:	7000                	flw	fs0,32(s0)
   153e2:	300e                	fld	ft0,224(sp)
   153e4:	8158                	0x8158
   153e6:	0201                	addi	tp,tp,0
   153e8:	c148                	sw	a0,4(a0)
   153ea:	0e44                	addi	s1,sp,788
   153ec:	0000                	unimp
   153ee:	0000                	unimp
   153f0:	0028                	addi	a0,sp,8
   153f2:	0000                	unimp
   153f4:	01fc                	addi	a5,sp,204
   153f6:	0000                	unimp
   153f8:	bce0                	fsd	fs0,248(s1)
   153fa:	ffff                	0xffff
   153fc:	005c                	addi	a5,sp,4
   153fe:	0000                	unimp
   15400:	4400                	lw	s0,8(s0)
   15402:	100e                	c.slli	zero,0x23
   15404:	8850                	0x8850
   15406:	8902                	jr	s2
   15408:	81049203          	lh	tp,-2032(s1)
   1540c:	0201                	addi	tp,tp,0
   1540e:	c134                	sw	a3,64(a0)
   15410:	c844                	sw	s1,20(s0)
   15412:	c944                	sw	s1,20(a0)
   15414:	d244                	sw	s1,36(a2)
   15416:	0e44                	addi	s1,sp,788
   15418:	0000                	unimp
   1541a:	0000                	unimp
   1541c:	0010                	0x10
   1541e:	0000                	unimp
   15420:	0228                	addi	a0,sp,264
   15422:	0000                	unimp
   15424:	bd10                	fsd	fa2,56(a0)
   15426:	ffff                	0xffff
   15428:	00e4                	addi	s1,sp,76
   1542a:	0000                	unimp
   1542c:	0000                	unimp
   1542e:	0000                	unimp
   15430:	0010                	0x10
   15432:	0000                	unimp
   15434:	023c                	addi	a5,sp,264
   15436:	0000                	unimp
   15438:	bde0                	fsd	fs0,248(a1)
   1543a:	ffff                	0xffff
   1543c:	004c                	addi	a1,sp,4
   1543e:	0000                	unimp
   15440:	0000                	unimp
   15442:	0000                	unimp
   15444:	0018                	0x18
   15446:	0000                	unimp
   15448:	0250                	addi	a2,sp,260
   1544a:	0000                	unimp
   1544c:	be18                	fsd	fa4,56(a2)
   1544e:	ffff                	0xffff
   15450:	0034                	addi	a3,sp,8
   15452:	0000                	unimp
   15454:	5400                	lw	s0,40(s0)
   15456:	100e                	c.slli	zero,0x23
   15458:	8150                	0x8150
   1545a:	4801                	li	a6,0
   1545c:	44c1                	li	s1,16
   1545e:	000e                	c.slli	zero,0x3
   15460:	001c                	0x1c
   15462:	0000                	unimp
   15464:	026c                	addi	a1,sp,268
   15466:	0000                	unimp
   15468:	be30                	fsd	fa2,120(a2)
   1546a:	ffff                	0xffff
   1546c:	0344                	addi	s1,sp,388
   1546e:	0000                	unimp
   15470:	0200                	addi	s0,sp,256
   15472:	0e64                	addi	s1,sp,796
   15474:	4410                	lw	a2,8(s0)
   15476:	0188                	addi	a0,sp,192
   15478:	c802c003          	lbu	zero,-896(t0) # 121b0 <__udivdi3+0x364>
   1547c:	0e44                	addi	s1,sp,788
   1547e:	0000                	unimp
   15480:	0040                	addi	s0,sp,4
   15482:	0000                	unimp
   15484:	028c                	addi	a1,sp,320
   15486:	0000                	unimp
   15488:	c154                	sw	a3,4(a0)
   1548a:	ffff                	0xffff
   1548c:	039c                	addi	a5,sp,448
   1548e:	0000                	unimp
   15490:	0200                	addi	s0,sp,256
   15492:	0e7c                	addi	a5,sp,796
   15494:	5c20                	lw	s0,120(s0)
   15496:	0188                	addi	a0,sp,192
   15498:	0289                	addi	t0,t0,2
   1549a:	0392                	slli	t2,t2,0x4
   1549c:	05940493          	addi	s1,s0,89 # 19059 <__global_pointer$+0x3311>
   154a0:	0695                	addi	a3,a3,5
   154a2:	0796                	slli	a5,a5,0x5
   154a4:	0a02bc03          	0xa02bc03
   154a8:	44c8                	lw	a0,12(s1)
   154aa:	44c9                	li	s1,18
   154ac:	44d2                	lw	s1,20(sp)
   154ae:	44d444d3          	0x44d444d3
   154b2:	44d5                	li	s1,21
   154b4:	44d6                	lw	s1,84(sp)
   154b6:	000e                	c.slli	zero,0x3
   154b8:	0b44                	addi	s1,sp,404
   154ba:	0e64                	addi	s1,sp,796
   154bc:	c800                	sw	s0,16(s0)
   154be:	d2c9                	beqz	a3,15440 <__EH_FRAME_BEGIN__+0x248>
   154c0:	d6d5d4d3          	0xd6d5d4d3
   154c4:	001c                	0x1c
   154c6:	0000                	unimp
   154c8:	02d0                	addi	a2,sp,324
   154ca:	0000                	unimp
   154cc:	c4ac                	sw	a1,72(s1)
   154ce:	ffff                	0xffff
   154d0:	00f8                	addi	a4,sp,76
   154d2:	0000                	unimp
   154d4:	5c00                	lw	s0,56(s0)
   154d6:	300e                	fld	ft0,224(sp)
   154d8:	4402                	lw	s0,0(sp)
   154da:	0181                	addi	gp,gp,0
   154dc:	9002                	ebreak
   154de:	44c1                	li	s1,16
   154e0:	000e                	c.slli	zero,0x3
   154e2:	0000                	unimp
   154e4:	0024                	addi	s1,sp,8
   154e6:	0000                	unimp
   154e8:	02f0                	addi	a2,sp,332
   154ea:	0000                	unimp
   154ec:	c584                	sw	s1,8(a1)
   154ee:	ffff                	0xffff
   154f0:	03dc                	addi	a5,sp,452
   154f2:	0000                	unimp
   154f4:	7800                	flw	fs0,48(s0)
   154f6:	300e                	fld	ft0,224(sp)
   154f8:	8150                	0x8150
   154fa:	8801                	andi	s0,s0,0
   154fc:	0302                	c.slli64	t1
   154fe:	0198                	addi	a4,sp,192
   15500:	c10a                	sw	sp,128(sp)
   15502:	c848                	sw	a0,20(s0)
   15504:	0e44                	addi	s1,sp,788
   15506:	4400                	lw	s0,8(s0)
   15508:	0000000b          	0xb
   1550c:	0010                	0x10
   1550e:	0000                	unimp
   15510:	0318                	addi	a4,sp,384
   15512:	0000                	unimp
   15514:	b0e0                	fsd	fs0,224(s1)
   15516:	ffff                	0xffff
   15518:	001c                	0x1c
   1551a:	0000                	unimp
   1551c:	0000                	unimp
   1551e:	0000                	unimp
   15520:	0010                	0x10
   15522:	0000                	unimp
   15524:	032c                	addi	a1,sp,392
   15526:	0000                	unimp
   15528:	c924                	sw	s1,80(a0)
   1552a:	ffff                	0xffff
   1552c:	0434                	addi	a3,sp,520
   1552e:	0000                	unimp
   15530:	0000                	unimp
	...

00015534 <__FRAME_END__>:
   15534:	0000                	unimp
	...

Disassembly of section .init_array:

00015538 <__init_array_start>:
   15538:	0610                	addi	a2,sp,768
   1553a:	0001                	nop

0001553c <__frame_dummy_init_array_entry>:
   1553c:	06c0                	addi	s0,sp,836
   1553e:	0001                	nop
   15540:	05f4                	addi	a3,sp,716
   15542:	0001                	nop

Disassembly of section .fini_array:

00015544 <__do_global_dtors_aux_fini_array_entry>:
   15544:	0674                	addi	a3,sp,780
   15546:	0001                	nop

Disassembly of section .data:

00015548 <branchaddress>:
   15548:	0000                	unimp
   1554a:	0001                	nop

0001554c <IO_UARTRX>:
   1554c:	0008                	0x8
   1554e:	8000                	0x8000

00015550 <IO_UARTRXByteCount>:
   15550:	0004                	0x4
   15552:	8000                	0x8000

00015554 <IO_UARTTX>:
   15554:	000c                	0xc
   15556:	8000                	0x8000

00015558 <GraphicsFontStart>:
   15558:	e800                	fsw	fs0,16(s0)
   1555a:	1001                	c.nop	-32

0001555c <IO_GPUCommandFIFO>:
   1555c:	0000                	unimp
   1555e:	8000                	0x8000

00015560 <impure_data>:
   15560:	0000                	unimp
   15562:	0000                	unimp
   15564:	584c                	lw	a1,52(s0)
   15566:	0001                	nop
   15568:	58b4                	lw	a3,112(s1)
   1556a:	0001                	nop
   1556c:	591c                	lw	a5,48(a0)
   1556e:	0001                	nop
	...
   15608:	0001                	nop
   1560a:	0000                	unimp
   1560c:	0000                	unimp
   1560e:	0000                	unimp
   15610:	330e                	fld	ft6,224(sp)
   15612:	abcd                	j	15c04 <_ZL11consoleText+0x230>
   15614:	1234                	addi	a3,sp,296
   15616:	e66d                	bnez	a2,15700 <impure_data+0x1a0>
   15618:	deec                	sw	a1,124(a3)
   1561a:	0005                	c.nop	1
   1561c:	0000000b          	0xb
	...

Disassembly of section .got:

00015988 <.got>:
   15988:	ffff                	0xffff
   1598a:	ffff                	0xffff
   1598c:	0000                	unimp
	...

00015990 <_GLOBAL_OFFSET_TABLE_>:
   15990:	0000                	unimp
   15992:	0000                	unimp
   15994:	555c                	lw	a5,44(a0)
   15996:	0001                	nop
   15998:	5558                	lw	a4,44(a0)
   1599a:	0001                	nop
   1599c:	554c                	lw	a1,44(a0)
   1599e:	0001                	nop
   159a0:	5cdc                	lw	a5,60(s1)
   159a2:	0001                	nop
   159a4:	5554                	lw	a3,44(a0)
   159a6:	0001                	nop
   159a8:	5550                	lw	a2,44(a0)
   159aa:	0001                	nop
   159ac:	5548                	lw	a0,44(a0)
   159ae:	0001                	nop

Disassembly of section .sdata:

000159b0 <_global_impure_ptr>:
   159b0:	5560                	lw	s0,108(a0)
   159b2:	0001                	nop

000159b4 <_impure_ptr>:
   159b4:	5560                	lw	s0,108(a0)
   159b6:	0001                	nop

Disassembly of section .bss:

000159b8 <completed.1>:
   159b8:	0000                	unimp
	...

000159bc <object.0>:
	...

000159d4 <_ZL11consoleText>:
	...

00015cd4 <_ZL7cursorx>:
   15cd4:	0000                	unimp
	...

00015cd8 <_ZL7cursory>:
   15cd8:	0000                	unimp
	...

00015cdc <font>:
   15cdc:	0000                	unimp
	...

Disassembly of section .comment:

00000000 <.comment>:
   0:	3a434347          	fmsub.d	ft6,ft6,ft4,ft7,rmm
   4:	2820                	fld	fs0,80(s0)
   6:	29554e47          	fmsub.s	ft8,fa0,fs5,ft5,rmm
   a:	3120                	fld	fs0,96(a0)
   c:	2e30                	fld	fa2,88(a2)
   e:	2e32                	fld	ft8,264(sp)
  10:	0030                	addi	a2,sp,8

Disassembly of section .riscv.attributes:

00000000 <.riscv.attributes>:
   0:	2941                	jal	490 <main-0xfbe4>
   2:	0000                	unimp
   4:	7200                	flw	fs0,32(a2)
   6:	7369                	lui	t1,0xffffa
   8:	01007663          	bgeu	zero,a6,14 <main-0x10060>
   c:	001f 0000 1004      	0x10040000001f
  12:	7205                	lui	tp,0xfffe1
  14:	3376                	fld	ft6,376(sp)
  16:	6932                	flw	fs2,12(sp)
  18:	7032                	flw	ft0,44(sp)
  1a:	5f30                	lw	a2,120(a4)
  1c:	326d                	jal	fffff9c6 <__global_pointer$+0xfffe9c7e>
  1e:	3070                	fld	fa2,224(s0)
  20:	665f 7032 0030      	0x307032665f
  26:	0108                	addi	a0,sp,128
  28:	0b0a                	slli	s6,s6,0x2

Disassembly of section .debug_aranges:

00000000 <.debug_aranges>:
   0:	001c                	0x1c
   2:	0000                	unimp
   4:	0002                	c.slli64	zero
   6:	0000                	unimp
   8:	0000                	unimp
   a:	0004                	0x4
   c:	0000                	unimp
   e:	0000                	unimp
  10:	1e4c                	addi	a1,sp,820
  12:	0001                	nop
  14:	0434                	addi	a3,sp,520
	...
  1e:	0000                	unimp
  20:	0014                	0x14
  22:	0000                	unimp
  24:	0002                	c.slli64	zero
  26:	07b2                	slli	a5,a5,0xc
  28:	0000                	unimp
  2a:	0004                	0x4
	...

Disassembly of section .debug_info:

00000000 <.debug_info>:
   0:	07ae                	slli	a5,a5,0xb
   2:	0000                	unimp
   4:	0004                	0x4
   6:	0000                	unimp
   8:	0000                	unimp
   a:	0104                	addi	s1,sp,128
   c:	0000008f          	0x8f
  10:	200c                	fld	fa1,0(s0)
  12:	0000                	unimp
  14:	0000                	unimp
  16:	0002                	c.slli64	zero
  18:	4c00                	lw	s0,24(s0)
  1a:	011e                	slli	sp,sp,0x7
  1c:	3400                	fld	fs0,40(s0)
  1e:	0004                	0x4
  20:	0000                	unimp
  22:	0000                	unimp
  24:	0200                	addi	s0,sp,256
  26:	0708                	addi	a0,sp,896
  28:	0078                	addi	a4,sp,12
  2a:	0000                	unimp
  2c:	0402                	c.slli64	s0
  2e:	00008207          	0x8207
  32:	0300                	addi	s0,sp,384
  34:	0504                	addi	s1,sp,640
  36:	6e69                	lui	t3,0x1a
  38:	0074                	addi	a3,sp,12
  3a:	0802                	c.slli64	a6
  3c:	6a05                	lui	s4,0x1
  3e:	0000                	unimp
  40:	0200                	addi	s0,sp,256
  42:	0410                	addi	a2,sp,512
  44:	01f4                	addi	a3,sp,204
  46:	0000                	unimp
  48:	0102                	c.slli64	sp
  4a:	7506                	flw	fa0,96(sp)
  4c:	0001                	nop
  4e:	0200                	addi	s0,sp,256
  50:	0801                	addi	a6,a6,0
  52:	00000173          	0x173
  56:	0202                	c.slli64	tp
  58:	5605                	li	a2,-31
  5a:	0000                	unimp
  5c:	0200                	addi	s0,sp,256
  5e:	0702                	c.slli64	a4
  60:	01a6                	slli	gp,gp,0x9
  62:	0000                	unimp
  64:	0402                	c.slli64	s0
  66:	6f05                	lui	t5,0x1
  68:	0000                	unimp
  6a:	0200                	addi	s0,sp,256
  6c:	0704                	addi	s1,sp,896
  6e:	007d                	c.nop	31
  70:	0000                	unimp
  72:	0102                	c.slli64	sp
  74:	7c08                	flw	fa0,56(s0)
  76:	0001                	nop
  78:	0400                	addi	s0,sp,512
  7a:	0195                	addi	gp,gp,5
  7c:	0000                	unimp
  7e:	7b02                	flw	fs6,32(sp)
  80:	4f16                	lw	t5,68(sp)
  82:	0000                	unimp
  84:	0500                	addi	s0,sp,640
  86:	0079                	c.nop	30
  88:	0000                	unimp
  8a:	7204                	flw	fs1,32(a2)
  8c:	0002                	c.slli64	zero
  8e:	0200                	addi	s0,sp,256
  90:	0f80                	addi	s0,sp,976
  92:	00000033          	add	zero,zero,zero
  96:	7104                	flw	fs1,32(a0)
  98:	0002                	c.slli64	zero
  9a:	0200                	addi	s0,sp,256
  9c:	1681                	addi	a3,a3,-32
  9e:	002c                	addi	a1,sp,8
  a0:	0000                	unimp
  a2:	ba04                	fsd	fs1,48(a2)
  a4:	0001                	nop
  a6:	0200                	addi	s0,sp,256
  a8:	0f84                	addi	s1,sp,976
  aa:	003a                	c.slli	zero,0xe
  ac:	0000                	unimp
  ae:	b904                	fsd	fs1,48(a0)
  b0:	0001                	nop
  b2:	0200                	addi	s0,sp,256
  b4:	1685                	addi	a3,a3,-31
  b6:	0025                	c.nop	9
  b8:	0000                	unimp
  ba:	0402                	c.slli64	s0
  bc:	1a04                	addi	s1,sp,304
  be:	0000                	unimp
  c0:	0200                	addi	s0,sp,256
  c2:	0308                	addi	a0,sp,384
  c4:	0012                	c.slli	zero,0x4
  c6:	0000                	unimp
  c8:	0802                	c.slli64	a6
  ca:	f904                	fsw	fs1,48(a0)
  cc:	0001                	nop
  ce:	0200                	addi	s0,sp,256
  d0:	0310                	addi	a2,sp,384
  d2:	000001cb          	fnmsub.s	ft3,ft0,ft0,ft0,rne
  d6:	2002                	fld	ft0,0(sp)
  d8:	0001ec03          	0x1ec03
  dc:	0600                	addi	s0,sp,768
  de:	019d                	addi	gp,gp,7
  e0:	0000                	unimp
  e2:	0208                	addi	a0,sp,256
  e4:	01ed                	addi	gp,gp,27
  e6:	080a                	slli	a6,a6,0x2
  e8:	0001                	nop
  ea:	0700                	addi	s0,sp,896
  ec:	6f6c                	flw	fa1,92(a4)
  ee:	ed020077          	0xed020077
  f2:	1a01                	addi	s4,s4,-32
  f4:	008a                	slli	ra,ra,0x2
  f6:	0000                	unimp
  f8:	0800                	addi	s0,sp,16
  fa:	0164                	addi	s1,sp,140
  fc:	0000                	unimp
  fe:	ed02                	fsw	ft0,152(sp)
 100:	1f01                	addi	t5,t5,-32
 102:	008a                	slli	ra,ra,0x2
 104:	0000                	unimp
 106:	0004                	0x4
 108:	0809                	addi	a6,a6,2
 10a:	f402                	fsw	ft0,40(sp)
 10c:	0901                	addi	s2,s2,0
 10e:	012a                	slli	sp,sp,0xa
 110:	0000                	unimp
 112:	730a                	flw	ft6,160(sp)
 114:	0200                	addi	s0,sp,256
 116:	01f6                	slli	gp,gp,0x1d
 118:	0000dd13          	srli	s10,ra,0x0
 11c:	0a00                	addi	s0,sp,272
 11e:	6c6c                	flw	fa1,92(s0)
 120:	0200                	addi	s0,sp,256
 122:	a20a01f7          	0xa20a01f7
 126:	0000                	unimp
 128:	0000                	unimp
 12a:	0000000b          	0xb
 12e:	0200                	addi	s0,sp,256
 130:	01f8                	addi	a4,sp,204
 132:	00010803          	lb	a6,0(sp)
 136:	0500                	addi	s0,sp,640
 138:	012a                	slli	sp,sp,0xa
 13a:	0000                	unimp
 13c:	850c                	0x850c
 13e:	0000                	unimp
 140:	4c00                	lw	s0,24(s0)
 142:	0001                	nop
 144:	0d00                	addi	s0,sp,656
 146:	002c                	addi	a1,sp,8
 148:	0000                	unimp
 14a:	00ff                	0xff
 14c:	3c05                	jal	fffffb7c <__global_pointer$+0xfffe9e34>
 14e:	0001                	nop
 150:	0e00                	addi	s0,sp,784
 152:	0169                	addi	sp,sp,26
 154:	0000                	unimp
 156:	0202                	c.slli64	tp
 158:	1602                	slli	a2,a2,0x20
 15a:	014c                	addi	a1,sp,132
 15c:	0000                	unimp
 15e:	0000080f          	0x80f
 162:	0100                	addi	s0,sp,128
 164:	0526                	slli	a0,a0,0x9
 166:	ae01                	j	476 <main-0xfbfe>
 168:	0000                	unimp
 16a:	4c00                	lw	s0,24(s0)
 16c:	011e                	slli	sp,sp,0x7
 16e:	3400                	fld	fs0,40(s0)
 170:	0004                	0x4
 172:	0100                	addi	s0,sp,128
 174:	3a9c                	fld	fa5,48(a3)
 176:	0004                	0x4
 178:	1000                	addi	s0,sp,32
 17a:	006e                	c.slli	zero,0x1b
 17c:	2601                	jal	47c <main-0xfbf8>
 17e:	1405                	addi	s0,s0,-31
 180:	00ae                	slli	ra,ra,0xb
 182:	0000                	unimp
 184:	0000                	unimp
 186:	0000                	unimp
 188:	6410                	flw	fa2,8(s0)
 18a:	0100                	addi	s0,sp,128
 18c:	0526                	slli	a0,a0,0x9
 18e:	ae1f 0000 2800      	0x28000000ae1f
 194:	0000                	unimp
 196:	1100                	addi	s0,sp,160
 198:	043a                	slli	s0,s0,0xe
 19a:	0000                	unimp
 19c:	1e50                	addi	a2,sp,820
 19e:	0001                	nop
 1a0:	0000                	unimp
 1a2:	0000                	unimp
 1a4:	2801                	jal	1b4 <main-0xfec0>
 1a6:	0a05                	addi	s4,s4,1
 1a8:	6212                	flw	ft4,4(sp)
 1aa:	0004                	0x4
 1ac:	c000                	sw	s0,0(s0)
 1ae:	0000                	unimp
 1b0:	1200                	addi	s0,sp,288
 1b2:	00000457          	0x457
 1b6:	00e0                	addi	s0,sp,76
 1b8:	0000                	unimp
 1ba:	4c12                	lw	s8,4(sp)
 1bc:	0004                	0x4
 1be:	9800                	0x9800
 1c0:	0001                	nop
 1c2:	1300                	addi	s0,sp,416
 1c4:	0000                	unimp
 1c6:	0000                	unimp
 1c8:	6e14                	flw	fa3,24(a2)
 1ca:	0004                	0x4
 1cc:	1400                	addi	s0,sp,544
 1ce:	047a                	slli	s0,s0,0x1e
 1d0:	0000                	unimp
 1d2:	8614                	0x8614
 1d4:	0004                	0x4
 1d6:	1500                	addi	s0,sp,672
 1d8:	0492                	slli	s1,s1,0x4
 1da:	0000                	unimp
 1dc:	0260                	addi	s0,sp,268
 1de:	0000                	unimp
 1e0:	9e15                	0x9e15
 1e2:	0004                	0x4
 1e4:	0600                	addi	s0,sp,768
 1e6:	15000003          	lb	zero,336(zero) # 150 <main-0xff24>
 1ea:	04aa                	slli	s1,s1,0xa
 1ec:	0000                	unimp
 1ee:	0392                	slli	t2,t2,0x4
 1f0:	0000                	unimp
 1f2:	b615                	j	fffffd16 <__global_pointer$+0xfffe9fce>
 1f4:	0004                	0x4
 1f6:	0200                	addi	s0,sp,256
 1f8:	0004                	0x4
 1fa:	1500                	addi	s0,sp,672
 1fc:	04c2                	slli	s1,s1,0x10
 1fe:	0000                	unimp
 200:	04ba                	slli	s1,s1,0xe
 202:	0000                	unimp
 204:	ce15                	beqz	a2,240 <main-0xfe34>
 206:	0004                	0x4
 208:	d800                	sw	s0,48(s0)
 20a:	0004                	0x4
 20c:	1500                	addi	s0,sp,672
 20e:	04da                	slli	s1,s1,0x16
 210:	0000                	unimp
 212:	04f6                	slli	s1,s1,0x1d
 214:	0000                	unimp
 216:	e615                	bnez	a2,242 <main-0xfe32>
 218:	0004                	0x4
 21a:	2000                	fld	fs0,0(s0)
 21c:	0005                	c.nop	1
 21e:	1500                	addi	s0,sp,672
 220:	04f1                	addi	s1,s1,28
 222:	0000                	unimp
 224:	053e                	slli	a0,a0,0xf
 226:	0000                	unimp
 228:	fd14                	fsw	fa3,56(a0)
 22a:	0004                	0x4
 22c:	1600                	addi	s0,sp,800
 22e:	0509                	addi	a0,a0,2
 230:	0000                	unimp
 232:	0028                	addi	a0,sp,8
 234:	0000                	unimp
 236:	024d                	addi	tp,tp,19
 238:	0000                	unimp
 23a:	0e15                	addi	t3,t3,5
 23c:	0005                	c.nop	1
 23e:	7d00                	flw	fs0,56(a0)
 240:	0005                	c.nop	1
 242:	1500                	addi	s0,sp,672
 244:	0000051b          	0x51b
 248:	05b9                	addi	a1,a1,14
 24a:	0000                	unimp
 24c:	1700                	addi	s0,sp,928
 24e:	0529                	addi	a0,a0,10
 250:	0000                	unimp
 252:	1eb4                	addi	a3,sp,888
 254:	0001                	nop
 256:	0088                	addi	a0,sp,64
 258:	0000                	unimp
 25a:	029e                	slli	t0,t0,0x7
 25c:	0000                	unimp
 25e:	2e15                	jal	592 <main-0xfae2>
 260:	0005                	c.nop	1
 262:	cc00                	sw	s0,24(s0)
 264:	0005                	c.nop	1
 266:	1500                	addi	s0,sp,672
 268:	0000053b          	0x53b
 26c:	05df 0000 4815      	0x4815000005df
 272:	0005                	c.nop	1
 274:	0300                	addi	s0,sp,384
 276:	0006                	c.slli	zero,0x1
 278:	1500                	addi	s0,sp,672
 27a:	0555                	addi	a0,a0,21
 27c:	0000                	unimp
 27e:	0621                	addi	a2,a2,8
 280:	0000                	unimp
 282:	6215                	lui	tp,0x5
 284:	0005                	c.nop	1
 286:	3f00                	fld	fs0,56(a4)
 288:	0006                	c.slli	zero,0x1
 28a:	1500                	addi	s0,sp,672
 28c:	0000056f          	jal	a0,28c <main-0xfde8>
 290:	067a                	slli	a2,a2,0x1e
 292:	0000                	unimp
 294:	7c15                	lui	s8,0xfffe5
 296:	0005                	c.nop	1
 298:	9800                	0x9800
 29a:	0006                	c.slli	zero,0x1
 29c:	0000                	unimp
 29e:	9f16                	add	t5,t5,t0
 2a0:	0006                	c.slli	zero,0x1
 2a2:	4000                	lw	s0,0(s0)
 2a4:	0000                	unimp
 2a6:	5d00                	lw	s0,56(a0)
 2a8:	15000003          	lb	zero,336(zero) # 150 <main-0xff24>
 2ac:	06a0                	addi	s0,sp,840
 2ae:	0000                	unimp
 2b0:	06b6                	slli	a3,a3,0xd
 2b2:	0000                	unimp
 2b4:	ac15                	j	4e8 <main-0xfb8c>
 2b6:	0006                	c.slli	zero,0x1
 2b8:	c900                	sw	s0,16(a0)
 2ba:	0006                	c.slli	zero,0x1
 2bc:	1600                	addi	s0,sp,800
 2be:	06b8                	addi	a4,sp,840
 2c0:	0000                	unimp
 2c2:	0058                	addi	a4,sp,4
 2c4:	0000                	unimp
 2c6:	030a                	slli	t1,t1,0x2
 2c8:	0000                	unimp
 2ca:	bd15                	j	fe <main-0xff76>
 2cc:	0006                	c.slli	zero,0x1
 2ce:	0a00                	addi	s0,sp,272
 2d0:	15000007          	0x15000007
 2d4:	06ca                	slli	a3,a3,0x12
 2d6:	0000                	unimp
 2d8:	072c                	addi	a1,sp,904
 2da:	0000                	unimp
 2dc:	d715                	beqz	a4,208 <main-0xfe6c>
 2de:	0006                	c.slli	zero,0x1
 2e0:	5000                	lw	s0,32(s0)
 2e2:	15000007          	0x15000007
 2e6:	06e4                	addi	s1,sp,844
 2e8:	0000                	unimp
 2ea:	076e                	slli	a4,a4,0x1b
 2ec:	0000                	unimp
 2ee:	f115                	bnez	a0,212 <main-0xfe62>
 2f0:	0006                	c.slli	zero,0x1
 2f2:	8c00                	0x8c00
 2f4:	15000007          	0x15000007
 2f8:	06fe                	slli	a3,a3,0x1f
 2fa:	0000                	unimp
 2fc:	000007c7          	fmsub.s	fa5,ft0,ft0,ft0,rne
 300:	0b15                	addi	s6,s6,5
 302:	f0000007          	0xf0000007
 306:	00000007          	0x7
 30a:	1918                	addi	a4,sp,176
 30c:	80000007          	0x80000007
 310:	0000                	unimp
 312:	1500                	addi	s0,sp,672
 314:	071e                	slli	a4,a4,0x7
 316:	0000                	unimp
 318:	080e                	slli	a6,a6,0x3
 31a:	0000                	unimp
 31c:	2b15                	jal	850 <main-0xf824>
 31e:	21000007          	0x21000007
 322:	0008                	0x8
 324:	1500                	addi	s0,sp,672
 326:	0738                	addi	a4,sp,904
 328:	0000                	unimp
 32a:	0874                	addi	a3,sp,28
 32c:	0000                	unimp
 32e:	4515                	li	a0,5
 330:	87000007          	0x87000007
 334:	0008                	0x8
 336:	1500                	addi	s0,sp,672
 338:	0752                	slli	a4,a4,0x14
 33a:	0000                	unimp
 33c:	089a                	slli	a7,a7,0x6
 33e:	0000                	unimp
 340:	5f15                	li	t5,-27
 342:	ed000007          	0xed000007
 346:	0008                	0x8
 348:	1500                	addi	s0,sp,672
 34a:	076c                	addi	a1,sp,908
 34c:	0000                	unimp
 34e:	0900                	addi	s0,sp,144
 350:	0000                	unimp
 352:	7915                	lui	s2,0xfffe5
 354:	31000007          	0x31000007
 358:	0009                	c.nop	2
 35a:	0000                	unimp
 35c:	1600                	addi	s0,sp,800
 35e:	058a                	slli	a1,a1,0x2
 360:	0000                	unimp
 362:	00b0                	addi	a2,sp,72
 364:	0000                	unimp
 366:	037d                	addi	t1,t1,31
 368:	0000                	unimp
 36a:	8f15                	sub	a4,a4,a3
 36c:	0005                	c.nop	1
 36e:	4400                	lw	s0,8(s0)
 370:	0009                	c.nop	2
 372:	1500                	addi	s0,sp,672
 374:	059c                	addi	a5,sp,704
 376:	0000                	unimp
 378:	0980                	addi	s0,sp,208
 37a:	0000                	unimp
 37c:	1700                	addi	s0,sp,928
 37e:	0000060b          	0x60b
 382:	1f9c                	addi	a5,sp,1008
 384:	0001                	nop
 386:	0088                	addi	a0,sp,64
 388:	0000                	unimp
 38a:	03ce                	slli	t2,t2,0x13
 38c:	0000                	unimp
 38e:	1015                	c.nop	-27
 390:	0006                	c.slli	zero,0x1
 392:	9e00                	0x9e00
 394:	0009                	c.nop	2
 396:	1500                	addi	s0,sp,672
 398:	061d                	addi	a2,a2,7
 39a:	0000                	unimp
 39c:	09b1                	addi	s3,s3,12
 39e:	0000                	unimp
 3a0:	2a15                	jal	4d4 <main-0xfba0>
 3a2:	0006                	c.slli	zero,0x1
 3a4:	d500                	sw	s0,40(a0)
 3a6:	0009                	c.nop	2
 3a8:	1500                	addi	s0,sp,672
 3aa:	00000637          	lui	a2,0x0
 3ae:	000009f3          	0x9f3
 3b2:	4415                	li	s0,5
 3b4:	0006                	c.slli	zero,0x1
 3b6:	1100                	addi	s0,sp,160
 3b8:	000a                	c.slli	zero,0x2
 3ba:	1500                	addi	s0,sp,672
 3bc:	0651                	addi	a2,a2,20
 3be:	0000                	unimp
 3c0:	0a4c                	addi	a1,sp,276
 3c2:	0000                	unimp
 3c4:	5e15                	li	t3,-27
 3c6:	0006                	c.slli	zero,0x1
 3c8:	6a00                	flw	fs0,16(a2)
 3ca:	000a                	c.slli	zero,0x2
 3cc:	0000                	unimp
 3ce:	aa16                	fsd	ft5,272(sp)
 3d0:	0005                	c.nop	1
 3d2:	c800                	sw	s0,16(s0)
 3d4:	0000                	unimp
 3d6:	1b00                	addi	s0,sp,432
 3d8:	0004                	0x4
 3da:	1500                	addi	s0,sp,672
 3dc:	000005af          	0x5af
 3e0:	0a88                	addi	a0,sp,336
 3e2:	0000                	unimp
 3e4:	bc15                	j	fffffe18 <__global_pointer$+0xfffea0d0>
 3e6:	0005                	c.nop	1
 3e8:	9b00                	0x9b00
 3ea:	000a                	c.slli	zero,0x2
 3ec:	1500                	addi	s0,sp,672
 3ee:	05c9                	addi	a1,a1,18
 3f0:	0000                	unimp
 3f2:	00000abf 0005d615 	0x5d61500000abf
 3fa:	dd00                	sw	s0,56(a0)
 3fc:	000a                	c.slli	zero,0x2
 3fe:	1500                	addi	s0,sp,672
 400:	000005e3          	beqz	zero,c0a <main-0xf46a>
 404:	00000afb          	0xafb
 408:	f015                	bnez	s0,32c <main-0xfd48>
 40a:	0005                	c.nop	1
 40c:	2f00                	fld	fs0,24(a4)
 40e:	1500000b          	0x1500000b
 412:	05fd                	addi	a1,a1,31
 414:	0000                	unimp
 416:	0b58                	addi	a4,sp,404
 418:	0000                	unimp
 41a:	1800                	addi	s0,sp,48
 41c:	066c                	addi	a1,sp,780
 41e:	0000                	unimp
 420:	00e0                	addi	s0,sp,76
 422:	0000                	unimp
 424:	7115                	addi	sp,sp,-224
 426:	0006                	c.slli	zero,0x1
 428:	8600                	0x8600
 42a:	1500000b          	0x1500000b
 42e:	067e                	slli	a2,a2,0x1f
 430:	0000                	unimp
 432:	0bba                	slli	s7,s7,0xe
 434:	0000                	unimp
 436:	0000                	unimp
 438:	0000                	unimp
 43a:	df19                	beqz	a4,358 <main-0xfd1c>
 43c:	0001                	nop
 43e:	0100                	addi	s0,sp,128
 440:	ae0103f7          	0xae0103f7
 444:	0000                	unimp
 446:	0300                	addi	s0,sp,384
 448:	000007ab          	0x7ab
 44c:	6e1a                	flw	ft8,132(sp)
 44e:	0100                	addi	s0,sp,128
 450:	ae1703f7          	0xae1703f7
 454:	0000                	unimp
 456:	1a00                	addi	s0,sp,304
 458:	0064                	addi	s1,sp,12
 45a:	f701                	bnez	a4,362 <main-0xfd12>
 45c:	00ae2203          	lw	tp,10(t3) # 1a00a <__global_pointer$+0x42c2>
 460:	0000                	unimp
 462:	721a                	flw	ft4,164(sp)
 464:	0070                	addi	a2,sp,12
 466:	f701                	bnez	a4,36e <main-0xfd06>
 468:	07ab2e03          	lw	t3,122(s6)
 46c:	0000                	unimp
 46e:	006e6e1b          	0x6e6e1b
 472:	f901                	bnez	a0,382 <main-0xfcf2>
 474:	01371103          	lh	sp,19(a4)
 478:	0000                	unimp
 47a:	0064641b          	0x64641b
 47e:	fa01                	bnez	a2,38e <main-0xfce6>
 480:	01371103          	lh	sp,19(a4)
 484:	0000                	unimp
 486:	0072721b          	0x72721b
 48a:	fb01                	bnez	a4,39a <main-0xfcda>
 48c:	012a0b03          	lb	s6,18(s4) # 1012 <main-0xf062>
 490:	0000                	unimp
 492:	0030641b          	0x30641b
 496:	fc01                	bnez	s0,3ae <main-0xfcc6>
 498:	00960a03          	lb	s4,9(a2) # 9 <main-0x1006b>
 49c:	0000                	unimp
 49e:	0031641b          	0x31641b
 4a2:	fc01                	bnez	s0,3ba <main-0xfcba>
 4a4:	00960e03          	lb	t3,9(a2)
 4a8:	0000                	unimp
 4aa:	00306e1b          	0x306e1b
 4ae:	fc01                	bnez	s0,3c6 <main-0xfcae>
 4b0:	00961203          	lh	tp,9(a2)
 4b4:	0000                	unimp
 4b6:	00316e1b          	0x316e1b
 4ba:	fc01                	bnez	s0,3d2 <main-0xfca2>
 4bc:	00961603          	lh	a2,9(a2)
 4c0:	0000                	unimp
 4c2:	00326e1b          	0x326e1b
 4c6:	fc01                	bnez	s0,3de <main-0xfc96>
 4c8:	00961a03          	lh	s4,9(a2)
 4cc:	0000                	unimp
 4ce:	0030711b          	0x30711b
 4d2:	fd01                	bnez	a0,3ea <main-0xfc8a>
 4d4:	00960a03          	lb	s4,9(a2)
 4d8:	0000                	unimp
 4da:	0031711b          	0x31711b
 4de:	fd01                	bnez	a0,3f6 <main-0xfc7e>
 4e0:	00960e03          	lb	t3,9(a2)
 4e4:	0000                	unimp
 4e6:	0100621b          	0x100621b
 4ea:	03fe                	slli	t2,t2,0x1f
 4ec:	960a                	add	a2,a2,sp
 4ee:	0000                	unimp
 4f0:	1b00                	addi	s0,sp,432
 4f2:	6d62                	flw	fs10,24(sp)
 4f4:	0100                	addi	s0,sp,128
 4f6:	03fe                	slli	t2,t2,0x1f
 4f8:	960d                	srai	a2,a2,0x23
 4fa:	0000                	unimp
 4fc:	1b00                	addi	s0,sp,432
 4fe:	01007777          	0x1007777
 502:	371104c7          	fmsub.q	fs1,ft2,fa7,ft6,rne
 506:	0001                	nop
 508:	1c00                	addi	s0,sp,560
 50a:	0529                	addi	a0,a0,10
 50c:	0000                	unimp
 50e:	da1d                	beqz	a2,444 <main-0xfc30>
 510:	0001                	nop
 512:	0100                	addi	s0,sp,128
 514:	042e                	slli	s0,s0,0xb
 516:	9604                	0x9604
 518:	0000                	unimp
 51a:	1b00                	addi	s0,sp,432
 51c:	5f5f 0061 2e01      	0x2e0100615f5f
 522:	0404                	addi	s1,sp,512
 524:	0096                	slli	ra,ra,0x5
 526:	0000                	unimp
 528:	1c00                	addi	s0,sp,560
 52a:	058a                	slli	a1,a1,0x2
 52c:	0000                	unimp
 52e:	511d                	li	sp,-25
 530:	0000                	unimp
 532:	0100                	addi	s0,sp,128
 534:	043a                	slli	s0,s0,0xe
 536:	9604                	0x9604
 538:	0000                	unimp
 53a:	1d00                	addi	s0,sp,688
 53c:	004c                	addi	a1,sp,4
 53e:	0000                	unimp
 540:	3a01                	jal	fffffe50 <__global_pointer$+0xfffea108>
 542:	0404                	addi	s1,sp,512
 544:	0096                	slli	ra,ra,0x5
 546:	0000                	unimp
 548:	c61d                	beqz	a2,576 <main-0xfafe>
 54a:	0001                	nop
 54c:	0100                	addi	s0,sp,128
 54e:	043a                	slli	s0,s0,0xe
 550:	9604                	0x9604
 552:	0000                	unimp
 554:	1d00                	addi	s0,sp,688
 556:	01c1                	addi	gp,gp,16
 558:	0000                	unimp
 55a:	3a01                	jal	fffffe6a <__global_pointer$+0xfffea122>
 55c:	0404                	addi	s1,sp,512
 55e:	0096                	slli	ra,ra,0x5
 560:	0000                	unimp
 562:	7e1d                	lui	t3,0xfffe7
 564:	0002                	c.slli64	zero
 566:	0100                	addi	s0,sp,128
 568:	043a                	slli	s0,s0,0xe
 56a:	9604                	0x9604
 56c:	0000                	unimp
 56e:	1d00                	addi	s0,sp,688
 570:	0279                	addi	tp,tp,30
 572:	0000                	unimp
 574:	3a01                	jal	fffffe84 <__global_pointer$+0xfffea13c>
 576:	0404                	addi	s1,sp,512
 578:	0096                	slli	ra,ra,0x5
 57a:	0000                	unimp
 57c:	6d5f5f1b          	0x6d5f5f1b
 580:	0100                	addi	s0,sp,128
 582:	043a                	slli	s0,s0,0xe
 584:	9604                	0x9604
 586:	0000                	unimp
 588:	0000                	unimp
 58a:	aa1c                	fsd	fa5,16(a2)
 58c:	0005                	c.nop	1
 58e:	1d00                	addi	s0,sp,688
 590:	01da                	slli	gp,gp,0x16
 592:	0000                	unimp
 594:	4601                	li	a2,0
 596:	0404                	addi	s1,sp,512
 598:	0096                	slli	ra,ra,0x5
 59a:	0000                	unimp
 59c:	615f5f1b          	0x615f5f1b
 5a0:	0100                	addi	s0,sp,128
 5a2:	0446                	slli	s0,s0,0x11
 5a4:	9604                	0x9604
 5a6:	0000                	unimp
 5a8:	0000                	unimp
 5aa:	0b1c                	addi	a5,sp,400
 5ac:	0006                	c.slli	zero,0x1
 5ae:	1d00                	addi	s0,sp,688
 5b0:	0051                	c.nop	20
 5b2:	0000                	unimp
 5b4:	5f01                	li	t5,-32
 5b6:	0804                	addi	s1,sp,16
 5b8:	0096                	slli	ra,ra,0x5
 5ba:	0000                	unimp
 5bc:	4c1d                	li	s8,7
 5be:	0000                	unimp
 5c0:	0100                	addi	s0,sp,128
 5c2:	045f 9608 0000      	0x9608045f
 5c8:	1d00                	addi	s0,sp,688
 5ca:	01c6                	slli	gp,gp,0x11
 5cc:	0000                	unimp
 5ce:	5f01                	li	t5,-32
 5d0:	0804                	addi	s1,sp,16
 5d2:	0096                	slli	ra,ra,0x5
 5d4:	0000                	unimp
 5d6:	c11d                	beqz	a0,5fc <main-0xfa78>
 5d8:	0001                	nop
 5da:	0100                	addi	s0,sp,128
 5dc:	045f 9608 0000      	0x9608045f
 5e2:	1d00                	addi	s0,sp,688
 5e4:	027e                	slli	tp,tp,0x1f
 5e6:	0000                	unimp
 5e8:	5f01                	li	t5,-32
 5ea:	0804                	addi	s1,sp,16
 5ec:	0096                	slli	ra,ra,0x5
 5ee:	0000                	unimp
 5f0:	791d                	lui	s2,0xfffe7
 5f2:	0002                	c.slli64	zero
 5f4:	0100                	addi	s0,sp,128
 5f6:	045f 9608 0000      	0x9608045f
 5fc:	1b00                	addi	s0,sp,432
 5fe:	5f5f 006d 5f01      	0x5f01006d5f5f
 604:	0804                	addi	s1,sp,16
 606:	0096                	slli	ra,ra,0x5
 608:	0000                	unimp
 60a:	1c00                	addi	s0,sp,560
 60c:	066c                	addi	a1,sp,780
 60e:	0000                	unimp
 610:	511d                	li	sp,-25
 612:	0000                	unimp
 614:	0100                	addi	s0,sp,128
 616:	0464                	addi	s1,sp,524
 618:	9604                	0x9604
 61a:	0000                	unimp
 61c:	1d00                	addi	s0,sp,688
 61e:	004c                	addi	a1,sp,4
 620:	0000                	unimp
 622:	6401                	0x6401
 624:	0404                	addi	s1,sp,512
 626:	0096                	slli	ra,ra,0x5
 628:	0000                	unimp
 62a:	c61d                	beqz	a2,658 <main-0xfa1c>
 62c:	0001                	nop
 62e:	0100                	addi	s0,sp,128
 630:	0464                	addi	s1,sp,524
 632:	9604                	0x9604
 634:	0000                	unimp
 636:	1d00                	addi	s0,sp,688
 638:	01c1                	addi	gp,gp,16
 63a:	0000                	unimp
 63c:	6401                	0x6401
 63e:	0404                	addi	s1,sp,512
 640:	0096                	slli	ra,ra,0x5
 642:	0000                	unimp
 644:	7e1d                	lui	t3,0xfffe7
 646:	0002                	c.slli64	zero
 648:	0100                	addi	s0,sp,128
 64a:	0464                	addi	s1,sp,524
 64c:	9604                	0x9604
 64e:	0000                	unimp
 650:	1d00                	addi	s0,sp,688
 652:	0279                	addi	tp,tp,30
 654:	0000                	unimp
 656:	6401                	0x6401
 658:	0404                	addi	s1,sp,512
 65a:	0096                	slli	ra,ra,0x5
 65c:	0000                	unimp
 65e:	6d5f5f1b          	0x6d5f5f1b
 662:	0100                	addi	s0,sp,128
 664:	0464                	addi	s1,sp,524
 666:	9604                	0x9604
 668:	0000                	unimp
 66a:	0000                	unimp
 66c:	8c1c                	0x8c1c
 66e:	0006                	c.slli	zero,0x1
 670:	1d00                	addi	s0,sp,688
 672:	01da                	slli	gp,gp,0x16
 674:	0000                	unimp
 676:	8701                	c.srai64	a4
 678:	0404                	addi	s1,sp,512
 67a:	0096                	slli	ra,ra,0x5
 67c:	0000                	unimp
 67e:	615f5f1b          	0x615f5f1b
 682:	0100                	addi	s0,sp,128
 684:	96040487          	0x96040487
 688:	0000                	unimp
 68a:	0000                	unimp
 68c:	9f1c                	0x9f1c
 68e:	0006                	c.slli	zero,0x1
 690:	1b00                	addi	s0,sp,432
 692:	5f5f 0078 9501      	0x950100785f5f
 698:	0504                	addi	s1,sp,640
 69a:	0096                	slli	ra,ra,0x5
 69c:	0000                	unimp
 69e:	1e00                	addi	s0,sp,816
 6a0:	00316d1b          	0x316d1b
 6a4:	a501                	j	ca4 <main-0xf3d0>
 6a6:	0f04                	addi	s1,sp,912
 6a8:	0096                	slli	ra,ra,0x5
 6aa:	0000                	unimp
 6ac:	00306d1b          	0x306d1b
 6b0:	a501                	j	cb0 <main-0xf3c4>
 6b2:	1304                	addi	s1,sp,416
 6b4:	0096                	slli	ra,ra,0x5
 6b6:	0000                	unimp
 6b8:	191c                	addi	a5,sp,176
 6ba:	1d000007          	0x1d000007
 6be:	0051                	c.nop	20
 6c0:	0000                	unimp
 6c2:	b001                	j	fffffec2 <__global_pointer$+0xfffea17a>
 6c4:	0804                	addi	s1,sp,16
 6c6:	0096                	slli	ra,ra,0x5
 6c8:	0000                	unimp
 6ca:	4c1d                	li	s8,7
 6cc:	0000                	unimp
 6ce:	0100                	addi	s0,sp,128
 6d0:	04b0                	addi	a2,sp,584
 6d2:	9608                	0x9608
 6d4:	0000                	unimp
 6d6:	1d00                	addi	s0,sp,688
 6d8:	01c6                	slli	gp,gp,0x11
 6da:	0000                	unimp
 6dc:	b001                	j	fffffedc <__global_pointer$+0xfffea194>
 6de:	0804                	addi	s1,sp,16
 6e0:	0096                	slli	ra,ra,0x5
 6e2:	0000                	unimp
 6e4:	c11d                	beqz	a0,70a <main-0xf96a>
 6e6:	0001                	nop
 6e8:	0100                	addi	s0,sp,128
 6ea:	04b0                	addi	a2,sp,584
 6ec:	9608                	0x9608
 6ee:	0000                	unimp
 6f0:	1d00                	addi	s0,sp,688
 6f2:	027e                	slli	tp,tp,0x1f
 6f4:	0000                	unimp
 6f6:	b001                	j	fffffef6 <__global_pointer$+0xfffea1ae>
 6f8:	0804                	addi	s1,sp,16
 6fa:	0096                	slli	ra,ra,0x5
 6fc:	0000                	unimp
 6fe:	791d                	lui	s2,0xfffe7
 700:	0002                	c.slli64	zero
 702:	0100                	addi	s0,sp,128
 704:	04b0                	addi	a2,sp,584
 706:	9608                	0x9608
 708:	0000                	unimp
 70a:	1b00                	addi	s0,sp,432
 70c:	5f5f 006d b001      	0xb001006d5f5f
 712:	0804                	addi	s1,sp,16
 714:	0096                	slli	ra,ra,0x5
 716:	0000                	unimp
 718:	1c00                	addi	s0,sp,560
 71a:	00000787          	0x787
 71e:	811d                	srli	a0,a0,0x7
 720:	0001                	nop
 722:	0100                	addi	s0,sp,128
 724:	04b1                	addi	s1,s1,12
 726:	9608                	0x9608
 728:	0000                	unimp
 72a:	1d00                	addi	s0,sp,688
 72c:	0186                	slli	gp,gp,0x1
 72e:	0000                	unimp
 730:	b101                	j	330 <main-0xfd44>
 732:	0804                	addi	s1,sp,16
 734:	0096                	slli	ra,ra,0x5
 736:	0000                	unimp
 738:	8b1d                	andi	a4,a4,7
 73a:	0001                	nop
 73c:	0100                	addi	s0,sp,128
 73e:	04b1                	addi	s1,s1,12
 740:	9608                	0x9608
 742:	0000                	unimp
 744:	1d00                	addi	s0,sp,688
 746:	0190                	addi	a2,sp,192
 748:	0000                	unimp
 74a:	b101                	j	34a <main-0xfd2a>
 74c:	0804                	addi	s1,sp,16
 74e:	0096                	slli	ra,ra,0x5
 750:	0000                	unimp
 752:	881d                	andi	s0,s0,7
 754:	0002                	c.slli64	zero
 756:	0100                	addi	s0,sp,128
 758:	04b1                	addi	s1,s1,12
 75a:	9608                	0x9608
 75c:	0000                	unimp
 75e:	1d00                	addi	s0,sp,688
 760:	0065                	c.nop	25
 762:	0000                	unimp
 764:	b101                	j	364 <main-0xfd10>
 766:	0804                	addi	s1,sp,16
 768:	0096                	slli	ra,ra,0x5
 76a:	0000                	unimp
 76c:	831d                	srli	a4,a4,0x7
 76e:	0002                	c.slli64	zero
 770:	0100                	addi	s0,sp,128
 772:	04b1                	addi	s1,s1,12
 774:	9608                	0x9608
 776:	0000                	unimp
 778:	1d00                	addi	s0,sp,688
 77a:	0060                	addi	s0,sp,12
 77c:	0000                	unimp
 77e:	b101                	j	37e <main-0xfcf6>
 780:	0804                	addi	s1,sp,16
 782:	0096                	slli	ra,ra,0x5
 784:	0000                	unimp
 786:	1c00                	addi	s0,sp,560
 788:	079a                	slli	a5,a5,0x6
 78a:	0000                	unimp
 78c:	785f5f1b          	0x785f5f1b
 790:	0100                	addi	s0,sp,128
 792:	04b6                	slli	s1,s1,0xd
 794:	9605                	srai	a2,a2,0x21
 796:	0000                	unimp
 798:	0000                	unimp
 79a:	1b1e                	slli	s6,s6,0x27
 79c:	5f5f 0078 be01      	0xbe0100785f5f
 7a2:	0504                	addi	s1,sp,640
 7a4:	0096                	slli	ra,ra,0x5
 7a6:	0000                	unimp
 7a8:	0000                	unimp
 7aa:	1f00                	addi	s0,sp,944
 7ac:	ae04                	fsd	fs1,24(a2)
 7ae:	0000                	unimp
 7b0:	0000                	unimp
 7b2:	000000d3          	fadd.s	ft1,ft0,ft0,rne
 7b6:	0004                	0x4
 7b8:	019d                	addi	gp,gp,7
 7ba:	0000                	unimp
 7bc:	0104                	addi	s1,sp,128
 7be:	028d                	addi	t0,t0,3
 7c0:	0000                	unimp
 7c2:	200c                	fld	fa1,0(s0)
 7c4:	0000                	unimp
 7c6:	0000                	unimp
 7c8:	0002                	c.slli64	zero
 7ca:	4f00                	lw	s0,24(a4)
 7cc:	02000007          	0x2000007
 7d0:	0504                	addi	s1,sp,640
 7d2:	6e69                	lui	t3,0x1a
 7d4:	0074                	addi	a3,sp,12
 7d6:	82070403          	lb	s0,-2016(a4)
 7da:	0000                	unimp
 7dc:	0300                	addi	s0,sp,384
 7de:	0508                	addi	a0,sp,640
 7e0:	006a                	c.slli	zero,0x1a
 7e2:	0000                	unimp
 7e4:	f4041003          	lh	zero,-192(s0)
 7e8:	0001                	nop
 7ea:	0300                	addi	s0,sp,384
 7ec:	0601                	addi	a2,a2,0
 7ee:	0175                	addi	sp,sp,29
 7f0:	0000                	unimp
 7f2:	73080103          	lb	sp,1840(a6)
 7f6:	0001                	nop
 7f8:	0300                	addi	s0,sp,384
 7fa:	0502                	c.slli64	a0
 7fc:	0056                	c.slli	zero,0x15
 7fe:	0000                	unimp
 800:	a6070203          	lb	tp,-1440(a4)
 804:	0001                	nop
 806:	0300                	addi	s0,sp,384
 808:	0504                	addi	s1,sp,640
 80a:	0000006f          	j	80a <main-0xf86a>
 80e:	7d070403          	lb	s0,2000(a4)
 812:	0000                	unimp
 814:	0300                	addi	s0,sp,384
 816:	0708                	addi	a0,sp,896
 818:	0078                	addi	a4,sp,12
 81a:	0000                	unimp
 81c:	7c080103          	lb	sp,1984(a6)
 820:	0001                	nop
 822:	0400                	addi	s0,sp,512
 824:	0195                	addi	gp,gp,5
 826:	0000                	unimp
 828:	7b01                	lui	s6,0xfffe0
 82a:	4016                	0x4016
 82c:	0000                	unimp
 82e:	0500                	addi	s0,sp,640
 830:	0071                	c.nop	28
 832:	0000                	unimp
 834:	1a040403          	lb	s0,416(s0)
 838:	0000                	unimp
 83a:	0300                	addi	s0,sp,384
 83c:	0308                	addi	a0,sp,384
 83e:	0012                	c.slli	zero,0x4
 840:	0000                	unimp
 842:	f9040803          	lb	a6,-112(s0)
 846:	0001                	nop
 848:	0300                	addi	s0,sp,384
 84a:	0310                	addi	a2,sp,384
 84c:	000001cb          	fnmsub.s	ft3,ft0,ft0,ft0,rne
 850:	ec032003          	lw	zero,-320(t1) # ffff9ec0 <__global_pointer$+0xfffe4178>
 854:	0001                	nop
 856:	0600                	addi	s0,sp,768
 858:	007d                	c.nop	31
 85a:	0000                	unimp
 85c:	00b5                	addi	ra,ra,13
 85e:	0000                	unimp
 860:	00002407          	flw	fs0,0(zero) # 0 <main-0x10074>
 864:	ff00                	fsw	fs0,56(a4)
 866:	0500                	addi	s0,sp,640
 868:	00a5                	addi	ra,ra,9
 86a:	0000                	unimp
 86c:	6908                	flw	fa0,16(a0)
 86e:	0001                	nop
 870:	0100                	addi	s0,sp,128
 872:	0202                	c.slli64	tp
 874:	b516                	fsd	ft5,168(sp)
 876:	0000                	unimp
 878:	0900                	addi	s0,sp,144
 87a:	00ba                	slli	ra,ra,0xe
 87c:	0000                	unimp
 87e:	b202                	fsd	ft0,288(sp)
 880:	0f02                	c.slli64	t5
 882:	0305                	addi	t1,t1,1
 884:	40f8                	lw	a4,68(s1)
 886:	0001                	nop
	...

Disassembly of section .debug_abbrev:

00000000 <.debug_abbrev>:
   0:	1101                	addi	sp,sp,-32
   2:	2501                	jal	602 <main-0xfa72>
   4:	130e                	slli	t1,t1,0x23
   6:	1b0e030b          	0x1b0e030b
   a:	110e                	slli	sp,sp,0x23
   c:	1201                	addi	tp,tp,-32
   e:	1006                	c.slli	zero,0x21
  10:	02000017          	auipc	zero,0x2000
  14:	0024                	addi	s1,sp,8
  16:	0b3e0b0b          	0xb3e0b0b
  1a:	00000e03          	lb	t3,0(zero) # 0 <main-0x10074>
  1e:	0b002403          	lw	s0,176(zero) # b0 <main-0xffc4>
  22:	030b3e0b          	0x30b3e0b
  26:	0008                	0x8
  28:	0400                	addi	s0,sp,512
  2a:	0016                	c.slli	zero,0x5
  2c:	0b3a0e03          	lb	t3,179(s4)
  30:	0b390b3b          	0xb390b3b
  34:	1349                	addi	t1,t1,-14
  36:	0000                	unimp
  38:	2605                	jal	358 <main-0xfd1c>
  3a:	4900                	lw	s0,16(a0)
  3c:	06000013          	li	zero,96
  40:	0e030113          	addi	sp,t1,224
  44:	0b3a0b0b          	0xb3a0b0b
  48:	0b39053b          	0xb39053b
  4c:	1301                	addi	t1,t1,-32
  4e:	0000                	unimp
  50:	03000d07          	0x3000d07
  54:	3a08                	fld	fa0,48(a2)
  56:	39053b0b          	0x39053b0b
  5a:	3813490b          	0x3813490b
  5e:	0800000b          	0x800000b
  62:	000d                	c.nop	3
  64:	0b3a0e03          	lb	t3,179(s4)
  68:	0b39053b          	0xb39053b
  6c:	1349                	addi	t1,t1,-14
  6e:	0b38                	addi	a4,sp,408
  70:	0000                	unimp
  72:	1709                	addi	a4,a4,-30
  74:	0b01                	addi	s6,s6,0
  76:	3b0b3a0b          	0x3b0b3a0b
  7a:	3905                	jal	fffffcaa <__global_pointer$+0xfffe9f62>
  7c:	0013010b          	0x13010b
  80:	0a00                	addi	s0,sp,272
  82:	000d                	c.nop	3
  84:	0b3a0803          	lb	a6,179(s4)
  88:	0b39053b          	0xb39053b
  8c:	1349                	addi	t1,t1,-14
  8e:	0000                	unimp
  90:	0300160b          	0x300160b
  94:	3a0e                	fld	fs4,224(sp)
  96:	39053b0b          	0x39053b0b
  9a:	0013490b          	0x13490b
  9e:	0c00                	addi	s0,sp,528
  a0:	0101                	addi	sp,sp,0
  a2:	1349                	addi	t1,t1,-14
  a4:	1301                	addi	t1,t1,-32
  a6:	0000                	unimp
  a8:	210d                	jal	4ca <main-0xfbaa>
  aa:	4900                	lw	s0,16(a0)
  ac:	000b2f13          	slti	t5,s6,0
  b0:	0e00                	addi	s0,sp,784
  b2:	0034                	addi	a3,sp,8
  b4:	0b3a0e03          	lb	t3,179(s4)
  b8:	0b39053b          	0xb39053b
  bc:	1349                	addi	t1,t1,-14
  be:	193c193f 2e0f0000 	0x2e0f0000193c193f
  c6:	3f01                	jal	ffffffd6 <__global_pointer$+0xfffea28e>
  c8:	0319                	addi	t1,t1,6
  ca:	3a0e                	fld	fs4,224(sp)
  cc:	39053b0b          	0x39053b0b
  d0:	4919270b          	0x4919270b
  d4:	12011113          	0x12011113
  d8:	4006                	0x4006
  da:	9718                	0x9718
  dc:	1942                	slli	s2,s2,0x30
  de:	1301                	addi	t1,t1,-32
  e0:	0000                	unimp
  e2:	0510                	addi	a2,sp,640
  e4:	0300                	addi	s0,sp,384
  e6:	3a08                	fld	fa0,48(a2)
  e8:	39053b0b          	0x39053b0b
  ec:	0213490b          	0x213490b
  f0:	11000017          	auipc	zero,0x11000
  f4:	011d                	addi	sp,sp,7
  f6:	1331                	addi	t1,t1,-20
  f8:	0152                	slli	sp,sp,0x14
  fa:	1755                	addi	a4,a4,-11
  fc:	0b58                	addi	a4,sp,404
  fe:	0559                	addi	a0,a0,22
 100:	00000b57          	0xb57
 104:	0512                	slli	a0,a0,0x4
 106:	3100                	fld	fs0,32(a0)
 108:	00170213          	addi	tp,a4,1
 10c:	1300                	addi	s0,sp,416
 10e:	1755010b          	0x1755010b
 112:	0000                	unimp
 114:	3414                	fld	fa3,40(s0)
 116:	3100                	fld	fs0,32(a0)
 118:	15000013          	li	zero,336
 11c:	0034                	addi	a3,sp,8
 11e:	1331                	addi	t1,t1,-20
 120:	1702                	slli	a4,a4,0x20
 122:	0000                	unimp
 124:	0b16                	slli	s6,s6,0x5
 126:	3101                	jal	fffffd26 <__global_pointer$+0xfffe9fde>
 128:	01175513          	srli	a0,a4,0x11
 12c:	17000013          	li	zero,368
 130:	1331010b          	0x1331010b
 134:	0111                	addi	sp,sp,4
 136:	0612                	slli	a2,a2,0x4
 138:	1301                	addi	t1,t1,-32
 13a:	0000                	unimp
 13c:	0b18                	addi	a4,sp,400
 13e:	3101                	jal	fffffd3e <__global_pointer$+0xfffe9ff6>
 140:	00175513          	srli	a0,a4,0x1
 144:	1900                	addi	s0,sp,176
 146:	012e                	slli	sp,sp,0xb
 148:	0b3a0e03          	lb	t3,179(s4)
 14c:	0b39053b          	0xb39053b
 150:	13491927          	0x13491927
 154:	0b20                	addi	s0,sp,408
 156:	1301                	addi	t1,t1,-32
 158:	0000                	unimp
 15a:	051a                	slli	a0,a0,0x6
 15c:	0300                	addi	s0,sp,384
 15e:	3a08                	fld	fa0,48(a2)
 160:	39053b0b          	0x39053b0b
 164:	0013490b          	0x13490b
 168:	1b00                	addi	s0,sp,432
 16a:	0034                	addi	a3,sp,8
 16c:	0b3a0803          	lb	a6,179(s4)
 170:	0b39053b          	0xb39053b
 174:	1349                	addi	t1,t1,-14
 176:	0000                	unimp
 178:	0b1c                	addi	a5,sp,400
 17a:	0101                	addi	sp,sp,0
 17c:	1d000013          	li	zero,464
 180:	0034                	addi	a3,sp,8
 182:	0b3a0e03          	lb	t3,179(s4)
 186:	0b39053b          	0xb39053b
 18a:	1349                	addi	t1,t1,-14
 18c:	0000                	unimp
 18e:	0b1e                	slli	s6,s6,0x7
 190:	0001                	nop
 192:	1f00                	addi	s0,sp,944
 194:	0b0b000f          	0xb0b000f
 198:	1349                	addi	t1,t1,-14
 19a:	0000                	unimp
 19c:	0100                	addi	s0,sp,128
 19e:	0111                	addi	sp,sp,4
 1a0:	0e25                	addi	t3,t3,9
 1a2:	0e030b13          	addi	s6,t1,224
 1a6:	17100e1b          	0x17100e1b
 1aa:	0000                	unimp
 1ac:	2402                	fld	fs0,0(sp)
 1ae:	0b00                	addi	s0,sp,400
 1b0:	030b3e0b          	0x30b3e0b
 1b4:	0008                	0x8
 1b6:	0300                	addi	s0,sp,384
 1b8:	0024                	addi	s1,sp,8
 1ba:	0b3e0b0b          	0xb3e0b0b
 1be:	00000e03          	lb	t3,0(zero) # 0 <main-0x10074>
 1c2:	1604                	addi	s1,sp,800
 1c4:	0300                	addi	s0,sp,384
 1c6:	3a0e                	fld	fs4,224(sp)
 1c8:	390b3b0b          	0x390b3b0b
 1cc:	0013490b          	0x13490b
 1d0:	0500                	addi	s0,sp,640
 1d2:	0026                	c.slli	zero,0x9
 1d4:	1349                	addi	t1,t1,-14
 1d6:	0000                	unimp
 1d8:	0106                	slli	sp,sp,0x1
 1da:	4901                	li	s2,0
 1dc:	00130113          	addi	sp,t1,1
 1e0:	0700                	addi	s0,sp,896
 1e2:	0021                	c.nop	8
 1e4:	1349                	addi	t1,t1,-14
 1e6:	00000b2f          	0xb2f
 1ea:	3408                	fld	fa0,40(s0)
 1ec:	0300                	addi	s0,sp,384
 1ee:	3a0e                	fld	fs4,224(sp)
 1f0:	39053b0b          	0x39053b0b
 1f4:	3f13490b          	0x3f13490b
 1f8:	3c19                	jal	fffffc0e <__global_pointer$+0xfffe9ec6>
 1fa:	0019                	c.nop	6
 1fc:	0900                	addi	s0,sp,144
 1fe:	0034                	addi	a3,sp,8
 200:	0b3a1347          	fmsub.d	ft6,fs4,fs3,ft1,rtz
 204:	0b39053b          	0xb39053b
 208:	1802                	slli	a6,a6,0x20
 20a:	0000                	unimp
	...

Disassembly of section .debug_line:

00000000 <.debug_line>:
   0:	0000074b          	fnmsub.s	fa4,ft0,ft0,ft0,rne
   4:	004f0003          	lb	zero,4(t5) # 1004 <main-0xf070>
   8:	0000                	unimp
   a:	0101                	addi	sp,sp,0
   c:	000d0efb          	0xd0efb
  10:	0101                	addi	sp,sp,0
  12:	0101                	addi	sp,sp,0
  14:	0000                	unimp
  16:	0100                	addi	s0,sp,128
  18:	0000                	unimp
  1a:	2e01                	jal	32a <main-0xfd4a>
  1c:	2f2e                	fld	ft10,200(sp)
  1e:	2e2e                	fld	ft8,200(sp)
  20:	2f2e2e2f          	0x2f2e2e2f
  24:	2e2e                	fld	ft8,200(sp)
  26:	2f2e2e2f          	0x2f2e2e2f
  2a:	2f2e                	fld	ft10,200(sp)
  2c:	6972                	flw	fs2,28(sp)
  2e:	2d766373          	csrrsi	t1,0x2d7,12
  32:	2f636367          	0x2f636367
  36:	696c                	flw	fa1,84(a0)
  38:	6762                	flw	fa4,24(sp)
  3a:	00006363          	bltu	zero,zero,40 <main-0x10034>
  3e:	696c                	flw	fa1,84(a0)
  40:	6762                	flw	fa4,24(sp)
  42:	2e326363          	bltu	tp,gp,328 <main-0xfd4c>
  46:	00010063          	beqz	sp,46 <main-0x1002e>
  4a:	6c00                	flw	fs0,24(s0)
  4c:	6269                	lui	tp,0x1a
  4e:	32636367          	0x32636367
  52:	682e                	flw	fa6,200(sp)
  54:	0100                	addi	s0,sp,128
  56:	0000                	unimp
  58:	0500                	addi	s0,sp,640
  5a:	0001                	nop
  5c:	0205                	addi	tp,tp,1
  5e:	1e4c                	addi	a1,sp,820
  60:	0001                	nop
  62:	010aa603          	lw	a2,16(s5)
  66:	0305                	addi	t1,t1,1
  68:	00090103          	lb	sp,0(s2) # fffe7000 <__global_pointer$+0xfffd12b8>
  6c:	0100                	addi	s0,sp,128
  6e:	0105                	addi	sp,sp,1
  70:	0306                	slli	t1,t1,0x1
  72:	097f                	0x97f
  74:	0000                	unimp
  76:	0501                	addi	a0,a0,0
  78:	d2030603          	lb	a2,-736(t1)
  7c:	097d                	addi	s2,s2,31
  7e:	0004                	0x4
  80:	0301                	addi	t1,t1,0
  82:	0901                	addi	s2,s2,0
  84:	0000                	unimp
  86:	0301                	addi	t1,t1,0
  88:	0901                	addi	s2,s2,0
  8a:	0000                	unimp
  8c:	0301                	addi	t1,t1,0
  8e:	0901                	addi	s2,s2,0
  90:	0000                	unimp
  92:	0301                	addi	t1,t1,0
  94:	0901                	addi	s2,s2,0
  96:	0000                	unimp
  98:	0301                	addi	t1,t1,0
  9a:	0901                	addi	s2,s2,0
  9c:	0000                	unimp
  9e:	0301                	addi	t1,t1,0
  a0:	0902                	c.slli64	s2
  a2:	0000                	unimp
  a4:	0501                	addi	a0,a0,0
  a6:	0601                	addi	a2,a2,0
  a8:	0902a703          	lw	a4,144(t0)
  ac:	0000                	unimp
  ae:	0501                	addi	a0,a0,0
  b0:	0306                	slli	t1,t1,0x1
  b2:	7dd9                	lui	s11,0xffff6
  b4:	0409                	addi	s0,s0,2
  b6:	0100                	addi	s0,sp,128
  b8:	0305                	addi	t1,t1,1
  ba:	0306                	slli	t1,t1,0x1
  bc:	0901                	addi	s2,s2,0
  be:	0004                	0x4
  c0:	0501                	addi	a0,a0,0
  c2:	0606                	slli	a2,a2,0x1
  c4:	00090003          	lb	zero,0(s2)
  c8:	0100                	addi	s0,sp,128
  ca:	0305                	addi	t1,t1,1
  cc:	0306                	slli	t1,t1,0x1
  ce:	0901                	addi	s2,s2,0
  d0:	0004                	0x4
  d2:	0501                	addi	a0,a0,0
  d4:	0606                	slli	a2,a2,0x1
  d6:	00090003          	lb	zero,0(s2)
  da:	0100                	addi	s0,sp,128
  dc:	0305                	addi	t1,t1,1
  de:	0306                	slli	t1,t1,0x1
  e0:	0901                	addi	s2,s2,0
  e2:	0004                	0x4
  e4:	0301                	addi	t1,t1,0
  e6:	0925                	addi	s2,s2,9
  e8:	0000                	unimp
  ea:	0501                	addi	a0,a0,0
  ec:	0606                	slli	a2,a2,0x1
  ee:	00090003          	lb	zero,0(s2)
  f2:	0100                	addi	s0,sp,128
  f4:	0705                	addi	a4,a4,1
  f6:	0306                	slli	t1,t1,0x1
  f8:	0902                	c.slli64	s2
  fa:	0004                	0x4
  fc:	0501                	addi	a0,a0,0
  fe:	060a                	slli	a2,a2,0x2
 100:	08090003          	lb	zero,128(s2)
 104:	0100                	addi	s0,sp,128
 106:	0405                	addi	s0,s0,1
 108:	0306                	slli	t1,t1,0x1
 10a:	0904                	addi	s1,sp,144
 10c:	0004                	0x4
 10e:	0301                	addi	t1,t1,0
 110:	0900                	addi	s0,sp,144
 112:	0000                	unimp
 114:	0301                	addi	t1,t1,0
 116:	0900                	addi	s0,sp,144
 118:	0000                	unimp
 11a:	0301                	addi	t1,t1,0
 11c:	0900                	addi	s0,sp,144
 11e:	0000                	unimp
 120:	0301                	addi	t1,t1,0
 122:	0900                	addi	s0,sp,144
 124:	0000                	unimp
 126:	0301                	addi	t1,t1,0
 128:	0900                	addi	s0,sp,144
 12a:	0014                	0x14
 12c:	0301                	addi	t1,t1,0
 12e:	0900                	addi	s0,sp,144
 130:	0018                	0x18
 132:	0301                	addi	t1,t1,0
 134:	0902                	c.slli64	s2
 136:	0000                	unimp
 138:	0501                	addi	a0,a0,0
 13a:	00030607          	0x30607
 13e:	0009                	c.nop	2
 140:	0100                	addi	s0,sp,128
 142:	0805                	addi	a6,a6,1
 144:	0306                	slli	t1,t1,0x1
 146:	0905                	addi	s2,s2,1
 148:	0004                	0x4
 14a:	0501                	addi	a0,a0,0
 14c:	0611                	addi	a2,a2,4
 14e:	00090103          	lb	sp,0(s2)
 152:	0100                	addi	s0,sp,128
 154:	1e05                	addi	t3,t3,-31
 156:	04090003          	lb	zero,64(s2)
 15a:	0100                	addi	s0,sp,128
 15c:	0b05                	addi	s6,s6,1
 15e:	04097f03          	0x4097f03
 162:	0100                	addi	s0,sp,128
 164:	0805                	addi	a6,a6,1
 166:	0306                	slli	t1,t1,0x1
 168:	0901                	addi	s2,s2,0
 16a:	0004                	0x4
 16c:	0501                	addi	a0,a0,0
 16e:	0003060b          	0x3060b
 172:	0009                	c.nop	2
 174:	0100                	addi	s0,sp,128
 176:	0805                	addi	a6,a6,1
 178:	0306                	slli	t1,t1,0x1
 17a:	0901                	addi	s2,s2,0
 17c:	0004                	0x4
 17e:	0501                	addi	a0,a0,0
 180:	0003060b          	0x3060b
 184:	0009                	c.nop	2
 186:	0100                	addi	s0,sp,128
 188:	0405                	addi	s0,s0,1
 18a:	0306                	slli	t1,t1,0x1
 18c:	00040903          	lb	s2,0(s0)
 190:	0301                	addi	t1,t1,0
 192:	0900                	addi	s0,sp,144
 194:	0000                	unimp
 196:	0301                	addi	t1,t1,0
 198:	0900                	addi	s0,sp,144
 19a:	0000                	unimp
 19c:	0301                	addi	t1,t1,0
 19e:	0900                	addi	s0,sp,144
 1a0:	0000                	unimp
 1a2:	0301                	addi	t1,t1,0
 1a4:	0900                	addi	s0,sp,144
 1a6:	0004                	0x4
 1a8:	0301                	addi	t1,t1,0
 1aa:	0900                	addi	s0,sp,144
 1ac:	000c                	0xc
 1ae:	0301                	addi	t1,t1,0
 1b0:	0900                	addi	s0,sp,144
 1b2:	0008                	0x8
 1b4:	0301                	addi	t1,t1,0
 1b6:	0900                	addi	s0,sp,144
 1b8:	0000                	unimp
 1ba:	0301                	addi	t1,t1,0
 1bc:	0900                	addi	s0,sp,144
 1be:	0008                	0x8
 1c0:	0301                	addi	t1,t1,0
 1c2:	0900                	addi	s0,sp,144
 1c4:	0008                	0x8
 1c6:	0301                	addi	t1,t1,0
 1c8:	0900                	addi	s0,sp,144
 1ca:	0004                	0x4
 1cc:	0301                	addi	t1,t1,0
 1ce:	0900                	addi	s0,sp,144
 1d0:	0008                	0x8
 1d2:	0301                	addi	t1,t1,0
 1d4:	0900                	addi	s0,sp,144
 1d6:	0004                	0x4
 1d8:	0301                	addi	t1,t1,0
 1da:	0900                	addi	s0,sp,144
 1dc:	0004                	0x4
 1de:	0301                	addi	t1,t1,0
 1e0:	0900                	addi	s0,sp,144
 1e2:	0008                	0x8
 1e4:	0301                	addi	t1,t1,0
 1e6:	0900                	addi	s0,sp,144
 1e8:	0004                	0x4
 1ea:	0301                	addi	t1,t1,0
 1ec:	0900                	addi	s0,sp,144
 1ee:	0004                	0x4
 1f0:	0301                	addi	t1,t1,0
 1f2:	0900                	addi	s0,sp,144
 1f4:	000c                	0xc
 1f6:	0301                	addi	t1,t1,0
 1f8:	0900                	addi	s0,sp,144
 1fa:	000c                	0xc
 1fc:	0301                	addi	t1,t1,0
 1fe:	0900                	addi	s0,sp,144
 200:	0000                	unimp
 202:	0301                	addi	t1,t1,0
 204:	0900                	addi	s0,sp,144
 206:	0008                	0x8
 208:	0301                	addi	t1,t1,0
 20a:	0900                	addi	s0,sp,144
 20c:	0008                	0x8
 20e:	0301                	addi	t1,t1,0
 210:	0900                	addi	s0,sp,144
 212:	0004                	0x4
 214:	0301                	addi	t1,t1,0
 216:	0900                	addi	s0,sp,144
 218:	0004                	0x4
 21a:	0301                	addi	t1,t1,0
 21c:	0900                	addi	s0,sp,144
 21e:	0004                	0x4
 220:	0301                	addi	t1,t1,0
 222:	0900                	addi	s0,sp,144
 224:	0000                	unimp
 226:	0301                	addi	t1,t1,0
 228:	0900                	addi	s0,sp,144
 22a:	0008                	0x8
 22c:	0301                	addi	t1,t1,0
 22e:	0900                	addi	s0,sp,144
 230:	0000                	unimp
 232:	0301                	addi	t1,t1,0
 234:	0901                	addi	s2,s2,0
 236:	0000                	unimp
 238:	0501                	addi	a0,a0,0
 23a:	fe03060b          	0xfe03060b
 23e:	0900                	addi	s0,sp,144
 240:	0000                	unimp
 242:	0501                	addi	a0,a0,0
 244:	0304                	addi	s1,sp,384
 246:	7ef5                	lui	t4,0xffffd
 248:	0809                	addi	a6,a6,2
 24a:	0100                	addi	s0,sp,128
 24c:	0306                	slli	t1,t1,0x1
 24e:	0915                	addi	s2,s2,5
 250:	0014                	0x14
 252:	0501                	addi	a0,a0,0
 254:	00030607          	0x30607
 258:	0009                	c.nop	2
 25a:	0100                	addi	s0,sp,128
 25c:	0605                	addi	a2,a2,1
 25e:	0306                	slli	t1,t1,0x1
 260:	0901                	addi	s2,s2,0
 262:	0004                	0x4
 264:	0501                	addi	a0,a0,0
 266:	0609                	addi	a2,a2,2
 268:	00090003          	lb	zero,0(s2)
 26c:	0100                	addi	s0,sp,128
 26e:	0405                	addi	s0,s0,1
 270:	0306                	slli	t1,t1,0x1
 272:	0902                	c.slli64	s2
 274:	0008                	0x8
 276:	0301                	addi	t1,t1,0
 278:	0900                	addi	s0,sp,144
 27a:	0000                	unimp
 27c:	0301                	addi	t1,t1,0
 27e:	0900                	addi	s0,sp,144
 280:	0000                	unimp
 282:	0301                	addi	t1,t1,0
 284:	0900                	addi	s0,sp,144
 286:	0000                	unimp
 288:	0301                	addi	t1,t1,0
 28a:	0900                	addi	s0,sp,144
 28c:	0000                	unimp
 28e:	0301                	addi	t1,t1,0
 290:	0900                	addi	s0,sp,144
 292:	0014                	0x14
 294:	0301                	addi	t1,t1,0
 296:	0900                	addi	s0,sp,144
 298:	0018                	0x18
 29a:	0301                	addi	t1,t1,0
 29c:	0902                	c.slli64	s2
 29e:	0000                	unimp
 2a0:	0501                	addi	a0,a0,0
 2a2:	00030607          	0x30607
 2a6:	0009                	c.nop	2
 2a8:	0100                	addi	s0,sp,128
 2aa:	0805                	addi	a6,a6,1
 2ac:	0306                	slli	t1,t1,0x1
 2ae:	0909                	addi	s2,s2,2
 2b0:	0004                	0x4
 2b2:	0501                	addi	a0,a0,0
 2b4:	0003060b          	0x3060b
 2b8:	0009                	c.nop	2
 2ba:	0100                	addi	s0,sp,128
 2bc:	0805                	addi	a6,a6,1
 2be:	0306                	slli	t1,t1,0x1
 2c0:	0901                	addi	s2,s2,0
 2c2:	0004                	0x4
 2c4:	0501                	addi	a0,a0,0
 2c6:	0003060b          	0x3060b
 2ca:	0009                	c.nop	2
 2cc:	0100                	addi	s0,sp,128
 2ce:	0805                	addi	a6,a6,1
 2d0:	0306                	slli	t1,t1,0x1
 2d2:	090d                	addi	s2,s2,3
 2d4:	0004                	0x4
 2d6:	0501                	addi	a0,a0,0
 2d8:	0304                	addi	s1,sp,384
 2da:	0905                	addi	s2,s2,1
 2dc:	0000                	unimp
 2de:	0301                	addi	t1,t1,0
 2e0:	0900                	addi	s0,sp,144
 2e2:	0000                	unimp
 2e4:	0301                	addi	t1,t1,0
 2e6:	0900                	addi	s0,sp,144
 2e8:	0000                	unimp
 2ea:	0301                	addi	t1,t1,0
 2ec:	0900                	addi	s0,sp,144
 2ee:	0000                	unimp
 2f0:	0301                	addi	t1,t1,0
 2f2:	0900                	addi	s0,sp,144
 2f4:	0004                	0x4
 2f6:	0301                	addi	t1,t1,0
 2f8:	0900                	addi	s0,sp,144
 2fa:	0008                	0x8
 2fc:	0301                	addi	t1,t1,0
 2fe:	0900                	addi	s0,sp,144
 300:	0008                	0x8
 302:	0301                	addi	t1,t1,0
 304:	0900                	addi	s0,sp,144
 306:	0004                	0x4
 308:	0301                	addi	t1,t1,0
 30a:	0900                	addi	s0,sp,144
 30c:	000c                	0xc
 30e:	0301                	addi	t1,t1,0
 310:	0900                	addi	s0,sp,144
 312:	0000                	unimp
 314:	0301                	addi	t1,t1,0
 316:	0900                	addi	s0,sp,144
 318:	0008                	0x8
 31a:	0301                	addi	t1,t1,0
 31c:	0900                	addi	s0,sp,144
 31e:	0008                	0x8
 320:	0301                	addi	t1,t1,0
 322:	0900                	addi	s0,sp,144
 324:	0004                	0x4
 326:	0301                	addi	t1,t1,0
 328:	0900                	addi	s0,sp,144
 32a:	0004                	0x4
 32c:	0301                	addi	t1,t1,0
 32e:	0900                	addi	s0,sp,144
 330:	0008                	0x8
 332:	0301                	addi	t1,t1,0
 334:	0900                	addi	s0,sp,144
 336:	0004                	0x4
 338:	0301                	addi	t1,t1,0
 33a:	0900                	addi	s0,sp,144
 33c:	0004                	0x4
 33e:	0301                	addi	t1,t1,0
 340:	0900                	addi	s0,sp,144
 342:	000c                	0xc
 344:	0301                	addi	t1,t1,0
 346:	0900                	addi	s0,sp,144
 348:	000c                	0xc
 34a:	0301                	addi	t1,t1,0
 34c:	0900                	addi	s0,sp,144
 34e:	0000                	unimp
 350:	0301                	addi	t1,t1,0
 352:	0900                	addi	s0,sp,144
 354:	0008                	0x8
 356:	0301                	addi	t1,t1,0
 358:	0900                	addi	s0,sp,144
 35a:	0008                	0x8
 35c:	0301                	addi	t1,t1,0
 35e:	0900                	addi	s0,sp,144
 360:	0004                	0x4
 362:	0301                	addi	t1,t1,0
 364:	0900                	addi	s0,sp,144
 366:	0004                	0x4
 368:	0301                	addi	t1,t1,0
 36a:	0900                	addi	s0,sp,144
 36c:	0004                	0x4
 36e:	0301                	addi	t1,t1,0
 370:	0900                	addi	s0,sp,144
 372:	0000                	unimp
 374:	0301                	addi	t1,t1,0
 376:	0900                	addi	s0,sp,144
 378:	0008                	0x8
 37a:	0501                	addi	a0,a0,0
 37c:	00e30303          	lb	t1,14(t1)
 380:	0009                	c.nop	2
 382:	0100                	addi	s0,sp,128
 384:	00090103          	lb	sp,0(s2)
 388:	0100                	addi	s0,sp,128
 38a:	0105                	addi	sp,sp,1
 38c:	0306                	slli	t1,t1,0x1
 38e:	00e1                	addi	ra,ra,24
 390:	0009                	c.nop	2
 392:	0100                	addi	s0,sp,128
 394:	0405                	addi	s0,s0,1
 396:	097e9d03          	lh	s10,151(t4) # ffffd097 <__global_pointer$+0xfffe734f>
 39a:	0004                	0x4
 39c:	0501                	addi	a0,a0,0
 39e:	0608                	addi	a0,sp,768
 3a0:	14091203          	lh	tp,320(s2)
 3a4:	0100                	addi	s0,sp,128
 3a6:	00090203          	lb	tp,0(s2)
 3aa:	0100                	addi	s0,sp,128
 3ac:	0b05                	addi	s6,s6,1
 3ae:	0306                	slli	t1,t1,0x1
 3b0:	0900                	addi	s0,sp,144
 3b2:	0000                	unimp
 3b4:	0501                	addi	a0,a0,0
 3b6:	0608                	addi	a0,sp,768
 3b8:	04090103          	lb	sp,64(s2)
 3bc:	0100                	addi	s0,sp,128
 3be:	0b05                	addi	s6,s6,1
 3c0:	0306                	slli	t1,t1,0x1
 3c2:	0900                	addi	s0,sp,144
 3c4:	0000                	unimp
 3c6:	0501                	addi	a0,a0,0
 3c8:	0608                	addi	a0,sp,768
 3ca:	04090103          	lb	sp,64(s2)
 3ce:	0100                	addi	s0,sp,128
 3d0:	0b05                	addi	s6,s6,1
 3d2:	0306                	slli	t1,t1,0x1
 3d4:	0901                	addi	s2,s2,0
 3d6:	0000                	unimp
 3d8:	0501                	addi	a0,a0,0
 3da:	0311                	addi	t1,t1,4
 3dc:	097f                	0x97f
 3de:	0004                	0x4
 3e0:	0501                	addi	a0,a0,0
 3e2:	031e                	slli	t1,t1,0x7
 3e4:	0900                	addi	s0,sp,144
 3e6:	0004                	0x4
 3e8:	0501                	addi	a0,a0,0
 3ea:	0308                	addi	a0,sp,384
 3ec:	00040903          	lb	s2,0(s0)
 3f0:	0501                	addi	a0,a0,0
 3f2:	097d030b          	0x97d030b
 3f6:	0004                	0x4
 3f8:	0501                	addi	a0,a0,0
 3fa:	0608                	addi	a0,sp,768
 3fc:	04090103          	lb	sp,64(s2)
 400:	0100                	addi	s0,sp,128
 402:	00090203          	lb	tp,0(s2)
 406:	0100                	addi	s0,sp,128
 408:	00090003          	lb	zero,0(s2)
 40c:	0100                	addi	s0,sp,128
 40e:	00090003          	lb	zero,0(s2)
 412:	0100                	addi	s0,sp,128
 414:	00090003          	lb	zero,0(s2)
 418:	0100                	addi	s0,sp,128
 41a:	00090003          	lb	zero,0(s2)
 41e:	0100                	addi	s0,sp,128
 420:	0c090003          	lb	zero,192(s2)
 424:	0100                	addi	s0,sp,128
 426:	00090003          	lb	zero,0(s2)
 42a:	0100                	addi	s0,sp,128
 42c:	08090003          	lb	zero,128(s2)
 430:	0100                	addi	s0,sp,128
 432:	0c090003          	lb	zero,192(s2)
 436:	0100                	addi	s0,sp,128
 438:	00090003          	lb	zero,0(s2)
 43c:	0100                	addi	s0,sp,128
 43e:	08090003          	lb	zero,128(s2)
 442:	0100                	addi	s0,sp,128
 444:	08090003          	lb	zero,128(s2)
 448:	0100                	addi	s0,sp,128
 44a:	04090003          	lb	zero,64(s2)
 44e:	0100                	addi	s0,sp,128
 450:	04090003          	lb	zero,64(s2)
 454:	0100                	addi	s0,sp,128
 456:	08090003          	lb	zero,128(s2)
 45a:	0100                	addi	s0,sp,128
 45c:	04090003          	lb	zero,64(s2)
 460:	0100                	addi	s0,sp,128
 462:	04090003          	lb	zero,64(s2)
 466:	0100                	addi	s0,sp,128
 468:	0c090003          	lb	zero,192(s2)
 46c:	0100                	addi	s0,sp,128
 46e:	08090003          	lb	zero,128(s2)
 472:	0100                	addi	s0,sp,128
 474:	04090003          	lb	zero,64(s2)
 478:	0100                	addi	s0,sp,128
 47a:	08090003          	lb	zero,128(s2)
 47e:	0100                	addi	s0,sp,128
 480:	08090003          	lb	zero,128(s2)
 484:	0100                	addi	s0,sp,128
 486:	04090003          	lb	zero,64(s2)
 48a:	0100                	addi	s0,sp,128
 48c:	04090003          	lb	zero,64(s2)
 490:	0100                	addi	s0,sp,128
 492:	08090003          	lb	zero,128(s2)
 496:	0100                	addi	s0,sp,128
 498:	08090003          	lb	zero,128(s2)
 49c:	0100                	addi	s0,sp,128
 49e:	04090003          	lb	zero,64(s2)
 4a2:	0100                	addi	s0,sp,128
 4a4:	0705                	addi	a4,a4,1
 4a6:	04091503          	lh	a0,64(s2)
 4aa:	0100                	addi	s0,sp,128
 4ac:	0a05                	addi	s4,s4,1
 4ae:	0306                	slli	t1,t1,0x1
 4b0:	0900                	addi	s0,sp,144
 4b2:	0000                	unimp
 4b4:	0501                	addi	a0,a0,0
 4b6:	0604                	addi	s1,sp,768
 4b8:	04091303          	lh	t1,64(s2)
 4bc:	0100                	addi	s0,sp,128
 4be:	00090003          	lb	zero,0(s2)
 4c2:	0100                	addi	s0,sp,128
 4c4:	00090003          	lb	zero,0(s2)
 4c8:	0100                	addi	s0,sp,128
 4ca:	00090003          	lb	zero,0(s2)
 4ce:	0100                	addi	s0,sp,128
 4d0:	00090003          	lb	zero,0(s2)
 4d4:	0100                	addi	s0,sp,128
 4d6:	14090003          	lb	zero,320(s2)
 4da:	0100                	addi	s0,sp,128
 4dc:	20090003          	lb	zero,512(s2)
 4e0:	0100                	addi	s0,sp,128
 4e2:	00090103          	lb	sp,0(s2)
 4e6:	0100                	addi	s0,sp,128
 4e8:	0705                	addi	a4,a4,1
 4ea:	0306                	slli	t1,t1,0x1
 4ec:	0900                	addi	s0,sp,144
 4ee:	0000                	unimp
 4f0:	0501                	addi	a0,a0,0
 4f2:	0608                	addi	a0,sp,768
 4f4:	04090a03          	lb	s4,64(s2)
 4f8:	0100                	addi	s0,sp,128
 4fa:	0306                	slli	t1,t1,0x1
 4fc:	0902                	c.slli64	s2
 4fe:	0000                	unimp
 500:	0501                	addi	a0,a0,0
 502:	097e030b          	0x97e030b
 506:	0004                	0x4
 508:	0501                	addi	a0,a0,0
 50a:	0314                	addi	a3,sp,384
 50c:	0900                	addi	s0,sp,144
 50e:	0004                	0x4
 510:	0501                	addi	a0,a0,0
 512:	0304                	addi	s1,sp,384
 514:	0975                	addi	s2,s2,29
 516:	000c                	0xc
 518:	0501                	addi	a0,a0,0
 51a:	0608                	addi	a0,sp,768
 51c:	14091e03          	lh	t3,320(s2)
 520:	0100                	addi	s0,sp,128
 522:	00090303          	lb	t1,0(s2)
 526:	0100                	addi	s0,sp,128
 528:	00090203          	lb	tp,0(s2)
 52c:	0100                	addi	s0,sp,128
 52e:	1e05                	addi	t3,t3,-31
 530:	0306                	slli	t1,t1,0x1
 532:	0900                	addi	s0,sp,144
 534:	0000                	unimp
 536:	0501                	addi	a0,a0,0
 538:	0311                	addi	t1,t1,4
 53a:	0900                	addi	s0,sp,144
 53c:	0004                	0x4
 53e:	0501                	addi	a0,a0,0
 540:	0900030b          	0x900030b
 544:	0004                	0x4
 546:	0501                	addi	a0,a0,0
 548:	0608                	addi	a0,sp,768
 54a:	04090103          	lb	sp,64(s2)
 54e:	0100                	addi	s0,sp,128
 550:	0b05                	addi	s6,s6,1
 552:	0306                	slli	t1,t1,0x1
 554:	0901                	addi	s2,s2,0
 556:	0000                	unimp
 558:	0501                	addi	a0,a0,0
 55a:	0308                	addi	a0,sp,384
 55c:	0904                	addi	s1,sp,144
 55e:	0004                	0x4
 560:	0501                	addi	a0,a0,0
 562:	0311                	addi	t1,t1,4
 564:	097d                	addi	s2,s2,31
 566:	0008                	0x8
 568:	0501                	addi	a0,a0,0
 56a:	031e                	slli	t1,t1,0x7
 56c:	0900                	addi	s0,sp,144
 56e:	0004                	0x4
 570:	0501                	addi	a0,a0,0
 572:	097e030b          	0x97e030b
 576:	0004                	0x4
 578:	0501                	addi	a0,a0,0
 57a:	0608                	addi	a0,sp,768
 57c:	04090103          	lb	sp,64(s2)
 580:	0100                	addi	s0,sp,128
 582:	00090103          	lb	sp,0(s2)
 586:	0100                	addi	s0,sp,128
 588:	0b05                	addi	s6,s6,1
 58a:	0306                	slli	t1,t1,0x1
 58c:	0900                	addi	s0,sp,144
 58e:	0000                	unimp
 590:	0501                	addi	a0,a0,0
 592:	0608                	addi	a0,sp,768
 594:	04090103          	lb	sp,64(s2)
 598:	0100                	addi	s0,sp,128
 59a:	00090203          	lb	tp,0(s2)
 59e:	0100                	addi	s0,sp,128
 5a0:	00090003          	lb	zero,0(s2)
 5a4:	0100                	addi	s0,sp,128
 5a6:	00090003          	lb	zero,0(s2)
 5aa:	0100                	addi	s0,sp,128
 5ac:	00090003          	lb	zero,0(s2)
 5b0:	0100                	addi	s0,sp,128
 5b2:	00090003          	lb	zero,0(s2)
 5b6:	0100                	addi	s0,sp,128
 5b8:	08090003          	lb	zero,128(s2)
 5bc:	0100                	addi	s0,sp,128
 5be:	00090003          	lb	zero,0(s2)
 5c2:	0100                	addi	s0,sp,128
 5c4:	08090003          	lb	zero,128(s2)
 5c8:	0100                	addi	s0,sp,128
 5ca:	0c090003          	lb	zero,192(s2)
 5ce:	0100                	addi	s0,sp,128
 5d0:	00090003          	lb	zero,0(s2)
 5d4:	0100                	addi	s0,sp,128
 5d6:	08090003          	lb	zero,128(s2)
 5da:	0100                	addi	s0,sp,128
 5dc:	08090003          	lb	zero,128(s2)
 5e0:	0100                	addi	s0,sp,128
 5e2:	04090003          	lb	zero,64(s2)
 5e6:	0100                	addi	s0,sp,128
 5e8:	04090003          	lb	zero,64(s2)
 5ec:	0100                	addi	s0,sp,128
 5ee:	08090003          	lb	zero,128(s2)
 5f2:	0100                	addi	s0,sp,128
 5f4:	04090003          	lb	zero,64(s2)
 5f8:	0100                	addi	s0,sp,128
 5fa:	04090003          	lb	zero,64(s2)
 5fe:	0100                	addi	s0,sp,128
 600:	04090003          	lb	zero,64(s2)
 604:	0100                	addi	s0,sp,128
 606:	08090003          	lb	zero,128(s2)
 60a:	0100                	addi	s0,sp,128
 60c:	0c090003          	lb	zero,192(s2)
 610:	0100                	addi	s0,sp,128
 612:	08090003          	lb	zero,128(s2)
 616:	0100                	addi	s0,sp,128
 618:	08090003          	lb	zero,128(s2)
 61c:	0100                	addi	s0,sp,128
 61e:	04090003          	lb	zero,64(s2)
 622:	0100                	addi	s0,sp,128
 624:	04090003          	lb	zero,64(s2)
 628:	0100                	addi	s0,sp,128
 62a:	08090003          	lb	zero,128(s2)
 62e:	0100                	addi	s0,sp,128
 630:	0306                	slli	t1,t1,0x1
 632:	0901                	addi	s2,s2,0
 634:	0004                	0x4
 636:	0301                	addi	t1,t1,0
 638:	097f                	0x97f
 63a:	0004                	0x4
 63c:	0301                	addi	t1,t1,0
 63e:	0901                	addi	s2,s2,0
 640:	0004                	0x4
 642:	0301                	addi	t1,t1,0
 644:	097f                	0x97f
 646:	0014                	0x14
 648:	0601                	addi	a2,a2,0
 64a:	04090003          	lb	zero,64(s2)
 64e:	0100                	addi	s0,sp,128
 650:	00090003          	lb	zero,0(s2)
 654:	0100                	addi	s0,sp,128
 656:	00090003          	lb	zero,0(s2)
 65a:	0100                	addi	s0,sp,128
 65c:	00090103          	lb	sp,0(s2)
 660:	0100                	addi	s0,sp,128
 662:	00090003          	lb	zero,0(s2)
 666:	0100                	addi	s0,sp,128
 668:	00090003          	lb	zero,0(s2)
 66c:	0100                	addi	s0,sp,128
 66e:	00090003          	lb	zero,0(s2)
 672:	0100                	addi	s0,sp,128
 674:	00090003          	lb	zero,0(s2)
 678:	0100                	addi	s0,sp,128
 67a:	00090003          	lb	zero,0(s2)
 67e:	0100                	addi	s0,sp,128
 680:	00090003          	lb	zero,0(s2)
 684:	0100                	addi	s0,sp,128
 686:	00090003          	lb	zero,0(s2)
 68a:	0100                	addi	s0,sp,128
 68c:	04090003          	lb	zero,64(s2)
 690:	0100                	addi	s0,sp,128
 692:	00090003          	lb	zero,0(s2)
 696:	0100                	addi	s0,sp,128
 698:	04090003          	lb	zero,64(s2)
 69c:	0100                	addi	s0,sp,128
 69e:	14090003          	lb	zero,320(s2)
 6a2:	0100                	addi	s0,sp,128
 6a4:	00090003          	lb	zero,0(s2)
 6a8:	0100                	addi	s0,sp,128
 6aa:	00090003          	lb	zero,0(s2)
 6ae:	0100                	addi	s0,sp,128
 6b0:	04090003          	lb	zero,64(s2)
 6b4:	0100                	addi	s0,sp,128
 6b6:	04090003          	lb	zero,64(s2)
 6ba:	0100                	addi	s0,sp,128
 6bc:	08090003          	lb	zero,128(s2)
 6c0:	0100                	addi	s0,sp,128
 6c2:	00090003          	lb	zero,0(s2)
 6c6:	0100                	addi	s0,sp,128
 6c8:	00090203          	lb	tp,0(s2)
 6cc:	0100                	addi	s0,sp,128
 6ce:	0b05                	addi	s6,s6,1
 6d0:	0306                	slli	t1,t1,0x1
 6d2:	0900                	addi	s0,sp,144
 6d4:	0000                	unimp
 6d6:	0501                	addi	a0,a0,0
 6d8:	0314                	addi	a3,sp,384
 6da:	0900                	addi	s0,sp,144
 6dc:	0004                	0x4
 6de:	0501                	addi	a0,a0,0
 6e0:	0308                	addi	a0,sp,384
 6e2:	097e                	slli	s2,s2,0x1f
 6e4:	0004                	0x4
 6e6:	0501                	addi	a0,a0,0
 6e8:	097d030b          	0x97d030b
 6ec:	0014                	0x14
 6ee:	0501                	addi	a0,a0,0
 6f0:	0308                	addi	a0,sp,384
 6f2:	00040903          	lb	s2,0(s0)
 6f6:	0501                	addi	a0,a0,0
 6f8:	0908030b          	0x908030b
 6fc:	0004                	0x4
 6fe:	0501                	addi	a0,a0,0
 700:	0321                	addi	t1,t1,8
 702:	097a                	slli	s2,s2,0x1e
 704:	0004                	0x4
 706:	0501                	addi	a0,a0,0
 708:	0605                	addi	a2,a2,1
 70a:	04090203          	lb	tp,64(s2)
 70e:	0100                	addi	s0,sp,128
 710:	0705                	addi	a4,a4,1
 712:	0306                	slli	t1,t1,0x1
 714:	0900                	addi	s0,sp,144
 716:	0000                	unimp
 718:	0501                	addi	a0,a0,0
 71a:	0605                	addi	a2,a2,1
 71c:	04090103          	lb	sp,64(s2)
 720:	0100                	addi	s0,sp,128
 722:	00090003          	lb	zero,0(s2)
 726:	0100                	addi	s0,sp,128
 728:	00090003          	lb	zero,0(s2)
 72c:	0100                	addi	s0,sp,128
 72e:	00090003          	lb	zero,0(s2)
 732:	0100                	addi	s0,sp,128
 734:	00090003          	lb	zero,0(s2)
 738:	0100                	addi	s0,sp,128
 73a:	0705                	addi	a4,a4,1
 73c:	0306                	slli	t1,t1,0x1
 73e:	00040943          	fmadd.s	fs2,fs0,ft0,ft0,rne
 742:	0301                	addi	t1,t1,0
 744:	097f                	0x97f
 746:	0004                	0x4
 748:	0901                	addi	s2,s2,0
 74a:	0008                	0x8
 74c:	0100                	addi	s0,sp,128
 74e:	5501                	li	a0,-32
 750:	0000                	unimp
 752:	0300                	addi	s0,sp,384
 754:	4f00                	lw	s0,24(a4)
 756:	0000                	unimp
 758:	0100                	addi	s0,sp,128
 75a:	fb01                	bnez	a4,66a <main-0xfa0a>
 75c:	0d0e                	slli	s10,s10,0x3
 75e:	0100                	addi	s0,sp,128
 760:	0101                	addi	sp,sp,0
 762:	0001                	nop
 764:	0000                	unimp
 766:	0001                	nop
 768:	0100                	addi	s0,sp,128
 76a:	2e2e                	fld	ft8,200(sp)
 76c:	2f2e2e2f          	0x2f2e2e2f
 770:	2e2e                	fld	ft8,200(sp)
 772:	2f2e2e2f          	0x2f2e2e2f
 776:	2e2e                	fld	ft8,200(sp)
 778:	722f2e2f          	0x722f2e2f
 77c:	7369                	lui	t1,0xffffa
 77e:	672d7663          	bgeu	s10,s2,dea <main-0xf28a>
 782:	6c2f6363          	bltu	t5,sp,e48 <main-0xf22c>
 786:	6269                	lui	tp,0x1a
 788:	00636367          	0x636367
 78c:	6c00                	flw	fs0,24(s0)
 78e:	6269                	lui	tp,0x1a
 790:	32636367          	0x32636367
 794:	682e                	flw	fa6,200(sp)
 796:	0100                	addi	s0,sp,128
 798:	0000                	unimp
 79a:	696c                	flw	fa1,84(a0)
 79c:	6762                	flw	fa4,24(sp)
 79e:	2e326363          	bltu	tp,gp,a84 <main-0xf5f0>
 7a2:	00010063          	beqz	sp,7a2 <main-0xf8d2>
	...

Disassembly of section .debug_str:

00000000 <.debug_str>:
   0:	5744                	lw	s1,44(a4)
   2:	6e75                	lui	t3,0x1d
   4:	6f69                	lui	t5,0x1a
   6:	006e                	c.slli	zero,0x1b
   8:	5f5f 6475 7669      	0x766964755f5f
   e:	6964                	flw	fs1,84(a0)
  10:	6f630033          	0x6f630033
  14:	706d                	c.lui	zero,0xffffb
  16:	656c                	flw	fa1,76(a0)
  18:	2078                	fld	fa4,192(s0)
  1a:	6c66                	flw	fs8,88(sp)
  1c:	0074616f          	jal	sp,46822 <__global_pointer$+0x30ada>
  20:	2e2e                	fld	ft8,200(sp)
  22:	2f2e2e2f          	0x2f2e2e2f
  26:	2e2e                	fld	ft8,200(sp)
  28:	2f2e2e2f          	0x2f2e2e2f
  2c:	2e2e                	fld	ft8,200(sp)
  2e:	722f2e2f          	0x722f2e2f
  32:	7369                	lui	t1,0xffffa
  34:	672d7663          	bgeu	s10,s2,6a0 <main-0xf9d4>
  38:	6c2f6363          	bltu	t5,sp,6fe <main-0xf976>
  3c:	6269                	lui	tp,0x1a
  3e:	2f636367          	0x2f636367
  42:	696c                	flw	fa1,84(a0)
  44:	6762                	flw	fa4,24(sp)
  46:	2e326363          	bltu	tp,gp,32c <main-0xfd48>
  4a:	5f5f0063          	beq	t5,s5,62a <main-0xfa4a>
  4e:	3064                	fld	fs1,224(s0)
  50:	5f00                	lw	s0,56(a4)
  52:	645f 0031 6873      	0x68730031645f
  58:	2074726f          	jal	tp,47a5e <__global_pointer$+0x31d16>
  5c:	6e69                	lui	t3,0x1a
  5e:	0074                	addi	a3,sp,12
  60:	5f5f 6876 5f00      	0x5f0068765f5f
  66:	765f 006c 6f6c      	0x6f6c006c765f
  6c:	676e                	flw	fa4,216(sp)
  6e:	6c20                	flw	fs0,88(s0)
  70:	20676e6f          	jal	t3,76276 <__global_pointer$+0x6052e>
  74:	6e69                	lui	t3,0x1a
  76:	0074                	addi	a3,sp,12
  78:	6f6c                	flw	fa1,92(a4)
  7a:	676e                	flw	fa4,216(sp)
  7c:	6c20                	flw	fs0,88(s0)
  7e:	20676e6f          	jal	t3,76284 <__global_pointer$+0x6053c>
  82:	6e75                	lui	t3,0x1d
  84:	6e676973          	csrrsi	s2,0x6e6,14
  88:	6465                	lui	s0,0x19
  8a:	6920                	flw	fs0,80(a0)
  8c:	746e                	flw	fs0,248(sp)
  8e:	4700                	lw	s0,8(a4)
  90:	554e                	lw	a0,240(sp)
  92:	4320                	lw	s0,64(a4)
  94:	3731                	jal	ffffffa0 <__global_pointer$+0xfffea258>
  96:	3120                	fld	fs0,96(a0)
  98:	2e30                	fld	fa2,88(a2)
  9a:	2e32                	fld	ft8,264(sp)
  9c:	2030                	fld	fa2,64(s0)
  9e:	6d2d                	lui	s10,0xb
  a0:	646f6d63          	bltu	t5,t1,6fa <main-0xf97a>
  a4:	6c65                	lui	s8,0x19
  a6:	6d3d                	lui	s10,0xf
  a8:	6465                	lui	s0,0x19
  aa:	6f6c                	flw	fa1,92(a4)
  ac:	6d2d2077          	0x6d2d2077
  b0:	7261                	lui	tp,0xffff8
  b2:	723d6863          	bltu	s10,gp,7e2 <main-0xf892>
  b6:	3376                	fld	ft6,376(sp)
  b8:	6932                	flw	fs2,12(sp)
  ba:	666d                	lui	a2,0x1b
  bc:	2d20                	fld	fs0,88(a0)
  be:	616d                	addi	sp,sp,240
  c0:	6962                	flw	fs2,24(sp)
  c2:	693d                	lui	s2,0xf
  c4:	706c                	flw	fa1,100(s0)
  c6:	20663233          	0x20663233
  ca:	6d2d                	lui	s10,0xb
  cc:	646f6d63          	bltu	t5,t1,726 <main-0xf94e>
  d0:	6c65                	lui	s8,0x19
  d2:	6d3d                	lui	s10,0xf
  d4:	6465                	lui	s0,0x19
  d6:	6f6c                	flw	fa1,92(a4)
  d8:	6d2d2077          	0x6d2d2077
  dc:	7574                	flw	fa3,108(a0)
  de:	656e                	flw	fa0,216(sp)
  e0:	723d                	lui	tp,0xfffef
  e2:	656b636f          	jal	t1,b6738 <__global_pointer$+0xa09f0>
  e6:	2074                	fld	fa3,192(s0)
  e8:	6d2d                	lui	s10,0xb
  ea:	7261                	lui	tp,0xffff8
  ec:	723d6863          	bltu	s10,gp,81c <main-0xf858>
  f0:	3376                	fld	ft6,376(sp)
  f2:	6932                	flw	fs2,12(sp)
  f4:	666d                	lui	a2,0x1b
  f6:	2d20                	fld	fs0,88(a0)
  f8:	4f2d2067          	0x4f2d2067
  fc:	4f2d2073          	csrs	0x4f2,s10
 100:	2032                	fld	ft0,264(sp)
 102:	4f2d                	li	t5,11
 104:	662d2073          	csrs	0x662,s10
 108:	7562                	flw	fa0,56(sp)
 10a:	6c69                	lui	s8,0x1a
 10c:	6964                	flw	fs1,84(a0)
 10e:	676e                	flw	fa4,216(sp)
 110:	6c2d                	lui	s8,0xb
 112:	6269                	lui	tp,0x1a
 114:	20636367          	0x20636367
 118:	662d                	lui	a2,0xb
 11a:	6f6e                	flw	ft10,216(sp)
 11c:	732d                	lui	t1,0xfffeb
 11e:	6174                	flw	fa3,68(a0)
 120:	702d6b63          	bltu	s10,sp,836 <main-0xf83e>
 124:	6f72                	flw	ft10,28(sp)
 126:	6574                	flw	fa3,76(a0)
 128:	726f7463          	bgeu	t5,t1,850 <main-0xf824>
 12c:	2d20                	fld	fs0,88(a0)
 12e:	6566                	flw	fa0,88(sp)
 130:	6378                	flw	fa4,68(a4)
 132:	7065                	c.lui	zero,0xffff9
 134:	6974                	flw	fa3,84(a0)
 136:	20736e6f          	jal	t3,36b3c <__global_pointer$+0x20df4>
 13a:	662d                	lui	a2,0xb
 13c:	6f6e                	flw	ft10,216(sp)
 13e:	2d6e                	fld	fs10,216(sp)
 140:	6c6c6163          	bltu	s8,t1,802 <main-0xf872>
 144:	652d                	lui	a0,0xb
 146:	6378                	flw	fa4,68(a4)
 148:	7065                	c.lui	zero,0xffff9
 14a:	6974                	flw	fa3,84(a0)
 14c:	20736e6f          	jal	t3,36b52 <__global_pointer$+0x20e0a>
 150:	662d                	lui	a2,0xb
 152:	6976                	flw	fs2,92(sp)
 154:	69626973          	csrrsi	s2,0x696,4
 158:	696c                	flw	fa1,84(a0)
 15a:	7974                	flw	fa3,116(a0)
 15c:	683d                	lui	a6,0xf
 15e:	6469                	lui	s0,0x1a
 160:	6564                	flw	fs1,76(a0)
 162:	006e                	c.slli	zero,0x1b
 164:	6968                	flw	fa0,84(a0)
 166:	5f006867          	0x5f006867
 16a:	635f 7a6c 745f      	0x745f7a6c635f
 170:	6261                	lui	tp,0x18
 172:	7500                	flw	fs0,40(a0)
 174:	736e                	flw	ft6,248(sp)
 176:	6769                	lui	a4,0x1a
 178:	656e                	flw	fa0,216(sp)
 17a:	2064                	fld	fs1,192(s0)
 17c:	72616863          	bltu	sp,t1,8ac <main-0xf7c8>
 180:	5f00                	lw	s0,56(a4)
 182:	785f 0030 5f5f      	0x5f5f0030785f
 188:	3178                	fld	fa4,224(a0)
 18a:	5f00                	lw	s0,56(a4)
 18c:	785f 0032 5f5f      	0x5f5f0032785f
 192:	3378                	fld	fa4,224(a4)
 194:	5500                	lw	s0,40(a0)
 196:	4951                	li	s2,20
 198:	7974                	flw	fa3,116(a0)
 19a:	6570                	flw	fa2,76(a0)
 19c:	4400                	lw	s0,8(s0)
 19e:	72747357          	0x72747357
 1a2:	6375                	lui	t1,0x1d
 1a4:	0074                	addi	a3,sp,12
 1a6:	726f6873          	csrrsi	a6,0x726,30
 1aa:	2074                	fld	fa3,192(s0)
 1ac:	6e75                	lui	t3,0x1d
 1ae:	6e676973          	csrrsi	s2,0x6e6,14
 1b2:	6465                	lui	s0,0x19
 1b4:	6920                	flw	fs0,80(a0)
 1b6:	746e                	flw	fs0,248(sp)
 1b8:	5500                	lw	s0,40(a0)
 1ba:	4944                	lw	s1,20(a0)
 1bc:	7974                	flw	fa3,116(a0)
 1be:	6570                	flw	fa2,76(a0)
 1c0:	5f00                	lw	s0,56(a4)
 1c2:	715f 0030 5f5f      	0x5f5f0030715f
 1c8:	3171                	jal	fffffe54 <__global_pointer$+0xfffea10c>
 1ca:	6300                	flw	fs0,0(a4)
 1cc:	6c706d6f          	jal	s10,7092 <main-0x8fe2>
 1d0:	7865                	lui	a6,0xffff9
 1d2:	6420                	flw	fs0,72(s0)
 1d4:	6c62756f          	jal	a0,2789a <__global_pointer$+0x11b52>
 1d8:	0065                	c.nop	25
 1da:	5f5f 7278 5f00      	0x5f0072785f5f
 1e0:	755f 6964 6d76      	0x6d766964755f
 1e6:	6964646f          	jal	s0,4687c <__global_pointer$+0x30b34>
 1ea:	0034                	addi	a3,sp,8
 1ec:	706d6f63          	bltu	s10,t1,90a <main-0xf76a>
 1f0:	656c                	flw	fa1,76(a0)
 1f2:	2078                	fld	fa4,192(s0)
 1f4:	6f6c                	flw	fa1,92(a4)
 1f6:	676e                	flw	fa4,216(sp)
 1f8:	6420                	flw	fs0,72(s0)
 1fa:	6c62756f          	jal	a0,278c0 <__global_pointer$+0x11b78>
 1fe:	0065                	c.nop	25
 200:	64656d2f          	0x64656d2f
 204:	6169                	addi	sp,sp,208
 206:	676e652f          	0x676e652f
 20a:	6e69                	lui	t3,0x1a
 20c:	6f74532f          	0x6f74532f
 210:	6172                	flw	ft2,28(sp)
 212:	2f416567          	0x2f416567
 216:	5046                	0x5046
 218:	722f4147          	fmsub.d	ft2,ft10,ft2,fa4,rmm
 21c:	7369                	lui	t1,0xffffa
 21e:	672d7663          	bgeu	s10,s2,88a <main-0xf7ea>
 222:	756e                	flw	fa0,248(sp)
 224:	742d                	lui	s0,0xfffeb
 226:	636c6f6f          	jal	t5,c685c <__global_pointer$+0xb0b14>
 22a:	6168                	flw	fa0,68(a0)
 22c:	6e69                	lui	t3,0x1a
 22e:	6975622f          	0x6975622f
 232:	646c                	flw	fa1,76(s0)
 234:	672d                	lui	a4,0xb
 236:	6e2d6363          	bltu	s10,sp,91c <main-0xf758>
 23a:	7765                	lui	a4,0xffff9
 23c:	696c                	flw	fa1,84(a0)
 23e:	2d62                	fld	fs10,24(sp)
 240:	67617473          	csrrci	s0,0x676,2
 244:	3265                	jal	fffffbec <__global_pointer$+0xfffe9ea4>
 246:	7369722f          	0x7369722f
 24a:	34367663          	bgeu	a2,gp,596 <main-0xfade>
 24e:	752d                	lui	a0,0xfffeb
 250:	6b6e                	flw	fs6,216(sp)
 252:	6f6e                	flw	ft10,216(sp)
 254:	652d6e77          	0x652d6e77
 258:	666c                	flw	fa1,76(a2)
 25a:	3376722f          	0x3376722f
 25e:	6932                	flw	fs2,12(sp)
 260:	666d                	lui	a2,0x1b
 262:	706c692f          	0x706c692f
 266:	2f663233          	0x2f663233
 26a:	696c                	flw	fa1,84(a0)
 26c:	6762                	flw	fa4,24(sp)
 26e:	55006363          	bltu	zero,a6,7b4 <main-0xf8c0>
 272:	79744953          	0x79744953
 276:	6570                	flw	fa2,76(a0)
 278:	5f00                	lw	s0,56(a4)
 27a:	725f 0030 5f5f      	0x5f5f0030725f
 280:	3172                	fld	ft2,312(sp)
 282:	5f00                	lw	s0,56(a4)
 284:	755f 0068 5f5f      	0x5f5f0068755f
 28a:	6c75                	lui	s8,0x1d
 28c:	4700                	lw	s0,8(a4)
 28e:	554e                	lw	a0,240(sp)
 290:	4320                	lw	s0,64(a4)
 292:	3731                	jal	19e <main-0xfed6>
 294:	3120                	fld	fs0,96(a0)
 296:	2e30                	fld	fa2,88(a2)
 298:	2e32                	fld	ft8,264(sp)
 29a:	2030                	fld	fa2,64(s0)
 29c:	6d2d                	lui	s10,0xb
 29e:	646f6d63          	bltu	t5,t1,8f8 <main-0xf77c>
 2a2:	6c65                	lui	s8,0x19
 2a4:	6d3d                	lui	s10,0xf
 2a6:	6465                	lui	s0,0x19
 2a8:	6f6c                	flw	fa1,92(a4)
 2aa:	6d2d2077          	0x6d2d2077
 2ae:	7261                	lui	tp,0xffff8
 2b0:	723d6863          	bltu	s10,gp,9e0 <main-0xf694>
 2b4:	3376                	fld	ft6,376(sp)
 2b6:	6932                	flw	fs2,12(sp)
 2b8:	666d                	lui	a2,0x1b
 2ba:	2d20                	fld	fs0,88(a0)
 2bc:	616d                	addi	sp,sp,240
 2be:	6962                	flw	fs2,24(sp)
 2c0:	693d                	lui	s2,0xf
 2c2:	706c                	flw	fa1,100(s0)
 2c4:	20663233          	0x20663233
 2c8:	6d2d                	lui	s10,0xb
 2ca:	646f6d63          	bltu	t5,t1,924 <main-0xf750>
 2ce:	6c65                	lui	s8,0x19
 2d0:	6d3d                	lui	s10,0xf
 2d2:	6465                	lui	s0,0x19
 2d4:	6f6c                	flw	fa1,92(a4)
 2d6:	6d2d2077          	0x6d2d2077
 2da:	7574                	flw	fa3,108(a0)
 2dc:	656e                	flw	fa0,216(sp)
 2de:	723d                	lui	tp,0xfffef
 2e0:	656b636f          	jal	t1,b6936 <__global_pointer$+0xa0bee>
 2e4:	2074                	fld	fa3,192(s0)
 2e6:	6d2d                	lui	s10,0xb
 2e8:	7261                	lui	tp,0xffff8
 2ea:	723d6863          	bltu	s10,gp,a1a <main-0xf65a>
 2ee:	3376                	fld	ft6,376(sp)
 2f0:	6932                	flw	fs2,12(sp)
 2f2:	666d                	lui	a2,0x1b
 2f4:	2d20                	fld	fs0,88(a0)
 2f6:	4f2d2067          	0x4f2d2067
 2fa:	4f2d2073          	csrs	0x4f2,s10
 2fe:	2032                	fld	ft0,264(sp)
 300:	4f2d                	li	t5,11
 302:	662d2073          	csrs	0x662,s10
 306:	7562                	flw	fa0,56(sp)
 308:	6c69                	lui	s8,0x1a
 30a:	6964                	flw	fs1,84(a0)
 30c:	676e                	flw	fa4,216(sp)
 30e:	6c2d                	lui	s8,0xb
 310:	6269                	lui	tp,0x1a
 312:	20636367          	0x20636367
 316:	662d                	lui	a2,0xb
 318:	6f6e                	flw	ft10,216(sp)
 31a:	732d                	lui	t1,0xfffeb
 31c:	6174                	flw	fa3,68(a0)
 31e:	702d6b63          	bltu	s10,sp,a34 <main-0xf640>
 322:	6f72                	flw	ft10,28(sp)
 324:	6574                	flw	fa3,76(a0)
 326:	726f7463          	bgeu	t5,t1,a4e <main-0xf626>
 32a:	2d20                	fld	fs0,88(a0)
 32c:	7666                	flw	fa2,120(sp)
 32e:	7369                	lui	t1,0xffffa
 330:	6269                	lui	tp,0x1a
 332:	6c69                	lui	s8,0x1a
 334:	7469                	lui	s0,0xffffa
 336:	3d79                	jal	1d4 <main-0xfea0>
 338:	6968                	flw	fa0,84(a0)
 33a:	6464                	flw	fs1,76(s0)
 33c:	6e65                	lui	t3,0x19
	...

Disassembly of section .debug_loc:

00000000 <.debug_loc>:
   0:	0000                	unimp
   2:	0000                	unimp
   4:	0010                	0x10
   6:	0000                	unimp
   8:	0006                	c.slli	zero,0x1
   a:	935a                	add	t1,t1,s6
   c:	5b04                	lw	s1,48(a4)
   e:	00100493          	li	s1,1
  12:	0000                	unimp
  14:	0434                	addi	a3,sp,520
  16:	0000                	unimp
  18:	0006                	c.slli	zero,0x1
  1a:	0af503f3          	0xaf503f3
  1e:	9f25                	0x9f25
	...
  2c:	0074                	addi	a3,sp,12
  2e:	0000                	unimp
  30:	0006                	c.slli	zero,0x1
  32:	935c                	0x935c
  34:	5d04                	lw	s1,56(a0)
  36:	00740493          	addi	s1,s0,7 # ffffa007 <__global_pointer$+0xfffe42bf>
  3a:	0000                	unimp
  3c:	00f8                	addi	a4,sp,76
  3e:	0000                	unimp
  40:	0006                	c.slli	zero,0x1
  42:	0cf503f3          	0xcf503f3
  46:	9f25                	0x9f25
  48:	00f8                	addi	a4,sp,76
  4a:	0000                	unimp
  4c:	013c                	addi	a5,sp,136
  4e:	0000                	unimp
  50:	0006                	c.slli	zero,0x1
  52:	935c                	0x935c
  54:	5d04                	lw	s1,56(a0)
  56:	013c0493          	addi	s1,s8,19 # 1a013 <__global_pointer$+0x42cb>
  5a:	0000                	unimp
  5c:	01dc                	addi	a5,sp,196
  5e:	0000                	unimp
  60:	0006                	c.slli	zero,0x1
  62:	0cf503f3          	0xcf503f3
  66:	9f25                	0x9f25
  68:	01dc                	addi	a5,sp,196
  6a:	0000                	unimp
  6c:	01f0                	addi	a2,sp,204
  6e:	0000                	unimp
  70:	0006                	c.slli	zero,0x1
  72:	935c                	0x935c
  74:	5d04                	lw	s1,56(a0)
  76:	01f00493          	li	s1,31
  7a:	0000                	unimp
  7c:	029c                	addi	a5,sp,320
  7e:	0000                	unimp
  80:	0006                	c.slli	zero,0x1
  82:	0cf503f3          	0xcf503f3
  86:	9f25                	0x9f25
  88:	029c                	addi	a5,sp,320
  8a:	0000                	unimp
  8c:	0328                	addi	a0,sp,392
  8e:	0000                	unimp
  90:	0006                	c.slli	zero,0x1
  92:	935c                	0x935c
  94:	5d04                	lw	s1,56(a0)
  96:	03280493          	addi	s1,a6,50 # ffff9032 <__global_pointer$+0xfffe32ea>
  9a:	0000                	unimp
  9c:	0428                	addi	a0,sp,520
  9e:	0000                	unimp
  a0:	0006                	c.slli	zero,0x1
  a2:	0cf503f3          	0xcf503f3
  a6:	9f25                	0x9f25
  a8:	0428                	addi	a0,sp,520
  aa:	0000                	unimp
  ac:	0434                	addi	a3,sp,520
  ae:	0000                	unimp
  b0:	0006                	c.slli	zero,0x1
  b2:	935c                	0x935c
  b4:	5d04                	lw	s1,56(a0)
  b6:	00000493          	li	s1,0
  ba:	0000                	unimp
  bc:	0000                	unimp
  be:	0000                	unimp
  c0:	0004                	0x4
  c2:	0000                	unimp
  c4:	01d8                	addi	a4,sp,196
  c6:	0000                	unimp
  c8:	0002                	c.slli64	zero
  ca:	9f30                	0x9f30
  cc:	01dc                	addi	a5,sp,196
  ce:	0000                	unimp
  d0:	0434                	addi	a3,sp,520
  d2:	0000                	unimp
  d4:	0002                	c.slli64	zero
  d6:	9f30                	0x9f30
	...
  e0:	0004                	0x4
  e2:	0000                	unimp
  e4:	001c                	0x1c
  e6:	0000                	unimp
  e8:	0006                	c.slli	zero,0x1
  ea:	935c                	0x935c
  ec:	5d04                	lw	s1,56(a0)
  ee:	001c0493          	addi	s1,s8,1
  f2:	0000                	unimp
  f4:	0038                	addi	a4,sp,8
  f6:	0000                	unimp
  f8:	0006                	c.slli	zero,0x1
  fa:	935c                	0x935c
  fc:	5a04                	lw	s1,48(a2)
  fe:	00f80493          	addi	s1,a6,15
 102:	0000                	unimp
 104:	00fc                	addi	a5,sp,76
 106:	0000                	unimp
 108:	0006                	c.slli	zero,0x1
 10a:	935c                	0x935c
 10c:	5a04                	lw	s1,48(a2)
 10e:	010c0493          	addi	s1,s8,16
 112:	0000                	unimp
 114:	012c                	addi	a1,sp,136
 116:	0000                	unimp
 118:	0006                	c.slli	zero,0x1
 11a:	935c                	0x935c
 11c:	5a04                	lw	s1,48(a2)
 11e:	01dc0493          	addi	s1,s8,29
 122:	0000                	unimp
 124:	01e4                	addi	s1,sp,204
 126:	0000                	unimp
 128:	0006                	c.slli	zero,0x1
 12a:	935c                	0x935c
 12c:	5a04                	lw	s1,48(a2)
 12e:	029c0493          	addi	s1,s8,41
 132:	0000                	unimp
 134:	02bc                	addi	a5,sp,328
 136:	0000                	unimp
 138:	0006                	c.slli	zero,0x1
 13a:	935c                	0x935c
 13c:	5a04                	lw	s1,48(a2)
 13e:	02bc0493          	addi	s1,s8,43
 142:	0000                	unimp
 144:	02ec                	addi	a1,sp,332
 146:	0000                	unimp
 148:	0006                	c.slli	zero,0x1
 14a:	935c                	0x935c
 14c:	5d04                	lw	s1,56(a0)
 14e:	02ec0493          	addi	s1,s8,46
 152:	0000                	unimp
 154:	0300                	addi	s0,sp,384
 156:	0000                	unimp
 158:	0006                	c.slli	zero,0x1
 15a:	935c                	0x935c
 15c:	5a04                	lw	s1,48(a2)
 15e:	03000493          	li	s1,48
 162:	0000                	unimp
 164:	0308                	addi	a0,sp,384
 166:	0000                	unimp
 168:	0006                	c.slli	zero,0x1
 16a:	935c                	0x935c
 16c:	5d04                	lw	s1,56(a0)
 16e:	04280493          	addi	s1,a6,66
 172:	0000                	unimp
 174:	0430                	addi	a2,sp,520
 176:	0000                	unimp
 178:	0006                	c.slli	zero,0x1
 17a:	935c                	0x935c
 17c:	5a04                	lw	s1,48(a2)
 17e:	04300493          	li	s1,67
 182:	0000                	unimp
 184:	0434                	addi	a3,sp,520
 186:	0000                	unimp
 188:	0006                	c.slli	zero,0x1
 18a:	935c                	0x935c
 18c:	5d04                	lw	s1,56(a0)
 18e:	00000493          	li	s1,0
 192:	0000                	unimp
 194:	0000                	unimp
 196:	0000                	unimp
 198:	0004                	0x4
 19a:	0000                	unimp
 19c:	0010                	0x10
 19e:	0000                	unimp
 1a0:	0006                	c.slli	zero,0x1
 1a2:	935a                	add	t1,t1,s6
 1a4:	5b04                	lw	s1,48(a4)
 1a6:	00100493          	li	s1,1
 1aa:	0000                	unimp
 1ac:	0058                	addi	a4,sp,4
 1ae:	0000                	unimp
 1b0:	0006                	c.slli	zero,0x1
 1b2:	9361                	srli	a4,a4,0x38
 1b4:	5b04                	lw	s1,48(a4)
 1b6:	00580493          	addi	s1,a6,5
 1ba:	0000                	unimp
 1bc:	006c                	addi	a1,sp,12
 1be:	0000                	unimp
 1c0:	0006                	c.slli	zero,0x1
 1c2:	9361                	srli	a4,a4,0x38
 1c4:	5f04                	lw	s1,56(a4)
 1c6:	00f80493          	addi	s1,a6,15
 1ca:	0000                	unimp
 1cc:	0150                	addi	a2,sp,132
 1ce:	0000                	unimp
 1d0:	0006                	c.slli	zero,0x1
 1d2:	9356                	add	t1,t1,s5
 1d4:	5b04                	lw	s1,48(a4)
 1d6:	01dc0493          	addi	s1,s8,29
 1da:	0000                	unimp
 1dc:	01fc                	addi	a5,sp,204
 1de:	0000                	unimp
 1e0:	0006                	c.slli	zero,0x1
 1e2:	9356                	add	t1,t1,s5
 1e4:	5b04                	lw	s1,48(a4)
 1e6:	01fc0493          	addi	s1,s8,31
 1ea:	0000                	unimp
 1ec:	0208                	addi	a0,sp,256
 1ee:	0000                	unimp
 1f0:	0006                	c.slli	zero,0x1
 1f2:	9361                	srli	a4,a4,0x38
 1f4:	5b04                	lw	s1,48(a4)
 1f6:	029c0493          	addi	s1,s8,41
 1fa:	0000                	unimp
 1fc:	02b0                	addi	a2,sp,328
 1fe:	0000                	unimp
 200:	0006                	c.slli	zero,0x1
 202:	9356                	add	t1,t1,s5
 204:	5b04                	lw	s1,48(a4)
 206:	02b00493          	li	s1,43
 20a:	0000                	unimp
 20c:	02ec                	addi	a1,sp,332
 20e:	0000                	unimp
 210:	0006                	c.slli	zero,0x1
 212:	9356                	add	t1,t1,s5
 214:	5f04                	lw	s1,56(a4)
 216:	02ec0493          	addi	s1,s8,46
 21a:	0000                	unimp
 21c:	02f4                	addi	a3,sp,332
 21e:	0000                	unimp
 220:	0006                	c.slli	zero,0x1
 222:	9356                	add	t1,t1,s5
 224:	5b04                	lw	s1,48(a4)
 226:	02f40493          	addi	s1,s0,47
 22a:	0000                	unimp
 22c:	031c                	addi	a5,sp,384
 22e:	0000                	unimp
 230:	0006                	c.slli	zero,0x1
 232:	9356                	add	t1,t1,s5
 234:	5f04                	lw	s1,56(a4)
 236:	04280493          	addi	s1,a6,66
 23a:	0000                	unimp
 23c:	042c                	addi	a1,sp,520
 23e:	0000                	unimp
 240:	0006                	c.slli	zero,0x1
 242:	9356                	add	t1,t1,s5
 244:	5b04                	lw	s1,48(a4)
 246:	042c0493          	addi	s1,s8,66
 24a:	0000                	unimp
 24c:	0434                	addi	a3,sp,520
 24e:	0000                	unimp
 250:	0006                	c.slli	zero,0x1
 252:	9356                	add	t1,t1,s5
 254:	5f04                	lw	s1,56(a4)
 256:	00000493          	li	s1,0
 25a:	0000                	unimp
 25c:	0000                	unimp
 25e:	0000                	unimp
 260:	000c                	0xc
 262:	0000                	unimp
 264:	0054                	addi	a3,sp,4
 266:	0000                	unimp
 268:	0001                	nop
 26a:	545c                	lw	a5,44(s0)
 26c:	0000                	unimp
 26e:	6000                	flw	fs0,0(s0)
 270:	0000                	unimp
 272:	0900                	addi	s0,sp,144
 274:	7c00                	flw	fs0,56(s0)
 276:	7d00                	flw	fs0,56(a0)
 278:	0800                	addi	s0,sp,16
 27a:	1aff                	0x1aff
 27c:	9f24                	0x9f24
 27e:	0060                	addi	s0,sp,12
 280:	0000                	unimp
 282:	00f0                	addi	a2,sp,76
 284:	0000                	unimp
 286:	0001                	nop
 288:	f860                	fsw	fs0,116(s0)
 28a:	0000                	unimp
 28c:	1400                	addi	s0,sp,544
 28e:	0001                	nop
 290:	0100                	addi	s0,sp,128
 292:	5c00                	lw	s0,56(s0)
 294:	0114                	addi	a3,sp,128
 296:	0000                	unimp
 298:	0118                	addi	a4,sp,128
 29a:	0000                	unimp
 29c:	f731000b          	0xf731000b
 2a0:	7c2c                	flw	fa1,120(s0)
 2a2:	f700                	fsw	fs0,40(a4)
 2a4:	1b2c                	addi	a1,sp,440
 2a6:	189f00f7          	0x189f00f7
 2aa:	0001                	nop
 2ac:	d800                	sw	s0,48(s0)
 2ae:	0001                	nop
 2b0:	0100                	addi	s0,sp,128
 2b2:	6000                	flw	fs0,0(s0)
 2b4:	01dc                	addi	a5,sp,196
 2b6:	0000                	unimp
 2b8:	01f0                	addi	a2,sp,204
 2ba:	0000                	unimp
 2bc:	0001                	nop
 2be:	f060                	fsw	fs0,100(s0)
 2c0:	0001                	nop
 2c2:	f400                	fsw	fs0,40(s0)
 2c4:	0001                	nop
 2c6:	0900                	addi	s0,sp,144
 2c8:	8000                	0x8000
 2ca:	7d00                	flw	fs0,56(a0)
 2cc:	0800                	addi	s0,sp,16
 2ce:	1aff                	0x1aff
 2d0:	9f24                	0x9f24
 2d2:	01f4                	addi	a3,sp,204
 2d4:	0000                	unimp
 2d6:	029c                	addi	a5,sp,320
 2d8:	0000                	unimp
 2da:	0001                	nop
 2dc:	9c60                	0x9c60
 2de:	0002                	c.slli64	zero
 2e0:	2400                	fld	fs0,8(s0)
 2e2:	01000003          	lb	zero,16(zero) # 10 <main-0x10064>
 2e6:	5c00                	lw	s0,56(s0)
 2e8:	0324                	addi	s1,sp,392
 2ea:	0000                	unimp
 2ec:	03c4                	addi	s1,sp,452
 2ee:	0000                	unimp
 2f0:	0001                	nop
 2f2:	2856                	fld	fa6,336(sp)
 2f4:	0004                	0x4
 2f6:	3400                	fld	fs0,40(s0)
 2f8:	0004                	0x4
 2fa:	0100                	addi	s0,sp,128
 2fc:	5c00                	lw	s0,56(s0)
	...
 306:	0010                	0x10
 308:	0000                	unimp
 30a:	001c                	0x1c
 30c:	0000                	unimp
 30e:	0001                	nop
 310:	1c5d                	addi	s8,s8,-9
 312:	0000                	unimp
 314:	3800                	fld	fs0,48(s0)
 316:	0000                	unimp
 318:	0100                	addi	s0,sp,128
 31a:	5a00                	lw	s0,48(a2)
 31c:	00f8                	addi	a4,sp,76
 31e:	0000                	unimp
 320:	00fc                	addi	a5,sp,76
 322:	0000                	unimp
 324:	0001                	nop
 326:	0c5a                	slli	s8,s8,0x16
 328:	0001                	nop
 32a:	2c00                	fld	fs0,24(s0)
 32c:	0001                	nop
 32e:	0100                	addi	s0,sp,128
 330:	5a00                	lw	s0,48(a2)
 332:	01dc                	addi	a5,sp,196
 334:	0000                	unimp
 336:	01e4                	addi	s1,sp,204
 338:	0000                	unimp
 33a:	0001                	nop
 33c:	9c5a                	add	s8,s8,s6
 33e:	0002                	c.slli64	zero
 340:	bc00                	fsd	fs0,56(s0)
 342:	0002                	c.slli64	zero
 344:	0100                	addi	s0,sp,128
 346:	5a00                	lw	s0,48(a2)
 348:	02bc                	addi	a5,sp,328
 34a:	0000                	unimp
 34c:	02ec                	addi	a1,sp,332
 34e:	0000                	unimp
 350:	0001                	nop
 352:	ec5d                	bnez	s0,410 <main-0xfc64>
 354:	0002                	c.slli64	zero
 356:	0000                	unimp
 358:	01000003          	lb	zero,16(zero) # 10 <main-0x10064>
 35c:	5a00                	lw	s0,48(a2)
 35e:	0300                	addi	s0,sp,384
 360:	0000                	unimp
 362:	0308                	addi	a0,sp,384
 364:	0000                	unimp
 366:	0001                	nop
 368:	0c5d                	addi	s8,s8,23
 36a:	b8000003          	lb	zero,-1152(zero) # fffffb80 <__global_pointer$+0xfffe9e38>
 36e:	01000003          	lb	zero,16(zero) # 10 <main-0x10064>
 372:	6000                	flw	fs0,0(s0)
 374:	0428                	addi	a0,sp,520
 376:	0000                	unimp
 378:	0430                	addi	a2,sp,520
 37a:	0000                	unimp
 37c:	0001                	nop
 37e:	305a                	fld	ft0,432(sp)
 380:	0004                	0x4
 382:	3400                	fld	fs0,40(s0)
 384:	0004                	0x4
 386:	0100                	addi	s0,sp,128
 388:	5d00                	lw	s0,56(a0)
	...
 392:	0014                	0x14
 394:	0000                	unimp
 396:	0068                	addi	a0,sp,12
 398:	0000                	unimp
 39a:	0001                	nop
 39c:	6861                	lui	a6,0x18
 39e:	0000                	unimp
 3a0:	b800                	fsd	fs0,48(s0)
 3a2:	0000                	unimp
 3a4:	0100                	addi	s0,sp,128
 3a6:	5600                	lw	s0,40(a2)
 3a8:	00f8                	addi	a4,sp,76
 3aa:	0000                	unimp
 3ac:	01a0                	addi	s0,sp,200
 3ae:	0000                	unimp
 3b0:	0001                	nop
 3b2:	dc56                	sw	s5,56(sp)
 3b4:	0001                	nop
 3b6:	fc00                	fsw	fs0,56(s0)
 3b8:	0001                	nop
 3ba:	0100                	addi	s0,sp,128
 3bc:	5600                	lw	s0,40(a2)
 3be:	01fc                	addi	a5,sp,204
 3c0:	0000                	unimp
 3c2:	0208                	addi	a0,sp,256
 3c4:	0000                	unimp
 3c6:	0001                	nop
 3c8:	0c61                	addi	s8,s8,24
 3ca:	0002                	c.slli64	zero
 3cc:	2400                	fld	fs0,8(s0)
 3ce:	01000003          	lb	zero,16(zero) # 10 <main-0x10064>
 3d2:	5600                	lw	s0,40(a2)
 3d4:	0324                	addi	s1,sp,392
 3d6:	0000                	unimp
 3d8:	0328                	addi	a0,sp,392
 3da:	0000                	unimp
 3dc:	0001                	nop
 3de:	2861                	jal	476 <main-0xfbfe>
 3e0:	14000003          	lb	zero,320(zero) # 140 <main-0xff34>
 3e4:	0004                	0x4
 3e6:	0600                	addi	s0,sp,768
 3e8:	8100                	0x8100
 3ea:	7b00                	flw	fs0,48(a4)
 3ec:	2400                	fld	fs0,8(s0)
 3ee:	289f 0004 3400      	0x34000004289f
 3f4:	0004                	0x4
 3f6:	0100                	addi	s0,sp,128
 3f8:	5600                	lw	s0,40(a2)
	...
 402:	0014                	0x14
 404:	0000                	unimp
 406:	0058                	addi	a4,sp,4
 408:	0000                	unimp
 40a:	0001                	nop
 40c:	0000585b          	0x585b
 410:	6400                	flw	fs0,8(s0)
 412:	0000                	unimp
 414:	0100                	addi	s0,sp,128
 416:	5f00                	lw	s0,56(a4)
 418:	0064                	addi	s1,sp,12
 41a:	0000                	unimp
 41c:	0088                	addi	a0,sp,64
 41e:	0000                	unimp
 420:	0001                	nop
 422:	0000f85b          	0xf85b
 426:	4c00                	lw	s0,24(s0)
 428:	0001                	nop
 42a:	0100                	addi	s0,sp,128
 42c:	5b00                	lw	s0,48(a4)
 42e:	014c                	addi	a1,sp,132
 430:	0000                	unimp
 432:	0168                	addi	a0,sp,140
 434:	0000                	unimp
 436:	0001                	nop
 438:	dc5f 0001 0c00      	0xc000001dc5f
 43e:	0002                	c.slli64	zero
 440:	0100                	addi	s0,sp,128
 442:	5b00                	lw	s0,48(a4)
 444:	020c                	addi	a1,sp,256
 446:	0000                	unimp
 448:	0258                	addi	a4,sp,260
 44a:	0000                	unimp
 44c:	0001                	nop
 44e:	985c                	0x985c
 450:	0002                	c.slli64	zero
 452:	9c00                	0x9c00
 454:	0002                	c.slli64	zero
 456:	0100                	addi	s0,sp,128
 458:	5f00                	lw	s0,56(a4)
 45a:	029c                	addi	a5,sp,320
 45c:	0000                	unimp
 45e:	02b0                	addi	a2,sp,328
 460:	0000                	unimp
 462:	0001                	nop
 464:	0002b05b          	0x2b05b
 468:	ec00                	fsw	fs0,24(s0)
 46a:	0002                	c.slli64	zero
 46c:	0100                	addi	s0,sp,128
 46e:	5f00                	lw	s0,56(a4)
 470:	02ec                	addi	a1,sp,332
 472:	0000                	unimp
 474:	02f4                	addi	a3,sp,332
 476:	0000                	unimp
 478:	0001                	nop
 47a:	0002f45b          	0x2f45b
 47e:	1c00                	addi	s0,sp,560
 480:	01000003          	lb	zero,16(zero) # 10 <main-0x10064>
 484:	5f00                	lw	s0,56(a4)
 486:	0328                	addi	a0,sp,392
 488:	0000                	unimp
 48a:	0388                	addi	a0,sp,448
 48c:	0000                	unimp
 48e:	0001                	nop
 490:	c85c                	sw	a5,20(s0)
 492:	00000003          	lb	zero,0(zero) # 0 <main-0x10074>
 496:	0004                	0x4
 498:	0100                	addi	s0,sp,128
 49a:	5f00                	lw	s0,56(a4)
 49c:	0428                	addi	a0,sp,520
 49e:	0000                	unimp
 4a0:	042c                	addi	a1,sp,520
 4a2:	0000                	unimp
 4a4:	0001                	nop
 4a6:	00042c5b          	0x42c5b
 4aa:	3400                	fld	fs0,40(s0)
 4ac:	0004                	0x4
 4ae:	0100                	addi	s0,sp,128
 4b0:	5f00                	lw	s0,56(a4)
	...
 4ba:	01f8                	addi	a4,sp,204
 4bc:	0000                	unimp
 4be:	0220                	addi	s0,sp,264
 4c0:	0000                	unimp
 4c2:	0001                	nop
 4c4:	245a                	fld	fs0,400(sp)
 4c6:	38000003          	lb	zero,896(zero) # 380 <main-0xfcf4>
 4ca:	01000003          	lb	zero,16(zero) # 10 <main-0x10064>
 4ce:	6c00                	flw	fs0,24(s0)
	...
 4d8:	00f0                	addi	a2,sp,76
 4da:	0000                	unimp
 4dc:	00f8                	addi	a4,sp,76
 4de:	0000                	unimp
 4e0:	0001                	nop
 4e2:	c85a                	sw	s6,16(sp)
 4e4:	28000003          	lb	zero,640(zero) # 280 <main-0xfdf4>
 4e8:	0004                	0x4
 4ea:	0100                	addi	s0,sp,128
 4ec:	5a00                	lw	s0,48(a2)
	...
 4f6:	014c                	addi	a1,sp,132
 4f8:	0000                	unimp
 4fa:	0150                	addi	a2,sp,132
 4fc:	0000                	unimp
 4fe:	0002                	c.slli64	zero
 500:	9f31                	0x9f31
 502:	0150                	addi	a2,sp,132
 504:	0000                	unimp
 506:	01d8                	addi	a4,sp,196
 508:	0000                	unimp
 50a:	0001                	nop
 50c:	0002985b          	0x2985b
 510:	9c00                	0x9c00
 512:	0002                	c.slli64	zero
 514:	0100                	addi	s0,sp,128
 516:	5b00                	lw	s0,48(a4)
	...
 520:	01f0                	addi	a2,sp,204
 522:	0000                	unimp
 524:	0204                	addi	s1,sp,256
 526:	0000                	unimp
 528:	0001                	nop
 52a:	005e                	c.slli	zero,0x17
 52c:	20000003          	lb	zero,512(zero) # 200 <main-0xfe74>
 530:	01000003          	lb	zero,16(zero) # 10 <main-0x10064>
 534:	5e00                	lw	s0,56(a2)
	...
 53e:	0050                	addi	a2,sp,4
 540:	0000                	unimp
 542:	0070                	addi	a2,sp,12
 544:	0000                	unimp
 546:	0001                	nop
 548:	445d                	li	s0,23
 54a:	0001                	nop
 54c:	5000                	lw	s0,32(s0)
 54e:	0001                	nop
 550:	0100                	addi	s0,sp,128
 552:	5d00                	lw	s0,56(a0)
 554:	01f0                	addi	a2,sp,204
 556:	0000                	unimp
 558:	022c                	addi	a1,sp,264
 55a:	0000                	unimp
 55c:	0001                	nop
 55e:	d45d                	beqz	s0,50c <main-0xfb68>
 560:	0002                	c.slli64	zero
 562:	ec00                	fsw	fs0,24(s0)
 564:	0002                	c.slli64	zero
 566:	0100                	addi	s0,sp,128
 568:	5b00                	lw	s0,48(a4)
 56a:	0300                	addi	s0,sp,384
 56c:	0000                	unimp
 56e:	041c                	addi	a5,sp,512
 570:	0000                	unimp
 572:	0001                	nop
 574:	0000005b          	0x5b
 578:	0000                	unimp
 57a:	0000                	unimp
 57c:	2400                	fld	fs0,8(s0)
 57e:	0000                	unimp
 580:	5400                	lw	s0,40(s0)
 582:	0000                	unimp
 584:	0100                	addi	s0,sp,128
 586:	5c00                	lw	s0,56(s0)
 588:	0054                	addi	a3,sp,4
 58a:	0000                	unimp
 58c:	0060                	addi	s0,sp,12
 58e:	0000                	unimp
 590:	0009                	c.nop	2
 592:	007c                	addi	a5,sp,12
 594:	007d                	c.nop	31
 596:	ff08                	fsw	fa0,56(a4)
 598:	241a                	fld	fs0,384(sp)
 59a:	609f 0000 f000      	0xf0000000609f
 5a0:	0000                	unimp
 5a2:	0100                	addi	s0,sp,128
 5a4:	6000                	flw	fs0,0(s0)
 5a6:	00f8                	addi	a4,sp,76
 5a8:	0000                	unimp
 5aa:	010c                	addi	a1,sp,128
 5ac:	0000                	unimp
 5ae:	0001                	nop
 5b0:	005c                	addi	a5,sp,4
 5b2:	0000                	unimp
 5b4:	0000                	unimp
 5b6:	0000                	unimp
 5b8:	3800                	fld	fs0,48(s0)
 5ba:	0000                	unimp
 5bc:	4c00                	lw	s0,24(s0)
 5be:	0000                	unimp
 5c0:	0100                	addi	s0,sp,128
 5c2:	5e00                	lw	s0,56(a2)
	...
 5cc:	006c                	addi	a1,sp,12
 5ce:	0000                	unimp
 5d0:	00f0                	addi	a2,sp,76
 5d2:	0000                	unimp
 5d4:	0001                	nop
 5d6:	0061                	c.nop	24
 5d8:	0000                	unimp
 5da:	0000                	unimp
 5dc:	0000                	unimp
 5de:	7800                	flw	fs0,48(s0)
 5e0:	0000                	unimp
 5e2:	d000                	sw	s0,32(s0)
 5e4:	0000                	unimp
 5e6:	0100                	addi	s0,sp,128
 5e8:	5c00                	lw	s0,56(s0)
 5ea:	00d0                	addi	a2,sp,68
 5ec:	0000                	unimp
 5ee:	00f0                	addi	a2,sp,76
 5f0:	0000                	unimp
 5f2:	00800007          	0x800007
 5f6:	2440                	fld	fs0,136(s0)
 5f8:	2540                	fld	fs0,136(a0)
 5fa:	009f 0000 0000      	0x9f
 600:	0000                	unimp
 602:	8000                	0x8000
 604:	0000                	unimp
 606:	9c00                	0x9c00
 608:	0000                	unimp
 60a:	0100                	addi	s0,sp,128
 60c:	5d00                	lw	s0,56(a0)
 60e:	009c                	addi	a5,sp,64
 610:	0000                	unimp
 612:	00ec                	addi	a1,sp,76
 614:	0000                	unimp
 616:	0001                	nop
 618:	005a                	c.slli	zero,0x16
 61a:	0000                	unimp
 61c:	0000                	unimp
 61e:	0000                	unimp
 620:	c000                	sw	s0,0(s0)
 622:	0000                	unimp
 624:	dc00                	sw	s0,56(s0)
 626:	0000                	unimp
 628:	0100                	addi	s0,sp,128
 62a:	5f00                	lw	s0,56(a4)
 62c:	00dc                	addi	a5,sp,68
 62e:	0000                	unimp
 630:	00f0                	addi	a2,sp,76
 632:	0000                	unimp
 634:	0001                	nop
 636:	005c                	addi	a5,sp,4
 638:	0000                	unimp
 63a:	0000                	unimp
 63c:	0000                	unimp
 63e:	8000                	0x8000
 640:	0000                	unimp
 642:	8c00                	0x8c00
 644:	0000                	unimp
 646:	0100                	addi	s0,sp,128
 648:	5e00                	lw	s0,56(a2)
 64a:	0090                	addi	a2,sp,64
 64c:	0000                	unimp
 64e:	0098                	addi	a4,sp,64
 650:	0000                	unimp
 652:	0001                	nop
 654:	985f 0000 9c00      	0x9c000000985f
 65a:	0000                	unimp
 65c:	0800                	addi	s0,sp,16
 65e:	7600                	flw	fs0,40(a2)
 660:	4000                	lw	s0,0(s0)
 662:	7e25                	lui	t3,0xfffe9
 664:	2100                	fld	fs0,0(a0)
 666:	9c9f 0000 c000      	0xc00000009c9f
 66c:	0000                	unimp
 66e:	0100                	addi	s0,sp,128
 670:	5f00                	lw	s0,56(a4)
	...
 67a:	00b4                	addi	a3,sp,72
 67c:	0000                	unimp
 67e:	00c4                	addi	s1,sp,68
 680:	0000                	unimp
 682:	0001                	nop
 684:	cc5e                	sw	s7,24(sp)
 686:	0000                	unimp
 688:	d800                	sw	s0,48(s0)
 68a:	0000                	unimp
 68c:	0100                	addi	s0,sp,128
 68e:	5600                	lw	s0,40(a2)
	...
 698:	0088                	addi	a0,sp,64
 69a:	0000                	unimp
 69c:	00cc                	addi	a1,sp,68
 69e:	0000                	unimp
 6a0:	0001                	nop
 6a2:	0000cc5b          	0xcc5b
 6a6:	f000                	fsw	fs0,32(s0)
 6a8:	0000                	unimp
 6aa:	0100                	addi	s0,sp,128
 6ac:	5d00                	lw	s0,56(a0)
	...
 6b6:	03f4                	addi	a3,sp,460
 6b8:	0000                	unimp
 6ba:	0424                	addi	s1,sp,520
 6bc:	0000                	unimp
 6be:	0001                	nop
 6c0:	005c                	addi	a5,sp,4
 6c2:	0000                	unimp
 6c4:	0000                	unimp
 6c6:	0000                	unimp
 6c8:	f400                	fsw	fs0,40(s0)
 6ca:	08000003          	lb	zero,128(zero) # 80 <main-0xfff4>
 6ce:	0004                	0x4
 6d0:	1000                	addi	s0,sp,32
 6d2:	8c00                	0x8c00
 6d4:	0a00                	addi	s0,sp,272
 6d6:	ffff                	0xffff
 6d8:	7e1a                	flw	ft8,164(sp)
 6da:	0a00                	addi	s0,sp,272
 6dc:	ffff                	0xffff
 6de:	401a                	0x401a
 6e0:	2224                	fld	fs1,64(a2)
 6e2:	089f 0004 1000      	0x10000004089f
 6e8:	0004                	0x4
 6ea:	1500                	addi	s0,sp,672
 6ec:	8c00                	0x8c00
 6ee:	0a00                	addi	s0,sp,272
 6f0:	ffff                	0xffff
 6f2:	8c1a                	mv	s8,t1
 6f4:	4000                	lw	s0,0(s0)
 6f6:	8025                	srli	s0,s0,0x9
 6f8:	2200                	fld	fs0,0(a2)
 6fa:	ff0a                	fsw	ft2,188(sp)
 6fc:	1aff                	0x1aff
 6fe:	2440                	fld	fs0,136(s0)
 700:	9f22                	add	t5,t5,s0
	...
 70a:	0328                	addi	a0,sp,392
 70c:	0000                	unimp
 70e:	03ac                	addi	a1,sp,456
 710:	0000                	unimp
 712:	0001                	nop
 714:	ac6d                	j	9ce <main-0xf6a6>
 716:	b8000003          	lb	zero,-1152(zero) # fffffb80 <__global_pointer$+0xfffe9e38>
 71a:	05000003          	lb	zero,80(zero) # 50 <main-0x10024>
 71e:	8000                	0x8000
 720:	4000                	lw	s0,0(s0)
 722:	9f25                	0x9f25
	...
 72c:	0330                	addi	a2,sp,392
 72e:	0000                	unimp
 730:	037c                	addi	a5,sp,396
 732:	0000                	unimp
 734:	0001                	nop
 736:	7c5f 0003 b800      	0xb80000037c5f
 73c:	07000003          	lb	zero,112(zero) # 70 <main-0x10004>
 740:	8000                	0x8000
 742:	4000                	lw	s0,0(s0)
 744:	4024                	lw	s1,64(s0)
 746:	9f25                	0x9f25
	...
 750:	0338                	addi	a4,sp,392
 752:	0000                	unimp
 754:	0354                	addi	a3,sp,388
 756:	0000                	unimp
 758:	0001                	nop
 75a:	546c                	lw	a1,108(s0)
 75c:	a8000003          	lb	zero,-1408(zero) # fffffa80 <__global_pointer$+0xfffe9d38>
 760:	01000003          	lb	zero,16(zero) # 10 <main-0x10064>
 764:	5a00                	lw	s0,48(a2)
	...
 76e:	0370                	addi	a2,sp,396
 770:	0000                	unimp
 772:	0394                	addi	a3,sp,448
 774:	0000                	unimp
 776:	0001                	nop
 778:	945e                	add	s0,s0,s7
 77a:	bc000003          	lb	zero,-1088(zero) # fffffbc0 <__global_pointer$+0xfffe9e78>
 77e:	01000003          	lb	zero,16(zero) # 10 <main-0x10064>
 782:	5c00                	lw	s0,56(s0)
	...
 78c:	0330                	addi	a2,sp,392
 78e:	0000                	unimp
 790:	033c                	addi	a5,sp,392
 792:	0000                	unimp
 794:	0001                	nop
 796:	445d                	li	s0,23
 798:	50000003          	lb	zero,1280(zero) # 500 <main-0xfb74>
 79c:	01000003          	lb	zero,16(zero) # 10 <main-0x10064>
 7a0:	5e00                	lw	s0,56(a2)
 7a2:	0350                	addi	a2,sp,388
 7a4:	0000                	unimp
 7a6:	0354                	addi	a3,sp,388
 7a8:	0000                	unimp
 7aa:	0008                	0x8
 7ac:	007c                	addi	a5,sp,12
 7ae:	2540                	fld	fs0,136(a0)
 7b0:	007d                	c.nop	31
 7b2:	9f21                	0x9f21
 7b4:	0354                	addi	a3,sp,388
 7b6:	0000                	unimp
 7b8:	0370                	addi	a2,sp,396
 7ba:	0000                	unimp
 7bc:	0001                	nop
 7be:	005e                	c.slli	zero,0x17
 7c0:	0000                	unimp
 7c2:	0000                	unimp
 7c4:	0000                	unimp
 7c6:	6c00                	flw	fs0,24(s0)
 7c8:	74000003          	lb	zero,1856(zero) # 740 <main-0xf934>
 7cc:	01000003          	lb	zero,16(zero) # 10 <main-0x10064>
 7d0:	5d00                	lw	s0,56(a0)
 7d2:	0384                	addi	s1,sp,448
 7d4:	0000                	unimp
 7d6:	0390                	addi	a2,sp,448
 7d8:	0000                	unimp
 7da:	0001                	nop
 7dc:	945f 0003 0000      	0x3945f
 7e2:	0004                	0x4
 7e4:	0100                	addi	s0,sp,128
 7e6:	5f00                	lw	s0,56(a4)
	...
 7f0:	0344                	addi	s1,sp,388
 7f2:	0000                	unimp
 7f4:	0378                	addi	a4,sp,396
 7f6:	0000                	unimp
 7f8:	0001                	nop
 7fa:	786e                	flw	fa6,248(sp)
 7fc:	cc000003          	lb	zero,-832(zero) # fffffcc0 <__global_pointer$+0xfffe9f78>
 800:	01000003          	lb	zero,16(zero) # 10 <main-0x10064>
 804:	6c00                	flw	fs0,24(s0)
	...
 80e:	03cc                	addi	a1,sp,452
 810:	0000                	unimp
 812:	0410                	addi	a2,sp,512
 814:	0000                	unimp
 816:	0001                	nop
 818:	006c                	addi	a1,sp,12
 81a:	0000                	unimp
 81c:	0000                	unimp
 81e:	0000                	unimp
 820:	cc00                	sw	s0,24(s0)
 822:	d8000003          	lb	zero,-640(zero) # fffffd80 <__global_pointer$+0xfffea038>
 826:	06000003          	lb	zero,96(zero) # 60 <main-0x10014>
 82a:	8000                	0x8000
 82c:	7600                	flw	fs0,40(a2)
 82e:	1e00                	addi	s0,sp,816
 830:	d89f 0003 dc00      	0xdc000003d89f
 836:	01000003          	lb	zero,16(zero) # 10 <main-0x10064>
 83a:	6000                	flw	fs0,0(s0)
 83c:	03dc                	addi	a5,sp,452
 83e:	0000                	unimp
 840:	03e4                	addi	s1,sp,460
 842:	0000                	unimp
 844:	0009                	c.nop	2
 846:	7f8d                	lui	t6,0xfffe3
 848:	007a                	c.slli	zero,0x1e
 84a:	761a                	flw	fa2,164(sp)
 84c:	1e00                	addi	s0,sp,816
 84e:	e49f 0003 0800      	0x8000003e49f
 854:	0004                	0x4
 856:	0100                	addi	s0,sp,128
 858:	5e00                	lw	s0,56(a2)
 85a:	0408                	addi	a0,sp,512
 85c:	0000                	unimp
 85e:	0410                	addi	a2,sp,512
 860:	0000                	unimp
 862:	0008                	0x8
 864:	008c                	addi	a1,sp,64
 866:	2540                	fld	fs0,136(a0)
 868:	0080                	addi	s0,sp,64
 86a:	9f22                	add	t5,t5,s0
	...
 874:	03d0                	addi	a2,sp,452
 876:	0000                	unimp
 878:	03f0                	addi	a2,sp,460
 87a:	0000                	unimp
 87c:	0001                	nop
 87e:	005d                	c.nop	23
 880:	0000                	unimp
 882:	0000                	unimp
 884:	0000                	unimp
 886:	e400                	fsw	fs0,8(s0)
 888:	f4000003          	lb	zero,-192(zero) # ffffff40 <__global_pointer$+0xfffea1f8>
 88c:	01000003          	lb	zero,16(zero) # 10 <main-0x10064>
 890:	5c00                	lw	s0,56(s0)
	...
 89a:	03c8                	addi	a0,sp,452
 89c:	0000                	unimp
 89e:	03d8                	addi	a4,sp,452
 8a0:	0000                	unimp
 8a2:	0001                	nop
 8a4:	d860                	sw	s0,116(s0)
 8a6:	04000003          	lb	zero,64(zero) # 40 <main-0x10034>
 8aa:	0004                	0x4
 8ac:	0600                	addi	s0,sp,768
 8ae:	8d00                	0x8d00
 8b0:	7a7f                	0x7a7f
 8b2:	1a00                	addi	s0,sp,304
 8b4:	049f 0004 2000      	0x20000004049f
 8ba:	0004                	0x4
 8bc:	0600                	addi	s0,sp,768
 8be:	7a00                	flw	fs0,48(a2)
 8c0:	7f00                	flw	fs0,56(a4)
 8c2:	1a00                	addi	s0,sp,304
 8c4:	209f 0004 2400      	0x24000004209f
 8ca:	0004                	0x4
 8cc:	0600                	addi	s0,sp,768
 8ce:	8d00                	0x8d00
 8d0:	7a7f                	0x7a7f
 8d2:	1a00                	addi	s0,sp,304
 8d4:	249f 0004 2800      	0x28000004249f
 8da:	0004                	0x4
 8dc:	0600                	addi	s0,sp,768
 8de:	7a00                	flw	fs0,48(a2)
 8e0:	8d01                	sub	a0,a0,s0
 8e2:	1a7f                	0x1a7f
 8e4:	009f 0000 0000      	0x9f
 8ea:	0000                	unimp
 8ec:	c800                	sw	s0,16(s0)
 8ee:	d0000003          	lb	zero,-768(zero) # fffffd00 <__global_pointer$+0xfffe9fb8>
 8f2:	01000003          	lb	zero,16(zero) # 10 <main-0x10064>
 8f6:	5d00                	lw	s0,56(a0)
	...
 900:	03c8                	addi	a0,sp,452
 902:	0000                	unimp
 904:	03e4                	addi	s1,sp,460
 906:	0000                	unimp
 908:	0001                	nop
 90a:	e45c                	fsw	fa5,12(s0)
 90c:	24000003          	lb	zero,576(zero) # 240 <main-0xfe34>
 910:	0004                	0x4
 912:	0500                	addi	s0,sp,640
 914:	7a00                	flw	fs0,48(a2)
 916:	4000                	lw	s0,0(s0)
 918:	9f25                	0x9f25
 91a:	0424                	addi	s1,sp,520
 91c:	0000                	unimp
 91e:	0428                	addi	a0,sp,520
 920:	0000                	unimp
 922:	0005                	c.nop	1
 924:	017a                	slli	sp,sp,0x1e
 926:	2540                	fld	fs0,136(a0)
 928:	009f 0000 0000      	0x9f
 92e:	0000                	unimp
 930:	c800                	sw	s0,16(s0)
 932:	28000003          	lb	zero,640(zero) # 280 <main-0xfdf4>
 936:	0004                	0x4
 938:	0100                	addi	s0,sp,128
 93a:	5600                	lw	s0,40(a2)
	...
 944:	0118                	addi	a4,sp,128
 946:	0000                	unimp
 948:	01d8                	addi	a4,sp,196
 94a:	0000                	unimp
 94c:	0001                	nop
 94e:	dc60                	sw	s0,124(s0)
 950:	0001                	nop
 952:	f000                	fsw	fs0,32(s0)
 954:	0001                	nop
 956:	0100                	addi	s0,sp,128
 958:	6000                	flw	fs0,0(s0)
 95a:	01f0                	addi	a2,sp,204
 95c:	0000                	unimp
 95e:	01f4                	addi	a3,sp,204
 960:	0000                	unimp
 962:	0009                	c.nop	2
 964:	0080                	addi	s0,sp,64
 966:	007d                	c.nop	31
 968:	ff08                	fsw	fa0,56(a4)
 96a:	241a                	fld	fs0,384(sp)
 96c:	f49f 0001 9c00      	0x9c000001f49f
 972:	0002                	c.slli64	zero
 974:	0100                	addi	s0,sp,128
 976:	6000                	flw	fs0,0(s0)
	...
 980:	012c                	addi	a1,sp,136
 982:	0000                	unimp
 984:	0150                	addi	a2,sp,132
 986:	0000                	unimp
 988:	0001                	nop
 98a:	f05a                	fsw	fs6,32(sp)
 98c:	0001                	nop
 98e:	f800                	fsw	fs0,48(s0)
 990:	0001                	nop
 992:	0100                	addi	s0,sp,128
 994:	5a00                	lw	s0,48(a2)
	...
 99e:	0154                	addi	a3,sp,132
 9a0:	0000                	unimp
 9a2:	01d8                	addi	a4,sp,196
 9a4:	0000                	unimp
 9a6:	0001                	nop
 9a8:	0061                	c.nop	24
 9aa:	0000                	unimp
 9ac:	0000                	unimp
 9ae:	0000                	unimp
 9b0:	5c00                	lw	s0,56(s0)
 9b2:	0001                	nop
 9b4:	b800                	fsd	fs0,48(s0)
 9b6:	0001                	nop
 9b8:	0100                	addi	s0,sp,128
 9ba:	5c00                	lw	s0,56(s0)
 9bc:	01b8                	addi	a4,sp,200
 9be:	0000                	unimp
 9c0:	01d8                	addi	a4,sp,196
 9c2:	0000                	unimp
 9c4:	00800007          	0x800007
 9c8:	2440                	fld	fs0,136(s0)
 9ca:	2540                	fld	fs0,136(a0)
 9cc:	009f 0000 0000      	0x9f
 9d2:	0000                	unimp
 9d4:	6800                	flw	fs0,16(s0)
 9d6:	0001                	nop
 9d8:	8400                	0x8400
 9da:	0001                	nop
 9dc:	0100                	addi	s0,sp,128
 9de:	5f00                	lw	s0,56(a4)
 9e0:	0184                	addi	s1,sp,192
 9e2:	0000                	unimp
 9e4:	01d4                	addi	a3,sp,196
 9e6:	0000                	unimp
 9e8:	0001                	nop
 9ea:	005a                	c.slli	zero,0x16
 9ec:	0000                	unimp
 9ee:	0000                	unimp
 9f0:	0000                	unimp
 9f2:	a800                	fsd	fs0,16(s0)
 9f4:	0001                	nop
 9f6:	c400                	sw	s0,8(s0)
 9f8:	0001                	nop
 9fa:	0100                	addi	s0,sp,128
 9fc:	5e00                	lw	s0,56(a2)
 9fe:	01c4                	addi	s1,sp,196
 a00:	0000                	unimp
 a02:	01d8                	addi	a4,sp,196
 a04:	0000                	unimp
 a06:	0001                	nop
 a08:	005c                	addi	a5,sp,4
 a0a:	0000                	unimp
 a0c:	0000                	unimp
 a0e:	0000                	unimp
 a10:	6400                	flw	fs0,8(s0)
 a12:	0001                	nop
 a14:	6c00                	flw	fs0,24(s0)
 a16:	0001                	nop
 a18:	0100                	addi	s0,sp,128
 a1a:	5d00                	lw	s0,56(a0)
 a1c:	0174                	addi	a3,sp,140
 a1e:	0000                	unimp
 a20:	0180                	addi	s0,sp,192
 a22:	0000                	unimp
 a24:	0001                	nop
 a26:	805e                	c.mv	zero,s7
 a28:	0001                	nop
 a2a:	8400                	0x8400
 a2c:	0001                	nop
 a2e:	0800                	addi	s0,sp,16
 a30:	7600                	flw	fs0,40(a2)
 a32:	4000                	lw	s0,0(s0)
 a34:	7d25                	lui	s10,0xfffe9
 a36:	2100                	fld	fs0,0(a0)
 a38:	849f 0001 a800      	0xa8000001849f
 a3e:	0001                	nop
 a40:	0100                	addi	s0,sp,128
 a42:	5e00                	lw	s0,56(a2)
	...
 a4c:	019c                	addi	a5,sp,192
 a4e:	0000                	unimp
 a50:	01ac                	addi	a1,sp,200
 a52:	0000                	unimp
 a54:	0001                	nop
 a56:	b45f 0001 c000      	0xc0000001b45f
 a5c:	0001                	nop
 a5e:	0100                	addi	s0,sp,128
 a60:	5600                	lw	s0,40(a2)
	...
 a6a:	0174                	addi	a3,sp,140
 a6c:	0000                	unimp
 a6e:	01b4                	addi	a3,sp,200
 a70:	0000                	unimp
 a72:	0001                	nop
 a74:	b46c                	fsd	fa1,232(s0)
 a76:	0001                	nop
 a78:	d800                	sw	s0,48(s0)
 a7a:	0001                	nop
 a7c:	0100                	addi	s0,sp,128
 a7e:	5d00                	lw	s0,56(a0)
	...
 a88:	020c                	addi	a1,sp,256
 a8a:	0000                	unimp
 a8c:	029c                	addi	a5,sp,320
 a8e:	0000                	unimp
 a90:	0001                	nop
 a92:	0061                	c.nop	24
 a94:	0000                	unimp
 a96:	0000                	unimp
 a98:	0000                	unimp
 a9a:	1800                	addi	s0,sp,48
 a9c:	0002                	c.slli64	zero
 a9e:	6c00                	flw	fs0,24(s0)
 aa0:	0002                	c.slli64	zero
 aa2:	0100                	addi	s0,sp,128
 aa4:	5f00                	lw	s0,56(a4)
 aa6:	026c                	addi	a1,sp,268
 aa8:	0000                	unimp
 aaa:	029c                	addi	a5,sp,320
 aac:	0000                	unimp
 aae:	00800007          	0x800007
 ab2:	2440                	fld	fs0,136(s0)
 ab4:	2540                	fld	fs0,136(a0)
 ab6:	009f 0000 0000      	0x9f
 abc:	0000                	unimp
 abe:	2000                	fld	fs0,0(s0)
 ac0:	0002                	c.slli64	zero
 ac2:	3c00                	fld	fs0,56(s0)
 ac4:	0002                	c.slli64	zero
 ac6:	0100                	addi	s0,sp,128
 ac8:	5a00                	lw	s0,48(a2)
 aca:	023c                	addi	a5,sp,264
 acc:	0000                	unimp
 ace:	0290                	addi	a2,sp,320
 ad0:	0000                	unimp
 ad2:	0001                	nop
 ad4:	0000005b          	0x5b
 ad8:	0000                	unimp
 ada:	0000                	unimp
 adc:	6000                	flw	fs0,0(s0)
 ade:	0002                	c.slli64	zero
 ae0:	7c00                	flw	fs0,56(s0)
 ae2:	0002                	c.slli64	zero
 ae4:	0100                	addi	s0,sp,128
 ae6:	5d00                	lw	s0,56(a0)
 ae8:	027c                	addi	a5,sp,268
 aea:	0000                	unimp
 aec:	029c                	addi	a5,sp,320
 aee:	0000                	unimp
 af0:	0001                	nop
 af2:	005e                	c.slli	zero,0x17
 af4:	0000                	unimp
 af6:	0000                	unimp
 af8:	0000                	unimp
 afa:	1800                	addi	s0,sp,48
 afc:	0002                	c.slli64	zero
 afe:	2400                	fld	fs0,8(s0)
 b00:	0002                	c.slli64	zero
 b02:	0100                	addi	s0,sp,128
 b04:	5e00                	lw	s0,56(a2)
 b06:	022c                	addi	a1,sp,264
 b08:	0000                	unimp
 b0a:	0238                	addi	a4,sp,264
 b0c:	0000                	unimp
 b0e:	0001                	nop
 b10:	3c5e                	fld	fs8,496(sp)
 b12:	0002                	c.slli64	zero
 b14:	5000                	lw	s0,32(s0)
 b16:	0002                	c.slli64	zero
 b18:	0100                	addi	s0,sp,128
 b1a:	5e00                	lw	s0,56(a2)
 b1c:	0250                	addi	a2,sp,260
 b1e:	0000                	unimp
 b20:	0260                	addi	s0,sp,268
 b22:	0000                	unimp
 b24:	0001                	nop
 b26:	005d                	c.nop	23
 b28:	0000                	unimp
 b2a:	0000                	unimp
 b2c:	0000                	unimp
 b2e:	5400                	lw	s0,40(s0)
 b30:	0002                	c.slli64	zero
 b32:	6400                	flw	fs0,8(s0)
 b34:	0002                	c.slli64	zero
 b36:	0100                	addi	s0,sp,128
 b38:	5e00                	lw	s0,56(a2)
 b3a:	026c                	addi	a1,sp,268
 b3c:	0000                	unimp
 b3e:	0278                	addi	a4,sp,268
 b40:	0000                	unimp
 b42:	0001                	nop
 b44:	7c5f 0002 9c00      	0x9c0000027c5f
 b4a:	0002                	c.slli64	zero
 b4c:	0100                	addi	s0,sp,128
 b4e:	5f00                	lw	s0,56(a4)
	...
 b58:	022c                	addi	a1,sp,264
 b5a:	0000                	unimp
 b5c:	0250                	addi	a2,sp,260
 b5e:	0000                	unimp
 b60:	0001                	nop
 b62:	505d                	c.li	zero,-9
 b64:	0002                	c.slli64	zero
 b66:	6800                	flw	fs0,16(s0)
 b68:	0002                	c.slli64	zero
 b6a:	0600                	addi	s0,sp,768
 b6c:	7f00                	flw	fs0,56(a4)
 b6e:	7a00                	flw	fs0,48(a2)
 b70:	1e00                	addi	s0,sp,816
 b72:	689f 0002 9c00      	0x9c000002689f
 b78:	0002                	c.slli64	zero
 b7a:	0100                	addi	s0,sp,128
 b7c:	5a00                	lw	s0,48(a2)
	...
 b86:	02a0                	addi	s0,sp,328
 b88:	0000                	unimp
 b8a:	02bc                	addi	a5,sp,328
 b8c:	0000                	unimp
 b8e:	0001                	nop
 b90:	bc5a                	fsd	fs6,56(sp)
 b92:	0002                	c.slli64	zero
 b94:	ec00                	fsw	fs0,24(s0)
 b96:	0002                	c.slli64	zero
 b98:	0100                	addi	s0,sp,128
 b9a:	5d00                	lw	s0,56(a0)
 b9c:	02ec                	addi	a1,sp,332
 b9e:	0000                	unimp
 ba0:	0300                	addi	s0,sp,384
 ba2:	0000                	unimp
 ba4:	0001                	nop
 ba6:	005a                	c.slli	zero,0x16
 ba8:	08000003          	lb	zero,128(zero) # 80 <main-0xfff4>
 bac:	01000003          	lb	zero,16(zero) # 10 <main-0x10064>
 bb0:	5d00                	lw	s0,56(a0)
	...
 bba:	02b4                	addi	a3,sp,328
 bbc:	0000                	unimp
 bbe:	02d4                	addi	a3,sp,324
 bc0:	0000                	unimp
 bc2:	0001                	nop
 bc4:	0000005b          	0x5b
 bc8:	0000                	unimp
 bca:	0000                	unimp
	...

Disassembly of section .debug_ranges:

00000000 <.debug_ranges>:
   0:	0004                	0x4
   2:	0000                	unimp
   4:	0004                	0x4
   6:	0000                	unimp
   8:	0008                	0x8
   a:	0000                	unimp
   c:	01d8                	addi	a4,sp,196
   e:	0000                	unimp
  10:	01dc                	addi	a5,sp,196
  12:	0000                	unimp
  14:	0424                	addi	s1,sp,520
  16:	0000                	unimp
  18:	0428                	addi	a0,sp,520
  1a:	0000                	unimp
  1c:	0434                	addi	a3,sp,520
	...
  26:	0000                	unimp
  28:	0024                	addi	s1,sp,8
  2a:	0000                	unimp
  2c:	0050                	addi	a2,sp,4
  2e:	0000                	unimp
  30:	00f8                	addi	a4,sp,76
  32:	0000                	unimp
  34:	010c                	addi	a1,sp,128
	...
  3e:	0000                	unimp
  40:	00f0                	addi	a2,sp,76
  42:	0000                	unimp
  44:	00f8                	addi	a4,sp,76
  46:	0000                	unimp
  48:	0300                	addi	s0,sp,384
  4a:	0000                	unimp
  4c:	0424                	addi	s1,sp,520
	...
  56:	0000                	unimp
  58:	0310                	addi	a2,sp,384
  5a:	0000                	unimp
  5c:	0318                	addi	a4,sp,384
  5e:	0000                	unimp
  60:	0328                	addi	a0,sp,392
  62:	0000                	unimp
  64:	03a8                	addi	a0,sp,456
  66:	0000                	unimp
  68:	03ac                	addi	a1,sp,456
  6a:	0000                	unimp
  6c:	03b0                	addi	a2,sp,456
  6e:	0000                	unimp
  70:	03c4                	addi	s1,sp,452
  72:	0000                	unimp
  74:	03c8                	addi	a0,sp,452
	...
  7e:	0000                	unimp
  80:	03a8                	addi	a0,sp,456
  82:	0000                	unimp
  84:	03ac                	addi	a1,sp,456
  86:	0000                	unimp
  88:	03b0                	addi	a2,sp,456
  8a:	0000                	unimp
  8c:	03c4                	addi	s1,sp,452
  8e:	0000                	unimp
  90:	03c8                	addi	a0,sp,452
  92:	0000                	unimp
  94:	03f4                	addi	a3,sp,460
  96:	0000                	unimp
  98:	03fc                	addi	a5,sp,460
  9a:	0000                	unimp
  9c:	0410                	addi	a2,sp,512
  9e:	0000                	unimp
  a0:	0414                	addi	a3,sp,512
  a2:	0000                	unimp
  a4:	0418                	addi	a4,sp,512
	...
  ae:	0000                	unimp
  b0:	0118                	addi	a4,sp,128
  b2:	0000                	unimp
  b4:	0144                	addi	s1,sp,132
  b6:	0000                	unimp
  b8:	01dc                	addi	a5,sp,196
  ba:	0000                	unimp
  bc:	01f0                	addi	a2,sp,204
	...
  c6:	0000                	unimp
  c8:	0204                	addi	s1,sp,256
  ca:	0000                	unimp
  cc:	0208                	addi	a0,sp,256
  ce:	0000                	unimp
  d0:	020c                	addi	a1,sp,256
  d2:	0000                	unimp
  d4:	029c                	addi	a5,sp,320
	...
  de:	0000                	unimp
  e0:	02a0                	addi	s0,sp,328
  e2:	0000                	unimp
  e4:	02d4                	addi	a3,sp,324
  e6:	0000                	unimp
  e8:	02ec                	addi	a1,sp,332
  ea:	0000                	unimp
  ec:	0300                	addi	s0,sp,384
	...
